ARM GAS  C:\Users\adria\AppData\Local\Temp\ccDH3VBb.s 			page 1


   1              		.syntax unified
   2              		.cpu cortex-m3
   3              		.fpu softvfp
   4              		.eabi_attribute 20, 1
   5              		.eabi_attribute 21, 1
   6              		.eabi_attribute 23, 3
   7              		.eabi_attribute 24, 1
   8              		.eabi_attribute 25, 1
   9              		.eabi_attribute 26, 1
  10              		.eabi_attribute 30, 1
  11              		.eabi_attribute 34, 1
  12              		.eabi_attribute 18, 4
  13              		.thumb
  14              		.syntax unified
  15              		.file	"main.c"
  16              		.text
  17              	.Ltext0:
  18              		.cfi_sections	.debug_frame
  19              		.section	.text.sensado,"ax",%progbits
  20              		.align	2
  21              		.global	sensado
  22              		.thumb
  23              		.thumb_func
  24              		.type	sensado, %function
  25              	sensado:
  26              	.LFB64:
  27              		.file 1 "main.c"
   1:main.c        **** #include "project.h"
   2:main.c        **** #include "stdio.h"
   3:main.c        **** #include "math.h"
   4:main.c        **** 
   5:main.c        **** #include "..\PID_anticolision.cydsn\PID.h"
   6:main.c        **** #include "..\AS5048.cydsn\AS5048B.h"
   7:main.c        **** #include "D:\GITHUB\Librerias_PSOC\Libreria_PSOC\LIB_psoc.h"
   8:main.c        **** #include "..\driver_motor.cydsn\DRIVER_MOTOR.h"
   9:main.c        **** 
  10:main.c        **** //Subrutina de la interrupcion para sampling
  11:main.c        **** uint8_t sens_flag = ~BIT0;
  12:main.c        **** CY_ISR(sensado){
  28              		.loc 1 12 0
  29              		.cfi_startproc
  30              		@ args = 0, pretend = 0, frame = 0
  31              		@ frame_needed = 0, uses_anonymous_args = 0
  32 0000 08B5     		push	{r3, lr}
  33              		.cfi_def_cfa_offset 8
  34              		.cfi_offset 3, -8
  35              		.cfi_offset 14, -4
  13:main.c        ****     sensado_ClearPending();
  36              		.loc 1 13 0
  37 0002 FFF7FEFF 		bl	sensado_ClearPending
  38              	.LVL0:
  14:main.c        ****     
  15:main.c        ****     sens_flag = BIT0;
  39              		.loc 1 15 0
  40 0006 0122     		movs	r2, #1
  41 0008 014B     		ldr	r3, .L3
  42 000a 1A70     		strb	r2, [r3]
ARM GAS  C:\Users\adria\AppData\Local\Temp\ccDH3VBb.s 			page 2


  43 000c 08BD     		pop	{r3, pc}
  44              	.L4:
  45 000e 00BF     		.align	2
  46              	.L3:
  47 0010 00000000 		.word	.LANCHOR0
  48              		.cfi_endproc
  49              	.LFE64:
  50              		.size	sensado, .-sensado
  51              		.section	.text.interfaz,"ax",%progbits
  52              		.align	2
  53              		.global	interfaz
  54              		.thumb
  55              		.thumb_func
  56              		.type	interfaz, %function
  57              	interfaz:
  58              	.LFB65:
  16:main.c        **** }
  17:main.c        **** 
  18:main.c        **** //Subrutina para interactuar con Labwiev
  19:main.c        **** uint8_t interfaz_lab = ~BIT0;
  20:main.c        **** CY_ISR(interfaz){
  59              		.loc 1 20 0
  60              		.cfi_startproc
  61              		@ args = 0, pretend = 0, frame = 0
  62              		@ frame_needed = 0, uses_anonymous_args = 0
  63 0000 08B5     		push	{r3, lr}
  64              		.cfi_def_cfa_offset 8
  65              		.cfi_offset 3, -8
  66              		.cfi_offset 14, -4
  21:main.c        ****     interfaz_ClearPending();
  67              		.loc 1 21 0
  68 0002 FFF7FEFF 		bl	interfaz_ClearPending
  69              	.LVL1:
  22:main.c        ****     
  23:main.c        ****     interfaz_lab = BIT0;
  70              		.loc 1 23 0
  71 0006 0122     		movs	r2, #1
  72 0008 014B     		ldr	r3, .L7
  73 000a 5A70     		strb	r2, [r3, #1]
  74 000c 08BD     		pop	{r3, pc}
  75              	.L8:
  76 000e 00BF     		.align	2
  77              	.L7:
  78 0010 00000000 		.word	.LANCHOR0
  79              		.cfi_endproc
  80              	.LFE65:
  81              		.size	interfaz, .-interfaz
  82              		.global	__aeabi_ui2f
  83              		.global	__aeabi_f2uiz
  84              		.global	__aeabi_ui2d
  85              		.global	__aeabi_i2d
  86              		.global	__aeabi_dmul
  87              		.global	__aeabi_f2d
  88              		.global	__aeabi_dadd
  89              		.global	__aeabi_d2f
  90              		.global	__aeabi_i2f
  91              		.global	__aeabi_fadd
ARM GAS  C:\Users\adria\AppData\Local\Temp\ccDH3VBb.s 			page 3


  92              		.global	__aeabi_fsub
  93              		.global	__aeabi_fmul
  94              		.section	.text.main,"ax",%progbits
  95              		.align	2
  96              		.global	main
  97              		.thumb
  98              		.thumb_func
  99              		.type	main, %function
 100              	main:
 101              	.LFB66:
  24:main.c        **** }
  25:main.c        **** 
  26:main.c        **** int main(void)
  27:main.c        **** {
 102              		.loc 1 27 0
 103              		.cfi_startproc
 104              		@ args = 0, pretend = 0, frame = 104
 105              		@ frame_needed = 0, uses_anonymous_args = 0
 106 0000 2DE9F04F 		push	{r4, r5, r6, r7, r8, r9, r10, fp, lr}
 107              		.cfi_def_cfa_offset 36
 108              		.cfi_offset 4, -36
 109              		.cfi_offset 5, -32
 110              		.cfi_offset 6, -28
 111              		.cfi_offset 7, -24
 112              		.cfi_offset 8, -20
 113              		.cfi_offset 9, -16
 114              		.cfi_offset 10, -12
 115              		.cfi_offset 11, -8
 116              		.cfi_offset 14, -4
 117 0004 9DB0     		sub	sp, sp, #116
 118              		.cfi_def_cfa_offset 152
  28:main.c        ****     CyGlobalIntEnable; /* Enable global interrupts. */
 119              		.loc 1 28 0
 120              		.syntax unified
 121              	@ 28 "main.c" 1
 122 0006 62B6     		CPSIE   i
 123              	@ 0 "" 2
  29:main.c        ****     //Perifericos
  30:main.c        ****     MOTOR_Start(); //ACTUADOR
 124              		.loc 1 30 0
 125              		.thumb
 126              		.syntax unified
 127 0008 FFF7FEFF 		bl	MOTOR_Start
 128              	.LVL2:
  31:main.c        ****     Sampling_Start();//Compas de sampling
 129              		.loc 1 31 0
 130 000c FFF7FEFF 		bl	Sampling_Start
 131              	.LVL3:
  32:main.c        ****     UART_Start();//UART PARA COMUNICARCE CON LA INTERFAZ DE LABWIEV
 132              		.loc 1 32 0
 133 0010 FFF7FEFF 		bl	UART_Start
 134              	.LVL4:
  33:main.c        ****     UART_ClearRxBuffer();
 135              		.loc 1 33 0
 136 0014 FFF7FEFF 		bl	UART_ClearRxBuffer
 137              	.LVL5:
  34:main.c        ****     UART_ClearTxBuffer();
ARM GAS  C:\Users\adria\AppData\Local\Temp\ccDH3VBb.s 			page 4


 138              		.loc 1 34 0
 139 0018 FFF7FEFF 		bl	UART_ClearTxBuffer
 140              	.LVL6:
  35:main.c        ****     I2C_Start();//Para comunicacrse con el sensor
 141              		.loc 1 35 0
 142 001c FFF7FEFF 		bl	I2C_Start
 143              	.LVL7:
  36:main.c        ****     struct AS5048B Encoder;//Creamos instancia del sensor
  37:main.c        ****     AS5048B_Cero(&Encoder); //Seteamos el cero mecanico
 144              		.loc 1 37 0
 145 0020 19A8     		add	r0, sp, #100
 146 0022 FFF7FEFF 		bl	AS5048B_Cero
 147              	.LVL8:
  38:main.c        ****     
  39:main.c        ****     //Interrupcciones
  40:main.c        ****     sensado_StartEx(sensado);
 148              		.loc 1 40 0
 149 0026 BA48     		ldr	r0, .L43
 150 0028 FFF7FEFF 		bl	sensado_StartEx
 151              	.LVL9:
  41:main.c        ****     sensado_ClearPending();
 152              		.loc 1 41 0
 153 002c FFF7FEFF 		bl	sensado_ClearPending
 154              	.LVL10:
  42:main.c        ****     
  43:main.c        ****     interfaz_StartEx(interfaz);
 155              		.loc 1 43 0
 156 0030 B848     		ldr	r0, .L43+4
 157 0032 FFF7FEFF 		bl	interfaz_StartEx
 158              	.LVL11:
  44:main.c        ****     interfaz_ClearPending();
 159              		.loc 1 44 0
 160 0036 FFF7FEFF 		bl	interfaz_ClearPending
 161              	.LVL12:
  45:main.c        ****     //Escogemos un periodo de muestreo
  46:main.c        ****     /*
  47:main.c        ****     Con reloj de 10khz y 2^16 de periodo máximo
  48:main.c        ****     el periodo de muestreo va de 200us-6.554s
  49:main.c        ****     
  50:main.c        ****     1bit es 100us
  51:main.c        ****     */
  52:main.c        ****     Sampling_WritePeriod(2);
 162              		.loc 1 52 0
 163 003a 0220     		movs	r0, #2
 164 003c FFF7FEFF 		bl	Sampling_WritePeriod
 165              	.LVL13:
  53:main.c        ****     
  54:main.c        ****     /***
  55:main.c        ****     
  56:main.c        ****     PID PID PID PID PID PID PID PID PID PID PID PID
  57:main.c        ****     Configuración preliminar de conrtol PID
  58:main.c        ****     
  59:main.c        ****     ***/
  60:main.c        ****     PIDController pid_instancia_variables;
  61:main.c        ****     
  62:main.c        ****     //constantes del controlador
  63:main.c        ****     pid_instancia_variables.Kp = 0;
ARM GAS  C:\Users\adria\AppData\Local\Temp\ccDH3VBb.s 			page 5


 166              		.loc 1 63 0
 167 0040 0026     		movs	r6, #0
 168 0042 0B96     		str	r6, [sp, #44]	@ float
  64:main.c        ****     pid_instancia_variables.Ki = 0;
 169              		.loc 1 64 0
 170 0044 0C96     		str	r6, [sp, #48]	@ float
  65:main.c        ****     pid_instancia_variables.Kd = 0;
 171              		.loc 1 65 0
 172 0046 0D96     		str	r6, [sp, #52]	@ float
  66:main.c        ****     
  67:main.c        ****     pid_instancia_variables.tau = 0.25;//filtro pasabaja derivativo
 173              		.loc 1 67 0
 174 0048 4FF07A53 		mov	r3, #1048576000
 175 004c 0E93     		str	r3, [sp, #56]	@ float
  68:main.c        ****     
  69:main.c        ****     pid_instancia_variables.limMin = 0; //Limites del actuador
 176              		.loc 1 69 0
 177 004e 0F96     		str	r6, [sp, #60]	@ float
  70:main.c        ****     pid_instancia_variables.limMax = 150;
 178              		.loc 1 70 0
 179 0050 B14B     		ldr	r3, .L43+8
 180 0052 1093     		str	r3, [sp, #64]	@ float
  71:main.c        ****     
  72:main.c        ****     pid_instancia_variables.limMinInt = 0;//Limites del integrador WIND-UP/
 181              		.loc 1 72 0
 182 0054 1196     		str	r6, [sp, #68]	@ float
  73:main.c        ****     pid_instancia_variables.limMaxInt = 60;
 183              		.loc 1 73 0
 184 0056 B14B     		ldr	r3, .L43+12
 185 0058 1293     		str	r3, [sp, #72]	@ float
  74:main.c        ****     
  75:main.c        ****     pid_instancia_variables.T = 0.000002;//Periodo de muestreo en segundos
 186              		.loc 1 75 0
 187 005a B14B     		ldr	r3, .L43+16
 188 005c 1393     		str	r3, [sp, #76]	@ float
  76:main.c        ****      
  77:main.c        ****     PIDController_Init(&pid_instancia_variables);//Inicializamos constantes y variables
 189              		.loc 1 77 0
 190 005e 0BA8     		add	r0, sp, #44
 191 0060 FFF7FEFF 		bl	PIDController_Init
 192              	.LVL14:
  78:main.c        ****    
  79:main.c        ****     //Auxiliares
  80:main.c        ****     uint8_t out = 0;
  81:main.c        ****     uint16_t ANGULO = 0;
  82:main.c        ****     float setpoint = 0;
  83:main.c        ****    
  84:main.c        ****     //Variables para el parseo de informacion
  85:main.c        ****     char buffer_Tx[16],buffer_Rx[16];
  86:main.c        ****     uint8_t i = 0; //contador para leer el buffer
 193              		.loc 1 86 0
 194 0064 0025     		movs	r5, #0
 195              	.LVL15:
 196              	.L13:
  87:main.c        ****     int x;//contador auxiliar para parsear
  88:main.c        ****     uint8_t enteros;
  89:main.c        ****     /// Parseo con punto decimal como caracter 
ARM GAS  C:\Users\adria\AppData\Local\Temp\ccDH3VBb.s 			page 6


  90:main.c        ****     char *posicion;// Utilizar la función strchr para encontrar la posición del carácter
  91:main.c        ****     int posicionEnCadena;     
  92:main.c        ****     
  93:main.c        ****     for(;;)
  94:main.c        ****     {
  95:main.c        ****         if(sens_flag == BIT0){//RUTINA PRINCIPAR DEL SISTEMA DE CONTROL
 197              		.loc 1 95 0
 198 0066 AF4B     		ldr	r3, .L43+20
 199 0068 1B78     		ldrb	r3, [r3]	@ zero_extendqisi2
 200 006a 012B     		cmp	r3, #1
 201 006c 3BD1     		bne	.L11
  96:main.c        ****             sens_flag = ~BIT0;
 202              		.loc 1 96 0
 203 006e FE22     		movs	r2, #254
 204 0070 AC4B     		ldr	r3, .L43+20
 205 0072 1A70     		strb	r2, [r3]
  97:main.c        ****             
  98:main.c        ****             //Sensamos
  99:main.c        ****             //Leemos sensor
 100:main.c        ****             AS5048B_REGISTROS(&Encoder);
 206              		.loc 1 100 0
 207 0074 19A8     		add	r0, sp, #100
 208 0076 FFF7FEFF 		bl	AS5048B_REGISTROS
 209              	.LVL16:
 101:main.c        ****             ANGULO = (Encoder.registros.angulo_Hi << 6) | (Encoder.registros.angulo_Lo >> 5);
 210              		.loc 1 101 0
 211 007a 9DF86570 		ldrb	r7, [sp, #101]	@ zero_extendqisi2
 212 007e 9DF86400 		ldrb	r0, [sp, #100]	@ zero_extendqisi2
 213 0082 C0F34010 		ubfx	r0, r0, #5, #1
 214              	.LVL17:
 102:main.c        ****             
 103:main.c        ****             //Calculamos el angulo en grados
 104:main.c        ****             ANGULO = 359 - map(ANGULO,0,16384,0,359);
 215              		.loc 1 104 0
 216 0086 40F26714 		movw	r4, #359
 217 008a 0094     		str	r4, [sp]
 218 008c 0023     		movs	r3, #0
 219 008e 4FF48042 		mov	r2, #16384
 220 0092 1946     		mov	r1, r3
 221 0094 40EA8710 		orr	r0, r0, r7, lsl #6
 222              	.LVL18:
 223 0098 FFF7FEFF 		bl	map
 224              	.LVL19:
 225 009c 201A     		subs	r0, r4, r0
 226 009e 84B2     		uxth	r4, r0
 227              	.LVL20:
 105:main.c        ****             
 106:main.c        ****             if(ANGULO >= 358){//uNA JALADA PARA CORREGIR PERO JALA ALVRG
 228              		.loc 1 106 0
 229 00a0 B4F5B37F 		cmp	r4, #358
 230 00a4 00D3     		bcc	.L12
 107:main.c        ****                 ANGULO = 0;
 231              		.loc 1 107 0
 232 00a6 0024     		movs	r4, #0
 233              	.LVL21:
 234              	.L12:
 108:main.c        ****             }
ARM GAS  C:\Users\adria\AppData\Local\Temp\ccDH3VBb.s 			page 7


 109:main.c        ****             
 110:main.c        ****             
 111:main.c        ****             //Para labwiev
 112:main.c        ****             sprintf(buffer_Tx,"S%ds",ANGULO);
 235              		.loc 1 112 0
 236 00a8 2246     		mov	r2, r4
 237 00aa 9F49     		ldr	r1, .L43+24
 238 00ac 07A8     		add	r0, sp, #28
 239 00ae FFF7FEFF 		bl	sprintf
 240              	.LVL22:
 113:main.c        ****             UART_PutString(buffer_Tx);//SENSADO
 241              		.loc 1 113 0
 242 00b2 07A8     		add	r0, sp, #28
 243 00b4 FFF7FEFF 		bl	UART_PutString
 244              	.LVL23:
 114:main.c        ****                 
 115:main.c        ****             //Controlador PID   
 116:main.c        ****             PIDController_Update(&pid_instancia_variables,setpoint,ANGULO); 
 245              		.loc 1 116 0
 246 00b8 2046     		mov	r0, r4
 247 00ba FFF7FEFF 		bl	__aeabi_ui2f
 248              	.LVL24:
 249 00be 0246     		mov	r2, r0
 250 00c0 3146     		mov	r1, r6
 251 00c2 0BA8     		add	r0, sp, #44
 252 00c4 FFF7FEFF 		bl	PIDController_Update
 253              	.LVL25:
 117:main.c        ****             
 118:main.c        ****             //Actualizacion de Actuador
 119:main.c        ****             out = (uint8_t)pid_instancia_variables.out;
 254              		.loc 1 119 0
 255 00c8 1898     		ldr	r0, [sp, #96]	@ float
 256 00ca FFF7FEFF 		bl	__aeabi_f2uiz
 257              	.LVL26:
 258 00ce C4B2     		uxtb	r4, r0
 259              	.LVL27:
 120:main.c        ****             POTENCIA(out);
 260              		.loc 1 120 0
 261 00d0 2046     		mov	r0, r4
 262 00d2 FFF7FEFF 		bl	POTENCIA
 263              	.LVL28:
 121:main.c        ****             
 122:main.c        ****             //Para labwiev
 123:main.c        ****             sprintf(buffer_Tx,"A%da",out);
 264              		.loc 1 123 0
 265 00d6 2246     		mov	r2, r4
 266 00d8 9449     		ldr	r1, .L43+28
 267 00da 07A8     		add	r0, sp, #28
 268 00dc FFF7FEFF 		bl	sprintf
 269              	.LVL29:
 124:main.c        ****             UART_PutString(buffer_Tx);//ACTUADOR
 270              		.loc 1 124 0
 271 00e0 07A8     		add	r0, sp, #28
 272 00e2 FFF7FEFF 		bl	UART_PutString
 273              	.LVL30:
 274              	.L11:
 125:main.c        ****         
ARM GAS  C:\Users\adria\AppData\Local\Temp\ccDH3VBb.s 			page 8


 126:main.c        ****         }
 127:main.c        ****         
 128:main.c        ****         /*
 129:main.c        ****         
 130:main.c        ****             //RUTINA DE ACTUALIZADO DE VARIBLES
 131:main.c        ****         
 132:main.c        ****         */
 133:main.c        ****         if(interfaz_lab == BIT0){
 275              		.loc 1 133 0
 276 00e6 8F4B     		ldr	r3, .L43+20
 277 00e8 5B78     		ldrb	r3, [r3, #1]	@ zero_extendqisi2
 278 00ea 012B     		cmp	r3, #1
 279 00ec BBD1     		bne	.L13
 134:main.c        ****             interfaz_lab = ~BIT0;
 280              		.loc 1 134 0
 281 00ee FE22     		movs	r2, #254
 282 00f0 8C4B     		ldr	r3, .L43+20
 283 00f2 5A70     		strb	r2, [r3, #1]
 135:main.c        ****             
 136:main.c        ****             buffer_Rx[i] =  UART_GetByte();//Agregamos al arreglo el ascci del caracter recibido
 284              		.loc 1 136 0
 285 00f4 FFF7FEFF 		bl	UART_GetByte
 286              	.LVL31:
 287 00f8 1CAB     		add	r3, sp, #112
 288 00fa 2B44     		add	r3, r3, r5
 289 00fc 03F8640C 		strb	r0, [r3, #-100]
 137:main.c        ****             i++;
 290              		.loc 1 137 0
 291 0100 0135     		adds	r5, r5, #1
 292              	.LVL32:
 293 0102 EDB2     		uxtb	r5, r5
 294              	.LVL33:
 138:main.c        ****             
 139:main.c        ****             if(buffer_Rx[i-1] == 'S'){ //REBIZAMOS EL BUFFER SETPOINT
 295              		.loc 1 139 0
 296 0104 2F46     		mov	r7, r5
 297 0106 6B1E     		subs	r3, r5, #1
 298 0108 1CAA     		add	r2, sp, #112
 299 010a 1344     		add	r3, r3, r2
 300 010c 13F8643C 		ldrb	r3, [r3, #-100]	@ zero_extendqisi2
 301 0110 532B     		cmp	r3, #83
 302 0112 39D1     		bne	.L15
 303 0114 27E0     		b	.L41
 304              	.LVL34:
 305              	.L16:
 140:main.c        ****                 setpoint = 0;                    // Limpiar valor de SP
 141:main.c        ****                         
 142:main.c        ****                 //Parseamos
 143:main.c        ****                 x = -2;
 144:main.c        ****                 enteros = 0;
 145:main.c        ****                 while ((i+x)>=0){
 146:main.c        ****                 
 147:main.c        ****                     setpoint += (buffer_Rx[i+x] - 0x30) * pow(10.0,enteros);
 306              		.loc 1 147 0
 307 0116 1CAA     		add	r2, sp, #112
 308 0118 1344     		add	r3, r3, r2
 309 011a 13F864AC 		ldrb	r10, [r3, #-100]	@ zero_extendqisi2
ARM GAS  C:\Users\adria\AppData\Local\Temp\ccDH3VBb.s 			page 9


 310 011e AAF1300A 		sub	r10, r10, #48
 311 0122 2046     		mov	r0, r4
 312 0124 FFF7FEFF 		bl	__aeabi_ui2d
 313              	.LVL35:
 314 0128 0246     		mov	r2, r0
 315 012a 0B46     		mov	r3, r1
 316 012c 0020     		movs	r0, #0
 317 012e 8049     		ldr	r1, .L43+32
 318 0130 FFF7FEFF 		bl	pow
 319              	.LVL36:
 320 0134 8046     		mov	r8, r0
 321 0136 8946     		mov	r9, r1
 322 0138 5046     		mov	r0, r10
 323 013a FFF7FEFF 		bl	__aeabi_i2d
 324              	.LVL37:
 325 013e 4246     		mov	r2, r8
 326 0140 4B46     		mov	r3, r9
 327 0142 FFF7FEFF 		bl	__aeabi_dmul
 328              	.LVL38:
 329 0146 8046     		mov	r8, r0
 330 0148 8946     		mov	r9, r1
 331 014a 3046     		mov	r0, r6
 332 014c FFF7FEFF 		bl	__aeabi_f2d
 333              	.LVL39:
 334 0150 4246     		mov	r2, r8
 335 0152 4B46     		mov	r3, r9
 336 0154 FFF7FEFF 		bl	__aeabi_dadd
 337              	.LVL40:
 338 0158 FFF7FEFF 		bl	__aeabi_d2f
 339              	.LVL41:
 340 015c 0646     		mov	r6, r0
 341              	.LVL42:
 148:main.c        ****                     
 149:main.c        ****                     x--;//Recorremos una posicion del string
 342              		.loc 1 149 0
 343 015e 013D     		subs	r5, r5, #1
 344              	.LVL43:
 150:main.c        ****                     enteros++;
 345              		.loc 1 150 0
 346 0160 0134     		adds	r4, r4, #1
 347              	.LVL44:
 348 0162 E4B2     		uxtb	r4, r4
 349              	.LVL45:
 350 0164 03E0     		b	.L14
 351              	.LVL46:
 352              	.L41:
 353 0166 0024     		movs	r4, #0
 354 0168 6FF00105 		mvn	r5, #1
 355              	.LVL47:
 356 016c 0026     		movs	r6, #0
 357              	.LVL48:
 358              	.L14:
 145:main.c        ****                 
 359              		.loc 1 145 0
 360 016e EB19     		adds	r3, r5, r7
 361 0170 D1D5     		bpl	.L16
 362 0172 0023     		movs	r3, #0
ARM GAS  C:\Users\adria\AppData\Local\Temp\ccDH3VBb.s 			page 10


 363 0174 05E0     		b	.L17
 364              	.LVL49:
 365              	.L18:
 366              	.LBB2:
 151:main.c        ****                 }
 152:main.c        ****                 
 153:main.c        ****                 i=0;  
 154:main.c        ****                 
 155:main.c        ****                 for(int i=0;i<16;i++){//limpiamos buffer
 156:main.c        ****                     buffer_Rx[i] = 0;
 367              		.loc 1 156 0 discriminator 3
 368 0176 1CAA     		add	r2, sp, #112
 369 0178 1A44     		add	r2, r2, r3
 370 017a 0021     		movs	r1, #0
 371 017c 02F8641C 		strb	r1, [r2, #-100]
 155:main.c        ****                     buffer_Rx[i] = 0;
 372              		.loc 1 155 0 discriminator 3
 373 0180 0133     		adds	r3, r3, #1
 374              	.LVL50:
 375              	.L17:
 155:main.c        ****                     buffer_Rx[i] = 0;
 376              		.loc 1 155 0 is_stmt 0 discriminator 1
 377 0182 0F2B     		cmp	r3, #15
 378 0184 F7DD     		ble	.L18
 379              	.LBE2:
 153:main.c        ****                 
 380              		.loc 1 153 0 is_stmt 1
 381 0186 0025     		movs	r5, #0
 382              	.LVL51:
 383              	.L15:
 157:main.c        ****                 }
 158:main.c        ****                 
 159:main.c        ****             }
 160:main.c        ****             
 161:main.c        ****             if(buffer_Rx[i-1] == 'P'){ //REBIZAMOS EL KP
 384              		.loc 1 161 0
 385 0188 A846     		mov	r8, r5
 386 018a 6B1E     		subs	r3, r5, #1
 387 018c 1CAA     		add	r2, sp, #112
 388 018e 1344     		add	r3, r3, r2
 389 0190 13F8643C 		ldrb	r3, [r3, #-100]	@ zero_extendqisi2
 390 0194 502B     		cmp	r3, #80
 391 0196 5DD1     		bne	.L19
 162:main.c        ****                 pid_instancia_variables.Kp = 0;                    // Limpiar valor de SP
 392              		.loc 1 162 0
 393 0198 0023     		movs	r3, #0
 394 019a 0B93     		str	r3, [sp, #44]	@ float
 395              	.LVL52:
 163:main.c        ****                 
 164:main.c        ****                 //Parseamos
 165:main.c        ****                 x = -2;
 166:main.c        ****                 
 167:main.c        ****                 //Encontramos la posicion del punto dentro de la cadena
 168:main.c        ****                 posicion = strchr(buffer_Rx, '.');
 396              		.loc 1 168 0
 397 019c 0DF10C09 		add	r9, sp, #12
 398 01a0 2E21     		movs	r1, #46
ARM GAS  C:\Users\adria\AppData\Local\Temp\ccDH3VBb.s 			page 11


 399 01a2 4846     		mov	r0, r9
 400 01a4 FFF7FEFF 		bl	strchr
 401              	.LVL53:
 169:main.c        ****                 posicionEnCadena = posicion - buffer_Rx;
 402              		.loc 1 169 0
 403 01a8 C9EB0009 		rsb	r9, r9, r0
 404              	.LVL54:
 165:main.c        ****                 
 405              		.loc 1 165 0
 406 01ac 6FF00104 		mvn	r4, #1
 170:main.c        ****                 
 171:main.c        ****                 while (buffer_Rx[i+x] != '.'){//Miestras sea la parte decimal
 407              		.loc 1 171 0
 408 01b0 24E0     		b	.L20
 409              	.LVL55:
 410              	.L21:
 172:main.c        ****                 
 173:main.c        **** 
 174:main.c        ****                     pid_instancia_variables.Kp += (buffer_Rx[i+x] - 0x30) * powf(0.1,(float)i+x-pos
 411              		.loc 1 174 0
 412 01b2 A0F13007 		sub	r7, r0, #48
 413 01b6 2846     		mov	r0, r5
 414 01b8 FFF7FEFF 		bl	__aeabi_ui2f
 415              	.LVL56:
 416 01bc 8246     		mov	r10, r0
 417 01be 2046     		mov	r0, r4
 418 01c0 FFF7FEFF 		bl	__aeabi_i2f
 419              	.LVL57:
 420 01c4 5146     		mov	r1, r10
 421 01c6 FFF7FEFF 		bl	__aeabi_fadd
 422              	.LVL58:
 423 01ca 8246     		mov	r10, r0
 424 01cc 4846     		mov	r0, r9
 425 01ce FFF7FEFF 		bl	__aeabi_i2f
 426              	.LVL59:
 427 01d2 0146     		mov	r1, r0
 428 01d4 5046     		mov	r0, r10
 429 01d6 FFF7FEFF 		bl	__aeabi_fsub
 430              	.LVL60:
 431 01da 0146     		mov	r1, r0
 432 01dc 5548     		ldr	r0, .L43+36
 433 01de FFF7FEFF 		bl	powf
 434              	.LVL61:
 435 01e2 8246     		mov	r10, r0
 436 01e4 3846     		mov	r0, r7
 437 01e6 FFF7FEFF 		bl	__aeabi_i2f
 438              	.LVL62:
 439 01ea 5146     		mov	r1, r10
 440 01ec FFF7FEFF 		bl	__aeabi_fmul
 441              	.LVL63:
 442 01f0 0146     		mov	r1, r0
 443 01f2 0B98     		ldr	r0, [sp, #44]	@ float
 444 01f4 FFF7FEFF 		bl	__aeabi_fadd
 445              	.LVL64:
 446 01f8 0B90     		str	r0, [sp, #44]	@ float
 175:main.c        ****                     
 176:main.c        ****                     x--;//Recorremos una posicion del string
ARM GAS  C:\Users\adria\AppData\Local\Temp\ccDH3VBb.s 			page 12


 447              		.loc 1 176 0
 448 01fa 013C     		subs	r4, r4, #1
 449              	.LVL65:
 450              	.L20:
 171:main.c        ****                 
 451              		.loc 1 171 0
 452 01fc 04EB0803 		add	r3, r4, r8
 453 0200 1CAA     		add	r2, sp, #112
 454 0202 1344     		add	r3, r3, r2
 455 0204 13F8640C 		ldrb	r0, [r3, #-100]	@ zero_extendqisi2
 456 0208 2E28     		cmp	r0, #46
 457 020a D2D1     		bne	.L21
 458              	.LVL66:
 177:main.c        ****                 }
 178:main.c        ****                 
 179:main.c        ****                 enteros = 0;
 180:main.c        ****                 x--;//Nos saltamos el punto 
 459              		.loc 1 180 0
 460 020c 013C     		subs	r4, r4, #1
 461              	.LVL67:
 181:main.c        ****                 while ((i+x)>=0){//Pate entera
 462              		.loc 1 181 0
 463 020e 13E0     		b	.L22
 464              	.L23:
 182:main.c        ****                 
 183:main.c        ****                     pid_instancia_variables.Kp += (buffer_Rx[i+x] - 0x30) * pow(10.0,enteros);
 465              		.loc 1 183 0
 466 0210 1CAA     		add	r2, sp, #112
 467 0212 1344     		add	r3, r3, r2
 468 0214 13F8640C 		ldrb	r0, [r3, #-100]	@ zero_extendqisi2
 469 0218 3038     		subs	r0, r0, #48
 470 021a FFF7FEFF 		bl	__aeabi_i2d
 471              	.LVL68:
 472 021e 8246     		mov	r10, r0
 473 0220 8B46     		mov	fp, r1
 474 0222 0B98     		ldr	r0, [sp, #44]	@ float
 475 0224 FFF7FEFF 		bl	__aeabi_f2d
 476              	.LVL69:
 477 0228 5246     		mov	r2, r10
 478 022a 5B46     		mov	r3, fp
 479 022c FFF7FEFF 		bl	__aeabi_dadd
 480              	.LVL70:
 481 0230 FFF7FEFF 		bl	__aeabi_d2f
 482              	.LVL71:
 483 0234 0B90     		str	r0, [sp, #44]	@ float
 184:main.c        ****                     
 185:main.c        ****                     x--;//Recorremos una posicion del string
 484              		.loc 1 185 0
 485 0236 013C     		subs	r4, r4, #1
 486              	.LVL72:
 487              	.L22:
 181:main.c        ****                 
 488              		.loc 1 181 0
 489 0238 14EB0803 		adds	r3, r4, r8
 490 023c E8D5     		bpl	.L23
 491 023e 0023     		movs	r3, #0
 492 0240 05E0     		b	.L24
ARM GAS  C:\Users\adria\AppData\Local\Temp\ccDH3VBb.s 			page 13


 493              	.LVL73:
 494              	.L25:
 495              	.LBB3:
 186:main.c        ****                 }
 187:main.c        ****                 
 188:main.c        ****                 i=0;  
 189:main.c        ****                 
 190:main.c        ****                 for(int i=0;i<16;i++){//limpiamos buffer
 191:main.c        ****                     buffer_Rx[i] = 0;
 496              		.loc 1 191 0 discriminator 3
 497 0242 1CAA     		add	r2, sp, #112
 498 0244 1A44     		add	r2, r2, r3
 499 0246 0021     		movs	r1, #0
 500 0248 02F8641C 		strb	r1, [r2, #-100]
 190:main.c        ****                     buffer_Rx[i] = 0;
 501              		.loc 1 190 0 discriminator 3
 502 024c 0133     		adds	r3, r3, #1
 503              	.LVL74:
 504              	.L24:
 190:main.c        ****                     buffer_Rx[i] = 0;
 505              		.loc 1 190 0 is_stmt 0 discriminator 1
 506 024e 0F2B     		cmp	r3, #15
 507 0250 F7DD     		ble	.L25
 508              	.LBE3:
 188:main.c        ****                 
 509              		.loc 1 188 0 is_stmt 1
 510 0252 0025     		movs	r5, #0
 511              	.LVL75:
 512              	.L19:
 192:main.c        ****                 }
 193:main.c        ****             }
 194:main.c        ****             
 195:main.c        ****             if(buffer_Rx[i-1] == 'I'){ //REBIZAMOS EL KI
 513              		.loc 1 195 0
 514 0254 A846     		mov	r8, r5
 515 0256 6B1E     		subs	r3, r5, #1
 516 0258 1CAA     		add	r2, sp, #112
 517 025a 1344     		add	r3, r3, r2
 518 025c 13F8643C 		ldrb	r3, [r3, #-100]	@ zero_extendqisi2
 519 0260 492B     		cmp	r3, #73
 520 0262 72D1     		bne	.L26
 196:main.c        ****                 pid_instancia_variables.Ki = 0;
 521              		.loc 1 196 0
 522 0264 0023     		movs	r3, #0
 523 0266 0C93     		str	r3, [sp, #48]	@ float
 524              	.LVL76:
 197:main.c        ****                 
 198:main.c        ****                 //Parseamos
 199:main.c        ****                 x = -2;
 200:main.c        ****                 
 201:main.c        ****                 //Encontramos la posicion del punto dentro de la cadena
 202:main.c        ****                 posicion = strchr(buffer_Rx, '.');
 525              		.loc 1 202 0
 526 0268 0DF10C09 		add	r9, sp, #12
 527 026c 2E21     		movs	r1, #46
 528 026e 4846     		mov	r0, r9
 529 0270 FFF7FEFF 		bl	strchr
ARM GAS  C:\Users\adria\AppData\Local\Temp\ccDH3VBb.s 			page 14


 530              	.LVL77:
 203:main.c        ****                 posicionEnCadena = posicion - buffer_Rx;
 531              		.loc 1 203 0
 532 0274 C9EB0009 		rsb	r9, r9, r0
 533              	.LVL78:
 199:main.c        ****                 
 534              		.loc 1 199 0
 535 0278 6FF00104 		mvn	r4, #1
 204:main.c        ****                 
 205:main.c        ****                 while (buffer_Rx[i+x] != '.'){//Miestras sea la parte decimal
 536              		.loc 1 205 0
 537 027c 24E0     		b	.L27
 538              	.LVL79:
 539              	.L28:
 206:main.c        ****                 
 207:main.c        **** 
 208:main.c        ****                     pid_instancia_variables.Ki += (buffer_Rx[i+x] - 0x30) * powf(0.1,(float)i+x-pos
 540              		.loc 1 208 0
 541 027e A0F13007 		sub	r7, r0, #48
 542 0282 2846     		mov	r0, r5
 543 0284 FFF7FEFF 		bl	__aeabi_ui2f
 544              	.LVL80:
 545 0288 8246     		mov	r10, r0
 546 028a 2046     		mov	r0, r4
 547 028c FFF7FEFF 		bl	__aeabi_i2f
 548              	.LVL81:
 549 0290 5146     		mov	r1, r10
 550 0292 FFF7FEFF 		bl	__aeabi_fadd
 551              	.LVL82:
 552 0296 8246     		mov	r10, r0
 553 0298 4846     		mov	r0, r9
 554 029a FFF7FEFF 		bl	__aeabi_i2f
 555              	.LVL83:
 556 029e 0146     		mov	r1, r0
 557 02a0 5046     		mov	r0, r10
 558 02a2 FFF7FEFF 		bl	__aeabi_fsub
 559              	.LVL84:
 560 02a6 0146     		mov	r1, r0
 561 02a8 2248     		ldr	r0, .L43+36
 562 02aa FFF7FEFF 		bl	powf
 563              	.LVL85:
 564 02ae 8246     		mov	r10, r0
 565 02b0 3846     		mov	r0, r7
 566 02b2 FFF7FEFF 		bl	__aeabi_i2f
 567              	.LVL86:
 568 02b6 5146     		mov	r1, r10
 569 02b8 FFF7FEFF 		bl	__aeabi_fmul
 570              	.LVL87:
 571 02bc 0146     		mov	r1, r0
 572 02be 0C98     		ldr	r0, [sp, #48]	@ float
 573 02c0 FFF7FEFF 		bl	__aeabi_fadd
 574              	.LVL88:
 575 02c4 0C90     		str	r0, [sp, #48]	@ float
 209:main.c        ****                     
 210:main.c        ****                     x--;//Recorremos una posicion del string
 576              		.loc 1 210 0
 577 02c6 013C     		subs	r4, r4, #1
ARM GAS  C:\Users\adria\AppData\Local\Temp\ccDH3VBb.s 			page 15


 578              	.LVL89:
 579              	.L27:
 205:main.c        ****                 
 580              		.loc 1 205 0
 581 02c8 04EB0803 		add	r3, r4, r8
 582 02cc 1CAA     		add	r2, sp, #112
 583 02ce 1344     		add	r3, r3, r2
 584 02d0 13F8640C 		ldrb	r0, [r3, #-100]	@ zero_extendqisi2
 585 02d4 2E28     		cmp	r0, #46
 586 02d6 D2D1     		bne	.L28
 587              	.LVL90:
 211:main.c        ****                 }
 212:main.c        ****                 
 213:main.c        ****                 enteros = 0;
 214:main.c        ****                 x--;//Nos saltamos el punto 
 588              		.loc 1 214 0
 589 02d8 013C     		subs	r4, r4, #1
 590              	.LVL91:
 215:main.c        ****                 while ((i+x)>=0){//Pate entera
 591              		.loc 1 215 0
 592 02da 13E0     		b	.L29
 593              	.L30:
 216:main.c        ****                 
 217:main.c        ****                     pid_instancia_variables.Ki += (buffer_Rx[i+x] - 0x30) * pow(10.0,enteros);
 594              		.loc 1 217 0
 595 02dc 1CAA     		add	r2, sp, #112
 596 02de 1344     		add	r3, r3, r2
 597 02e0 13F8640C 		ldrb	r0, [r3, #-100]	@ zero_extendqisi2
 598 02e4 3038     		subs	r0, r0, #48
 599 02e6 FFF7FEFF 		bl	__aeabi_i2d
 600              	.LVL92:
 601 02ea 8246     		mov	r10, r0
 602 02ec 8B46     		mov	fp, r1
 603 02ee 0C98     		ldr	r0, [sp, #48]	@ float
 604 02f0 FFF7FEFF 		bl	__aeabi_f2d
 605              	.LVL93:
 606 02f4 5246     		mov	r2, r10
 607 02f6 5B46     		mov	r3, fp
 608 02f8 FFF7FEFF 		bl	__aeabi_dadd
 609              	.LVL94:
 610 02fc FFF7FEFF 		bl	__aeabi_d2f
 611              	.LVL95:
 612 0300 0C90     		str	r0, [sp, #48]	@ float
 218:main.c        ****                     
 219:main.c        ****                     x--;//Recorremos una posicion del string
 613              		.loc 1 219 0
 614 0302 013C     		subs	r4, r4, #1
 615              	.LVL96:
 616              	.L29:
 215:main.c        ****                 
 617              		.loc 1 215 0
 618 0304 14EB0803 		adds	r3, r4, r8
 619 0308 E8D5     		bpl	.L30
 620 030a 0023     		movs	r3, #0
 621 030c 1AE0     		b	.L31
 622              	.L44:
 623 030e 00BF     		.align	2
ARM GAS  C:\Users\adria\AppData\Local\Temp\ccDH3VBb.s 			page 16


 624              	.L43:
 625 0310 00000000 		.word	sensado
 626 0314 00000000 		.word	interfaz
 627 0318 00001643 		.word	1125515264
 628 031c 00007042 		.word	1114636288
 629 0320 BD370636 		.word	906377149
 630 0324 00000000 		.word	.LANCHOR0
 631 0328 00000000 		.word	.LC0
 632 032c 08000000 		.word	.LC1
 633 0330 00002440 		.word	1076101120
 634 0334 CDCCCC3D 		.word	1036831949
 635              	.LVL97:
 636              	.L32:
 637              	.LBB4:
 220:main.c        ****                 }
 221:main.c        ****                 
 222:main.c        ****                 i=0;
 223:main.c        ****                 
 224:main.c        ****                 for(int i=0;i<16;i++){//limpiamos buffer
 225:main.c        ****                     buffer_Rx[i] = 0;
 638              		.loc 1 225 0 discriminator 3
 639 0338 1CAA     		add	r2, sp, #112
 640 033a 1A44     		add	r2, r2, r3
 641 033c 0021     		movs	r1, #0
 642 033e 02F8641C 		strb	r1, [r2, #-100]
 224:main.c        ****                     buffer_Rx[i] = 0;
 643              		.loc 1 224 0 discriminator 3
 644 0342 0133     		adds	r3, r3, #1
 645              	.LVL98:
 646              	.L31:
 224:main.c        ****                     buffer_Rx[i] = 0;
 647              		.loc 1 224 0 is_stmt 0 discriminator 1
 648 0344 0F2B     		cmp	r3, #15
 649 0346 F7DD     		ble	.L32
 650              	.LBE4:
 222:main.c        ****                 
 651              		.loc 1 222 0 is_stmt 1
 652 0348 0025     		movs	r5, #0
 653              	.LVL99:
 654              	.L26:
 226:main.c        ****                 }
 227:main.c        ****             }
 228:main.c        ****             
 229:main.c        ****             if(buffer_Rx[i-1] == 'D'){ //REBIZAMOS EL KD
 655              		.loc 1 229 0
 656 034a A846     		mov	r8, r5
 657 034c 6B1E     		subs	r3, r5, #1
 658 034e 1CAA     		add	r2, sp, #112
 659 0350 1344     		add	r3, r3, r2
 660 0352 13F8643C 		ldrb	r3, [r3, #-100]	@ zero_extendqisi2
 661 0356 442B     		cmp	r3, #68
 662 0358 7FF485AE 		bne	.L13
 230:main.c        ****                 pid_instancia_variables.Kd = 0;
 663              		.loc 1 230 0
 664 035c 0023     		movs	r3, #0
 665 035e 0D93     		str	r3, [sp, #52]	@ float
 666              	.LVL100:
ARM GAS  C:\Users\adria\AppData\Local\Temp\ccDH3VBb.s 			page 17


 231:main.c        ****                 
 232:main.c        ****                 //Parseamos
 233:main.c        ****                 x = -2;
 234:main.c        ****                 
 235:main.c        ****                 //Encontramos la posicion del punto dentro de la cadena
 236:main.c        ****                 posicion = strchr(buffer_Rx, '.');
 667              		.loc 1 236 0
 668 0360 0DF10C09 		add	r9, sp, #12
 669 0364 2E21     		movs	r1, #46
 670 0366 4846     		mov	r0, r9
 671 0368 FFF7FEFF 		bl	strchr
 672              	.LVL101:
 237:main.c        ****                 posicionEnCadena = posicion - buffer_Rx;
 673              		.loc 1 237 0
 674 036c C9EB0009 		rsb	r9, r9, r0
 675              	.LVL102:
 233:main.c        ****                 
 676              		.loc 1 233 0
 677 0370 6FF00104 		mvn	r4, #1
 238:main.c        ****                 
 239:main.c        ****                 while (buffer_Rx[i+x] != '.'){//Miestras sea la parte decimal
 678              		.loc 1 239 0
 679 0374 24E0     		b	.L34
 680              	.LVL103:
 681              	.L35:
 240:main.c        ****                 
 241:main.c        **** 
 242:main.c        ****                     pid_instancia_variables.Kd += (buffer_Rx[i+x] - 0x30) * powf(0.1,(float)i+x-pos
 682              		.loc 1 242 0
 683 0376 A0F13007 		sub	r7, r0, #48
 684 037a 2846     		mov	r0, r5
 685 037c FFF7FEFF 		bl	__aeabi_ui2f
 686              	.LVL104:
 687 0380 8246     		mov	r10, r0
 688 0382 2046     		mov	r0, r4
 689 0384 FFF7FEFF 		bl	__aeabi_i2f
 690              	.LVL105:
 691 0388 5146     		mov	r1, r10
 692 038a FFF7FEFF 		bl	__aeabi_fadd
 693              	.LVL106:
 694 038e 8246     		mov	r10, r0
 695 0390 4846     		mov	r0, r9
 696 0392 FFF7FEFF 		bl	__aeabi_i2f
 697              	.LVL107:
 698 0396 0146     		mov	r1, r0
 699 0398 5046     		mov	r0, r10
 700 039a FFF7FEFF 		bl	__aeabi_fsub
 701              	.LVL108:
 702 039e 0146     		mov	r1, r0
 703 03a0 1E48     		ldr	r0, .L45
 704 03a2 FFF7FEFF 		bl	powf
 705              	.LVL109:
 706 03a6 8246     		mov	r10, r0
 707 03a8 3846     		mov	r0, r7
 708 03aa FFF7FEFF 		bl	__aeabi_i2f
 709              	.LVL110:
 710 03ae 5146     		mov	r1, r10
ARM GAS  C:\Users\adria\AppData\Local\Temp\ccDH3VBb.s 			page 18


 711 03b0 FFF7FEFF 		bl	__aeabi_fmul
 712              	.LVL111:
 713 03b4 0146     		mov	r1, r0
 714 03b6 0D98     		ldr	r0, [sp, #52]	@ float
 715 03b8 FFF7FEFF 		bl	__aeabi_fadd
 716              	.LVL112:
 717 03bc 0D90     		str	r0, [sp, #52]	@ float
 243:main.c        ****                     
 244:main.c        ****                     x--;//Recorremos una posicion del string
 718              		.loc 1 244 0
 719 03be 013C     		subs	r4, r4, #1
 720              	.LVL113:
 721              	.L34:
 239:main.c        ****                 
 722              		.loc 1 239 0
 723 03c0 04EB0803 		add	r3, r4, r8
 724 03c4 1CAA     		add	r2, sp, #112
 725 03c6 1344     		add	r3, r3, r2
 726 03c8 13F8640C 		ldrb	r0, [r3, #-100]	@ zero_extendqisi2
 727 03cc 2E28     		cmp	r0, #46
 728 03ce D2D1     		bne	.L35
 729              	.LVL114:
 245:main.c        ****                 }
 246:main.c        ****                 
 247:main.c        ****                 enteros = 0;
 248:main.c        ****                 x--;//Nos saltamos el punto 
 730              		.loc 1 248 0
 731 03d0 013C     		subs	r4, r4, #1
 732              	.LVL115:
 249:main.c        ****                 while ((i+x)>=0){//Pate entera
 733              		.loc 1 249 0
 734 03d2 13E0     		b	.L36
 735              	.L37:
 250:main.c        ****                 
 251:main.c        ****                     pid_instancia_variables.Kd += (buffer_Rx[i+x] - 0x30) * pow(10.0,enteros);
 736              		.loc 1 251 0
 737 03d4 1CAA     		add	r2, sp, #112
 738 03d6 1344     		add	r3, r3, r2
 739 03d8 13F8640C 		ldrb	r0, [r3, #-100]	@ zero_extendqisi2
 740 03dc 3038     		subs	r0, r0, #48
 741 03de FFF7FEFF 		bl	__aeabi_i2d
 742              	.LVL116:
 743 03e2 8246     		mov	r10, r0
 744 03e4 8B46     		mov	fp, r1
 745 03e6 0D98     		ldr	r0, [sp, #52]	@ float
 746 03e8 FFF7FEFF 		bl	__aeabi_f2d
 747              	.LVL117:
 748 03ec 5246     		mov	r2, r10
 749 03ee 5B46     		mov	r3, fp
 750 03f0 FFF7FEFF 		bl	__aeabi_dadd
 751              	.LVL118:
 752 03f4 FFF7FEFF 		bl	__aeabi_d2f
 753              	.LVL119:
 754 03f8 0D90     		str	r0, [sp, #52]	@ float
 252:main.c        ****                     
 253:main.c        ****                     x--;//Recorremos una posicion del string
 755              		.loc 1 253 0
ARM GAS  C:\Users\adria\AppData\Local\Temp\ccDH3VBb.s 			page 19


 756 03fa 013C     		subs	r4, r4, #1
 757              	.LVL120:
 758              	.L36:
 249:main.c        ****                 
 759              		.loc 1 249 0
 760 03fc 14EB0803 		adds	r3, r4, r8
 761 0400 E8D5     		bpl	.L37
 762 0402 0023     		movs	r3, #0
 763 0404 05E0     		b	.L38
 764              	.LVL121:
 765              	.L39:
 766              	.LBB5:
 254:main.c        ****                 }
 255:main.c        ****                 
 256:main.c        ****                 i=0;
 257:main.c        ****                 
 258:main.c        ****                 for(int i=0;i<16;i++){//limpiamos buffer
 259:main.c        ****                     buffer_Rx[i] = 0;
 767              		.loc 1 259 0 discriminator 3
 768 0406 1CAA     		add	r2, sp, #112
 769 0408 1A44     		add	r2, r2, r3
 770 040a 0021     		movs	r1, #0
 771 040c 02F8641C 		strb	r1, [r2, #-100]
 258:main.c        ****                     buffer_Rx[i] = 0;
 772              		.loc 1 258 0 discriminator 3
 773 0410 0133     		adds	r3, r3, #1
 774              	.LVL122:
 775              	.L38:
 258:main.c        ****                     buffer_Rx[i] = 0;
 776              		.loc 1 258 0 is_stmt 0 discriminator 1
 777 0412 0F2B     		cmp	r3, #15
 778 0414 F7DD     		ble	.L39
 779              	.LBE5:
 256:main.c        ****                 
 780              		.loc 1 256 0 is_stmt 1
 781 0416 0025     		movs	r5, #0
 782              	.LVL123:
 783 0418 25E6     		b	.L13
 784              	.L46:
 785 041a 00BF     		.align	2
 786              	.L45:
 787 041c CDCCCC3D 		.word	1036831949
 788              		.cfi_endproc
 789              	.LFE66:
 790              		.size	main, .-main
 791              		.global	interfaz_lab
 792              		.global	sens_flag
 793              		.data
 794              		.set	.LANCHOR0,. + 0
 795              		.type	sens_flag, %object
 796              		.size	sens_flag, 1
 797              	sens_flag:
 798 0000 FE       		.byte	-2
 799              		.type	interfaz_lab, %object
 800              		.size	interfaz_lab, 1
 801              	interfaz_lab:
 802 0001 FE       		.byte	-2
ARM GAS  C:\Users\adria\AppData\Local\Temp\ccDH3VBb.s 			page 20


 803              		.section	.rodata.str1.4,"aMS",%progbits,1
 804              		.align	2
 805              	.LC0:
 806 0000 53256473 		.ascii	"S%ds\000"
 806      00
 807 0005 000000   		.space	3
 808              	.LC1:
 809 0008 41256461 		.ascii	"A%da\000"
 809      00
 810              		.text
 811              	.Letext0:
 812              		.file 2 "c:\\program files (x86)\\cypress\\psoc creator\\4.4\\psoc creator\\import\\gnu\\arm\\5.4.
 813              		.file 3 "c:\\program files (x86)\\cypress\\psoc creator\\4.4\\psoc creator\\import\\gnu\\arm\\5.4.
 814              		.file 4 "..\\PID_anticolision.cydsn\\PID.h"
 815              		.file 5 "..\\AS5048.cydsn\\AS5048B.h"
 816              		.file 6 "Generated_Source\\PSoC5/core_cm3.h"
 817              		.file 7 "Generated_Source\\PSoC5/sensado.h"
 818              		.file 8 "Generated_Source\\PSoC5/interfaz.h"
 819              		.file 9 "Generated_Source\\PSoC5/MOTOR.h"
 820              		.file 10 "Generated_Source\\PSoC5/Sampling.h"
 821              		.file 11 "Generated_Source\\PSoC5/UART.h"
 822              		.file 12 "Generated_Source\\PSoC5/I2C.h"
 823              		.file 13 "c:\\program files (x86)\\cypress\\psoc creator\\4.4\\psoc creator\\import\\gnu\\arm\\5.4
 824              		.file 14 "..\\driver_motor.cydsn\\DRIVER_MOTOR.h"
 825              		.file 15 "D:\\GITHUB\\Librerias_PSOC\\Libreria_PSOC\\LIB_psoc.h"
 826              		.file 16 "c:\\program files (x86)\\cypress\\psoc creator\\4.4\\psoc creator\\import\\gnu\\arm\\5.4
 827              		.file 17 "c:\\program files (x86)\\cypress\\psoc creator\\4.4\\psoc creator\\import\\gnu\\arm\\5.4