ARM GAS  C:\Users\adria\AppData\Local\Temp\ccQ3AXqi.s 			page 1


   1              		.syntax unified
   2              		.cpu cortex-m3
   3              		.fpu softvfp
   4              		.eabi_attribute 20, 1
   5              		.eabi_attribute 21, 1
   6              		.eabi_attribute 23, 3
   7              		.eabi_attribute 24, 1
   8              		.eabi_attribute 25, 1
   9              		.eabi_attribute 26, 1
  10              		.eabi_attribute 30, 1
  11              		.eabi_attribute 34, 1
  12              		.eabi_attribute 18, 4
  13              		.thumb
  14              		.syntax unified
  15              		.file	"bme680.c"
  16              		.text
  17              	.Ltext0:
  18              		.cfi_sections	.debug_frame
  19              		.section	.text.calc_temperature,"ax",%progbits
  20              		.align	2
  21              		.thumb
  22              		.thumb_func
  23              		.type	calc_temperature, %function
  24              	calc_temperature:
  25              	.LFB77:
  26              		.file 1 "D:\\mcu\\design-mpu\\source\\ejemplos\\BME680\\bme680.c"
   1:D:\mcu\design-mpu\source\ejemplos\BME680\bme680.c **** /**\mainpage
   2:D:\mcu\design-mpu\source\ejemplos\BME680\bme680.c ****  * Copyright (c) 2020 Bosch Sensortec GmbH. All rights reserved.
   3:D:\mcu\design-mpu\source\ejemplos\BME680\bme680.c ****  *
   4:D:\mcu\design-mpu\source\ejemplos\BME680\bme680.c ****  * BSD-3-Clause
   5:D:\mcu\design-mpu\source\ejemplos\BME680\bme680.c ****  *
   6:D:\mcu\design-mpu\source\ejemplos\BME680\bme680.c ****  * Redistribution and use in source and binary forms, with or without
   7:D:\mcu\design-mpu\source\ejemplos\BME680\bme680.c ****  * modification, are permitted provided that the following conditions are met:
   8:D:\mcu\design-mpu\source\ejemplos\BME680\bme680.c ****  *
   9:D:\mcu\design-mpu\source\ejemplos\BME680\bme680.c ****  * 1. Redistributions of source code must retain the above copyright
  10:D:\mcu\design-mpu\source\ejemplos\BME680\bme680.c ****  *    notice, this list of conditions and the following disclaimer.
  11:D:\mcu\design-mpu\source\ejemplos\BME680\bme680.c ****  *
  12:D:\mcu\design-mpu\source\ejemplos\BME680\bme680.c ****  * 2. Redistributions in binary form must reproduce the above copyright
  13:D:\mcu\design-mpu\source\ejemplos\BME680\bme680.c ****  *    notice, this list of conditions and the following disclaimer in the
  14:D:\mcu\design-mpu\source\ejemplos\BME680\bme680.c ****  *    documentation and/or other materials provided with the distribution.
  15:D:\mcu\design-mpu\source\ejemplos\BME680\bme680.c ****  *
  16:D:\mcu\design-mpu\source\ejemplos\BME680\bme680.c ****  * 3. Neither the name of the copyright holder nor the names of its
  17:D:\mcu\design-mpu\source\ejemplos\BME680\bme680.c ****  *    contributors may be used to endorse or promote products derived from
  18:D:\mcu\design-mpu\source\ejemplos\BME680\bme680.c ****  *    this software without specific prior written permission.
  19:D:\mcu\design-mpu\source\ejemplos\BME680\bme680.c ****  *
  20:D:\mcu\design-mpu\source\ejemplos\BME680\bme680.c ****  * THIS SOFTWARE IS PROVIDED BY THE COPYRIGHT HOLDERS AND CONTRIBUTORS
  21:D:\mcu\design-mpu\source\ejemplos\BME680\bme680.c ****  * "AS IS" AND ANY EXPRESS OR IMPLIED WARRANTIES, INCLUDING, BUT NOT
  22:D:\mcu\design-mpu\source\ejemplos\BME680\bme680.c ****  * LIMITED TO, THE IMPLIED WARRANTIES OF MERCHANTABILITY AND FITNESS
  23:D:\mcu\design-mpu\source\ejemplos\BME680\bme680.c ****  * FOR A PARTICULAR PURPOSE ARE DISCLAIMED. IN NO EVENT SHALL THE
  24:D:\mcu\design-mpu\source\ejemplos\BME680\bme680.c ****  * COPYRIGHT HOLDER OR CONTRIBUTORS BE LIABLE FOR ANY DIRECT, INDIRECT,
  25:D:\mcu\design-mpu\source\ejemplos\BME680\bme680.c ****  * INCIDENTAL, SPECIAL, EXEMPLARY, OR CONSEQUENTIAL DAMAGES
  26:D:\mcu\design-mpu\source\ejemplos\BME680\bme680.c ****  * (INCLUDING, BUT NOT LIMITED TO, PROCUREMENT OF SUBSTITUTE GOODS OR
  27:D:\mcu\design-mpu\source\ejemplos\BME680\bme680.c ****  * SERVICES; LOSS OF USE, DATA, OR PROFITS; OR BUSINESS INTERRUPTION)
  28:D:\mcu\design-mpu\source\ejemplos\BME680\bme680.c ****  * HOWEVER CAUSED AND ON ANY THEORY OF LIABILITY, WHETHER IN CONTRACT,
  29:D:\mcu\design-mpu\source\ejemplos\BME680\bme680.c ****  * STRICT LIABILITY, OR TORT (INCLUDING NEGLIGENCE OR OTHERWISE) ARISING
  30:D:\mcu\design-mpu\source\ejemplos\BME680\bme680.c ****  * IN ANY WAY OUT OF THE USE OF THIS SOFTWARE, EVEN IF ADVISED OF THE
  31:D:\mcu\design-mpu\source\ejemplos\BME680\bme680.c ****  * POSSIBILITY OF SUCH DAMAGE.
ARM GAS  C:\Users\adria\AppData\Local\Temp\ccQ3AXqi.s 			page 2


  32:D:\mcu\design-mpu\source\ejemplos\BME680\bme680.c ****  *
  33:D:\mcu\design-mpu\source\ejemplos\BME680\bme680.c ****  * File		bme680.c
  34:D:\mcu\design-mpu\source\ejemplos\BME680\bme680.c ****  * @date	23 Jan 2020
  35:D:\mcu\design-mpu\source\ejemplos\BME680\bme680.c ****  * @version	3.5.10
  36:D:\mcu\design-mpu\source\ejemplos\BME680\bme680.c ****  *
  37:D:\mcu\design-mpu\source\ejemplos\BME680\bme680.c ****  */
  38:D:\mcu\design-mpu\source\ejemplos\BME680\bme680.c **** 
  39:D:\mcu\design-mpu\source\ejemplos\BME680\bme680.c **** /*! @file bme680.c
  40:D:\mcu\design-mpu\source\ejemplos\BME680\bme680.c ****  @brief Sensor driver for BME680 sensor */
  41:D:\mcu\design-mpu\source\ejemplos\BME680\bme680.c **** #include "bme680.h"
  42:D:\mcu\design-mpu\source\ejemplos\BME680\bme680.c **** #include "project.h"
  43:D:\mcu\design-mpu\source\ejemplos\BME680\bme680.c **** 
  44:D:\mcu\design-mpu\source\ejemplos\BME680\bme680.c **** /*!
  45:D:\mcu\design-mpu\source\ejemplos\BME680\bme680.c ****  * @brief This internal API is used to read the calibrated data from the sensor.
  46:D:\mcu\design-mpu\source\ejemplos\BME680\bme680.c ****  *
  47:D:\mcu\design-mpu\source\ejemplos\BME680\bme680.c ****  * This function is used to retrieve the calibration
  48:D:\mcu\design-mpu\source\ejemplos\BME680\bme680.c ****  * data from the image registers of the sensor.
  49:D:\mcu\design-mpu\source\ejemplos\BME680\bme680.c ****  *
  50:D:\mcu\design-mpu\source\ejemplos\BME680\bme680.c ****  * @note Registers 89h  to A1h for calibration data 1 to 24
  51:D:\mcu\design-mpu\source\ejemplos\BME680\bme680.c ****  *        from bit 0 to 7
  52:D:\mcu\design-mpu\source\ejemplos\BME680\bme680.c ****  * @note Registers E1h to F0h for calibration data 25 to 40
  53:D:\mcu\design-mpu\source\ejemplos\BME680\bme680.c ****  *        from bit 0 to 7
  54:D:\mcu\design-mpu\source\ejemplos\BME680\bme680.c ****  * @param[in] dev	:Structure instance of bme680_dev.
  55:D:\mcu\design-mpu\source\ejemplos\BME680\bme680.c ****  *
  56:D:\mcu\design-mpu\source\ejemplos\BME680\bme680.c ****  * @return Result of API execution status.
  57:D:\mcu\design-mpu\source\ejemplos\BME680\bme680.c ****  * @retval zero -> Success / +ve value -> Warning / -ve value -> Error
  58:D:\mcu\design-mpu\source\ejemplos\BME680\bme680.c ****  */
  59:D:\mcu\design-mpu\source\ejemplos\BME680\bme680.c **** static int8_t get_calib_data(struct bme680_dev *dev);
  60:D:\mcu\design-mpu\source\ejemplos\BME680\bme680.c **** 
  61:D:\mcu\design-mpu\source\ejemplos\BME680\bme680.c **** /*!
  62:D:\mcu\design-mpu\source\ejemplos\BME680\bme680.c ****  * @brief This internal API is used to set the gas configuration of the sensor.
  63:D:\mcu\design-mpu\source\ejemplos\BME680\bme680.c ****  *
  64:D:\mcu\design-mpu\source\ejemplos\BME680\bme680.c ****  * @param[in] dev	:Structure instance of bme680_dev.
  65:D:\mcu\design-mpu\source\ejemplos\BME680\bme680.c ****  *
  66:D:\mcu\design-mpu\source\ejemplos\BME680\bme680.c ****  * @return Result of API execution status.
  67:D:\mcu\design-mpu\source\ejemplos\BME680\bme680.c ****  * @retval zero -> Success / +ve value -> Warning / -ve value -> Error
  68:D:\mcu\design-mpu\source\ejemplos\BME680\bme680.c ****  */
  69:D:\mcu\design-mpu\source\ejemplos\BME680\bme680.c **** static int8_t set_gas_config(struct bme680_dev *dev);
  70:D:\mcu\design-mpu\source\ejemplos\BME680\bme680.c **** 
  71:D:\mcu\design-mpu\source\ejemplos\BME680\bme680.c **** /*!
  72:D:\mcu\design-mpu\source\ejemplos\BME680\bme680.c ****  * @brief This internal API is used to get the gas configuration of the sensor.
  73:D:\mcu\design-mpu\source\ejemplos\BME680\bme680.c ****  * @note heatr_temp and heatr_dur values are currently register data
  74:D:\mcu\design-mpu\source\ejemplos\BME680\bme680.c ****  * and not the actual values set
  75:D:\mcu\design-mpu\source\ejemplos\BME680\bme680.c ****  *
  76:D:\mcu\design-mpu\source\ejemplos\BME680\bme680.c ****  * @param[in] dev	:Structure instance of bme680_dev.
  77:D:\mcu\design-mpu\source\ejemplos\BME680\bme680.c ****  *
  78:D:\mcu\design-mpu\source\ejemplos\BME680\bme680.c ****  * @return Result of API execution status.
  79:D:\mcu\design-mpu\source\ejemplos\BME680\bme680.c ****  * @retval zero -> Success / +ve value -> Warning / -ve value -> Error
  80:D:\mcu\design-mpu\source\ejemplos\BME680\bme680.c ****  */
  81:D:\mcu\design-mpu\source\ejemplos\BME680\bme680.c **** static int8_t get_gas_config(struct bme680_dev *dev);
  82:D:\mcu\design-mpu\source\ejemplos\BME680\bme680.c **** 
  83:D:\mcu\design-mpu\source\ejemplos\BME680\bme680.c **** /*!
  84:D:\mcu\design-mpu\source\ejemplos\BME680\bme680.c ****  * @brief This internal API is used to calculate the Heat duration value.
  85:D:\mcu\design-mpu\source\ejemplos\BME680\bme680.c ****  *
  86:D:\mcu\design-mpu\source\ejemplos\BME680\bme680.c ****  * @param[in] dur	:Value of the duration to be shared.
  87:D:\mcu\design-mpu\source\ejemplos\BME680\bme680.c ****  *
  88:D:\mcu\design-mpu\source\ejemplos\BME680\bme680.c ****  * @return uint8_t threshold duration after calculation.
ARM GAS  C:\Users\adria\AppData\Local\Temp\ccQ3AXqi.s 			page 3


  89:D:\mcu\design-mpu\source\ejemplos\BME680\bme680.c ****  */
  90:D:\mcu\design-mpu\source\ejemplos\BME680\bme680.c **** static uint8_t calc_heater_dur(uint16_t dur);
  91:D:\mcu\design-mpu\source\ejemplos\BME680\bme680.c **** 
  92:D:\mcu\design-mpu\source\ejemplos\BME680\bme680.c **** #ifndef BME680_FLOAT_POINT_COMPENSATION
  93:D:\mcu\design-mpu\source\ejemplos\BME680\bme680.c **** 
  94:D:\mcu\design-mpu\source\ejemplos\BME680\bme680.c **** /*!
  95:D:\mcu\design-mpu\source\ejemplos\BME680\bme680.c ****  * @brief This internal API is used to calculate the temperature value.
  96:D:\mcu\design-mpu\source\ejemplos\BME680\bme680.c ****  *
  97:D:\mcu\design-mpu\source\ejemplos\BME680\bme680.c ****  * @param[in] dev	:Structure instance of bme680_dev.
  98:D:\mcu\design-mpu\source\ejemplos\BME680\bme680.c ****  * @param[in] temp_adc	:Contains the temperature ADC value .
  99:D:\mcu\design-mpu\source\ejemplos\BME680\bme680.c ****  *
 100:D:\mcu\design-mpu\source\ejemplos\BME680\bme680.c ****  * @return uint32_t calculated temperature.
 101:D:\mcu\design-mpu\source\ejemplos\BME680\bme680.c ****  */
 102:D:\mcu\design-mpu\source\ejemplos\BME680\bme680.c **** static int16_t calc_temperature(uint32_t temp_adc, struct bme680_dev *dev);
 103:D:\mcu\design-mpu\source\ejemplos\BME680\bme680.c **** 
 104:D:\mcu\design-mpu\source\ejemplos\BME680\bme680.c **** /*!
 105:D:\mcu\design-mpu\source\ejemplos\BME680\bme680.c ****  * @brief This internal API is used to calculate the pressure value.
 106:D:\mcu\design-mpu\source\ejemplos\BME680\bme680.c ****  *
 107:D:\mcu\design-mpu\source\ejemplos\BME680\bme680.c ****  * @param[in] dev	:Structure instance of bme680_dev.
 108:D:\mcu\design-mpu\source\ejemplos\BME680\bme680.c ****  * @param[in] pres_adc	:Contains the pressure ADC value .
 109:D:\mcu\design-mpu\source\ejemplos\BME680\bme680.c ****  *
 110:D:\mcu\design-mpu\source\ejemplos\BME680\bme680.c ****  * @return uint32_t calculated pressure.
 111:D:\mcu\design-mpu\source\ejemplos\BME680\bme680.c ****  */
 112:D:\mcu\design-mpu\source\ejemplos\BME680\bme680.c **** static uint32_t calc_pressure(uint32_t pres_adc, const struct bme680_dev *dev);
 113:D:\mcu\design-mpu\source\ejemplos\BME680\bme680.c **** 
 114:D:\mcu\design-mpu\source\ejemplos\BME680\bme680.c **** /*!
 115:D:\mcu\design-mpu\source\ejemplos\BME680\bme680.c ****  * @brief This internal API is used to calculate the humidity value.
 116:D:\mcu\design-mpu\source\ejemplos\BME680\bme680.c ****  *
 117:D:\mcu\design-mpu\source\ejemplos\BME680\bme680.c ****  * @param[in] dev	:Structure instance of bme680_dev.
 118:D:\mcu\design-mpu\source\ejemplos\BME680\bme680.c ****  * @param[in] hum_adc	:Contains the humidity ADC value.
 119:D:\mcu\design-mpu\source\ejemplos\BME680\bme680.c ****  *
 120:D:\mcu\design-mpu\source\ejemplos\BME680\bme680.c ****  * @return uint32_t calculated humidity.
 121:D:\mcu\design-mpu\source\ejemplos\BME680\bme680.c ****  */
 122:D:\mcu\design-mpu\source\ejemplos\BME680\bme680.c **** static uint32_t calc_humidity(uint16_t hum_adc, const struct bme680_dev *dev);
 123:D:\mcu\design-mpu\source\ejemplos\BME680\bme680.c **** 
 124:D:\mcu\design-mpu\source\ejemplos\BME680\bme680.c **** /*!
 125:D:\mcu\design-mpu\source\ejemplos\BME680\bme680.c ****  * @brief This internal API is used to calculate the Gas Resistance value.
 126:D:\mcu\design-mpu\source\ejemplos\BME680\bme680.c ****  *
 127:D:\mcu\design-mpu\source\ejemplos\BME680\bme680.c ****  * @param[in] dev		:Structure instance of bme680_dev.
 128:D:\mcu\design-mpu\source\ejemplos\BME680\bme680.c ****  * @param[in] gas_res_adc	:Contains the Gas Resistance ADC value.
 129:D:\mcu\design-mpu\source\ejemplos\BME680\bme680.c ****  * @param[in] gas_range		:Contains the range of gas values.
 130:D:\mcu\design-mpu\source\ejemplos\BME680\bme680.c ****  *
 131:D:\mcu\design-mpu\source\ejemplos\BME680\bme680.c ****  * @return uint32_t calculated gas resistance.
 132:D:\mcu\design-mpu\source\ejemplos\BME680\bme680.c ****  */
 133:D:\mcu\design-mpu\source\ejemplos\BME680\bme680.c **** static uint32_t calc_gas_resistance(uint16_t gas_res_adc, uint8_t gas_range, const struct bme680_de
 134:D:\mcu\design-mpu\source\ejemplos\BME680\bme680.c **** 
 135:D:\mcu\design-mpu\source\ejemplos\BME680\bme680.c **** /*!
 136:D:\mcu\design-mpu\source\ejemplos\BME680\bme680.c ****  * @brief This internal API is used to calculate the Heat Resistance value.
 137:D:\mcu\design-mpu\source\ejemplos\BME680\bme680.c ****  *
 138:D:\mcu\design-mpu\source\ejemplos\BME680\bme680.c ****  * @param[in] dev	: Structure instance of bme680_dev
 139:D:\mcu\design-mpu\source\ejemplos\BME680\bme680.c ****  * @param[in] temp	: Contains the target temperature value.
 140:D:\mcu\design-mpu\source\ejemplos\BME680\bme680.c ****  *
 141:D:\mcu\design-mpu\source\ejemplos\BME680\bme680.c ****  * @return uint8_t calculated heater resistance.
 142:D:\mcu\design-mpu\source\ejemplos\BME680\bme680.c ****  */
 143:D:\mcu\design-mpu\source\ejemplos\BME680\bme680.c **** static uint8_t calc_heater_res(uint16_t temp, const struct bme680_dev *dev);
 144:D:\mcu\design-mpu\source\ejemplos\BME680\bme680.c **** 
 145:D:\mcu\design-mpu\source\ejemplos\BME680\bme680.c **** #else
ARM GAS  C:\Users\adria\AppData\Local\Temp\ccQ3AXqi.s 			page 4


 146:D:\mcu\design-mpu\source\ejemplos\BME680\bme680.c **** /*!
 147:D:\mcu\design-mpu\source\ejemplos\BME680\bme680.c ****  * @brief This internal API is used to calculate the
 148:D:\mcu\design-mpu\source\ejemplos\BME680\bme680.c ****  * temperature value value in float format
 149:D:\mcu\design-mpu\source\ejemplos\BME680\bme680.c ****  *
 150:D:\mcu\design-mpu\source\ejemplos\BME680\bme680.c ****  * @param[in] dev	:Structure instance of bme680_dev.
 151:D:\mcu\design-mpu\source\ejemplos\BME680\bme680.c ****  * @param[in] temp_adc	:Contains the temperature ADC value .
 152:D:\mcu\design-mpu\source\ejemplos\BME680\bme680.c ****  *
 153:D:\mcu\design-mpu\source\ejemplos\BME680\bme680.c ****  * @return Calculated temperature in float
 154:D:\mcu\design-mpu\source\ejemplos\BME680\bme680.c ****  */
 155:D:\mcu\design-mpu\source\ejemplos\BME680\bme680.c **** static float calc_temperature(uint32_t temp_adc, struct bme680_dev *dev);
 156:D:\mcu\design-mpu\source\ejemplos\BME680\bme680.c **** 
 157:D:\mcu\design-mpu\source\ejemplos\BME680\bme680.c **** /*!
 158:D:\mcu\design-mpu\source\ejemplos\BME680\bme680.c ****  * @brief This internal API is used to calculate the
 159:D:\mcu\design-mpu\source\ejemplos\BME680\bme680.c ****  * pressure value value in float format
 160:D:\mcu\design-mpu\source\ejemplos\BME680\bme680.c ****  *
 161:D:\mcu\design-mpu\source\ejemplos\BME680\bme680.c ****  * @param[in] dev	:Structure instance of bme680_dev.
 162:D:\mcu\design-mpu\source\ejemplos\BME680\bme680.c ****  * @param[in] pres_adc	:Contains the pressure ADC value .
 163:D:\mcu\design-mpu\source\ejemplos\BME680\bme680.c ****  *
 164:D:\mcu\design-mpu\source\ejemplos\BME680\bme680.c ****  * @return Calculated pressure in float.
 165:D:\mcu\design-mpu\source\ejemplos\BME680\bme680.c ****  */
 166:D:\mcu\design-mpu\source\ejemplos\BME680\bme680.c **** static float calc_pressure(uint32_t pres_adc, const struct bme680_dev *dev);
 167:D:\mcu\design-mpu\source\ejemplos\BME680\bme680.c **** 
 168:D:\mcu\design-mpu\source\ejemplos\BME680\bme680.c **** /*!
 169:D:\mcu\design-mpu\source\ejemplos\BME680\bme680.c ****  * @brief This internal API is used to calculate the
 170:D:\mcu\design-mpu\source\ejemplos\BME680\bme680.c ****  * humidity value value in float format
 171:D:\mcu\design-mpu\source\ejemplos\BME680\bme680.c ****  *
 172:D:\mcu\design-mpu\source\ejemplos\BME680\bme680.c ****  * @param[in] dev	:Structure instance of bme680_dev.
 173:D:\mcu\design-mpu\source\ejemplos\BME680\bme680.c ****  * @param[in] hum_adc	:Contains the humidity ADC value.
 174:D:\mcu\design-mpu\source\ejemplos\BME680\bme680.c ****  *
 175:D:\mcu\design-mpu\source\ejemplos\BME680\bme680.c ****  * @return Calculated humidity in float.
 176:D:\mcu\design-mpu\source\ejemplos\BME680\bme680.c ****  */
 177:D:\mcu\design-mpu\source\ejemplos\BME680\bme680.c **** static float calc_humidity(uint16_t hum_adc, const struct bme680_dev *dev);
 178:D:\mcu\design-mpu\source\ejemplos\BME680\bme680.c **** 
 179:D:\mcu\design-mpu\source\ejemplos\BME680\bme680.c **** /*!
 180:D:\mcu\design-mpu\source\ejemplos\BME680\bme680.c ****  * @brief This internal API is used to calculate the
 181:D:\mcu\design-mpu\source\ejemplos\BME680\bme680.c ****  * gas resistance value value in float format
 182:D:\mcu\design-mpu\source\ejemplos\BME680\bme680.c ****  *
 183:D:\mcu\design-mpu\source\ejemplos\BME680\bme680.c ****  * @param[in] dev		:Structure instance of bme680_dev.
 184:D:\mcu\design-mpu\source\ejemplos\BME680\bme680.c ****  * @param[in] gas_res_adc	:Contains the Gas Resistance ADC value.
 185:D:\mcu\design-mpu\source\ejemplos\BME680\bme680.c ****  * @param[in] gas_range		:Contains the range of gas values.
 186:D:\mcu\design-mpu\source\ejemplos\BME680\bme680.c ****  *
 187:D:\mcu\design-mpu\source\ejemplos\BME680\bme680.c ****  * @return Calculated gas resistance in float.
 188:D:\mcu\design-mpu\source\ejemplos\BME680\bme680.c ****  */
 189:D:\mcu\design-mpu\source\ejemplos\BME680\bme680.c **** static float calc_gas_resistance(uint16_t gas_res_adc, uint8_t gas_range, const struct bme680_dev *
 190:D:\mcu\design-mpu\source\ejemplos\BME680\bme680.c **** 
 191:D:\mcu\design-mpu\source\ejemplos\BME680\bme680.c **** /*!
 192:D:\mcu\design-mpu\source\ejemplos\BME680\bme680.c ****  * @brief This internal API is used to calculate the
 193:D:\mcu\design-mpu\source\ejemplos\BME680\bme680.c ****  * heater resistance value in float format
 194:D:\mcu\design-mpu\source\ejemplos\BME680\bme680.c ****  *
 195:D:\mcu\design-mpu\source\ejemplos\BME680\bme680.c ****  * @param[in] temp	: Contains the target temperature value.
 196:D:\mcu\design-mpu\source\ejemplos\BME680\bme680.c ****  * @param[in] dev	: Structure instance of bme680_dev.
 197:D:\mcu\design-mpu\source\ejemplos\BME680\bme680.c ****  *
 198:D:\mcu\design-mpu\source\ejemplos\BME680\bme680.c ****  * @return Calculated heater resistance in float.
 199:D:\mcu\design-mpu\source\ejemplos\BME680\bme680.c ****  */
 200:D:\mcu\design-mpu\source\ejemplos\BME680\bme680.c **** static float calc_heater_res(uint16_t temp, const struct bme680_dev *dev);
 201:D:\mcu\design-mpu\source\ejemplos\BME680\bme680.c **** 
 202:D:\mcu\design-mpu\source\ejemplos\BME680\bme680.c **** #endif
ARM GAS  C:\Users\adria\AppData\Local\Temp\ccQ3AXqi.s 			page 5


 203:D:\mcu\design-mpu\source\ejemplos\BME680\bme680.c **** 
 204:D:\mcu\design-mpu\source\ejemplos\BME680\bme680.c **** /*!
 205:D:\mcu\design-mpu\source\ejemplos\BME680\bme680.c ****  * @brief This internal API is used to calculate the field data of sensor.
 206:D:\mcu\design-mpu\source\ejemplos\BME680\bme680.c ****  *
 207:D:\mcu\design-mpu\source\ejemplos\BME680\bme680.c ****  * @param[out] data :Structure instance to hold the data
 208:D:\mcu\design-mpu\source\ejemplos\BME680\bme680.c ****  * @param[in] dev	:Structure instance of bme680_dev.
 209:D:\mcu\design-mpu\source\ejemplos\BME680\bme680.c ****  *
 210:D:\mcu\design-mpu\source\ejemplos\BME680\bme680.c ****  *  @return int8_t result of the field data from sensor.
 211:D:\mcu\design-mpu\source\ejemplos\BME680\bme680.c ****  */
 212:D:\mcu\design-mpu\source\ejemplos\BME680\bme680.c **** static int8_t read_field_data(struct bme680_field_data *data, struct bme680_dev *dev);
 213:D:\mcu\design-mpu\source\ejemplos\BME680\bme680.c **** 
 214:D:\mcu\design-mpu\source\ejemplos\BME680\bme680.c **** /*!
 215:D:\mcu\design-mpu\source\ejemplos\BME680\bme680.c ****  * @brief This internal API is used to set the memory page
 216:D:\mcu\design-mpu\source\ejemplos\BME680\bme680.c ****  * based on register address.
 217:D:\mcu\design-mpu\source\ejemplos\BME680\bme680.c ****  *
 218:D:\mcu\design-mpu\source\ejemplos\BME680\bme680.c ****  * The value of memory page
 219:D:\mcu\design-mpu\source\ejemplos\BME680\bme680.c ****  *  value  | Description
 220:D:\mcu\design-mpu\source\ejemplos\BME680\bme680.c ****  * --------|--------------
 221:D:\mcu\design-mpu\source\ejemplos\BME680\bme680.c ****  *   0     | BME680_PAGE0_SPI
 222:D:\mcu\design-mpu\source\ejemplos\BME680\bme680.c ****  *   1     | BME680_PAGE1_SPI
 223:D:\mcu\design-mpu\source\ejemplos\BME680\bme680.c ****  *
 224:D:\mcu\design-mpu\source\ejemplos\BME680\bme680.c ****  * @param[in] dev	:Structure instance of bme680_dev.
 225:D:\mcu\design-mpu\source\ejemplos\BME680\bme680.c ****  * @param[in] reg_addr	:Contains the register address array.
 226:D:\mcu\design-mpu\source\ejemplos\BME680\bme680.c ****  *
 227:D:\mcu\design-mpu\source\ejemplos\BME680\bme680.c ****  * @return Result of API execution status
 228:D:\mcu\design-mpu\source\ejemplos\BME680\bme680.c ****  * @retval zero -> Success / +ve value -> Warning / -ve value -> Error
 229:D:\mcu\design-mpu\source\ejemplos\BME680\bme680.c ****  */
 230:D:\mcu\design-mpu\source\ejemplos\BME680\bme680.c **** static int8_t set_mem_page(uint8_t reg_addr, struct bme680_dev *dev);
 231:D:\mcu\design-mpu\source\ejemplos\BME680\bme680.c **** 
 232:D:\mcu\design-mpu\source\ejemplos\BME680\bme680.c **** /*!
 233:D:\mcu\design-mpu\source\ejemplos\BME680\bme680.c ****  * @brief This internal API is used to get the memory page based
 234:D:\mcu\design-mpu\source\ejemplos\BME680\bme680.c ****  * on register address.
 235:D:\mcu\design-mpu\source\ejemplos\BME680\bme680.c ****  *
 236:D:\mcu\design-mpu\source\ejemplos\BME680\bme680.c ****  * The value of memory page
 237:D:\mcu\design-mpu\source\ejemplos\BME680\bme680.c ****  *  value  | Description
 238:D:\mcu\design-mpu\source\ejemplos\BME680\bme680.c ****  * --------|--------------
 239:D:\mcu\design-mpu\source\ejemplos\BME680\bme680.c ****  *   0     | BME680_PAGE0_SPI
 240:D:\mcu\design-mpu\source\ejemplos\BME680\bme680.c ****  *   1     | BME680_PAGE1_SPI
 241:D:\mcu\design-mpu\source\ejemplos\BME680\bme680.c ****  *
 242:D:\mcu\design-mpu\source\ejemplos\BME680\bme680.c ****  * @param[in] dev	:Structure instance of bme680_dev.
 243:D:\mcu\design-mpu\source\ejemplos\BME680\bme680.c ****  *
 244:D:\mcu\design-mpu\source\ejemplos\BME680\bme680.c ****  * @return Result of API execution status
 245:D:\mcu\design-mpu\source\ejemplos\BME680\bme680.c ****  * @retval zero -> Success / +ve value -> Warning / -ve value -> Error
 246:D:\mcu\design-mpu\source\ejemplos\BME680\bme680.c ****  */
 247:D:\mcu\design-mpu\source\ejemplos\BME680\bme680.c **** static int8_t get_mem_page(struct bme680_dev *dev);
 248:D:\mcu\design-mpu\source\ejemplos\BME680\bme680.c **** 
 249:D:\mcu\design-mpu\source\ejemplos\BME680\bme680.c **** /*!
 250:D:\mcu\design-mpu\source\ejemplos\BME680\bme680.c ****  * @brief This internal API is used to validate the device pointer for
 251:D:\mcu\design-mpu\source\ejemplos\BME680\bme680.c ****  * null conditions.
 252:D:\mcu\design-mpu\source\ejemplos\BME680\bme680.c ****  *
 253:D:\mcu\design-mpu\source\ejemplos\BME680\bme680.c ****  * @param[in] dev	:Structure instance of bme680_dev.
 254:D:\mcu\design-mpu\source\ejemplos\BME680\bme680.c ****  *
 255:D:\mcu\design-mpu\source\ejemplos\BME680\bme680.c ****  * @return Result of API execution status
 256:D:\mcu\design-mpu\source\ejemplos\BME680\bme680.c ****  * @retval zero -> Success / +ve value -> Warning / -ve value -> Error
 257:D:\mcu\design-mpu\source\ejemplos\BME680\bme680.c ****  */
 258:D:\mcu\design-mpu\source\ejemplos\BME680\bme680.c **** static int8_t null_ptr_check(const struct bme680_dev *dev);
 259:D:\mcu\design-mpu\source\ejemplos\BME680\bme680.c **** 
ARM GAS  C:\Users\adria\AppData\Local\Temp\ccQ3AXqi.s 			page 6


 260:D:\mcu\design-mpu\source\ejemplos\BME680\bme680.c **** /*!
 261:D:\mcu\design-mpu\source\ejemplos\BME680\bme680.c ****  * @brief This internal API is used to check the boundary
 262:D:\mcu\design-mpu\source\ejemplos\BME680\bme680.c ****  * conditions.
 263:D:\mcu\design-mpu\source\ejemplos\BME680\bme680.c ****  *
 264:D:\mcu\design-mpu\source\ejemplos\BME680\bme680.c ****  * @param[in] value	:pointer to the value.
 265:D:\mcu\design-mpu\source\ejemplos\BME680\bme680.c ****  * @param[in] min	:minimum value.
 266:D:\mcu\design-mpu\source\ejemplos\BME680\bme680.c ****  * @param[in] max	:maximum value.
 267:D:\mcu\design-mpu\source\ejemplos\BME680\bme680.c ****  * @param[in] dev	:Structure instance of bme680_dev.
 268:D:\mcu\design-mpu\source\ejemplos\BME680\bme680.c ****  *
 269:D:\mcu\design-mpu\source\ejemplos\BME680\bme680.c ****  * @return Result of API execution status
 270:D:\mcu\design-mpu\source\ejemplos\BME680\bme680.c ****  * @retval zero -> Success / +ve value -> Warning / -ve value -> Error
 271:D:\mcu\design-mpu\source\ejemplos\BME680\bme680.c ****  */
 272:D:\mcu\design-mpu\source\ejemplos\BME680\bme680.c **** static int8_t boundary_check(uint8_t *value, uint8_t min, uint8_t max, struct bme680_dev *dev);
 273:D:\mcu\design-mpu\source\ejemplos\BME680\bme680.c **** 
 274:D:\mcu\design-mpu\source\ejemplos\BME680\bme680.c **** static void user_delay_ms(uint32_t period);
 275:D:\mcu\design-mpu\source\ejemplos\BME680\bme680.c **** static int8_t user_i2c_read(uint8_t dev_id, uint8_t reg_addr, uint8_t *reg_data, uint16_t len);
 276:D:\mcu\design-mpu\source\ejemplos\BME680\bme680.c **** static int8_t user_i2c_write(uint8_t dev_id, uint8_t reg_addr, uint8_t *reg_data, uint16_t len);
 277:D:\mcu\design-mpu\source\ejemplos\BME680\bme680.c **** 
 278:D:\mcu\design-mpu\source\ejemplos\BME680\bme680.c **** /****************** Global Function Definitions *******************************/
 279:D:\mcu\design-mpu\source\ejemplos\BME680\bme680.c **** /*!
 280:D:\mcu\design-mpu\source\ejemplos\BME680\bme680.c ****  *@brief This API is the entry point.
 281:D:\mcu\design-mpu\source\ejemplos\BME680\bme680.c ****  *It reads the chip-id and calibration data from the sensor.
 282:D:\mcu\design-mpu\source\ejemplos\BME680\bme680.c ****  */
 283:D:\mcu\design-mpu\source\ejemplos\BME680\bme680.c **** int8_t bme680_init(struct bme680_dev *dev)
 284:D:\mcu\design-mpu\source\ejemplos\BME680\bme680.c **** {
 285:D:\mcu\design-mpu\source\ejemplos\BME680\bme680.c **** 	int8_t rslt;
 286:D:\mcu\design-mpu\source\ejemplos\BME680\bme680.c **** 
 287:D:\mcu\design-mpu\source\ejemplos\BME680\bme680.c **** 	/* Check for null pointer in the device structure*/
 288:D:\mcu\design-mpu\source\ejemplos\BME680\bme680.c **** 	rslt = null_ptr_check(dev);
 289:D:\mcu\design-mpu\source\ejemplos\BME680\bme680.c **** 	if (rslt == BME680_OK) {
 290:D:\mcu\design-mpu\source\ejemplos\BME680\bme680.c **** 		/* Soft reset to restore it to default values*/
 291:D:\mcu\design-mpu\source\ejemplos\BME680\bme680.c **** 		rslt = bme680_soft_reset(dev);
 292:D:\mcu\design-mpu\source\ejemplos\BME680\bme680.c **** 		if (rslt == BME680_OK) {
 293:D:\mcu\design-mpu\source\ejemplos\BME680\bme680.c **** 			rslt = bme680_get_regs(BME680_CHIP_ID_ADDR, &dev->chip_id, 1, dev);
 294:D:\mcu\design-mpu\source\ejemplos\BME680\bme680.c **** 			if (rslt == BME680_OK) {
 295:D:\mcu\design-mpu\source\ejemplos\BME680\bme680.c **** 				if (dev->chip_id == BME680_CHIP_ID) {
 296:D:\mcu\design-mpu\source\ejemplos\BME680\bme680.c **** 					/* Get the Calibration data */
 297:D:\mcu\design-mpu\source\ejemplos\BME680\bme680.c **** 					rslt = get_calib_data(dev);
 298:D:\mcu\design-mpu\source\ejemplos\BME680\bme680.c **** 				} else {
 299:D:\mcu\design-mpu\source\ejemplos\BME680\bme680.c **** 					rslt = BME680_E_DEV_NOT_FOUND;
 300:D:\mcu\design-mpu\source\ejemplos\BME680\bme680.c **** 				}
 301:D:\mcu\design-mpu\source\ejemplos\BME680\bme680.c **** 			}
 302:D:\mcu\design-mpu\source\ejemplos\BME680\bme680.c **** 		}
 303:D:\mcu\design-mpu\source\ejemplos\BME680\bme680.c **** 	}
 304:D:\mcu\design-mpu\source\ejemplos\BME680\bme680.c **** 
 305:D:\mcu\design-mpu\source\ejemplos\BME680\bme680.c **** 	return rslt;
 306:D:\mcu\design-mpu\source\ejemplos\BME680\bme680.c **** }
 307:D:\mcu\design-mpu\source\ejemplos\BME680\bme680.c **** 
 308:D:\mcu\design-mpu\source\ejemplos\BME680\bme680.c **** /*!
 309:D:\mcu\design-mpu\source\ejemplos\BME680\bme680.c ****  * @brief This API reads the data from the given register address of the sensor.
 310:D:\mcu\design-mpu\source\ejemplos\BME680\bme680.c ****  */
 311:D:\mcu\design-mpu\source\ejemplos\BME680\bme680.c **** int8_t bme680_get_regs(uint8_t reg_addr, uint8_t *reg_data, uint16_t len, struct bme680_dev *dev)
 312:D:\mcu\design-mpu\source\ejemplos\BME680\bme680.c **** {
 313:D:\mcu\design-mpu\source\ejemplos\BME680\bme680.c **** 	int8_t rslt;
 314:D:\mcu\design-mpu\source\ejemplos\BME680\bme680.c **** 
 315:D:\mcu\design-mpu\source\ejemplos\BME680\bme680.c **** 	/* Check for null pointer in the device structure*/
 316:D:\mcu\design-mpu\source\ejemplos\BME680\bme680.c **** 	rslt = null_ptr_check(dev);
ARM GAS  C:\Users\adria\AppData\Local\Temp\ccQ3AXqi.s 			page 7


 317:D:\mcu\design-mpu\source\ejemplos\BME680\bme680.c **** 	if (rslt == BME680_OK) {
 318:D:\mcu\design-mpu\source\ejemplos\BME680\bme680.c **** 		if (dev->intf == BME680_SPI_INTF) {
 319:D:\mcu\design-mpu\source\ejemplos\BME680\bme680.c **** 			/* Set the memory page */
 320:D:\mcu\design-mpu\source\ejemplos\BME680\bme680.c **** 			rslt = set_mem_page(reg_addr, dev);
 321:D:\mcu\design-mpu\source\ejemplos\BME680\bme680.c **** 			if (rslt == BME680_OK)
 322:D:\mcu\design-mpu\source\ejemplos\BME680\bme680.c **** 				reg_addr = reg_addr | BME680_SPI_RD_MSK;
 323:D:\mcu\design-mpu\source\ejemplos\BME680\bme680.c **** 		}
 324:D:\mcu\design-mpu\source\ejemplos\BME680\bme680.c **** 		dev->com_rslt = dev->read(dev->dev_id, reg_addr, reg_data, len);
 325:D:\mcu\design-mpu\source\ejemplos\BME680\bme680.c **** 		if (dev->com_rslt != 0)
 326:D:\mcu\design-mpu\source\ejemplos\BME680\bme680.c **** 			rslt = BME680_E_COM_FAIL;
 327:D:\mcu\design-mpu\source\ejemplos\BME680\bme680.c **** 	}
 328:D:\mcu\design-mpu\source\ejemplos\BME680\bme680.c **** 
 329:D:\mcu\design-mpu\source\ejemplos\BME680\bme680.c **** 	return rslt;
 330:D:\mcu\design-mpu\source\ejemplos\BME680\bme680.c **** }
 331:D:\mcu\design-mpu\source\ejemplos\BME680\bme680.c **** 
 332:D:\mcu\design-mpu\source\ejemplos\BME680\bme680.c **** /*!
 333:D:\mcu\design-mpu\source\ejemplos\BME680\bme680.c ****  * @brief This API writes the given data to the register address
 334:D:\mcu\design-mpu\source\ejemplos\BME680\bme680.c ****  * of the sensor.
 335:D:\mcu\design-mpu\source\ejemplos\BME680\bme680.c ****  */
 336:D:\mcu\design-mpu\source\ejemplos\BME680\bme680.c **** int8_t bme680_set_regs(const uint8_t *reg_addr, const uint8_t *reg_data, uint8_t len, struct bme680
 337:D:\mcu\design-mpu\source\ejemplos\BME680\bme680.c **** {
 338:D:\mcu\design-mpu\source\ejemplos\BME680\bme680.c **** 	int8_t rslt;
 339:D:\mcu\design-mpu\source\ejemplos\BME680\bme680.c **** 	/* Length of the temporary buffer is 2*(length of register)*/
 340:D:\mcu\design-mpu\source\ejemplos\BME680\bme680.c **** 	uint8_t tmp_buff[BME680_TMP_BUFFER_LENGTH] = { 0 };
 341:D:\mcu\design-mpu\source\ejemplos\BME680\bme680.c **** 	uint16_t index;
 342:D:\mcu\design-mpu\source\ejemplos\BME680\bme680.c **** 
 343:D:\mcu\design-mpu\source\ejemplos\BME680\bme680.c **** 	/* Check for null pointer in the device structure*/
 344:D:\mcu\design-mpu\source\ejemplos\BME680\bme680.c **** 	rslt = null_ptr_check(dev);
 345:D:\mcu\design-mpu\source\ejemplos\BME680\bme680.c **** 	if (rslt == BME680_OK) {
 346:D:\mcu\design-mpu\source\ejemplos\BME680\bme680.c **** 		if ((len > 0) && (len < BME680_TMP_BUFFER_LENGTH / 2)) {
 347:D:\mcu\design-mpu\source\ejemplos\BME680\bme680.c **** 			/* Interleave the 2 arrays */
 348:D:\mcu\design-mpu\source\ejemplos\BME680\bme680.c **** 			for (index = 0; index < len; index++) {
 349:D:\mcu\design-mpu\source\ejemplos\BME680\bme680.c **** 				if (dev->intf == BME680_SPI_INTF) {
 350:D:\mcu\design-mpu\source\ejemplos\BME680\bme680.c **** 					/* Set the memory page */
 351:D:\mcu\design-mpu\source\ejemplos\BME680\bme680.c **** 					rslt = set_mem_page(reg_addr[index], dev);
 352:D:\mcu\design-mpu\source\ejemplos\BME680\bme680.c **** 					tmp_buff[(2 * index)] = reg_addr[index] & BME680_SPI_WR_MSK;
 353:D:\mcu\design-mpu\source\ejemplos\BME680\bme680.c **** 				} else {
 354:D:\mcu\design-mpu\source\ejemplos\BME680\bme680.c **** 					tmp_buff[(2 * index)] = reg_addr[index];
 355:D:\mcu\design-mpu\source\ejemplos\BME680\bme680.c **** 				}
 356:D:\mcu\design-mpu\source\ejemplos\BME680\bme680.c **** 				tmp_buff[(2 * index) + 1] = reg_data[index];
 357:D:\mcu\design-mpu\source\ejemplos\BME680\bme680.c **** 			}
 358:D:\mcu\design-mpu\source\ejemplos\BME680\bme680.c **** 			/* Write the interleaved array */
 359:D:\mcu\design-mpu\source\ejemplos\BME680\bme680.c **** 			if (rslt == BME680_OK) {
 360:D:\mcu\design-mpu\source\ejemplos\BME680\bme680.c **** 				dev->com_rslt = dev->write(dev->dev_id, tmp_buff[0], &tmp_buff[1], (2 * len) - 1);
 361:D:\mcu\design-mpu\source\ejemplos\BME680\bme680.c **** 				if (dev->com_rslt != 0)
 362:D:\mcu\design-mpu\source\ejemplos\BME680\bme680.c **** 					rslt = BME680_E_COM_FAIL;
 363:D:\mcu\design-mpu\source\ejemplos\BME680\bme680.c **** 			}
 364:D:\mcu\design-mpu\source\ejemplos\BME680\bme680.c **** 		} else {
 365:D:\mcu\design-mpu\source\ejemplos\BME680\bme680.c **** 			rslt = BME680_E_INVALID_LENGTH;
 366:D:\mcu\design-mpu\source\ejemplos\BME680\bme680.c **** 		}
 367:D:\mcu\design-mpu\source\ejemplos\BME680\bme680.c **** 	}
 368:D:\mcu\design-mpu\source\ejemplos\BME680\bme680.c **** 
 369:D:\mcu\design-mpu\source\ejemplos\BME680\bme680.c **** 	return rslt;
 370:D:\mcu\design-mpu\source\ejemplos\BME680\bme680.c **** }
 371:D:\mcu\design-mpu\source\ejemplos\BME680\bme680.c **** 
 372:D:\mcu\design-mpu\source\ejemplos\BME680\bme680.c **** /*!
 373:D:\mcu\design-mpu\source\ejemplos\BME680\bme680.c ****  * @brief This API performs the soft reset of the sensor.
ARM GAS  C:\Users\adria\AppData\Local\Temp\ccQ3AXqi.s 			page 8


 374:D:\mcu\design-mpu\source\ejemplos\BME680\bme680.c ****  */
 375:D:\mcu\design-mpu\source\ejemplos\BME680\bme680.c **** int8_t bme680_soft_reset(struct bme680_dev *dev)
 376:D:\mcu\design-mpu\source\ejemplos\BME680\bme680.c **** {
 377:D:\mcu\design-mpu\source\ejemplos\BME680\bme680.c **** 	int8_t rslt;
 378:D:\mcu\design-mpu\source\ejemplos\BME680\bme680.c **** 	uint8_t reg_addr = BME680_SOFT_RESET_ADDR;
 379:D:\mcu\design-mpu\source\ejemplos\BME680\bme680.c **** 	/* 0xb6 is the soft reset command */
 380:D:\mcu\design-mpu\source\ejemplos\BME680\bme680.c **** 	uint8_t soft_rst_cmd = BME680_SOFT_RESET_CMD;
 381:D:\mcu\design-mpu\source\ejemplos\BME680\bme680.c **** 
 382:D:\mcu\design-mpu\source\ejemplos\BME680\bme680.c **** 	/* Check for null pointer in the device structure*/
 383:D:\mcu\design-mpu\source\ejemplos\BME680\bme680.c **** 	rslt = null_ptr_check(dev);
 384:D:\mcu\design-mpu\source\ejemplos\BME680\bme680.c **** 	if (rslt == BME680_OK) {
 385:D:\mcu\design-mpu\source\ejemplos\BME680\bme680.c **** 		if (dev->intf == BME680_SPI_INTF)
 386:D:\mcu\design-mpu\source\ejemplos\BME680\bme680.c **** 			rslt = get_mem_page(dev);
 387:D:\mcu\design-mpu\source\ejemplos\BME680\bme680.c **** 
 388:D:\mcu\design-mpu\source\ejemplos\BME680\bme680.c **** 		/* Reset the device */
 389:D:\mcu\design-mpu\source\ejemplos\BME680\bme680.c **** 		if (rslt == BME680_OK) {
 390:D:\mcu\design-mpu\source\ejemplos\BME680\bme680.c **** 			rslt = bme680_set_regs(&reg_addr, &soft_rst_cmd, 1, dev);
 391:D:\mcu\design-mpu\source\ejemplos\BME680\bme680.c **** 			/* Wait for 5ms */
 392:D:\mcu\design-mpu\source\ejemplos\BME680\bme680.c **** 			dev->delay_ms(BME680_RESET_PERIOD);
 393:D:\mcu\design-mpu\source\ejemplos\BME680\bme680.c **** 
 394:D:\mcu\design-mpu\source\ejemplos\BME680\bme680.c **** 			if (rslt == BME680_OK) {
 395:D:\mcu\design-mpu\source\ejemplos\BME680\bme680.c **** 				/* After reset get the memory page */
 396:D:\mcu\design-mpu\source\ejemplos\BME680\bme680.c **** 				if (dev->intf == BME680_SPI_INTF)
 397:D:\mcu\design-mpu\source\ejemplos\BME680\bme680.c **** 					rslt = get_mem_page(dev);
 398:D:\mcu\design-mpu\source\ejemplos\BME680\bme680.c **** 			}
 399:D:\mcu\design-mpu\source\ejemplos\BME680\bme680.c **** 		}
 400:D:\mcu\design-mpu\source\ejemplos\BME680\bme680.c **** 	}
 401:D:\mcu\design-mpu\source\ejemplos\BME680\bme680.c **** 
 402:D:\mcu\design-mpu\source\ejemplos\BME680\bme680.c **** 	return rslt;
 403:D:\mcu\design-mpu\source\ejemplos\BME680\bme680.c **** }
 404:D:\mcu\design-mpu\source\ejemplos\BME680\bme680.c **** 
 405:D:\mcu\design-mpu\source\ejemplos\BME680\bme680.c **** /*!
 406:D:\mcu\design-mpu\source\ejemplos\BME680\bme680.c ****  * @brief This API is used to set the oversampling, filter and T,P,H, gas selection
 407:D:\mcu\design-mpu\source\ejemplos\BME680\bme680.c ****  * settings in the sensor.
 408:D:\mcu\design-mpu\source\ejemplos\BME680\bme680.c ****  */
 409:D:\mcu\design-mpu\source\ejemplos\BME680\bme680.c **** int8_t bme680_set_sensor_settings(uint16_t desired_settings, struct bme680_dev *dev)
 410:D:\mcu\design-mpu\source\ejemplos\BME680\bme680.c **** {
 411:D:\mcu\design-mpu\source\ejemplos\BME680\bme680.c **** 	int8_t rslt;
 412:D:\mcu\design-mpu\source\ejemplos\BME680\bme680.c **** 	uint8_t reg_addr;
 413:D:\mcu\design-mpu\source\ejemplos\BME680\bme680.c **** 	uint8_t data = 0;
 414:D:\mcu\design-mpu\source\ejemplos\BME680\bme680.c **** 	uint8_t count = 0;
 415:D:\mcu\design-mpu\source\ejemplos\BME680\bme680.c **** 	uint8_t reg_array[BME680_REG_BUFFER_LENGTH] = { 0 };
 416:D:\mcu\design-mpu\source\ejemplos\BME680\bme680.c **** 	uint8_t data_array[BME680_REG_BUFFER_LENGTH] = { 0 };
 417:D:\mcu\design-mpu\source\ejemplos\BME680\bme680.c **** 	uint8_t intended_power_mode = dev->power_mode; /* Save intended power mode */
 418:D:\mcu\design-mpu\source\ejemplos\BME680\bme680.c **** 
 419:D:\mcu\design-mpu\source\ejemplos\BME680\bme680.c **** 	/* Check for null pointer in the device structure*/
 420:D:\mcu\design-mpu\source\ejemplos\BME680\bme680.c **** 	rslt = null_ptr_check(dev);
 421:D:\mcu\design-mpu\source\ejemplos\BME680\bme680.c **** 	if (rslt == BME680_OK) {
 422:D:\mcu\design-mpu\source\ejemplos\BME680\bme680.c **** 		if (desired_settings & BME680_GAS_MEAS_SEL)
 423:D:\mcu\design-mpu\source\ejemplos\BME680\bme680.c **** 			rslt = set_gas_config(dev);
 424:D:\mcu\design-mpu\source\ejemplos\BME680\bme680.c **** 
 425:D:\mcu\design-mpu\source\ejemplos\BME680\bme680.c **** 		dev->power_mode = BME680_SLEEP_MODE;
 426:D:\mcu\design-mpu\source\ejemplos\BME680\bme680.c **** 		if (rslt == BME680_OK)
 427:D:\mcu\design-mpu\source\ejemplos\BME680\bme680.c **** 			rslt = bme680_set_sensor_mode(dev);
 428:D:\mcu\design-mpu\source\ejemplos\BME680\bme680.c **** 
 429:D:\mcu\design-mpu\source\ejemplos\BME680\bme680.c **** 		/* Selecting the filter */
 430:D:\mcu\design-mpu\source\ejemplos\BME680\bme680.c **** 		if (desired_settings & BME680_FILTER_SEL) {
ARM GAS  C:\Users\adria\AppData\Local\Temp\ccQ3AXqi.s 			page 9


 431:D:\mcu\design-mpu\source\ejemplos\BME680\bme680.c **** 			rslt = boundary_check(&dev->tph_sett.filter, BME680_FILTER_SIZE_0, BME680_FILTER_SIZE_127, dev);
 432:D:\mcu\design-mpu\source\ejemplos\BME680\bme680.c **** 			reg_addr = BME680_CONF_ODR_FILT_ADDR;
 433:D:\mcu\design-mpu\source\ejemplos\BME680\bme680.c **** 
 434:D:\mcu\design-mpu\source\ejemplos\BME680\bme680.c **** 			if (rslt == BME680_OK)
 435:D:\mcu\design-mpu\source\ejemplos\BME680\bme680.c **** 				rslt = bme680_get_regs(reg_addr, &data, 1, dev);
 436:D:\mcu\design-mpu\source\ejemplos\BME680\bme680.c **** 
 437:D:\mcu\design-mpu\source\ejemplos\BME680\bme680.c **** 			if (desired_settings & BME680_FILTER_SEL)
 438:D:\mcu\design-mpu\source\ejemplos\BME680\bme680.c **** 				data = BME680_SET_BITS(data, BME680_FILTER, dev->tph_sett.filter);
 439:D:\mcu\design-mpu\source\ejemplos\BME680\bme680.c **** 
 440:D:\mcu\design-mpu\source\ejemplos\BME680\bme680.c **** 			reg_array[count] = reg_addr; /* Append configuration */
 441:D:\mcu\design-mpu\source\ejemplos\BME680\bme680.c **** 			data_array[count] = data;
 442:D:\mcu\design-mpu\source\ejemplos\BME680\bme680.c **** 			count++;
 443:D:\mcu\design-mpu\source\ejemplos\BME680\bme680.c **** 		}
 444:D:\mcu\design-mpu\source\ejemplos\BME680\bme680.c **** 
 445:D:\mcu\design-mpu\source\ejemplos\BME680\bme680.c **** 		/* Selecting heater control for the sensor */
 446:D:\mcu\design-mpu\source\ejemplos\BME680\bme680.c **** 		if (desired_settings & BME680_HCNTRL_SEL) {
 447:D:\mcu\design-mpu\source\ejemplos\BME680\bme680.c **** 			rslt = boundary_check(&dev->gas_sett.heatr_ctrl, BME680_ENABLE_HEATER,
 448:D:\mcu\design-mpu\source\ejemplos\BME680\bme680.c **** 				BME680_DISABLE_HEATER, dev);
 449:D:\mcu\design-mpu\source\ejemplos\BME680\bme680.c **** 			reg_addr = BME680_CONF_HEAT_CTRL_ADDR;
 450:D:\mcu\design-mpu\source\ejemplos\BME680\bme680.c **** 
 451:D:\mcu\design-mpu\source\ejemplos\BME680\bme680.c **** 			if (rslt == BME680_OK)
 452:D:\mcu\design-mpu\source\ejemplos\BME680\bme680.c **** 				rslt = bme680_get_regs(reg_addr, &data, 1, dev);
 453:D:\mcu\design-mpu\source\ejemplos\BME680\bme680.c **** 			data = BME680_SET_BITS_POS_0(data, BME680_HCTRL, dev->gas_sett.heatr_ctrl);
 454:D:\mcu\design-mpu\source\ejemplos\BME680\bme680.c **** 
 455:D:\mcu\design-mpu\source\ejemplos\BME680\bme680.c **** 			reg_array[count] = reg_addr; /* Append configuration */
 456:D:\mcu\design-mpu\source\ejemplos\BME680\bme680.c **** 			data_array[count] = data;
 457:D:\mcu\design-mpu\source\ejemplos\BME680\bme680.c **** 			count++;
 458:D:\mcu\design-mpu\source\ejemplos\BME680\bme680.c **** 		}
 459:D:\mcu\design-mpu\source\ejemplos\BME680\bme680.c **** 
 460:D:\mcu\design-mpu\source\ejemplos\BME680\bme680.c **** 		/* Selecting heater T,P oversampling for the sensor */
 461:D:\mcu\design-mpu\source\ejemplos\BME680\bme680.c **** 		if (desired_settings & (BME680_OST_SEL | BME680_OSP_SEL)) {
 462:D:\mcu\design-mpu\source\ejemplos\BME680\bme680.c **** 			rslt = boundary_check(&dev->tph_sett.os_temp, BME680_OS_NONE, BME680_OS_16X, dev);
 463:D:\mcu\design-mpu\source\ejemplos\BME680\bme680.c **** 			reg_addr = BME680_CONF_T_P_MODE_ADDR;
 464:D:\mcu\design-mpu\source\ejemplos\BME680\bme680.c **** 
 465:D:\mcu\design-mpu\source\ejemplos\BME680\bme680.c **** 			if (rslt == BME680_OK)
 466:D:\mcu\design-mpu\source\ejemplos\BME680\bme680.c **** 				rslt = bme680_get_regs(reg_addr, &data, 1, dev);
 467:D:\mcu\design-mpu\source\ejemplos\BME680\bme680.c **** 
 468:D:\mcu\design-mpu\source\ejemplos\BME680\bme680.c **** 			if (desired_settings & BME680_OST_SEL)
 469:D:\mcu\design-mpu\source\ejemplos\BME680\bme680.c **** 				data = BME680_SET_BITS(data, BME680_OST, dev->tph_sett.os_temp);
 470:D:\mcu\design-mpu\source\ejemplos\BME680\bme680.c **** 
 471:D:\mcu\design-mpu\source\ejemplos\BME680\bme680.c **** 			if (desired_settings & BME680_OSP_SEL)
 472:D:\mcu\design-mpu\source\ejemplos\BME680\bme680.c **** 				data = BME680_SET_BITS(data, BME680_OSP, dev->tph_sett.os_pres);
 473:D:\mcu\design-mpu\source\ejemplos\BME680\bme680.c **** 
 474:D:\mcu\design-mpu\source\ejemplos\BME680\bme680.c **** 			reg_array[count] = reg_addr;
 475:D:\mcu\design-mpu\source\ejemplos\BME680\bme680.c **** 			data_array[count] = data;
 476:D:\mcu\design-mpu\source\ejemplos\BME680\bme680.c **** 			count++;
 477:D:\mcu\design-mpu\source\ejemplos\BME680\bme680.c **** 		}
 478:D:\mcu\design-mpu\source\ejemplos\BME680\bme680.c **** 
 479:D:\mcu\design-mpu\source\ejemplos\BME680\bme680.c **** 		/* Selecting humidity oversampling for the sensor */
 480:D:\mcu\design-mpu\source\ejemplos\BME680\bme680.c **** 		if (desired_settings & BME680_OSH_SEL) {
 481:D:\mcu\design-mpu\source\ejemplos\BME680\bme680.c **** 			rslt = boundary_check(&dev->tph_sett.os_hum, BME680_OS_NONE, BME680_OS_16X, dev);
 482:D:\mcu\design-mpu\source\ejemplos\BME680\bme680.c **** 			reg_addr = BME680_CONF_OS_H_ADDR;
 483:D:\mcu\design-mpu\source\ejemplos\BME680\bme680.c **** 
 484:D:\mcu\design-mpu\source\ejemplos\BME680\bme680.c **** 			if (rslt == BME680_OK)
 485:D:\mcu\design-mpu\source\ejemplos\BME680\bme680.c **** 				rslt = bme680_get_regs(reg_addr, &data, 1, dev);
 486:D:\mcu\design-mpu\source\ejemplos\BME680\bme680.c **** 			data = BME680_SET_BITS_POS_0(data, BME680_OSH, dev->tph_sett.os_hum);
 487:D:\mcu\design-mpu\source\ejemplos\BME680\bme680.c **** 
ARM GAS  C:\Users\adria\AppData\Local\Temp\ccQ3AXqi.s 			page 10


 488:D:\mcu\design-mpu\source\ejemplos\BME680\bme680.c **** 			reg_array[count] = reg_addr; /* Append configuration */
 489:D:\mcu\design-mpu\source\ejemplos\BME680\bme680.c **** 			data_array[count] = data;
 490:D:\mcu\design-mpu\source\ejemplos\BME680\bme680.c **** 			count++;
 491:D:\mcu\design-mpu\source\ejemplos\BME680\bme680.c **** 		}
 492:D:\mcu\design-mpu\source\ejemplos\BME680\bme680.c **** 
 493:D:\mcu\design-mpu\source\ejemplos\BME680\bme680.c **** 		/* Selecting the runGas and NB conversion settings for the sensor */
 494:D:\mcu\design-mpu\source\ejemplos\BME680\bme680.c **** 		if (desired_settings & (BME680_RUN_GAS_SEL | BME680_NBCONV_SEL)) {
 495:D:\mcu\design-mpu\source\ejemplos\BME680\bme680.c **** 			rslt = boundary_check(&dev->gas_sett.run_gas, BME680_RUN_GAS_DISABLE,
 496:D:\mcu\design-mpu\source\ejemplos\BME680\bme680.c **** 				BME680_RUN_GAS_ENABLE, dev);
 497:D:\mcu\design-mpu\source\ejemplos\BME680\bme680.c **** 			if (rslt == BME680_OK) {
 498:D:\mcu\design-mpu\source\ejemplos\BME680\bme680.c **** 				/* Validate boundary conditions */
 499:D:\mcu\design-mpu\source\ejemplos\BME680\bme680.c **** 				rslt = boundary_check(&dev->gas_sett.nb_conv, BME680_NBCONV_MIN,
 500:D:\mcu\design-mpu\source\ejemplos\BME680\bme680.c **** 					BME680_NBCONV_MAX, dev);
 501:D:\mcu\design-mpu\source\ejemplos\BME680\bme680.c **** 			}
 502:D:\mcu\design-mpu\source\ejemplos\BME680\bme680.c **** 
 503:D:\mcu\design-mpu\source\ejemplos\BME680\bme680.c **** 			reg_addr = BME680_CONF_ODR_RUN_GAS_NBC_ADDR;
 504:D:\mcu\design-mpu\source\ejemplos\BME680\bme680.c **** 
 505:D:\mcu\design-mpu\source\ejemplos\BME680\bme680.c **** 			if (rslt == BME680_OK)
 506:D:\mcu\design-mpu\source\ejemplos\BME680\bme680.c **** 				rslt = bme680_get_regs(reg_addr, &data, 1, dev);
 507:D:\mcu\design-mpu\source\ejemplos\BME680\bme680.c **** 
 508:D:\mcu\design-mpu\source\ejemplos\BME680\bme680.c **** 			if (desired_settings & BME680_RUN_GAS_SEL)
 509:D:\mcu\design-mpu\source\ejemplos\BME680\bme680.c **** 				data = BME680_SET_BITS(data, BME680_RUN_GAS, dev->gas_sett.run_gas);
 510:D:\mcu\design-mpu\source\ejemplos\BME680\bme680.c **** 
 511:D:\mcu\design-mpu\source\ejemplos\BME680\bme680.c **** 			if (desired_settings & BME680_NBCONV_SEL)
 512:D:\mcu\design-mpu\source\ejemplos\BME680\bme680.c **** 				data = BME680_SET_BITS_POS_0(data, BME680_NBCONV, dev->gas_sett.nb_conv);
 513:D:\mcu\design-mpu\source\ejemplos\BME680\bme680.c **** 
 514:D:\mcu\design-mpu\source\ejemplos\BME680\bme680.c **** 			reg_array[count] = reg_addr; /* Append configuration */
 515:D:\mcu\design-mpu\source\ejemplos\BME680\bme680.c **** 			data_array[count] = data;
 516:D:\mcu\design-mpu\source\ejemplos\BME680\bme680.c **** 			count++;
 517:D:\mcu\design-mpu\source\ejemplos\BME680\bme680.c **** 		}
 518:D:\mcu\design-mpu\source\ejemplos\BME680\bme680.c **** 
 519:D:\mcu\design-mpu\source\ejemplos\BME680\bme680.c **** 		if (rslt == BME680_OK)
 520:D:\mcu\design-mpu\source\ejemplos\BME680\bme680.c **** 			rslt = bme680_set_regs(reg_array, data_array, count, dev);
 521:D:\mcu\design-mpu\source\ejemplos\BME680\bme680.c **** 
 522:D:\mcu\design-mpu\source\ejemplos\BME680\bme680.c **** 		/* Restore previous intended power mode */
 523:D:\mcu\design-mpu\source\ejemplos\BME680\bme680.c **** 		dev->power_mode = intended_power_mode;
 524:D:\mcu\design-mpu\source\ejemplos\BME680\bme680.c **** 	}
 525:D:\mcu\design-mpu\source\ejemplos\BME680\bme680.c **** 
 526:D:\mcu\design-mpu\source\ejemplos\BME680\bme680.c **** 	return rslt;
 527:D:\mcu\design-mpu\source\ejemplos\BME680\bme680.c **** }
 528:D:\mcu\design-mpu\source\ejemplos\BME680\bme680.c **** 
 529:D:\mcu\design-mpu\source\ejemplos\BME680\bme680.c **** /*!
 530:D:\mcu\design-mpu\source\ejemplos\BME680\bme680.c ****  * @brief This API is used to get the oversampling, filter and T,P,H, gas selection
 531:D:\mcu\design-mpu\source\ejemplos\BME680\bme680.c ****  * settings in the sensor.
 532:D:\mcu\design-mpu\source\ejemplos\BME680\bme680.c ****  */
 533:D:\mcu\design-mpu\source\ejemplos\BME680\bme680.c **** int8_t bme680_get_sensor_settings(uint16_t desired_settings, struct bme680_dev *dev)
 534:D:\mcu\design-mpu\source\ejemplos\BME680\bme680.c **** {
 535:D:\mcu\design-mpu\source\ejemplos\BME680\bme680.c **** 	int8_t rslt;
 536:D:\mcu\design-mpu\source\ejemplos\BME680\bme680.c **** 	/* starting address of the register array for burst read*/
 537:D:\mcu\design-mpu\source\ejemplos\BME680\bme680.c **** 	uint8_t reg_addr = BME680_CONF_HEAT_CTRL_ADDR;
 538:D:\mcu\design-mpu\source\ejemplos\BME680\bme680.c **** 	uint8_t data_array[BME680_REG_BUFFER_LENGTH] = { 0 };
 539:D:\mcu\design-mpu\source\ejemplos\BME680\bme680.c **** 
 540:D:\mcu\design-mpu\source\ejemplos\BME680\bme680.c **** 	/* Check for null pointer in the device structure*/
 541:D:\mcu\design-mpu\source\ejemplos\BME680\bme680.c **** 	rslt = null_ptr_check(dev);
 542:D:\mcu\design-mpu\source\ejemplos\BME680\bme680.c **** 	if (rslt == BME680_OK) {
 543:D:\mcu\design-mpu\source\ejemplos\BME680\bme680.c **** 		rslt = bme680_get_regs(reg_addr, data_array, BME680_REG_BUFFER_LENGTH, dev);
 544:D:\mcu\design-mpu\source\ejemplos\BME680\bme680.c **** 
ARM GAS  C:\Users\adria\AppData\Local\Temp\ccQ3AXqi.s 			page 11


 545:D:\mcu\design-mpu\source\ejemplos\BME680\bme680.c **** 		if (rslt == BME680_OK) {
 546:D:\mcu\design-mpu\source\ejemplos\BME680\bme680.c **** 			if (desired_settings & BME680_GAS_MEAS_SEL)
 547:D:\mcu\design-mpu\source\ejemplos\BME680\bme680.c **** 				rslt = get_gas_config(dev);
 548:D:\mcu\design-mpu\source\ejemplos\BME680\bme680.c **** 
 549:D:\mcu\design-mpu\source\ejemplos\BME680\bme680.c **** 			/* get the T,P,H ,Filter,ODR settings here */
 550:D:\mcu\design-mpu\source\ejemplos\BME680\bme680.c **** 			if (desired_settings & BME680_FILTER_SEL)
 551:D:\mcu\design-mpu\source\ejemplos\BME680\bme680.c **** 				dev->tph_sett.filter = BME680_GET_BITS(data_array[BME680_REG_FILTER_INDEX],
 552:D:\mcu\design-mpu\source\ejemplos\BME680\bme680.c **** 					BME680_FILTER);
 553:D:\mcu\design-mpu\source\ejemplos\BME680\bme680.c **** 
 554:D:\mcu\design-mpu\source\ejemplos\BME680\bme680.c **** 			if (desired_settings & (BME680_OST_SEL | BME680_OSP_SEL)) {
 555:D:\mcu\design-mpu\source\ejemplos\BME680\bme680.c **** 				dev->tph_sett.os_temp = BME680_GET_BITS(data_array[BME680_REG_TEMP_INDEX], BME680_OST);
 556:D:\mcu\design-mpu\source\ejemplos\BME680\bme680.c **** 				dev->tph_sett.os_pres = BME680_GET_BITS(data_array[BME680_REG_PRES_INDEX], BME680_OSP);
 557:D:\mcu\design-mpu\source\ejemplos\BME680\bme680.c **** 			}
 558:D:\mcu\design-mpu\source\ejemplos\BME680\bme680.c **** 
 559:D:\mcu\design-mpu\source\ejemplos\BME680\bme680.c **** 			if (desired_settings & BME680_OSH_SEL)
 560:D:\mcu\design-mpu\source\ejemplos\BME680\bme680.c **** 				dev->tph_sett.os_hum = BME680_GET_BITS_POS_0(data_array[BME680_REG_HUM_INDEX],
 561:D:\mcu\design-mpu\source\ejemplos\BME680\bme680.c **** 					BME680_OSH);
 562:D:\mcu\design-mpu\source\ejemplos\BME680\bme680.c **** 
 563:D:\mcu\design-mpu\source\ejemplos\BME680\bme680.c **** 			/* get the gas related settings */
 564:D:\mcu\design-mpu\source\ejemplos\BME680\bme680.c **** 			if (desired_settings & BME680_HCNTRL_SEL)
 565:D:\mcu\design-mpu\source\ejemplos\BME680\bme680.c **** 				dev->gas_sett.heatr_ctrl = BME680_GET_BITS_POS_0(data_array[BME680_REG_HCTRL_INDEX],
 566:D:\mcu\design-mpu\source\ejemplos\BME680\bme680.c **** 					BME680_HCTRL);
 567:D:\mcu\design-mpu\source\ejemplos\BME680\bme680.c **** 
 568:D:\mcu\design-mpu\source\ejemplos\BME680\bme680.c **** 			if (desired_settings & (BME680_RUN_GAS_SEL | BME680_NBCONV_SEL)) {
 569:D:\mcu\design-mpu\source\ejemplos\BME680\bme680.c **** 				dev->gas_sett.nb_conv = BME680_GET_BITS_POS_0(data_array[BME680_REG_NBCONV_INDEX],
 570:D:\mcu\design-mpu\source\ejemplos\BME680\bme680.c **** 					BME680_NBCONV);
 571:D:\mcu\design-mpu\source\ejemplos\BME680\bme680.c **** 				dev->gas_sett.run_gas = BME680_GET_BITS(data_array[BME680_REG_RUN_GAS_INDEX],
 572:D:\mcu\design-mpu\source\ejemplos\BME680\bme680.c **** 					BME680_RUN_GAS);
 573:D:\mcu\design-mpu\source\ejemplos\BME680\bme680.c **** 			}
 574:D:\mcu\design-mpu\source\ejemplos\BME680\bme680.c **** 		}
 575:D:\mcu\design-mpu\source\ejemplos\BME680\bme680.c **** 	} else {
 576:D:\mcu\design-mpu\source\ejemplos\BME680\bme680.c **** 		rslt = BME680_E_NULL_PTR;
 577:D:\mcu\design-mpu\source\ejemplos\BME680\bme680.c **** 	}
 578:D:\mcu\design-mpu\source\ejemplos\BME680\bme680.c **** 
 579:D:\mcu\design-mpu\source\ejemplos\BME680\bme680.c **** 	return rslt;
 580:D:\mcu\design-mpu\source\ejemplos\BME680\bme680.c **** }
 581:D:\mcu\design-mpu\source\ejemplos\BME680\bme680.c **** 
 582:D:\mcu\design-mpu\source\ejemplos\BME680\bme680.c **** /*!
 583:D:\mcu\design-mpu\source\ejemplos\BME680\bme680.c ****  * @brief This API is used to set the power mode of the sensor.
 584:D:\mcu\design-mpu\source\ejemplos\BME680\bme680.c ****  */
 585:D:\mcu\design-mpu\source\ejemplos\BME680\bme680.c **** int8_t bme680_set_sensor_mode(struct bme680_dev *dev)
 586:D:\mcu\design-mpu\source\ejemplos\BME680\bme680.c **** {
 587:D:\mcu\design-mpu\source\ejemplos\BME680\bme680.c **** 	int8_t rslt;
 588:D:\mcu\design-mpu\source\ejemplos\BME680\bme680.c **** 	uint8_t tmp_pow_mode;
 589:D:\mcu\design-mpu\source\ejemplos\BME680\bme680.c **** 	uint8_t pow_mode = 0;
 590:D:\mcu\design-mpu\source\ejemplos\BME680\bme680.c **** 	uint8_t reg_addr = BME680_CONF_T_P_MODE_ADDR;
 591:D:\mcu\design-mpu\source\ejemplos\BME680\bme680.c **** 
 592:D:\mcu\design-mpu\source\ejemplos\BME680\bme680.c **** 	/* Check for null pointer in the device structure*/
 593:D:\mcu\design-mpu\source\ejemplos\BME680\bme680.c **** 	rslt = null_ptr_check(dev);
 594:D:\mcu\design-mpu\source\ejemplos\BME680\bme680.c **** 	if (rslt == BME680_OK) {
 595:D:\mcu\design-mpu\source\ejemplos\BME680\bme680.c **** 		/* Call repeatedly until in sleep */
 596:D:\mcu\design-mpu\source\ejemplos\BME680\bme680.c **** 		do {
 597:D:\mcu\design-mpu\source\ejemplos\BME680\bme680.c **** 			rslt = bme680_get_regs(BME680_CONF_T_P_MODE_ADDR, &tmp_pow_mode, 1, dev);
 598:D:\mcu\design-mpu\source\ejemplos\BME680\bme680.c **** 			if (rslt == BME680_OK) {
 599:D:\mcu\design-mpu\source\ejemplos\BME680\bme680.c **** 				/* Put to sleep before changing mode */
 600:D:\mcu\design-mpu\source\ejemplos\BME680\bme680.c **** 				pow_mode = (tmp_pow_mode & BME680_MODE_MSK);
 601:D:\mcu\design-mpu\source\ejemplos\BME680\bme680.c **** 
ARM GAS  C:\Users\adria\AppData\Local\Temp\ccQ3AXqi.s 			page 12


 602:D:\mcu\design-mpu\source\ejemplos\BME680\bme680.c **** 				if (pow_mode != BME680_SLEEP_MODE) {
 603:D:\mcu\design-mpu\source\ejemplos\BME680\bme680.c **** 					tmp_pow_mode = tmp_pow_mode & (~BME680_MODE_MSK); /* Set to sleep */
 604:D:\mcu\design-mpu\source\ejemplos\BME680\bme680.c **** 					rslt = bme680_set_regs(&reg_addr, &tmp_pow_mode, 1, dev);
 605:D:\mcu\design-mpu\source\ejemplos\BME680\bme680.c **** 					dev->delay_ms(BME680_POLL_PERIOD_MS);
 606:D:\mcu\design-mpu\source\ejemplos\BME680\bme680.c **** 				}
 607:D:\mcu\design-mpu\source\ejemplos\BME680\bme680.c **** 			}
 608:D:\mcu\design-mpu\source\ejemplos\BME680\bme680.c **** 		} while (pow_mode != BME680_SLEEP_MODE);
 609:D:\mcu\design-mpu\source\ejemplos\BME680\bme680.c **** 
 610:D:\mcu\design-mpu\source\ejemplos\BME680\bme680.c **** 		/* Already in sleep */
 611:D:\mcu\design-mpu\source\ejemplos\BME680\bme680.c **** 		if (dev->power_mode != BME680_SLEEP_MODE) {
 612:D:\mcu\design-mpu\source\ejemplos\BME680\bme680.c **** 			tmp_pow_mode = (tmp_pow_mode & ~BME680_MODE_MSK) | (dev->power_mode & BME680_MODE_MSK);
 613:D:\mcu\design-mpu\source\ejemplos\BME680\bme680.c **** 			if (rslt == BME680_OK)
 614:D:\mcu\design-mpu\source\ejemplos\BME680\bme680.c **** 				rslt = bme680_set_regs(&reg_addr, &tmp_pow_mode, 1, dev);
 615:D:\mcu\design-mpu\source\ejemplos\BME680\bme680.c **** 		}
 616:D:\mcu\design-mpu\source\ejemplos\BME680\bme680.c **** 	}
 617:D:\mcu\design-mpu\source\ejemplos\BME680\bme680.c **** 
 618:D:\mcu\design-mpu\source\ejemplos\BME680\bme680.c **** 	return rslt;
 619:D:\mcu\design-mpu\source\ejemplos\BME680\bme680.c **** }
 620:D:\mcu\design-mpu\source\ejemplos\BME680\bme680.c **** 
 621:D:\mcu\design-mpu\source\ejemplos\BME680\bme680.c **** /*!
 622:D:\mcu\design-mpu\source\ejemplos\BME680\bme680.c ****  * @brief This API is used to get the power mode of the sensor.
 623:D:\mcu\design-mpu\source\ejemplos\BME680\bme680.c ****  */
 624:D:\mcu\design-mpu\source\ejemplos\BME680\bme680.c **** int8_t bme680_get_sensor_mode(struct bme680_dev *dev)
 625:D:\mcu\design-mpu\source\ejemplos\BME680\bme680.c **** {
 626:D:\mcu\design-mpu\source\ejemplos\BME680\bme680.c **** 	int8_t rslt;
 627:D:\mcu\design-mpu\source\ejemplos\BME680\bme680.c **** 	uint8_t mode;
 628:D:\mcu\design-mpu\source\ejemplos\BME680\bme680.c **** 
 629:D:\mcu\design-mpu\source\ejemplos\BME680\bme680.c **** 	/* Check for null pointer in the device structure*/
 630:D:\mcu\design-mpu\source\ejemplos\BME680\bme680.c **** 	rslt = null_ptr_check(dev);
 631:D:\mcu\design-mpu\source\ejemplos\BME680\bme680.c **** 	if (rslt == BME680_OK) {
 632:D:\mcu\design-mpu\source\ejemplos\BME680\bme680.c **** 		rslt = bme680_get_regs(BME680_CONF_T_P_MODE_ADDR, &mode, 1, dev);
 633:D:\mcu\design-mpu\source\ejemplos\BME680\bme680.c **** 		/* Masking the other register bit info*/
 634:D:\mcu\design-mpu\source\ejemplos\BME680\bme680.c **** 		dev->power_mode = mode & BME680_MODE_MSK;
 635:D:\mcu\design-mpu\source\ejemplos\BME680\bme680.c **** 	}
 636:D:\mcu\design-mpu\source\ejemplos\BME680\bme680.c **** 
 637:D:\mcu\design-mpu\source\ejemplos\BME680\bme680.c **** 	return rslt;
 638:D:\mcu\design-mpu\source\ejemplos\BME680\bme680.c **** }
 639:D:\mcu\design-mpu\source\ejemplos\BME680\bme680.c **** 
 640:D:\mcu\design-mpu\source\ejemplos\BME680\bme680.c **** /*!
 641:D:\mcu\design-mpu\source\ejemplos\BME680\bme680.c ****  * @brief This API is used to set the profile duration of the sensor.
 642:D:\mcu\design-mpu\source\ejemplos\BME680\bme680.c ****  */
 643:D:\mcu\design-mpu\source\ejemplos\BME680\bme680.c **** void bme680_set_profile_dur(uint16_t duration, struct bme680_dev *dev)
 644:D:\mcu\design-mpu\source\ejemplos\BME680\bme680.c **** {
 645:D:\mcu\design-mpu\source\ejemplos\BME680\bme680.c **** 	uint32_t tph_dur; /* Calculate in us */
 646:D:\mcu\design-mpu\source\ejemplos\BME680\bme680.c **** 	uint32_t meas_cycles;
 647:D:\mcu\design-mpu\source\ejemplos\BME680\bme680.c **** 	uint8_t os_to_meas_cycles[6] = {0, 1, 2, 4, 8, 16};
 648:D:\mcu\design-mpu\source\ejemplos\BME680\bme680.c **** 
 649:D:\mcu\design-mpu\source\ejemplos\BME680\bme680.c **** 	meas_cycles = os_to_meas_cycles[dev->tph_sett.os_temp];
 650:D:\mcu\design-mpu\source\ejemplos\BME680\bme680.c **** 	meas_cycles += os_to_meas_cycles[dev->tph_sett.os_pres];
 651:D:\mcu\design-mpu\source\ejemplos\BME680\bme680.c **** 	meas_cycles += os_to_meas_cycles[dev->tph_sett.os_hum];
 652:D:\mcu\design-mpu\source\ejemplos\BME680\bme680.c **** 
 653:D:\mcu\design-mpu\source\ejemplos\BME680\bme680.c **** 	/* TPH measurement duration */
 654:D:\mcu\design-mpu\source\ejemplos\BME680\bme680.c **** 	tph_dur = meas_cycles * UINT32_C(1963);
 655:D:\mcu\design-mpu\source\ejemplos\BME680\bme680.c **** 	tph_dur += UINT32_C(477 * 4); /* TPH switching duration */
 656:D:\mcu\design-mpu\source\ejemplos\BME680\bme680.c **** 	tph_dur += UINT32_C(477 * 5); /* Gas measurement duration */
 657:D:\mcu\design-mpu\source\ejemplos\BME680\bme680.c **** 	tph_dur += UINT32_C(500); /* Get it to the closest whole number.*/
 658:D:\mcu\design-mpu\source\ejemplos\BME680\bme680.c **** 	tph_dur /= UINT32_C(1000); /* Convert to ms */
ARM GAS  C:\Users\adria\AppData\Local\Temp\ccQ3AXqi.s 			page 13


 659:D:\mcu\design-mpu\source\ejemplos\BME680\bme680.c **** 
 660:D:\mcu\design-mpu\source\ejemplos\BME680\bme680.c **** 	tph_dur += UINT32_C(1); /* Wake up duration of 1ms */
 661:D:\mcu\design-mpu\source\ejemplos\BME680\bme680.c **** 	/* The remaining time should be used for heating */
 662:D:\mcu\design-mpu\source\ejemplos\BME680\bme680.c **** 	dev->gas_sett.heatr_dur = duration - (uint16_t) tph_dur;
 663:D:\mcu\design-mpu\source\ejemplos\BME680\bme680.c **** }
 664:D:\mcu\design-mpu\source\ejemplos\BME680\bme680.c **** 
 665:D:\mcu\design-mpu\source\ejemplos\BME680\bme680.c **** /*!
 666:D:\mcu\design-mpu\source\ejemplos\BME680\bme680.c ****  * @brief This API is used to get the profile duration of the sensor.
 667:D:\mcu\design-mpu\source\ejemplos\BME680\bme680.c ****  */
 668:D:\mcu\design-mpu\source\ejemplos\BME680\bme680.c **** void bme680_get_profile_dur(uint16_t *duration, const struct bme680_dev *dev)
 669:D:\mcu\design-mpu\source\ejemplos\BME680\bme680.c **** {
 670:D:\mcu\design-mpu\source\ejemplos\BME680\bme680.c **** 	uint32_t tph_dur; /* Calculate in us */
 671:D:\mcu\design-mpu\source\ejemplos\BME680\bme680.c **** 	uint32_t meas_cycles;
 672:D:\mcu\design-mpu\source\ejemplos\BME680\bme680.c **** 	uint8_t os_to_meas_cycles[6] = {0, 1, 2, 4, 8, 16};
 673:D:\mcu\design-mpu\source\ejemplos\BME680\bme680.c **** 
 674:D:\mcu\design-mpu\source\ejemplos\BME680\bme680.c **** 	meas_cycles = os_to_meas_cycles[dev->tph_sett.os_temp];
 675:D:\mcu\design-mpu\source\ejemplos\BME680\bme680.c **** 	meas_cycles += os_to_meas_cycles[dev->tph_sett.os_pres];
 676:D:\mcu\design-mpu\source\ejemplos\BME680\bme680.c **** 	meas_cycles += os_to_meas_cycles[dev->tph_sett.os_hum];
 677:D:\mcu\design-mpu\source\ejemplos\BME680\bme680.c **** 
 678:D:\mcu\design-mpu\source\ejemplos\BME680\bme680.c **** 	/* TPH measurement duration */
 679:D:\mcu\design-mpu\source\ejemplos\BME680\bme680.c **** 	tph_dur = meas_cycles * UINT32_C(1963);
 680:D:\mcu\design-mpu\source\ejemplos\BME680\bme680.c **** 	tph_dur += UINT32_C(477 * 4); /* TPH switching duration */
 681:D:\mcu\design-mpu\source\ejemplos\BME680\bme680.c **** 	tph_dur += UINT32_C(477 * 5); /* Gas measurement duration */
 682:D:\mcu\design-mpu\source\ejemplos\BME680\bme680.c **** 	tph_dur += UINT32_C(500); /* Get it to the closest whole number.*/
 683:D:\mcu\design-mpu\source\ejemplos\BME680\bme680.c **** 	tph_dur /= UINT32_C(1000); /* Convert to ms */
 684:D:\mcu\design-mpu\source\ejemplos\BME680\bme680.c **** 
 685:D:\mcu\design-mpu\source\ejemplos\BME680\bme680.c **** 	tph_dur += UINT32_C(1); /* Wake up duration of 1ms */
 686:D:\mcu\design-mpu\source\ejemplos\BME680\bme680.c **** 
 687:D:\mcu\design-mpu\source\ejemplos\BME680\bme680.c **** 	*duration = (uint16_t) tph_dur;
 688:D:\mcu\design-mpu\source\ejemplos\BME680\bme680.c **** 
 689:D:\mcu\design-mpu\source\ejemplos\BME680\bme680.c **** 	/* Get the gas duration only when the run gas is enabled */
 690:D:\mcu\design-mpu\source\ejemplos\BME680\bme680.c **** 	if (dev->gas_sett.run_gas) {
 691:D:\mcu\design-mpu\source\ejemplos\BME680\bme680.c **** 		/* The remaining time should be used for heating */
 692:D:\mcu\design-mpu\source\ejemplos\BME680\bme680.c **** 		*duration += dev->gas_sett.heatr_dur;
 693:D:\mcu\design-mpu\source\ejemplos\BME680\bme680.c **** 	}
 694:D:\mcu\design-mpu\source\ejemplos\BME680\bme680.c **** }
 695:D:\mcu\design-mpu\source\ejemplos\BME680\bme680.c **** 
 696:D:\mcu\design-mpu\source\ejemplos\BME680\bme680.c **** /*!
 697:D:\mcu\design-mpu\source\ejemplos\BME680\bme680.c ****  * @brief This API reads the pressure, temperature and humidity and gas data
 698:D:\mcu\design-mpu\source\ejemplos\BME680\bme680.c ****  * from the sensor, compensates the data and store it in the bme680_data
 699:D:\mcu\design-mpu\source\ejemplos\BME680\bme680.c ****  * structure instance passed by the user.
 700:D:\mcu\design-mpu\source\ejemplos\BME680\bme680.c ****  */
 701:D:\mcu\design-mpu\source\ejemplos\BME680\bme680.c **** int8_t bme680_get_sensor_data(struct bme680_field_data *data, struct bme680_dev *dev)
 702:D:\mcu\design-mpu\source\ejemplos\BME680\bme680.c **** {
 703:D:\mcu\design-mpu\source\ejemplos\BME680\bme680.c **** 	int8_t rslt;
 704:D:\mcu\design-mpu\source\ejemplos\BME680\bme680.c **** 
 705:D:\mcu\design-mpu\source\ejemplos\BME680\bme680.c **** 	/* Check for null pointer in the device structure*/
 706:D:\mcu\design-mpu\source\ejemplos\BME680\bme680.c **** 	rslt = null_ptr_check(dev);
 707:D:\mcu\design-mpu\source\ejemplos\BME680\bme680.c **** 	if (rslt == BME680_OK) {
 708:D:\mcu\design-mpu\source\ejemplos\BME680\bme680.c **** 		/* Reading the sensor data in forced mode only */
 709:D:\mcu\design-mpu\source\ejemplos\BME680\bme680.c **** 		rslt = read_field_data(data, dev);
 710:D:\mcu\design-mpu\source\ejemplos\BME680\bme680.c **** 		if (rslt == BME680_OK) {
 711:D:\mcu\design-mpu\source\ejemplos\BME680\bme680.c **** 			if (data->status & BME680_NEW_DATA_MSK)
 712:D:\mcu\design-mpu\source\ejemplos\BME680\bme680.c **** 				dev->new_fields = 1;
 713:D:\mcu\design-mpu\source\ejemplos\BME680\bme680.c **** 			else
 714:D:\mcu\design-mpu\source\ejemplos\BME680\bme680.c **** 				dev->new_fields = 0;
 715:D:\mcu\design-mpu\source\ejemplos\BME680\bme680.c **** 		}
ARM GAS  C:\Users\adria\AppData\Local\Temp\ccQ3AXqi.s 			page 14


 716:D:\mcu\design-mpu\source\ejemplos\BME680\bme680.c **** 	}
 717:D:\mcu\design-mpu\source\ejemplos\BME680\bme680.c **** 
 718:D:\mcu\design-mpu\source\ejemplos\BME680\bme680.c **** 	return rslt;
 719:D:\mcu\design-mpu\source\ejemplos\BME680\bme680.c **** }
 720:D:\mcu\design-mpu\source\ejemplos\BME680\bme680.c **** 
 721:D:\mcu\design-mpu\source\ejemplos\BME680\bme680.c **** /*!
 722:D:\mcu\design-mpu\source\ejemplos\BME680\bme680.c ****  * @brief This internal API is used to read the calibrated data from the sensor.
 723:D:\mcu\design-mpu\source\ejemplos\BME680\bme680.c ****  */
 724:D:\mcu\design-mpu\source\ejemplos\BME680\bme680.c **** static int8_t get_calib_data(struct bme680_dev *dev)
 725:D:\mcu\design-mpu\source\ejemplos\BME680\bme680.c **** {
 726:D:\mcu\design-mpu\source\ejemplos\BME680\bme680.c **** 	int8_t rslt;
 727:D:\mcu\design-mpu\source\ejemplos\BME680\bme680.c **** 	uint8_t coeff_array[BME680_COEFF_SIZE] = { 0 };
 728:D:\mcu\design-mpu\source\ejemplos\BME680\bme680.c **** 	uint8_t temp_var = 0; /* Temporary variable */
 729:D:\mcu\design-mpu\source\ejemplos\BME680\bme680.c **** 
 730:D:\mcu\design-mpu\source\ejemplos\BME680\bme680.c **** 	/* Check for null pointer in the device structure*/
 731:D:\mcu\design-mpu\source\ejemplos\BME680\bme680.c **** 	rslt = null_ptr_check(dev);
 732:D:\mcu\design-mpu\source\ejemplos\BME680\bme680.c **** 	if (rslt == BME680_OK) {
 733:D:\mcu\design-mpu\source\ejemplos\BME680\bme680.c **** 		rslt = bme680_get_regs(BME680_COEFF_ADDR1, coeff_array, BME680_COEFF_ADDR1_LEN, dev);
 734:D:\mcu\design-mpu\source\ejemplos\BME680\bme680.c **** 		/* Append the second half in the same array */
 735:D:\mcu\design-mpu\source\ejemplos\BME680\bme680.c **** 		if (rslt == BME680_OK)
 736:D:\mcu\design-mpu\source\ejemplos\BME680\bme680.c **** 			rslt = bme680_get_regs(BME680_COEFF_ADDR2, &coeff_array[BME680_COEFF_ADDR1_LEN]
 737:D:\mcu\design-mpu\source\ejemplos\BME680\bme680.c **** 			, BME680_COEFF_ADDR2_LEN, dev);
 738:D:\mcu\design-mpu\source\ejemplos\BME680\bme680.c **** 
 739:D:\mcu\design-mpu\source\ejemplos\BME680\bme680.c **** 		/* Temperature related coefficients */
 740:D:\mcu\design-mpu\source\ejemplos\BME680\bme680.c **** 		dev->calib.par_t1 = (uint16_t) (BME680_CONCAT_BYTES(coeff_array[BME680_T1_MSB_REG],
 741:D:\mcu\design-mpu\source\ejemplos\BME680\bme680.c **** 			coeff_array[BME680_T1_LSB_REG]));
 742:D:\mcu\design-mpu\source\ejemplos\BME680\bme680.c **** 		dev->calib.par_t2 = (int16_t) (BME680_CONCAT_BYTES(coeff_array[BME680_T2_MSB_REG],
 743:D:\mcu\design-mpu\source\ejemplos\BME680\bme680.c **** 			coeff_array[BME680_T2_LSB_REG]));
 744:D:\mcu\design-mpu\source\ejemplos\BME680\bme680.c **** 		dev->calib.par_t3 = (int8_t) (coeff_array[BME680_T3_REG]);
 745:D:\mcu\design-mpu\source\ejemplos\BME680\bme680.c **** 
 746:D:\mcu\design-mpu\source\ejemplos\BME680\bme680.c **** 		/* Pressure related coefficients */
 747:D:\mcu\design-mpu\source\ejemplos\BME680\bme680.c **** 		dev->calib.par_p1 = (uint16_t) (BME680_CONCAT_BYTES(coeff_array[BME680_P1_MSB_REG],
 748:D:\mcu\design-mpu\source\ejemplos\BME680\bme680.c **** 			coeff_array[BME680_P1_LSB_REG]));
 749:D:\mcu\design-mpu\source\ejemplos\BME680\bme680.c **** 		dev->calib.par_p2 = (int16_t) (BME680_CONCAT_BYTES(coeff_array[BME680_P2_MSB_REG],
 750:D:\mcu\design-mpu\source\ejemplos\BME680\bme680.c **** 			coeff_array[BME680_P2_LSB_REG]));
 751:D:\mcu\design-mpu\source\ejemplos\BME680\bme680.c **** 		dev->calib.par_p3 = (int8_t) coeff_array[BME680_P3_REG];
 752:D:\mcu\design-mpu\source\ejemplos\BME680\bme680.c **** 		dev->calib.par_p4 = (int16_t) (BME680_CONCAT_BYTES(coeff_array[BME680_P4_MSB_REG],
 753:D:\mcu\design-mpu\source\ejemplos\BME680\bme680.c **** 			coeff_array[BME680_P4_LSB_REG]));
 754:D:\mcu\design-mpu\source\ejemplos\BME680\bme680.c **** 		dev->calib.par_p5 = (int16_t) (BME680_CONCAT_BYTES(coeff_array[BME680_P5_MSB_REG],
 755:D:\mcu\design-mpu\source\ejemplos\BME680\bme680.c **** 			coeff_array[BME680_P5_LSB_REG]));
 756:D:\mcu\design-mpu\source\ejemplos\BME680\bme680.c **** 		dev->calib.par_p6 = (int8_t) (coeff_array[BME680_P6_REG]);
 757:D:\mcu\design-mpu\source\ejemplos\BME680\bme680.c **** 		dev->calib.par_p7 = (int8_t) (coeff_array[BME680_P7_REG]);
 758:D:\mcu\design-mpu\source\ejemplos\BME680\bme680.c **** 		dev->calib.par_p8 = (int16_t) (BME680_CONCAT_BYTES(coeff_array[BME680_P8_MSB_REG],
 759:D:\mcu\design-mpu\source\ejemplos\BME680\bme680.c **** 			coeff_array[BME680_P8_LSB_REG]));
 760:D:\mcu\design-mpu\source\ejemplos\BME680\bme680.c **** 		dev->calib.par_p9 = (int16_t) (BME680_CONCAT_BYTES(coeff_array[BME680_P9_MSB_REG],
 761:D:\mcu\design-mpu\source\ejemplos\BME680\bme680.c **** 			coeff_array[BME680_P9_LSB_REG]));
 762:D:\mcu\design-mpu\source\ejemplos\BME680\bme680.c **** 		dev->calib.par_p10 = (uint8_t) (coeff_array[BME680_P10_REG]);
 763:D:\mcu\design-mpu\source\ejemplos\BME680\bme680.c **** 
 764:D:\mcu\design-mpu\source\ejemplos\BME680\bme680.c **** 		/* Humidity related coefficients */
 765:D:\mcu\design-mpu\source\ejemplos\BME680\bme680.c **** 		dev->calib.par_h1 = (uint16_t) (((uint16_t) coeff_array[BME680_H1_MSB_REG] << BME680_HUM_REG_SHIF
 766:D:\mcu\design-mpu\source\ejemplos\BME680\bme680.c **** 			| (coeff_array[BME680_H1_LSB_REG] & BME680_BIT_H1_DATA_MSK));
 767:D:\mcu\design-mpu\source\ejemplos\BME680\bme680.c **** 		dev->calib.par_h2 = (uint16_t) (((uint16_t) coeff_array[BME680_H2_MSB_REG] << BME680_HUM_REG_SHIF
 768:D:\mcu\design-mpu\source\ejemplos\BME680\bme680.c **** 			| ((coeff_array[BME680_H2_LSB_REG]) >> BME680_HUM_REG_SHIFT_VAL));
 769:D:\mcu\design-mpu\source\ejemplos\BME680\bme680.c **** 		dev->calib.par_h3 = (int8_t) coeff_array[BME680_H3_REG];
 770:D:\mcu\design-mpu\source\ejemplos\BME680\bme680.c **** 		dev->calib.par_h4 = (int8_t) coeff_array[BME680_H4_REG];
 771:D:\mcu\design-mpu\source\ejemplos\BME680\bme680.c **** 		dev->calib.par_h5 = (int8_t) coeff_array[BME680_H5_REG];
 772:D:\mcu\design-mpu\source\ejemplos\BME680\bme680.c **** 		dev->calib.par_h6 = (uint8_t) coeff_array[BME680_H6_REG];
ARM GAS  C:\Users\adria\AppData\Local\Temp\ccQ3AXqi.s 			page 15


 773:D:\mcu\design-mpu\source\ejemplos\BME680\bme680.c **** 		dev->calib.par_h7 = (int8_t) coeff_array[BME680_H7_REG];
 774:D:\mcu\design-mpu\source\ejemplos\BME680\bme680.c **** 
 775:D:\mcu\design-mpu\source\ejemplos\BME680\bme680.c **** 		/* Gas heater related coefficients */
 776:D:\mcu\design-mpu\source\ejemplos\BME680\bme680.c **** 		dev->calib.par_gh1 = (int8_t) coeff_array[BME680_GH1_REG];
 777:D:\mcu\design-mpu\source\ejemplos\BME680\bme680.c **** 		dev->calib.par_gh2 = (int16_t) (BME680_CONCAT_BYTES(coeff_array[BME680_GH2_MSB_REG],
 778:D:\mcu\design-mpu\source\ejemplos\BME680\bme680.c **** 			coeff_array[BME680_GH2_LSB_REG]));
 779:D:\mcu\design-mpu\source\ejemplos\BME680\bme680.c **** 		dev->calib.par_gh3 = (int8_t) coeff_array[BME680_GH3_REG];
 780:D:\mcu\design-mpu\source\ejemplos\BME680\bme680.c **** 
 781:D:\mcu\design-mpu\source\ejemplos\BME680\bme680.c **** 		/* Other coefficients */
 782:D:\mcu\design-mpu\source\ejemplos\BME680\bme680.c **** 		if (rslt == BME680_OK) {
 783:D:\mcu\design-mpu\source\ejemplos\BME680\bme680.c **** 			rslt = bme680_get_regs(BME680_ADDR_RES_HEAT_RANGE_ADDR, &temp_var, 1, dev);
 784:D:\mcu\design-mpu\source\ejemplos\BME680\bme680.c **** 
 785:D:\mcu\design-mpu\source\ejemplos\BME680\bme680.c **** 			dev->calib.res_heat_range = ((temp_var & BME680_RHRANGE_MSK) / 16);
 786:D:\mcu\design-mpu\source\ejemplos\BME680\bme680.c **** 			if (rslt == BME680_OK) {
 787:D:\mcu\design-mpu\source\ejemplos\BME680\bme680.c **** 				rslt = bme680_get_regs(BME680_ADDR_RES_HEAT_VAL_ADDR, &temp_var, 1, dev);
 788:D:\mcu\design-mpu\source\ejemplos\BME680\bme680.c **** 
 789:D:\mcu\design-mpu\source\ejemplos\BME680\bme680.c **** 				dev->calib.res_heat_val = (int8_t) temp_var;
 790:D:\mcu\design-mpu\source\ejemplos\BME680\bme680.c **** 				if (rslt == BME680_OK)
 791:D:\mcu\design-mpu\source\ejemplos\BME680\bme680.c **** 					rslt = bme680_get_regs(BME680_ADDR_RANGE_SW_ERR_ADDR, &temp_var, 1, dev);
 792:D:\mcu\design-mpu\source\ejemplos\BME680\bme680.c **** 			}
 793:D:\mcu\design-mpu\source\ejemplos\BME680\bme680.c **** 		}
 794:D:\mcu\design-mpu\source\ejemplos\BME680\bme680.c **** 		dev->calib.range_sw_err = ((int8_t) temp_var & (int8_t) BME680_RSERROR_MSK) / 16;
 795:D:\mcu\design-mpu\source\ejemplos\BME680\bme680.c **** 	}
 796:D:\mcu\design-mpu\source\ejemplos\BME680\bme680.c **** 
 797:D:\mcu\design-mpu\source\ejemplos\BME680\bme680.c **** 	return rslt;
 798:D:\mcu\design-mpu\source\ejemplos\BME680\bme680.c **** }
 799:D:\mcu\design-mpu\source\ejemplos\BME680\bme680.c **** 
 800:D:\mcu\design-mpu\source\ejemplos\BME680\bme680.c **** /*!
 801:D:\mcu\design-mpu\source\ejemplos\BME680\bme680.c ****  * @brief This internal API is used to set the gas configuration of the sensor.
 802:D:\mcu\design-mpu\source\ejemplos\BME680\bme680.c ****  */
 803:D:\mcu\design-mpu\source\ejemplos\BME680\bme680.c **** static int8_t set_gas_config(struct bme680_dev *dev)
 804:D:\mcu\design-mpu\source\ejemplos\BME680\bme680.c **** {
 805:D:\mcu\design-mpu\source\ejemplos\BME680\bme680.c **** 	int8_t rslt;
 806:D:\mcu\design-mpu\source\ejemplos\BME680\bme680.c **** 
 807:D:\mcu\design-mpu\source\ejemplos\BME680\bme680.c **** 	/* Check for null pointer in the device structure*/
 808:D:\mcu\design-mpu\source\ejemplos\BME680\bme680.c **** 	rslt = null_ptr_check(dev);
 809:D:\mcu\design-mpu\source\ejemplos\BME680\bme680.c **** 	if (rslt == BME680_OK) {
 810:D:\mcu\design-mpu\source\ejemplos\BME680\bme680.c **** 
 811:D:\mcu\design-mpu\source\ejemplos\BME680\bme680.c **** 		uint8_t reg_addr[2] = {0};
 812:D:\mcu\design-mpu\source\ejemplos\BME680\bme680.c **** 		uint8_t reg_data[2] = {0};
 813:D:\mcu\design-mpu\source\ejemplos\BME680\bme680.c **** 
 814:D:\mcu\design-mpu\source\ejemplos\BME680\bme680.c **** 		if (dev->power_mode == BME680_FORCED_MODE) {
 815:D:\mcu\design-mpu\source\ejemplos\BME680\bme680.c **** 			reg_addr[0] = BME680_RES_HEAT0_ADDR;
 816:D:\mcu\design-mpu\source\ejemplos\BME680\bme680.c **** 			reg_data[0] = calc_heater_res(dev->gas_sett.heatr_temp, dev);
 817:D:\mcu\design-mpu\source\ejemplos\BME680\bme680.c **** 			reg_addr[1] = BME680_GAS_WAIT0_ADDR;
 818:D:\mcu\design-mpu\source\ejemplos\BME680\bme680.c **** 			reg_data[1] = calc_heater_dur(dev->gas_sett.heatr_dur);
 819:D:\mcu\design-mpu\source\ejemplos\BME680\bme680.c **** 			dev->gas_sett.nb_conv = 0;
 820:D:\mcu\design-mpu\source\ejemplos\BME680\bme680.c **** 		} else {
 821:D:\mcu\design-mpu\source\ejemplos\BME680\bme680.c **** 			rslt = BME680_W_DEFINE_PWR_MODE;
 822:D:\mcu\design-mpu\source\ejemplos\BME680\bme680.c **** 		}
 823:D:\mcu\design-mpu\source\ejemplos\BME680\bme680.c **** 		if (rslt == BME680_OK)
 824:D:\mcu\design-mpu\source\ejemplos\BME680\bme680.c **** 			rslt = bme680_set_regs(reg_addr, reg_data, 2, dev);
 825:D:\mcu\design-mpu\source\ejemplos\BME680\bme680.c **** 	}
 826:D:\mcu\design-mpu\source\ejemplos\BME680\bme680.c **** 
 827:D:\mcu\design-mpu\source\ejemplos\BME680\bme680.c **** 	return rslt;
 828:D:\mcu\design-mpu\source\ejemplos\BME680\bme680.c **** }
 829:D:\mcu\design-mpu\source\ejemplos\BME680\bme680.c **** 
ARM GAS  C:\Users\adria\AppData\Local\Temp\ccQ3AXqi.s 			page 16


 830:D:\mcu\design-mpu\source\ejemplos\BME680\bme680.c **** /*!
 831:D:\mcu\design-mpu\source\ejemplos\BME680\bme680.c ****  * @brief This internal API is used to get the gas configuration of the sensor.
 832:D:\mcu\design-mpu\source\ejemplos\BME680\bme680.c ****  * @note heatr_temp and heatr_dur values are currently register data
 833:D:\mcu\design-mpu\source\ejemplos\BME680\bme680.c ****  * and not the actual values set
 834:D:\mcu\design-mpu\source\ejemplos\BME680\bme680.c ****  */
 835:D:\mcu\design-mpu\source\ejemplos\BME680\bme680.c **** static int8_t get_gas_config(struct bme680_dev *dev)
 836:D:\mcu\design-mpu\source\ejemplos\BME680\bme680.c **** {
 837:D:\mcu\design-mpu\source\ejemplos\BME680\bme680.c **** 	int8_t rslt;
 838:D:\mcu\design-mpu\source\ejemplos\BME680\bme680.c **** 	/* starting address of the register array for burst read*/
 839:D:\mcu\design-mpu\source\ejemplos\BME680\bme680.c **** 	uint8_t reg_addr1 = BME680_ADDR_SENS_CONF_START;
 840:D:\mcu\design-mpu\source\ejemplos\BME680\bme680.c **** 	uint8_t reg_addr2 = BME680_ADDR_GAS_CONF_START;
 841:D:\mcu\design-mpu\source\ejemplos\BME680\bme680.c **** 	uint8_t reg_data = 0;
 842:D:\mcu\design-mpu\source\ejemplos\BME680\bme680.c **** 
 843:D:\mcu\design-mpu\source\ejemplos\BME680\bme680.c **** 	/* Check for null pointer in the device structure*/
 844:D:\mcu\design-mpu\source\ejemplos\BME680\bme680.c **** 	rslt = null_ptr_check(dev);
 845:D:\mcu\design-mpu\source\ejemplos\BME680\bme680.c **** 	if (rslt == BME680_OK) {
 846:D:\mcu\design-mpu\source\ejemplos\BME680\bme680.c **** 		if (BME680_SPI_INTF == dev->intf) {
 847:D:\mcu\design-mpu\source\ejemplos\BME680\bme680.c **** 			/* Memory page switch the SPI address*/
 848:D:\mcu\design-mpu\source\ejemplos\BME680\bme680.c **** 			rslt = set_mem_page(reg_addr1, dev);
 849:D:\mcu\design-mpu\source\ejemplos\BME680\bme680.c **** 		}
 850:D:\mcu\design-mpu\source\ejemplos\BME680\bme680.c **** 
 851:D:\mcu\design-mpu\source\ejemplos\BME680\bme680.c **** 		if (rslt == BME680_OK) {
 852:D:\mcu\design-mpu\source\ejemplos\BME680\bme680.c **** 			rslt = bme680_get_regs(reg_addr1, &reg_data, 1, dev);
 853:D:\mcu\design-mpu\source\ejemplos\BME680\bme680.c **** 			if (rslt == BME680_OK) {
 854:D:\mcu\design-mpu\source\ejemplos\BME680\bme680.c **** 				dev->gas_sett.heatr_temp = reg_data;
 855:D:\mcu\design-mpu\source\ejemplos\BME680\bme680.c **** 				rslt = bme680_get_regs(reg_addr2, &reg_data, 1, dev);
 856:D:\mcu\design-mpu\source\ejemplos\BME680\bme680.c **** 				if (rslt == BME680_OK) {
 857:D:\mcu\design-mpu\source\ejemplos\BME680\bme680.c **** 					/* Heating duration register value */
 858:D:\mcu\design-mpu\source\ejemplos\BME680\bme680.c **** 					dev->gas_sett.heatr_dur = reg_data;
 859:D:\mcu\design-mpu\source\ejemplos\BME680\bme680.c **** 				}
 860:D:\mcu\design-mpu\source\ejemplos\BME680\bme680.c **** 			}
 861:D:\mcu\design-mpu\source\ejemplos\BME680\bme680.c **** 		}
 862:D:\mcu\design-mpu\source\ejemplos\BME680\bme680.c **** 	}
 863:D:\mcu\design-mpu\source\ejemplos\BME680\bme680.c **** 
 864:D:\mcu\design-mpu\source\ejemplos\BME680\bme680.c **** 	return rslt;
 865:D:\mcu\design-mpu\source\ejemplos\BME680\bme680.c **** }
 866:D:\mcu\design-mpu\source\ejemplos\BME680\bme680.c **** 
 867:D:\mcu\design-mpu\source\ejemplos\BME680\bme680.c **** #ifndef BME680_FLOAT_POINT_COMPENSATION
 868:D:\mcu\design-mpu\source\ejemplos\BME680\bme680.c **** 
 869:D:\mcu\design-mpu\source\ejemplos\BME680\bme680.c **** /*!
 870:D:\mcu\design-mpu\source\ejemplos\BME680\bme680.c ****  * @brief This internal API is used to calculate the temperature value.
 871:D:\mcu\design-mpu\source\ejemplos\BME680\bme680.c ****  */
 872:D:\mcu\design-mpu\source\ejemplos\BME680\bme680.c **** static int16_t calc_temperature(uint32_t temp_adc, struct bme680_dev *dev)
 873:D:\mcu\design-mpu\source\ejemplos\BME680\bme680.c **** {
  27              		.loc 1 873 0
  28              		.cfi_startproc
  29              		@ args = 0, pretend = 0, frame = 0
  30              		@ frame_needed = 0, uses_anonymous_args = 0
  31              		@ link register save eliminated.
  32              	.LVL0:
  33 0000 F0B4     		push	{r4, r5, r6, r7}
  34              		.cfi_def_cfa_offset 16
  35              		.cfi_offset 4, -16
  36              		.cfi_offset 5, -12
  37              		.cfi_offset 6, -8
  38              		.cfi_offset 7, -4
 874:D:\mcu\design-mpu\source\ejemplos\BME680\bme680.c **** 	int64_t var1;
ARM GAS  C:\Users\adria\AppData\Local\Temp\ccQ3AXqi.s 			page 17


 875:D:\mcu\design-mpu\source\ejemplos\BME680\bme680.c **** 	int64_t var2;
 876:D:\mcu\design-mpu\source\ejemplos\BME680\bme680.c **** 	int64_t var3;
 877:D:\mcu\design-mpu\source\ejemplos\BME680\bme680.c **** 	int16_t calc_temp;
 878:D:\mcu\design-mpu\source\ejemplos\BME680\bme680.c **** 
 879:D:\mcu\design-mpu\source\ejemplos\BME680\bme680.c **** 	var1 = ((int32_t) temp_adc >> 3) - ((int32_t) dev->calib.par_t1 << 1);
  39              		.loc 1 879 0
  40 0002 CC8A     		ldrh	r4, [r1, #22]
  41 0004 6400     		lsls	r4, r4, #1
  42 0006 C4EBE000 		rsb	r0, r4, r0, asr #3
  43              	.LVL1:
  44 000a 0246     		mov	r2, r0
  45 000c C317     		asrs	r3, r0, #31
  46              	.LVL2:
 880:D:\mcu\design-mpu\source\ejemplos\BME680\bme680.c **** 	var2 = (var1 * (int32_t) dev->calib.par_t2) >> 11;
  47              		.loc 1 880 0
  48 000e B1F91840 		ldrsh	r4, [r1, #24]
  49 0012 E517     		asrs	r5, r4, #31
  50 0014 04FB03F6 		mul	r6, r4, r3
  51 0018 00FB0566 		mla	r6, r0, r5, r6
  52 001c A4FB0045 		umull	r4, r5, r4, r0
  53 0020 3544     		add	r5, r5, r6
  54 0022 E00A     		lsrs	r0, r4, #11
  55 0024 40EA4550 		orr	r0, r0, r5, lsl #21
  56              	.LVL3:
 881:D:\mcu\design-mpu\source\ejemplos\BME680\bme680.c **** 	var3 = ((var1 >> 1) * (var1 >> 1)) >> 12;
  57              		.loc 1 881 0
  58 0028 5B10     		movs	r3, r3, asr #1
  59 002a 4FEA3202 		mov	r2, r2, rrx
  60              	.LVL4:
  61 002e 02FB03F4 		mul	r4, r2, r3
  62              	.LVL5:
  63 0032 A2FB0223 		umull	r2, r3, r2, r2
  64 0036 03EB4403 		add	r3, r3, r4, lsl #1
  65 003a 140B     		lsrs	r4, r2, #12
  66 003c 44EA0354 		orr	r4, r4, r3, lsl #20
  67 0040 1A13     		asrs	r2, r3, #12
  68              	.LVL6:
 882:D:\mcu\design-mpu\source\ejemplos\BME680\bme680.c **** 	var3 = ((var3) * ((int32_t) dev->calib.par_t3 << 4)) >> 14;
  69              		.loc 1 882 0
  70 0042 91F91A30 		ldrsb	r3, [r1, #26]
  71 0046 1B01     		lsls	r3, r3, #4
  72 0048 DF17     		asrs	r7, r3, #31
  73 004a 03FB02F2 		mul	r2, r3, r2
  74              	.LVL7:
  75 004e 04FB0722 		mla	r2, r4, r7, r2
  76 0052 A3FB0445 		umull	r4, r5, r3, r4
  77 0056 1544     		add	r5, r5, r2
  78 0058 A30B     		lsrs	r3, r4, #14
  79 005a 43EA8543 		orr	r3, r3, r5, lsl #18
  80              	.LVL8:
 883:D:\mcu\design-mpu\source\ejemplos\BME680\bme680.c **** 	dev->calib.t_fine = (int32_t) (var2 + var3);
  81              		.loc 1 883 0
  82 005e 1844     		add	r0, r0, r3
  83              	.LVL9:
  84 0060 0863     		str	r0, [r1, #48]
 884:D:\mcu\design-mpu\source\ejemplos\BME680\bme680.c **** 	calc_temp = (int16_t) (((dev->calib.t_fine * 5) + 128) >> 8);
  85              		.loc 1 884 0
ARM GAS  C:\Users\adria\AppData\Local\Temp\ccQ3AXqi.s 			page 18


  86 0062 00EB8000 		add	r0, r0, r0, lsl #2
  87 0066 8030     		adds	r0, r0, #128
  88              	.LVL10:
 885:D:\mcu\design-mpu\source\ejemplos\BME680\bme680.c **** 
 886:D:\mcu\design-mpu\source\ejemplos\BME680\bme680.c **** 	return calc_temp;
 887:D:\mcu\design-mpu\source\ejemplos\BME680\bme680.c **** }
  89              		.loc 1 887 0
  90 0068 40F30F20 		sbfx	r0, r0, #8, #16
  91              	.LVL11:
  92 006c F0BC     		pop	{r4, r5, r6, r7}
  93              		.cfi_restore 7
  94              		.cfi_restore 6
  95              		.cfi_restore 5
  96              		.cfi_restore 4
  97              		.cfi_def_cfa_offset 0
  98              	.LVL12:
  99 006e 7047     		bx	lr
 100              		.cfi_endproc
 101              	.LFE77:
 102              		.size	calc_temperature, .-calc_temperature
 103              		.section	.text.calc_pressure,"ax",%progbits
 104              		.align	2
 105              		.thumb
 106              		.thumb_func
 107              		.type	calc_pressure, %function
 108              	calc_pressure:
 109              	.LFB78:
 888:D:\mcu\design-mpu\source\ejemplos\BME680\bme680.c **** 
 889:D:\mcu\design-mpu\source\ejemplos\BME680\bme680.c **** /*!
 890:D:\mcu\design-mpu\source\ejemplos\BME680\bme680.c ****  * @brief This internal API is used to calculate the pressure value.
 891:D:\mcu\design-mpu\source\ejemplos\BME680\bme680.c ****  */
 892:D:\mcu\design-mpu\source\ejemplos\BME680\bme680.c **** static uint32_t calc_pressure(uint32_t pres_adc, const struct bme680_dev *dev)
 893:D:\mcu\design-mpu\source\ejemplos\BME680\bme680.c **** {
 110              		.loc 1 893 0
 111              		.cfi_startproc
 112              		@ args = 0, pretend = 0, frame = 0
 113              		@ frame_needed = 0, uses_anonymous_args = 0
 114              		@ link register save eliminated.
 115              	.LVL13:
 116 0000 30B4     		push	{r4, r5}
 117              		.cfi_def_cfa_offset 8
 118              		.cfi_offset 4, -8
 119              		.cfi_offset 5, -4
 894:D:\mcu\design-mpu\source\ejemplos\BME680\bme680.c **** 	int32_t var1;
 895:D:\mcu\design-mpu\source\ejemplos\BME680\bme680.c **** 	int32_t var2;
 896:D:\mcu\design-mpu\source\ejemplos\BME680\bme680.c **** 	int32_t var3;
 897:D:\mcu\design-mpu\source\ejemplos\BME680\bme680.c **** 	int32_t pressure_comp;
 898:D:\mcu\design-mpu\source\ejemplos\BME680\bme680.c **** 
 899:D:\mcu\design-mpu\source\ejemplos\BME680\bme680.c **** 	var1 = (((int32_t)dev->calib.t_fine) >> 1) - 64000;
 120              		.loc 1 899 0
 121 0002 0C6B     		ldr	r4, [r1, #48]
 122 0004 6410     		asrs	r4, r4, #1
 123 0006 A4F57A44 		sub	r4, r4, #64000
 124              	.LVL14:
 900:D:\mcu\design-mpu\source\ejemplos\BME680\bme680.c **** 	var2 = ((((var1 >> 2) * (var1 >> 2)) >> 11) *
 125              		.loc 1 900 0
 126 000a A510     		asrs	r5, r4, #2
ARM GAS  C:\Users\adria\AppData\Local\Temp\ccQ3AXqi.s 			page 19


 127 000c 05FB05F5 		mul	r5, r5, r5
 128 0010 EA12     		asrs	r2, r5, #11
 901:D:\mcu\design-mpu\source\ejemplos\BME680\bme680.c **** 		(int32_t)dev->calib.par_p6) >> 2;
 129              		.loc 1 901 0
 130 0012 91F92630 		ldrsb	r3, [r1, #38]
 900:D:\mcu\design-mpu\source\ejemplos\BME680\bme680.c **** 	var2 = ((((var1 >> 2) * (var1 >> 2)) >> 11) *
 131              		.loc 1 900 0
 132 0016 03FB02F2 		mul	r2, r3, r2
 133              	.LVL15:
 902:D:\mcu\design-mpu\source\ejemplos\BME680\bme680.c **** 	var2 = var2 + ((var1 * (int32_t)dev->calib.par_p5) << 1);
 134              		.loc 1 902 0
 135 001a B1F92430 		ldrsh	r3, [r1, #36]
 136 001e 03FB04F3 		mul	r3, r3, r4
 137 0022 5B00     		lsls	r3, r3, #1
 138 0024 03EBA203 		add	r3, r3, r2, asr #2
 139              	.LVL16:
 903:D:\mcu\design-mpu\source\ejemplos\BME680\bme680.c **** 	var2 = (var2 >> 2) + ((int32_t)dev->calib.par_p4 << 16);
 140              		.loc 1 903 0
 141 0028 B1F92220 		ldrsh	r2, [r1, #34]
 142 002c 1204     		lsls	r2, r2, #16
 143 002e 02EBA303 		add	r3, r2, r3, asr #2
 144              	.LVL17:
 904:D:\mcu\design-mpu\source\ejemplos\BME680\bme680.c **** 	var1 = (((((var1 >> 2) * (var1 >> 2)) >> 13) *
 145              		.loc 1 904 0
 146 0032 6D13     		asrs	r5, r5, #13
 905:D:\mcu\design-mpu\source\ejemplos\BME680\bme680.c **** 		((int32_t)dev->calib.par_p3 << 5)) >> 3) +
 147              		.loc 1 905 0
 148 0034 91F92020 		ldrsb	r2, [r1, #32]
 149 0038 5201     		lsls	r2, r2, #5
 904:D:\mcu\design-mpu\source\ejemplos\BME680\bme680.c **** 	var1 = (((((var1 >> 2) * (var1 >> 2)) >> 13) *
 150              		.loc 1 904 0
 151 003a 02FB05F2 		mul	r2, r2, r5
 906:D:\mcu\design-mpu\source\ejemplos\BME680\bme680.c **** 		(((int32_t)dev->calib.par_p2 * var1) >> 1);
 152              		.loc 1 906 0
 153 003e B1F91E50 		ldrsh	r5, [r1, #30]
 154 0042 05FB04F4 		mul	r4, r5, r4
 155              	.LVL18:
 156 0046 6410     		asrs	r4, r4, #1
 904:D:\mcu\design-mpu\source\ejemplos\BME680\bme680.c **** 	var1 = (((((var1 >> 2) * (var1 >> 2)) >> 13) *
 157              		.loc 1 904 0
 158 0048 04EBE202 		add	r2, r4, r2, asr #3
 159              	.LVL19:
 907:D:\mcu\design-mpu\source\ejemplos\BME680\bme680.c **** 	var1 = var1 >> 18;
 160              		.loc 1 907 0
 161 004c 9214     		asrs	r2, r2, #18
 162              	.LVL20:
 908:D:\mcu\design-mpu\source\ejemplos\BME680\bme680.c **** 	var1 = ((32768 + var1) * (int32_t)dev->calib.par_p1) >> 15;
 163              		.loc 1 908 0
 164 004e 02F50042 		add	r2, r2, #32768
 165              	.LVL21:
 166 0052 8C8B     		ldrh	r4, [r1, #28]
 167 0054 04FB02F2 		mul	r2, r4, r2
 168              	.LVL22:
 169 0058 D213     		asrs	r2, r2, #15
 170              	.LVL23:
 909:D:\mcu\design-mpu\source\ejemplos\BME680\bme680.c **** 	pressure_comp = 1048576 - pres_adc;
 171              		.loc 1 909 0
ARM GAS  C:\Users\adria\AppData\Local\Temp\ccQ3AXqi.s 			page 20


 172 005a C0F58010 		rsb	r0, r0, #1048576
 173              	.LVL24:
 910:D:\mcu\design-mpu\source\ejemplos\BME680\bme680.c **** 	pressure_comp = (int32_t)((pressure_comp - (var2 >> 12)) * ((uint32_t)3125));
 174              		.loc 1 910 0
 175 005e A0EB2333 		sub	r3, r0, r3, asr #12
 176              	.LVL25:
 177 0062 40F63544 		movw	r4, #3125
 178 0066 04FB03F0 		mul	r0, r4, r3
 179              	.LVL26:
 911:D:\mcu\design-mpu\source\ejemplos\BME680\bme680.c **** 	if (pressure_comp >= BME680_MAX_OVERFLOW_VAL)
 180              		.loc 1 911 0
 181 006a B0F1804F 		cmp	r0, #1073741824
 182 006e 03DB     		blt	.L4
 912:D:\mcu\design-mpu\source\ejemplos\BME680\bme680.c **** 		pressure_comp = ((pressure_comp / var1) << 1);
 183              		.loc 1 912 0
 184 0070 90FBF2F3 		sdiv	r3, r0, r2
 185 0074 5B00     		lsls	r3, r3, #1
 186              	.LVL27:
 187 0076 02E0     		b	.L5
 188              	.LVL28:
 189              	.L4:
 913:D:\mcu\design-mpu\source\ejemplos\BME680\bme680.c **** 	else
 914:D:\mcu\design-mpu\source\ejemplos\BME680\bme680.c **** 		pressure_comp = ((pressure_comp << 1) / var1);
 190              		.loc 1 914 0
 191 0078 4000     		lsls	r0, r0, #1
 192              	.LVL29:
 193 007a 90FBF2F3 		sdiv	r3, r0, r2
 194              	.LVL30:
 195              	.L5:
 915:D:\mcu\design-mpu\source\ejemplos\BME680\bme680.c **** 	var1 = ((int32_t)dev->calib.par_p9 * (int32_t)(((pressure_comp >> 3) *
 196              		.loc 1 915 0
 197 007e B1F92A20 		ldrsh	r2, [r1, #42]
 198              	.LVL31:
 916:D:\mcu\design-mpu\source\ejemplos\BME680\bme680.c **** 		(pressure_comp >> 3)) >> 13)) >> 12;
 199              		.loc 1 916 0
 200 0082 DC10     		asrs	r4, r3, #3
 915:D:\mcu\design-mpu\source\ejemplos\BME680\bme680.c **** 	var1 = ((int32_t)dev->calib.par_p9 * (int32_t)(((pressure_comp >> 3) *
 201              		.loc 1 915 0
 202 0084 04FB04F4 		mul	r4, r4, r4
 203              		.loc 1 916 0
 204 0088 6413     		asrs	r4, r4, #13
 915:D:\mcu\design-mpu\source\ejemplos\BME680\bme680.c **** 	var1 = ((int32_t)dev->calib.par_p9 * (int32_t)(((pressure_comp >> 3) *
 205              		.loc 1 915 0
 206 008a 04FB02F5 		mul	r5, r4, r2
 207              	.LVL32:
 917:D:\mcu\design-mpu\source\ejemplos\BME680\bme680.c **** 	var2 = ((int32_t)(pressure_comp >> 2) *
 208              		.loc 1 917 0
 209 008e 9A10     		asrs	r2, r3, #2
 918:D:\mcu\design-mpu\source\ejemplos\BME680\bme680.c **** 		(int32_t)dev->calib.par_p8) >> 13;
 210              		.loc 1 918 0
 211 0090 B1F92840 		ldrsh	r4, [r1, #40]
 917:D:\mcu\design-mpu\source\ejemplos\BME680\bme680.c **** 	var2 = ((int32_t)(pressure_comp >> 2) *
 212              		.loc 1 917 0
 213 0094 04FB02F2 		mul	r2, r4, r2
 214 0098 5213     		asrs	r2, r2, #13
 215              	.LVL33:
 919:D:\mcu\design-mpu\source\ejemplos\BME680\bme680.c **** 	var3 = ((int32_t)(pressure_comp >> 8) * (int32_t)(pressure_comp >> 8) *
ARM GAS  C:\Users\adria\AppData\Local\Temp\ccQ3AXqi.s 			page 21


 216              		.loc 1 919 0
 217 009a 1C12     		asrs	r4, r3, #8
 218 009c 04FB04F0 		mul	r0, r4, r4
 219 00a0 00FB04F0 		mul	r0, r0, r4
 920:D:\mcu\design-mpu\source\ejemplos\BME680\bme680.c **** 		(int32_t)(pressure_comp >> 8) *
 921:D:\mcu\design-mpu\source\ejemplos\BME680\bme680.c **** 		(int32_t)dev->calib.par_p10) >> 17;
 220              		.loc 1 921 0
 221 00a4 91F82C40 		ldrb	r4, [r1, #44]	@ zero_extendqisi2
 920:D:\mcu\design-mpu\source\ejemplos\BME680\bme680.c **** 		(int32_t)(pressure_comp >> 8) *
 222              		.loc 1 920 0
 223 00a8 04FB00F0 		mul	r0, r4, r0
 224              	.LVL34:
 922:D:\mcu\design-mpu\source\ejemplos\BME680\bme680.c **** 
 923:D:\mcu\design-mpu\source\ejemplos\BME680\bme680.c **** 	pressure_comp = (int32_t)(pressure_comp) + ((var1 + var2 + var3 +
 225              		.loc 1 923 0
 226 00ac 02EB2532 		add	r2, r2, r5, asr #12
 227              	.LVL35:
 228 00b0 02EB6040 		add	r0, r2, r0, asr #17
 229              	.LVL36:
 924:D:\mcu\design-mpu\source\ejemplos\BME680\bme680.c **** 		((int32_t)dev->calib.par_p7 << 7)) >> 4);
 230              		.loc 1 924 0
 231 00b4 91F92720 		ldrsb	r2, [r1, #39]
 923:D:\mcu\design-mpu\source\ejemplos\BME680\bme680.c **** 		((int32_t)dev->calib.par_p7 << 7)) >> 4);
 232              		.loc 1 923 0
 233 00b8 00EBC210 		add	r0, r0, r2, lsl #7
 234              	.LVL37:
 925:D:\mcu\design-mpu\source\ejemplos\BME680\bme680.c **** 
 926:D:\mcu\design-mpu\source\ejemplos\BME680\bme680.c **** 	return (uint32_t)pressure_comp;
 927:D:\mcu\design-mpu\source\ejemplos\BME680\bme680.c **** 
 928:D:\mcu\design-mpu\source\ejemplos\BME680\bme680.c **** }
 235              		.loc 1 928 0
 236 00bc 03EB2010 		add	r0, r3, r0, asr #4
 237              	.LVL38:
 238 00c0 30BC     		pop	{r4, r5}
 239              		.cfi_restore 5
 240              		.cfi_restore 4
 241              		.cfi_def_cfa_offset 0
 242              	.LVL39:
 243 00c2 7047     		bx	lr
 244              		.cfi_endproc
 245              	.LFE78:
 246              		.size	calc_pressure, .-calc_pressure
 247              		.section	.text.calc_humidity,"ax",%progbits
 248              		.align	2
 249              		.thumb
 250              		.thumb_func
 251              		.type	calc_humidity, %function
 252              	calc_humidity:
 253              	.LFB79:
 929:D:\mcu\design-mpu\source\ejemplos\BME680\bme680.c **** 
 930:D:\mcu\design-mpu\source\ejemplos\BME680\bme680.c **** /*!
 931:D:\mcu\design-mpu\source\ejemplos\BME680\bme680.c ****  * @brief This internal API is used to calculate the humidity value.
 932:D:\mcu\design-mpu\source\ejemplos\BME680\bme680.c ****  */
 933:D:\mcu\design-mpu\source\ejemplos\BME680\bme680.c **** static uint32_t calc_humidity(uint16_t hum_adc, const struct bme680_dev *dev)
 934:D:\mcu\design-mpu\source\ejemplos\BME680\bme680.c **** {
 254              		.loc 1 934 0
 255              		.cfi_startproc
ARM GAS  C:\Users\adria\AppData\Local\Temp\ccQ3AXqi.s 			page 22


 256              		@ args = 0, pretend = 0, frame = 0
 257              		@ frame_needed = 0, uses_anonymous_args = 0
 258              	.LVL40:
 259 0000 F0B5     		push	{r4, r5, r6, r7, lr}
 260              		.cfi_def_cfa_offset 20
 261              		.cfi_offset 4, -20
 262              		.cfi_offset 5, -16
 263              		.cfi_offset 6, -12
 264              		.cfi_offset 7, -8
 265              		.cfi_offset 14, -4
 935:D:\mcu\design-mpu\source\ejemplos\BME680\bme680.c **** 	int32_t var1;
 936:D:\mcu\design-mpu\source\ejemplos\BME680\bme680.c **** 	int32_t var2;
 937:D:\mcu\design-mpu\source\ejemplos\BME680\bme680.c **** 	int32_t var3;
 938:D:\mcu\design-mpu\source\ejemplos\BME680\bme680.c **** 	int32_t var4;
 939:D:\mcu\design-mpu\source\ejemplos\BME680\bme680.c **** 	int32_t var5;
 940:D:\mcu\design-mpu\source\ejemplos\BME680\bme680.c **** 	int32_t var6;
 941:D:\mcu\design-mpu\source\ejemplos\BME680\bme680.c **** 	int32_t temp_scaled;
 942:D:\mcu\design-mpu\source\ejemplos\BME680\bme680.c **** 	int32_t calc_hum;
 943:D:\mcu\design-mpu\source\ejemplos\BME680\bme680.c **** 
 944:D:\mcu\design-mpu\source\ejemplos\BME680\bme680.c **** 	temp_scaled = (((int32_t) dev->calib.t_fine * 5) + 128) >> 8;
 266              		.loc 1 944 0
 267 0002 0C6B     		ldr	r4, [r1, #48]
 268 0004 04EB8404 		add	r4, r4, r4, lsl #2
 269 0008 8034     		adds	r4, r4, #128
 270 000a 2412     		asrs	r4, r4, #8
 271              	.LVL41:
 945:D:\mcu\design-mpu\source\ejemplos\BME680\bme680.c **** 	var1 = (int32_t) (hum_adc - ((int32_t) ((int32_t) dev->calib.par_h1 * 16)))
 272              		.loc 1 945 0
 273 000c 0B89     		ldrh	r3, [r1, #8]
 274 000e A0EB0310 		sub	r0, r0, r3, lsl #4
 275              	.LVL42:
 946:D:\mcu\design-mpu\source\ejemplos\BME680\bme680.c **** 		- (((temp_scaled * (int32_t) dev->calib.par_h3) / ((int32_t) 100)) >> 1);
 276              		.loc 1 946 0
 277 0012 91F90C30 		ldrsb	r3, [r1, #12]
 278 0016 03FB04F3 		mul	r3, r3, r4
 279 001a 284D     		ldr	r5, .L12
 280 001c 85FB0362 		smull	r6, r2, r5, r3
 281 0020 DB17     		asrs	r3, r3, #31
 282 0022 C3EB6213 		rsb	r3, r3, r2, asr #5
 945:D:\mcu\design-mpu\source\ejemplos\BME680\bme680.c **** 	var1 = (int32_t) (hum_adc - ((int32_t) ((int32_t) dev->calib.par_h1 * 16)))
 283              		.loc 1 945 0
 284 0026 A0EB6300 		sub	r0, r0, r3, asr #1
 285              	.LVL43:
 947:D:\mcu\design-mpu\source\ejemplos\BME680\bme680.c **** 	var2 = ((int32_t) dev->calib.par_h2
 286              		.loc 1 947 0
 287 002a 4E89     		ldrh	r6, [r1, #10]
 948:D:\mcu\design-mpu\source\ejemplos\BME680\bme680.c **** 		* (((temp_scaled * (int32_t) dev->calib.par_h4) / ((int32_t) 100))
 288              		.loc 1 948 0
 289 002c 91F90D20 		ldrsb	r2, [r1, #13]
 290 0030 02FB04F2 		mul	r2, r2, r4
 291 0034 85FB0273 		smull	r7, r3, r5, r2
 292 0038 D217     		asrs	r2, r2, #31
 293 003a C2EB6317 		rsb	r7, r2, r3, asr #5
 949:D:\mcu\design-mpu\source\ejemplos\BME680\bme680.c **** 			+ (((temp_scaled * ((temp_scaled * (int32_t) dev->calib.par_h5) / ((int32_t) 100))) >> 6)
 294              		.loc 1 949 0
 295 003e 91F90E20 		ldrsb	r2, [r1, #14]
 296 0042 02FB04F2 		mul	r2, r2, r4
ARM GAS  C:\Users\adria\AppData\Local\Temp\ccQ3AXqi.s 			page 23


 297 0046 85FB02E3 		smull	lr, r3, r5, r2
 298 004a D217     		asrs	r2, r2, #31
 299 004c C2EB6312 		rsb	r2, r2, r3, asr #5
 300 0050 02FB04F3 		mul	r3, r2, r4
 301 0054 9A11     		asrs	r2, r3, #6
 950:D:\mcu\design-mpu\source\ejemplos\BME680\bme680.c **** 				/ ((int32_t) 100)) + (int32_t) (1 << 14))) >> 10;
 302              		.loc 1 950 0
 303 0056 85FB022E 		smull	r2, lr, r5, r2
 304 005a DA17     		asrs	r2, r3, #31
 305 005c C2EB6E12 		rsb	r2, r2, lr, asr #5
 949:D:\mcu\design-mpu\source\ejemplos\BME680\bme680.c **** 			+ (((temp_scaled * ((temp_scaled * (int32_t) dev->calib.par_h5) / ((int32_t) 100))) >> 6)
 306              		.loc 1 949 0
 307 0060 BB18     		adds	r3, r7, r2
 308              		.loc 1 950 0
 309 0062 03F58043 		add	r3, r3, #16384
 948:D:\mcu\design-mpu\source\ejemplos\BME680\bme680.c **** 		* (((temp_scaled * (int32_t) dev->calib.par_h4) / ((int32_t) 100))
 310              		.loc 1 948 0
 311 0066 03FB06F3 		mul	r3, r3, r6
 947:D:\mcu\design-mpu\source\ejemplos\BME680\bme680.c **** 		* (((temp_scaled * (int32_t) dev->calib.par_h4) / ((int32_t) 100))
 312              		.loc 1 947 0
 313 006a 9B12     		asrs	r3, r3, #10
 314              	.LVL44:
 951:D:\mcu\design-mpu\source\ejemplos\BME680\bme680.c **** 	var3 = var1 * var2;
 315              		.loc 1 951 0
 316 006c 03FB00F0 		mul	r0, r3, r0
 317              	.LVL45:
 952:D:\mcu\design-mpu\source\ejemplos\BME680\bme680.c **** 	var4 = (int32_t) dev->calib.par_h6 << 7;
 318              		.loc 1 952 0
 319 0070 CA7B     		ldrb	r2, [r1, #15]	@ zero_extendqisi2
 320              	.LVL46:
 953:D:\mcu\design-mpu\source\ejemplos\BME680\bme680.c **** 	var4 = ((var4) + ((temp_scaled * (int32_t) dev->calib.par_h7) / ((int32_t) 100))) >> 4;
 321              		.loc 1 953 0
 322 0072 91F91030 		ldrsb	r3, [r1, #16]
 323              	.LVL47:
 324 0076 03FB04F4 		mul	r4, r3, r4
 325              	.LVL48:
 326 007a 85FB0435 		smull	r3, r5, r5, r4
 327              	.LVL49:
 328 007e E317     		asrs	r3, r4, #31
 329 0080 C3EB6514 		rsb	r4, r3, r5, asr #5
 330 0084 04EBC214 		add	r4, r4, r2, lsl #7
 331 0088 2411     		asrs	r4, r4, #4
 332              	.LVL50:
 954:D:\mcu\design-mpu\source\ejemplos\BME680\bme680.c **** 	var5 = ((var3 >> 14) * (var3 >> 14)) >> 10;
 333              		.loc 1 954 0
 334 008a 8313     		asrs	r3, r0, #14
 335 008c 03FB03F3 		mul	r3, r3, r3
 336 0090 9B12     		asrs	r3, r3, #10
 337              	.LVL51:
 955:D:\mcu\design-mpu\source\ejemplos\BME680\bme680.c **** 	var6 = (var4 * var5) >> 1;
 338              		.loc 1 955 0
 339 0092 03FB04F4 		mul	r4, r3, r4
 340              	.LVL52:
 956:D:\mcu\design-mpu\source\ejemplos\BME680\bme680.c **** 	calc_hum = (((var3 + var6) >> 10) * ((int32_t) 1000)) >> 12;
 341              		.loc 1 956 0
 342 0096 00EB6400 		add	r0, r0, r4, asr #1
 343              	.LVL53:
ARM GAS  C:\Users\adria\AppData\Local\Temp\ccQ3AXqi.s 			page 24


 344 009a 8012     		asrs	r0, r0, #10
 345 009c 4FF47A72 		mov	r2, #1000
 346              	.LVL54:
 347 00a0 02FB00F0 		mul	r0, r2, r0
 348 00a4 0013     		asrs	r0, r0, #12
 349              	.LVL55:
 957:D:\mcu\design-mpu\source\ejemplos\BME680\bme680.c **** 
 958:D:\mcu\design-mpu\source\ejemplos\BME680\bme680.c **** 	if (calc_hum > 100000) /* Cap at 100%rH */
 350              		.loc 1 958 0
 351 00a6 064B     		ldr	r3, .L12+4
 352              	.LVL56:
 353 00a8 9842     		cmp	r0, r3
 354 00aa 02DC     		bgt	.L9
 959:D:\mcu\design-mpu\source\ejemplos\BME680\bme680.c **** 		calc_hum = 100000;
 960:D:\mcu\design-mpu\source\ejemplos\BME680\bme680.c **** 	else if (calc_hum < 0)
 355              		.loc 1 960 0
 356 00ac 0028     		cmp	r0, #0
 357 00ae 03DA     		bge	.L8
 358 00b0 01E0     		b	.L10
 359              	.L9:
 959:D:\mcu\design-mpu\source\ejemplos\BME680\bme680.c **** 		calc_hum = 100000;
 360              		.loc 1 959 0
 361 00b2 0348     		ldr	r0, .L12+4
 362              	.LVL57:
 363 00b4 F0BD     		pop	{r4, r5, r6, r7, pc}
 364              	.LVL58:
 365              	.L10:
 961:D:\mcu\design-mpu\source\ejemplos\BME680\bme680.c **** 		calc_hum = 0;
 366              		.loc 1 961 0
 367 00b6 0020     		movs	r0, #0
 368              	.LVL59:
 369              	.L8:
 962:D:\mcu\design-mpu\source\ejemplos\BME680\bme680.c **** 
 963:D:\mcu\design-mpu\source\ejemplos\BME680\bme680.c **** 	return (uint32_t) calc_hum;
 964:D:\mcu\design-mpu\source\ejemplos\BME680\bme680.c **** }
 370              		.loc 1 964 0
 371 00b8 F0BD     		pop	{r4, r5, r6, r7, pc}
 372              	.LVL60:
 373              	.L13:
 374 00ba 00BF     		.align	2
 375              	.L12:
 376 00bc 1F85EB51 		.word	1374389535
 377 00c0 A0860100 		.word	100000
 378              		.cfi_endproc
 379              	.LFE79:
 380              		.size	calc_humidity, .-calc_humidity
 381              		.global	__aeabi_ldivmod
 382              		.section	.text.calc_gas_resistance,"ax",%progbits
 383              		.align	2
 384              		.thumb
 385              		.thumb_func
 386              		.type	calc_gas_resistance, %function
 387              	calc_gas_resistance:
 388              	.LFB80:
 965:D:\mcu\design-mpu\source\ejemplos\BME680\bme680.c **** 
 966:D:\mcu\design-mpu\source\ejemplos\BME680\bme680.c **** /*!
 967:D:\mcu\design-mpu\source\ejemplos\BME680\bme680.c ****  * @brief This internal API is used to calculate the Gas Resistance value.
ARM GAS  C:\Users\adria\AppData\Local\Temp\ccQ3AXqi.s 			page 25


 968:D:\mcu\design-mpu\source\ejemplos\BME680\bme680.c ****  */
 969:D:\mcu\design-mpu\source\ejemplos\BME680\bme680.c **** static uint32_t calc_gas_resistance(uint16_t gas_res_adc, uint8_t gas_range, const struct bme680_de
 970:D:\mcu\design-mpu\source\ejemplos\BME680\bme680.c **** {
 389              		.loc 1 970 0
 390              		.cfi_startproc
 391              		@ args = 0, pretend = 0, frame = 128
 392              		@ frame_needed = 0, uses_anonymous_args = 0
 393              	.LVL61:
 394 0000 F0B5     		push	{r4, r5, r6, r7, lr}
 395              		.cfi_def_cfa_offset 20
 396              		.cfi_offset 4, -20
 397              		.cfi_offset 5, -16
 398              		.cfi_offset 6, -12
 399              		.cfi_offset 7, -8
 400              		.cfi_offset 14, -4
 401 0002 A1B0     		sub	sp, sp, #132
 402              		.cfi_def_cfa_offset 152
 403 0004 0746     		mov	r7, r0
 404 0006 8E46     		mov	lr, r1
 405 0008 9446     		mov	ip, r2
 971:D:\mcu\design-mpu\source\ejemplos\BME680\bme680.c **** 	int64_t var1;
 972:D:\mcu\design-mpu\source\ejemplos\BME680\bme680.c **** 	uint64_t var2;
 973:D:\mcu\design-mpu\source\ejemplos\BME680\bme680.c **** 	int64_t var3;
 974:D:\mcu\design-mpu\source\ejemplos\BME680\bme680.c **** 	uint32_t calc_gas_res;
 975:D:\mcu\design-mpu\source\ejemplos\BME680\bme680.c **** 	/**Look up table 1 for the possible gas range values */
 976:D:\mcu\design-mpu\source\ejemplos\BME680\bme680.c **** 	uint32_t lookupTable1[16] = { UINT32_C(2147483647), UINT32_C(2147483647), UINT32_C(2147483647), UI
 406              		.loc 1 976 0
 407 000a 274C     		ldr	r4, .L16
 408 000c 10AD     		add	r5, sp, #64
 409 000e 2646     		mov	r6, r4
 410 0010 0FCE     		ldmia	r6!, {r0, r1, r2, r3}
 411              	.LVL62:
 412 0012 0FC5     		stmia	r5!, {r0, r1, r2, r3}
 413 0014 0FCE     		ldmia	r6!, {r0, r1, r2, r3}
 414 0016 0FC5     		stmia	r5!, {r0, r1, r2, r3}
 415 0018 0FCE     		ldmia	r6!, {r0, r1, r2, r3}
 416 001a 0FC5     		stmia	r5!, {r0, r1, r2, r3}
 417 001c 96E80F00 		ldmia	r6, {r0, r1, r2, r3}
 418 0020 85E80F00 		stmia	r5, {r0, r1, r2, r3}
 977:D:\mcu\design-mpu\source\ejemplos\BME680\bme680.c **** 		UINT32_C(2147483647), UINT32_C(2126008810), UINT32_C(2147483647), UINT32_C(2130303777),
 978:D:\mcu\design-mpu\source\ejemplos\BME680\bme680.c **** 		UINT32_C(2147483647), UINT32_C(2147483647), UINT32_C(2143188679), UINT32_C(2136746228),
 979:D:\mcu\design-mpu\source\ejemplos\BME680\bme680.c **** 		UINT32_C(2147483647), UINT32_C(2126008810), UINT32_C(2147483647), UINT32_C(2147483647) };
 980:D:\mcu\design-mpu\source\ejemplos\BME680\bme680.c **** 	/**Look up table 2 for the possible gas range values */
 981:D:\mcu\design-mpu\source\ejemplos\BME680\bme680.c **** 	uint32_t lookupTable2[16] = { UINT32_C(4096000000), UINT32_C(2048000000), UINT32_C(1024000000), UI
 419              		.loc 1 981 0
 420 0024 6D46     		mov	r5, sp
 421 0026 4034     		adds	r4, r4, #64
 422 0028 0FCC     		ldmia	r4!, {r0, r1, r2, r3}
 423 002a 0FC5     		stmia	r5!, {r0, r1, r2, r3}
 424 002c 0FCC     		ldmia	r4!, {r0, r1, r2, r3}
 425 002e 0FC5     		stmia	r5!, {r0, r1, r2, r3}
 426 0030 0FCC     		ldmia	r4!, {r0, r1, r2, r3}
 427 0032 0FC5     		stmia	r5!, {r0, r1, r2, r3}
 428 0034 94E80F00 		ldmia	r4, {r0, r1, r2, r3}
 429 0038 85E80F00 		stmia	r5, {r0, r1, r2, r3}
 982:D:\mcu\design-mpu\source\ejemplos\BME680\bme680.c **** 		UINT32_C(255744255), UINT32_C(127110228), UINT32_C(64000000), UINT32_C(32258064), UINT32_C(160160
 983:D:\mcu\design-mpu\source\ejemplos\BME680\bme680.c **** 		UINT32_C(8000000), UINT32_C(4000000), UINT32_C(2000000), UINT32_C(1000000), UINT32_C(500000),
ARM GAS  C:\Users\adria\AppData\Local\Temp\ccQ3AXqi.s 			page 26


 984:D:\mcu\design-mpu\source\ejemplos\BME680\bme680.c **** 		UINT32_C(250000), UINT32_C(125000) };
 985:D:\mcu\design-mpu\source\ejemplos\BME680\bme680.c **** 
 986:D:\mcu\design-mpu\source\ejemplos\BME680\bme680.c **** 	var1 = (int64_t) ((1340 + (5 * (int64_t) dev->calib.range_sw_err)) *
 430              		.loc 1 986 0
 431 003c 9CF93620 		ldrsb	r2, [ip, #54]
 432 0040 D317     		asrs	r3, r2, #31
 433 0042 9C00     		lsls	r4, r3, #2
 434 0044 9000     		lsls	r0, r2, #2
 435 0046 44EA9271 		orr	r1, r4, r2, lsr #30
 436 004a 1218     		adds	r2, r2, r0
 437 004c 4B41     		adcs	r3, r3, r1
 438 004e 40F23C50 		movw	r0, #1340
 439 0052 0021     		movs	r1, #0
 440 0054 1218     		adds	r2, r2, r0
 441 0056 4B41     		adcs	r3, r3, r1
 987:D:\mcu\design-mpu\source\ejemplos\BME680\bme680.c **** 		((int64_t) lookupTable1[gas_range])) >> 16;
 442              		.loc 1 987 0
 443 0058 20A9     		add	r1, sp, #128
 444 005a 01EB8E0E 		add	lr, r1, lr, lsl #2
 445 005e 5EF8401C 		ldr	r1, [lr, #-64]
 986:D:\mcu\design-mpu\source\ejemplos\BME680\bme680.c **** 		((int64_t) lookupTable1[gas_range])) >> 16;
 446              		.loc 1 986 0
 447 0062 A2FB0145 		umull	r4, r5, r2, r1
 448 0066 01FB0355 		mla	r5, r1, r3, r5
 449 006a 200C     		lsrs	r0, r4, #16
 450 006c 40EA0540 		orr	r0, r0, r5, lsl #16
 451 0070 2914     		asrs	r1, r5, #16
 452              	.LVL63:
 988:D:\mcu\design-mpu\source\ejemplos\BME680\bme680.c **** 	var2 = (((int64_t) ((int64_t) gas_res_adc << 15) - (int64_t) (16777216)) + var1);
 453              		.loc 1 988 0
 454 0072 0023     		movs	r3, #0
 455 0074 FA03     		lsls	r2, r7, #15
 456 0076 12F17F42 		adds	r2, r2, #-16777216
 457 007a 43F1FF33 		adc	r3, r3, #-1
 458 007e 1218     		adds	r2, r2, r0
 459 0080 4B41     		adcs	r3, r3, r1
 460              	.LVL64:
 989:D:\mcu\design-mpu\source\ejemplos\BME680\bme680.c **** 	var3 = (((int64_t) lookupTable2[gas_range] * (int64_t) var1) >> 9);
 461              		.loc 1 989 0
 462 0082 5EF8806C 		ldr	r6, [lr, #-128]
 463 0086 A0FB0645 		umull	r4, r5, r0, r6
 464 008a 06FB0155 		mla	r5, r6, r1, r5
 465 008e 600A     		lsrs	r0, r4, #9
 466              	.LVL65:
 467 0090 40EAC550 		orr	r0, r0, r5, lsl #23
 468 0094 6912     		asrs	r1, r5, #9
 469              	.LVL66:
 990:D:\mcu\design-mpu\source\ejemplos\BME680\bme680.c **** 	calc_gas_res = (uint32_t) ((var3 + ((int64_t) var2 >> 1)) / (int64_t) var2);
 470              		.loc 1 990 0
 471 0096 5D10     		movs	r5, r3, asr #1
 472 0098 4FEA3204 		mov	r4, r2, rrx
 473 009c 0019     		adds	r0, r0, r4
 474              	.LVL67:
 475 009e 6941     		adcs	r1, r1, r5
 476 00a0 FFF7FEFF 		bl	__aeabi_ldivmod
 477              	.LVL68:
 991:D:\mcu\design-mpu\source\ejemplos\BME680\bme680.c **** 
ARM GAS  C:\Users\adria\AppData\Local\Temp\ccQ3AXqi.s 			page 27


 992:D:\mcu\design-mpu\source\ejemplos\BME680\bme680.c **** 	return calc_gas_res;
 993:D:\mcu\design-mpu\source\ejemplos\BME680\bme680.c **** }
 478              		.loc 1 993 0
 479 00a4 21B0     		add	sp, sp, #132
 480              		.cfi_def_cfa_offset 20
 481              		@ sp needed
 482 00a6 F0BD     		pop	{r4, r5, r6, r7, pc}
 483              	.L17:
 484              		.align	2
 485              	.L16:
 486 00a8 00000000 		.word	.LANCHOR0
 487              		.cfi_endproc
 488              	.LFE80:
 489              		.size	calc_gas_resistance, .-calc_gas_resistance
 490              		.section	.text.calc_heater_res,"ax",%progbits
 491              		.align	2
 492              		.thumb
 493              		.thumb_func
 494              		.type	calc_heater_res, %function
 495              	calc_heater_res:
 496              	.LFB81:
 994:D:\mcu\design-mpu\source\ejemplos\BME680\bme680.c **** 
 995:D:\mcu\design-mpu\source\ejemplos\BME680\bme680.c **** /*!
 996:D:\mcu\design-mpu\source\ejemplos\BME680\bme680.c ****  * @brief This internal API is used to calculate the Heat Resistance value.
 997:D:\mcu\design-mpu\source\ejemplos\BME680\bme680.c ****  */
 998:D:\mcu\design-mpu\source\ejemplos\BME680\bme680.c **** static uint8_t calc_heater_res(uint16_t temp, const struct bme680_dev *dev)
 999:D:\mcu\design-mpu\source\ejemplos\BME680\bme680.c **** {
 497              		.loc 1 999 0
 498              		.cfi_startproc
 499              		@ args = 0, pretend = 0, frame = 0
 500              		@ frame_needed = 0, uses_anonymous_args = 0
 501              	.LVL69:
 502 0000 F0B5     		push	{r4, r5, r6, r7, lr}
 503              		.cfi_def_cfa_offset 20
 504              		.cfi_offset 4, -20
 505              		.cfi_offset 5, -16
 506              		.cfi_offset 6, -12
 507              		.cfi_offset 7, -8
 508              		.cfi_offset 14, -4
1000:D:\mcu\design-mpu\source\ejemplos\BME680\bme680.c **** 	uint8_t heatr_res;
1001:D:\mcu\design-mpu\source\ejemplos\BME680\bme680.c **** 	int32_t var1;
1002:D:\mcu\design-mpu\source\ejemplos\BME680\bme680.c **** 	int32_t var2;
1003:D:\mcu\design-mpu\source\ejemplos\BME680\bme680.c **** 	int32_t var3;
1004:D:\mcu\design-mpu\source\ejemplos\BME680\bme680.c **** 	int32_t var4;
1005:D:\mcu\design-mpu\source\ejemplos\BME680\bme680.c **** 	int32_t var5;
1006:D:\mcu\design-mpu\source\ejemplos\BME680\bme680.c **** 	int32_t heatr_res_x100;
1007:D:\mcu\design-mpu\source\ejemplos\BME680\bme680.c **** 
1008:D:\mcu\design-mpu\source\ejemplos\BME680\bme680.c **** 	if (temp > 400) /* Cap temperature */
 509              		.loc 1 1008 0
 510 0002 B0F5C87F 		cmp	r0, #400
 511 0006 01D9     		bls	.L19
1009:D:\mcu\design-mpu\source\ejemplos\BME680\bme680.c **** 		temp = 400;
 512              		.loc 1 1009 0
 513 0008 4FF4C870 		mov	r0, #400
 514              	.LVL70:
 515              	.L19:
1010:D:\mcu\design-mpu\source\ejemplos\BME680\bme680.c **** 
ARM GAS  C:\Users\adria\AppData\Local\Temp\ccQ3AXqi.s 			page 28


1011:D:\mcu\design-mpu\source\ejemplos\BME680\bme680.c **** 	var1 = (((int32_t) dev->amb_temp * dev->calib.par_gh3) / 1000) * 256;
 516              		.loc 1 1011 0
 517 000c 91F90420 		ldrsb	r2, [r1, #4]
 518 0010 91F91450 		ldrsb	r5, [r1, #20]
 519 0014 02FB05F5 		mul	r5, r2, r5
 520 0018 224C     		ldr	r4, .L22
 521 001a 84FB0534 		smull	r3, r4, r4, r5
 522 001e ED17     		asrs	r5, r5, #31
 523 0020 C5EBA417 		rsb	r7, r5, r4, asr #6
 524              	.LVL71:
1012:D:\mcu\design-mpu\source\ejemplos\BME680\bme680.c **** 	var2 = (dev->calib.par_gh1 + 784) * (((((dev->calib.par_gh2 + 154009) * temp * 5) / 100) + 3276800
 525              		.loc 1 1012 0
 526 0024 91F91120 		ldrsb	r2, [r1, #17]
 527 0028 02F5447E 		add	lr, r2, #784
 528 002c B1F91250 		ldrsh	r5, [r1, #18]
 529 0030 05F51633 		add	r3, r5, #153600
 530 0034 03F29913 		addw	r3, r3, #409
 531 0038 03FB00F3 		mul	r3, r3, r0
 532 003c 03EB8303 		add	r3, r3, r3, lsl #2
 533 0040 194E     		ldr	r6, .L22+4
 534 0042 86FB0324 		smull	r2, r4, r6, r3
 535 0046 DB17     		asrs	r3, r3, #31
 536 0048 C3EB6414 		rsb	r4, r3, r4, asr #5
 537 004c 04F54814 		add	r4, r4, #3276800
 538 0050 164A     		ldr	r2, .L22+8
 539 0052 82FB0432 		smull	r3, r2, r2, r4
 540 0056 E517     		asrs	r5, r4, #31
 541 0058 C5EBA205 		rsb	r5, r5, r2, asr #2
 542 005c 05FB0EF2 		mul	r2, r5, lr
 543              	.LVL72:
1013:D:\mcu\design-mpu\source\ejemplos\BME680\bme680.c **** 	var3 = var1 + (var2 / 2);
 544              		.loc 1 1013 0
 545 0060 02EBD272 		add	r2, r2, r2, lsr #31
 546              	.LVL73:
 547 0064 5210     		asrs	r2, r2, #1
 548 0066 02EB0724 		add	r4, r2, r7, lsl #8
 549              	.LVL74:
1014:D:\mcu\design-mpu\source\ejemplos\BME680\bme680.c **** 	var4 = (var3 / (dev->calib.res_heat_range + 4));
 550              		.loc 1 1014 0
 551 006a 91F83430 		ldrb	r3, [r1, #52]	@ zero_extendqisi2
 552 006e 0433     		adds	r3, r3, #4
 553 0070 94FBF3F2 		sdiv	r2, r4, r3
 554              	.LVL75:
1015:D:\mcu\design-mpu\source\ejemplos\BME680\bme680.c **** 	var5 = (131 * dev->calib.res_heat_val) + 65536;
 555              		.loc 1 1015 0
 556 0074 91F93530 		ldrsb	r3, [r1, #53]
 557 0078 03EB8311 		add	r1, r3, r3, lsl #6
 558              	.LVL76:
 559 007c 03EB4103 		add	r3, r3, r1, lsl #1
 560 0080 03F58033 		add	r3, r3, #65536
 561              	.LVL77:
1016:D:\mcu\design-mpu\source\ejemplos\BME680\bme680.c **** 	heatr_res_x100 = (int32_t) (((var4 / var5) - 250) * 34);
 562              		.loc 1 1016 0
 563 0084 92FBF3F3 		sdiv	r3, r2, r3
 564              	.LVL78:
 565 0088 FA3B     		subs	r3, r3, #250
 566 008a 03EB0313 		add	r3, r3, r3, lsl #4
ARM GAS  C:\Users\adria\AppData\Local\Temp\ccQ3AXqi.s 			page 29


 567 008e 5800     		lsls	r0, r3, #1
 568              	.LVL79:
1017:D:\mcu\design-mpu\source\ejemplos\BME680\bme680.c **** 	heatr_res = (uint8_t) ((heatr_res_x100 + 50) / 100);
 569              		.loc 1 1017 0
 570 0090 00F13203 		add	r3, r0, #50
 571 0094 86FB0320 		smull	r2, r0, r6, r3
 572              	.LVL80:
 573 0098 DB17     		asrs	r3, r3, #31
 574              	.LVL81:
 575 009a C3EB6010 		rsb	r0, r3, r0, asr #5
 576              	.LVL82:
1018:D:\mcu\design-mpu\source\ejemplos\BME680\bme680.c **** 
1019:D:\mcu\design-mpu\source\ejemplos\BME680\bme680.c **** 	return heatr_res;
1020:D:\mcu\design-mpu\source\ejemplos\BME680\bme680.c **** }
 577              		.loc 1 1020 0
 578 009e C0B2     		uxtb	r0, r0
 579 00a0 F0BD     		pop	{r4, r5, r6, r7, pc}
 580              	.LVL83:
 581              	.L23:
 582 00a2 00BF     		.align	2
 583              	.L22:
 584 00a4 D34D6210 		.word	274877907
 585 00a8 1F85EB51 		.word	1374389535
 586 00ac 67666666 		.word	1717986919
 587              		.cfi_endproc
 588              	.LFE81:
 589              		.size	calc_heater_res, .-calc_heater_res
 590              		.section	.text.calc_heater_dur,"ax",%progbits
 591              		.align	2
 592              		.thumb
 593              		.thumb_func
 594              		.type	calc_heater_dur, %function
 595              	calc_heater_dur:
 596              	.LFB82:
1021:D:\mcu\design-mpu\source\ejemplos\BME680\bme680.c **** 
1022:D:\mcu\design-mpu\source\ejemplos\BME680\bme680.c **** #else
1023:D:\mcu\design-mpu\source\ejemplos\BME680\bme680.c **** 
1024:D:\mcu\design-mpu\source\ejemplos\BME680\bme680.c **** 
1025:D:\mcu\design-mpu\source\ejemplos\BME680\bme680.c **** /*!
1026:D:\mcu\design-mpu\source\ejemplos\BME680\bme680.c ****  * @brief This internal API is used to calculate the
1027:D:\mcu\design-mpu\source\ejemplos\BME680\bme680.c ****  * temperature value in float format
1028:D:\mcu\design-mpu\source\ejemplos\BME680\bme680.c ****  */
1029:D:\mcu\design-mpu\source\ejemplos\BME680\bme680.c **** static float calc_temperature(uint32_t temp_adc, struct bme680_dev *dev)
1030:D:\mcu\design-mpu\source\ejemplos\BME680\bme680.c **** {
1031:D:\mcu\design-mpu\source\ejemplos\BME680\bme680.c **** 	float var1 = 0;
1032:D:\mcu\design-mpu\source\ejemplos\BME680\bme680.c **** 	float var2 = 0;
1033:D:\mcu\design-mpu\source\ejemplos\BME680\bme680.c **** 	float calc_temp = 0;
1034:D:\mcu\design-mpu\source\ejemplos\BME680\bme680.c **** 
1035:D:\mcu\design-mpu\source\ejemplos\BME680\bme680.c **** 	/* calculate var1 data */
1036:D:\mcu\design-mpu\source\ejemplos\BME680\bme680.c **** 	var1  = ((((float)temp_adc / 16384.0f) - ((float)dev->calib.par_t1 / 1024.0f))
1037:D:\mcu\design-mpu\source\ejemplos\BME680\bme680.c **** 			* ((float)dev->calib.par_t2));
1038:D:\mcu\design-mpu\source\ejemplos\BME680\bme680.c **** 
1039:D:\mcu\design-mpu\source\ejemplos\BME680\bme680.c **** 	/* calculate var2 data */
1040:D:\mcu\design-mpu\source\ejemplos\BME680\bme680.c **** 	var2  = (((((float)temp_adc / 131072.0f) - ((float)dev->calib.par_t1 / 8192.0f)) *
1041:D:\mcu\design-mpu\source\ejemplos\BME680\bme680.c **** 		(((float)temp_adc / 131072.0f) - ((float)dev->calib.par_t1 / 8192.0f))) *
1042:D:\mcu\design-mpu\source\ejemplos\BME680\bme680.c **** 		((float)dev->calib.par_t3 * 16.0f));
1043:D:\mcu\design-mpu\source\ejemplos\BME680\bme680.c **** 
ARM GAS  C:\Users\adria\AppData\Local\Temp\ccQ3AXqi.s 			page 30


1044:D:\mcu\design-mpu\source\ejemplos\BME680\bme680.c **** 	/* t_fine value*/
1045:D:\mcu\design-mpu\source\ejemplos\BME680\bme680.c **** 	dev->calib.t_fine = (var1 + var2);
1046:D:\mcu\design-mpu\source\ejemplos\BME680\bme680.c **** 
1047:D:\mcu\design-mpu\source\ejemplos\BME680\bme680.c **** 	/* compensated temperature data*/
1048:D:\mcu\design-mpu\source\ejemplos\BME680\bme680.c **** 	calc_temp  = ((dev->calib.t_fine) / 5120.0f);
1049:D:\mcu\design-mpu\source\ejemplos\BME680\bme680.c **** 
1050:D:\mcu\design-mpu\source\ejemplos\BME680\bme680.c **** 	return calc_temp;
1051:D:\mcu\design-mpu\source\ejemplos\BME680\bme680.c **** }
1052:D:\mcu\design-mpu\source\ejemplos\BME680\bme680.c **** 
1053:D:\mcu\design-mpu\source\ejemplos\BME680\bme680.c **** /*!
1054:D:\mcu\design-mpu\source\ejemplos\BME680\bme680.c ****  * @brief This internal API is used to calculate the
1055:D:\mcu\design-mpu\source\ejemplos\BME680\bme680.c ****  * pressure value in float format
1056:D:\mcu\design-mpu\source\ejemplos\BME680\bme680.c ****  */
1057:D:\mcu\design-mpu\source\ejemplos\BME680\bme680.c **** static float calc_pressure(uint32_t pres_adc, const struct bme680_dev *dev)
1058:D:\mcu\design-mpu\source\ejemplos\BME680\bme680.c **** {
1059:D:\mcu\design-mpu\source\ejemplos\BME680\bme680.c **** 	float var1 = 0;
1060:D:\mcu\design-mpu\source\ejemplos\BME680\bme680.c **** 	float var2 = 0;
1061:D:\mcu\design-mpu\source\ejemplos\BME680\bme680.c **** 	float var3 = 0;
1062:D:\mcu\design-mpu\source\ejemplos\BME680\bme680.c **** 	float calc_pres = 0;
1063:D:\mcu\design-mpu\source\ejemplos\BME680\bme680.c **** 
1064:D:\mcu\design-mpu\source\ejemplos\BME680\bme680.c **** 	var1 = (((float)dev->calib.t_fine / 2.0f) - 64000.0f);
1065:D:\mcu\design-mpu\source\ejemplos\BME680\bme680.c **** 	var2 = var1 * var1 * (((float)dev->calib.par_p6) / (131072.0f));
1066:D:\mcu\design-mpu\source\ejemplos\BME680\bme680.c **** 	var2 = var2 + (var1 * ((float)dev->calib.par_p5) * 2.0f);
1067:D:\mcu\design-mpu\source\ejemplos\BME680\bme680.c **** 	var2 = (var2 / 4.0f) + (((float)dev->calib.par_p4) * 65536.0f);
1068:D:\mcu\design-mpu\source\ejemplos\BME680\bme680.c **** 	var1 = (((((float)dev->calib.par_p3 * var1 * var1) / 16384.0f)
1069:D:\mcu\design-mpu\source\ejemplos\BME680\bme680.c **** 		+ ((float)dev->calib.par_p2 * var1)) / 524288.0f);
1070:D:\mcu\design-mpu\source\ejemplos\BME680\bme680.c **** 	var1 = ((1.0f + (var1 / 32768.0f)) * ((float)dev->calib.par_p1));
1071:D:\mcu\design-mpu\source\ejemplos\BME680\bme680.c **** 	calc_pres = (1048576.0f - ((float)pres_adc));
1072:D:\mcu\design-mpu\source\ejemplos\BME680\bme680.c **** 
1073:D:\mcu\design-mpu\source\ejemplos\BME680\bme680.c **** 	/* Avoid exception caused by division by zero */
1074:D:\mcu\design-mpu\source\ejemplos\BME680\bme680.c **** 	if ((int)var1 != 0) {
1075:D:\mcu\design-mpu\source\ejemplos\BME680\bme680.c **** 		calc_pres = (((calc_pres - (var2 / 4096.0f)) * 6250.0f) / var1);
1076:D:\mcu\design-mpu\source\ejemplos\BME680\bme680.c **** 		var1 = (((float)dev->calib.par_p9) * calc_pres * calc_pres) / 2147483648.0f;
1077:D:\mcu\design-mpu\source\ejemplos\BME680\bme680.c **** 		var2 = calc_pres * (((float)dev->calib.par_p8) / 32768.0f);
1078:D:\mcu\design-mpu\source\ejemplos\BME680\bme680.c **** 		var3 = ((calc_pres / 256.0f) * (calc_pres / 256.0f) * (calc_pres / 256.0f)
1079:D:\mcu\design-mpu\source\ejemplos\BME680\bme680.c **** 			* (dev->calib.par_p10 / 131072.0f));
1080:D:\mcu\design-mpu\source\ejemplos\BME680\bme680.c **** 		calc_pres = (calc_pres + (var1 + var2 + var3 + ((float)dev->calib.par_p7 * 128.0f)) / 16.0f);
1081:D:\mcu\design-mpu\source\ejemplos\BME680\bme680.c **** 	} else {
1082:D:\mcu\design-mpu\source\ejemplos\BME680\bme680.c **** 		calc_pres = 0;
1083:D:\mcu\design-mpu\source\ejemplos\BME680\bme680.c **** 	}
1084:D:\mcu\design-mpu\source\ejemplos\BME680\bme680.c **** 
1085:D:\mcu\design-mpu\source\ejemplos\BME680\bme680.c **** 	return calc_pres;
1086:D:\mcu\design-mpu\source\ejemplos\BME680\bme680.c **** }
1087:D:\mcu\design-mpu\source\ejemplos\BME680\bme680.c **** 
1088:D:\mcu\design-mpu\source\ejemplos\BME680\bme680.c **** /*!
1089:D:\mcu\design-mpu\source\ejemplos\BME680\bme680.c ****  * @brief This internal API is used to calculate the
1090:D:\mcu\design-mpu\source\ejemplos\BME680\bme680.c ****  * humidity value in float format
1091:D:\mcu\design-mpu\source\ejemplos\BME680\bme680.c ****  */
1092:D:\mcu\design-mpu\source\ejemplos\BME680\bme680.c **** static float calc_humidity(uint16_t hum_adc, const struct bme680_dev *dev)
1093:D:\mcu\design-mpu\source\ejemplos\BME680\bme680.c **** {
1094:D:\mcu\design-mpu\source\ejemplos\BME680\bme680.c **** 	float calc_hum = 0;
1095:D:\mcu\design-mpu\source\ejemplos\BME680\bme680.c **** 	float var1 = 0;
1096:D:\mcu\design-mpu\source\ejemplos\BME680\bme680.c **** 	float var2 = 0;
1097:D:\mcu\design-mpu\source\ejemplos\BME680\bme680.c **** 	float var3 = 0;
1098:D:\mcu\design-mpu\source\ejemplos\BME680\bme680.c **** 	float var4 = 0;
1099:D:\mcu\design-mpu\source\ejemplos\BME680\bme680.c **** 	float temp_comp;
1100:D:\mcu\design-mpu\source\ejemplos\BME680\bme680.c **** 
ARM GAS  C:\Users\adria\AppData\Local\Temp\ccQ3AXqi.s 			page 31


1101:D:\mcu\design-mpu\source\ejemplos\BME680\bme680.c **** 	/* compensated temperature data*/
1102:D:\mcu\design-mpu\source\ejemplos\BME680\bme680.c **** 	temp_comp  = ((dev->calib.t_fine) / 5120.0f);
1103:D:\mcu\design-mpu\source\ejemplos\BME680\bme680.c **** 
1104:D:\mcu\design-mpu\source\ejemplos\BME680\bme680.c **** 	var1 = (float)((float)hum_adc) - (((float)dev->calib.par_h1 * 16.0f) + (((float)dev->calib.par_h3 
1105:D:\mcu\design-mpu\source\ejemplos\BME680\bme680.c **** 		* temp_comp));
1106:D:\mcu\design-mpu\source\ejemplos\BME680\bme680.c **** 
1107:D:\mcu\design-mpu\source\ejemplos\BME680\bme680.c **** 	var2 = var1 * ((float)(((float) dev->calib.par_h2 / 262144.0f) * (1.0f + (((float)dev->calib.par_h
1108:D:\mcu\design-mpu\source\ejemplos\BME680\bme680.c **** 		* temp_comp) + (((float)dev->calib.par_h5 / 1048576.0f) * temp_comp * temp_comp))));
1109:D:\mcu\design-mpu\source\ejemplos\BME680\bme680.c **** 
1110:D:\mcu\design-mpu\source\ejemplos\BME680\bme680.c **** 	var3 = (float) dev->calib.par_h6 / 16384.0f;
1111:D:\mcu\design-mpu\source\ejemplos\BME680\bme680.c **** 
1112:D:\mcu\design-mpu\source\ejemplos\BME680\bme680.c **** 	var4 = (float) dev->calib.par_h7 / 2097152.0f;
1113:D:\mcu\design-mpu\source\ejemplos\BME680\bme680.c **** 
1114:D:\mcu\design-mpu\source\ejemplos\BME680\bme680.c **** 	calc_hum = var2 + ((var3 + (var4 * temp_comp)) * var2 * var2);
1115:D:\mcu\design-mpu\source\ejemplos\BME680\bme680.c **** 
1116:D:\mcu\design-mpu\source\ejemplos\BME680\bme680.c **** 	if (calc_hum > 100.0f)
1117:D:\mcu\design-mpu\source\ejemplos\BME680\bme680.c **** 		calc_hum = 100.0f;
1118:D:\mcu\design-mpu\source\ejemplos\BME680\bme680.c **** 	else if (calc_hum < 0.0f)
1119:D:\mcu\design-mpu\source\ejemplos\BME680\bme680.c **** 		calc_hum = 0.0f;
1120:D:\mcu\design-mpu\source\ejemplos\BME680\bme680.c **** 
1121:D:\mcu\design-mpu\source\ejemplos\BME680\bme680.c **** 	return calc_hum;
1122:D:\mcu\design-mpu\source\ejemplos\BME680\bme680.c **** }
1123:D:\mcu\design-mpu\source\ejemplos\BME680\bme680.c **** 
1124:D:\mcu\design-mpu\source\ejemplos\BME680\bme680.c **** /*!
1125:D:\mcu\design-mpu\source\ejemplos\BME680\bme680.c ****  * @brief This internal API is used to calculate the
1126:D:\mcu\design-mpu\source\ejemplos\BME680\bme680.c ****  * gas resistance value in float format
1127:D:\mcu\design-mpu\source\ejemplos\BME680\bme680.c ****  */
1128:D:\mcu\design-mpu\source\ejemplos\BME680\bme680.c **** static float calc_gas_resistance(uint16_t gas_res_adc, uint8_t gas_range, const struct bme680_dev *
1129:D:\mcu\design-mpu\source\ejemplos\BME680\bme680.c **** {
1130:D:\mcu\design-mpu\source\ejemplos\BME680\bme680.c **** 	float calc_gas_res;
1131:D:\mcu\design-mpu\source\ejemplos\BME680\bme680.c **** 	float var1 = 0;
1132:D:\mcu\design-mpu\source\ejemplos\BME680\bme680.c **** 	float var2 = 0;
1133:D:\mcu\design-mpu\source\ejemplos\BME680\bme680.c **** 	float var3 = 0;
1134:D:\mcu\design-mpu\source\ejemplos\BME680\bme680.c **** 
1135:D:\mcu\design-mpu\source\ejemplos\BME680\bme680.c **** 	const float lookup_k1_range[16] = {
1136:D:\mcu\design-mpu\source\ejemplos\BME680\bme680.c **** 	0.0, 0.0, 0.0, 0.0, 0.0, -1.0, 0.0, -0.8,
1137:D:\mcu\design-mpu\source\ejemplos\BME680\bme680.c **** 	0.0, 0.0, -0.2, -0.5, 0.0, -1.0, 0.0, 0.0};
1138:D:\mcu\design-mpu\source\ejemplos\BME680\bme680.c **** 	const float lookup_k2_range[16] = {
1139:D:\mcu\design-mpu\source\ejemplos\BME680\bme680.c **** 	0.0, 0.0, 0.0, 0.0, 0.1, 0.7, 0.0, -0.8,
1140:D:\mcu\design-mpu\source\ejemplos\BME680\bme680.c **** 	-0.1, 0.0, 0.0, 0.0, 0.0, 0.0, 0.0, 0.0};
1141:D:\mcu\design-mpu\source\ejemplos\BME680\bme680.c **** 
1142:D:\mcu\design-mpu\source\ejemplos\BME680\bme680.c **** 	var1 = (1340.0f + (5.0f * dev->calib.range_sw_err));
1143:D:\mcu\design-mpu\source\ejemplos\BME680\bme680.c **** 	var2 = (var1) * (1.0f + lookup_k1_range[gas_range]/100.0f);
1144:D:\mcu\design-mpu\source\ejemplos\BME680\bme680.c **** 	var3 = 1.0f + (lookup_k2_range[gas_range]/100.0f);
1145:D:\mcu\design-mpu\source\ejemplos\BME680\bme680.c **** 
1146:D:\mcu\design-mpu\source\ejemplos\BME680\bme680.c **** 	calc_gas_res = 1.0f / (float)(var3 * (0.000000125f) * (float)(1 << gas_range) * (((((float)gas_res
1147:D:\mcu\design-mpu\source\ejemplos\BME680\bme680.c **** 		- 512.0f)/var2) + 1.0f));
1148:D:\mcu\design-mpu\source\ejemplos\BME680\bme680.c **** 
1149:D:\mcu\design-mpu\source\ejemplos\BME680\bme680.c **** 	return calc_gas_res;
1150:D:\mcu\design-mpu\source\ejemplos\BME680\bme680.c **** }
1151:D:\mcu\design-mpu\source\ejemplos\BME680\bme680.c **** 
1152:D:\mcu\design-mpu\source\ejemplos\BME680\bme680.c **** /*!
1153:D:\mcu\design-mpu\source\ejemplos\BME680\bme680.c ****  * @brief This internal API is used to calculate the
1154:D:\mcu\design-mpu\source\ejemplos\BME680\bme680.c ****  * heater resistance value in float format
1155:D:\mcu\design-mpu\source\ejemplos\BME680\bme680.c ****  */
1156:D:\mcu\design-mpu\source\ejemplos\BME680\bme680.c **** static float calc_heater_res(uint16_t temp, const struct bme680_dev *dev)
1157:D:\mcu\design-mpu\source\ejemplos\BME680\bme680.c **** {
ARM GAS  C:\Users\adria\AppData\Local\Temp\ccQ3AXqi.s 			page 32


1158:D:\mcu\design-mpu\source\ejemplos\BME680\bme680.c **** 	float var1 = 0;
1159:D:\mcu\design-mpu\source\ejemplos\BME680\bme680.c **** 	float var2 = 0;
1160:D:\mcu\design-mpu\source\ejemplos\BME680\bme680.c **** 	float var3 = 0;
1161:D:\mcu\design-mpu\source\ejemplos\BME680\bme680.c **** 	float var4 = 0;
1162:D:\mcu\design-mpu\source\ejemplos\BME680\bme680.c **** 	float var5 = 0;
1163:D:\mcu\design-mpu\source\ejemplos\BME680\bme680.c **** 	float res_heat = 0;
1164:D:\mcu\design-mpu\source\ejemplos\BME680\bme680.c **** 
1165:D:\mcu\design-mpu\source\ejemplos\BME680\bme680.c **** 	if (temp > 400) /* Cap temperature */
1166:D:\mcu\design-mpu\source\ejemplos\BME680\bme680.c **** 		temp = 400;
1167:D:\mcu\design-mpu\source\ejemplos\BME680\bme680.c **** 
1168:D:\mcu\design-mpu\source\ejemplos\BME680\bme680.c **** 	var1 = (((float)dev->calib.par_gh1 / (16.0f)) + 49.0f);
1169:D:\mcu\design-mpu\source\ejemplos\BME680\bme680.c **** 	var2 = ((((float)dev->calib.par_gh2 / (32768.0f)) * (0.0005f)) + 0.00235f);
1170:D:\mcu\design-mpu\source\ejemplos\BME680\bme680.c **** 	var3 = ((float)dev->calib.par_gh3 / (1024.0f));
1171:D:\mcu\design-mpu\source\ejemplos\BME680\bme680.c **** 	var4 = (var1 * (1.0f + (var2 * (float)temp)));
1172:D:\mcu\design-mpu\source\ejemplos\BME680\bme680.c **** 	var5 = (var4 + (var3 * (float)dev->amb_temp));
1173:D:\mcu\design-mpu\source\ejemplos\BME680\bme680.c **** 	res_heat = (uint8_t)(3.4f * ((var5 * (4 / (4 + (float)dev->calib.res_heat_range)) *
1174:D:\mcu\design-mpu\source\ejemplos\BME680\bme680.c **** 		(1/(1 + ((float) dev->calib.res_heat_val * 0.002f)))) - 25));
1175:D:\mcu\design-mpu\source\ejemplos\BME680\bme680.c **** 
1176:D:\mcu\design-mpu\source\ejemplos\BME680\bme680.c **** 	return res_heat;
1177:D:\mcu\design-mpu\source\ejemplos\BME680\bme680.c **** }
1178:D:\mcu\design-mpu\source\ejemplos\BME680\bme680.c **** 
1179:D:\mcu\design-mpu\source\ejemplos\BME680\bme680.c **** #endif
1180:D:\mcu\design-mpu\source\ejemplos\BME680\bme680.c **** 
1181:D:\mcu\design-mpu\source\ejemplos\BME680\bme680.c **** /*!
1182:D:\mcu\design-mpu\source\ejemplos\BME680\bme680.c ****  * @brief This internal API is used to calculate the Heat duration value.
1183:D:\mcu\design-mpu\source\ejemplos\BME680\bme680.c ****  */
1184:D:\mcu\design-mpu\source\ejemplos\BME680\bme680.c **** static uint8_t calc_heater_dur(uint16_t dur)
1185:D:\mcu\design-mpu\source\ejemplos\BME680\bme680.c **** {
 597              		.loc 1 1185 0
 598              		.cfi_startproc
 599              		@ args = 0, pretend = 0, frame = 0
 600              		@ frame_needed = 0, uses_anonymous_args = 0
 601              		@ link register save eliminated.
 602              	.LVL84:
1186:D:\mcu\design-mpu\source\ejemplos\BME680\bme680.c **** 	uint8_t factor = 0;
1187:D:\mcu\design-mpu\source\ejemplos\BME680\bme680.c **** 	uint8_t durval;
1188:D:\mcu\design-mpu\source\ejemplos\BME680\bme680.c **** 
1189:D:\mcu\design-mpu\source\ejemplos\BME680\bme680.c **** 	if (dur >= 0xfc0) {
 603              		.loc 1 1189 0
 604 0000 B0F57C6F 		cmp	r0, #4032
 605 0004 0CD2     		bcs	.L28
 606 0006 0023     		movs	r3, #0
 607 0008 02E0     		b	.L26
 608              	.LVL85:
 609              	.L27:
1190:D:\mcu\design-mpu\source\ejemplos\BME680\bme680.c **** 		durval = 0xff; /* Max duration*/
1191:D:\mcu\design-mpu\source\ejemplos\BME680\bme680.c **** 	} else {
1192:D:\mcu\design-mpu\source\ejemplos\BME680\bme680.c **** 		while (dur > 0x3F) {
1193:D:\mcu\design-mpu\source\ejemplos\BME680\bme680.c **** 			dur = dur / 4;
 610              		.loc 1 1193 0
 611 000a 8008     		lsrs	r0, r0, #2
 612              	.LVL86:
1194:D:\mcu\design-mpu\source\ejemplos\BME680\bme680.c **** 			factor += 1;
 613              		.loc 1 1194 0
 614 000c 0133     		adds	r3, r3, #1
 615              	.LVL87:
 616 000e DBB2     		uxtb	r3, r3
ARM GAS  C:\Users\adria\AppData\Local\Temp\ccQ3AXqi.s 			page 33


 617              	.LVL88:
 618              	.L26:
1192:D:\mcu\design-mpu\source\ejemplos\BME680\bme680.c **** 			dur = dur / 4;
 619              		.loc 1 1192 0
 620 0010 3F28     		cmp	r0, #63
 621 0012 FAD8     		bhi	.L27
1195:D:\mcu\design-mpu\source\ejemplos\BME680\bme680.c **** 		}
1196:D:\mcu\design-mpu\source\ejemplos\BME680\bme680.c **** 		durval = (uint8_t) (dur + (factor * 64));
 622              		.loc 1 1196 0
 623 0014 C0B2     		uxtb	r0, r0
 624              	.LVL89:
 625 0016 9B01     		lsls	r3, r3, #6
 626              	.LVL90:
 627 0018 DBB2     		uxtb	r3, r3
 628 001a 1844     		add	r0, r0, r3
 629 001c C0B2     		uxtb	r0, r0
 630              	.LVL91:
 631 001e 7047     		bx	lr
 632              	.LVL92:
 633              	.L28:
1190:D:\mcu\design-mpu\source\ejemplos\BME680\bme680.c **** 	} else {
 634              		.loc 1 1190 0
 635 0020 FF20     		movs	r0, #255
 636              	.LVL93:
1197:D:\mcu\design-mpu\source\ejemplos\BME680\bme680.c **** 	}
1198:D:\mcu\design-mpu\source\ejemplos\BME680\bme680.c **** 
1199:D:\mcu\design-mpu\source\ejemplos\BME680\bme680.c **** 	return durval;
1200:D:\mcu\design-mpu\source\ejemplos\BME680\bme680.c **** }
 637              		.loc 1 1200 0
 638 0022 7047     		bx	lr
 639              		.cfi_endproc
 640              	.LFE82:
 641              		.size	calc_heater_dur, .-calc_heater_dur
 642              		.section	.text.boundary_check,"ax",%progbits
 643              		.align	2
 644              		.thumb
 645              		.thumb_func
 646              		.type	boundary_check, %function
 647              	boundary_check:
 648              	.LFB86:
1201:D:\mcu\design-mpu\source\ejemplos\BME680\bme680.c **** 
1202:D:\mcu\design-mpu\source\ejemplos\BME680\bme680.c **** /*!
1203:D:\mcu\design-mpu\source\ejemplos\BME680\bme680.c ****  * @brief This internal API is used to calculate the field data of sensor.
1204:D:\mcu\design-mpu\source\ejemplos\BME680\bme680.c ****  */
1205:D:\mcu\design-mpu\source\ejemplos\BME680\bme680.c **** static int8_t read_field_data(struct bme680_field_data *data, struct bme680_dev *dev)
1206:D:\mcu\design-mpu\source\ejemplos\BME680\bme680.c **** {
1207:D:\mcu\design-mpu\source\ejemplos\BME680\bme680.c **** 	int8_t rslt;
1208:D:\mcu\design-mpu\source\ejemplos\BME680\bme680.c **** 	uint8_t buff[BME680_FIELD_LENGTH] = { 0 };
1209:D:\mcu\design-mpu\source\ejemplos\BME680\bme680.c **** 	uint8_t gas_range;
1210:D:\mcu\design-mpu\source\ejemplos\BME680\bme680.c **** 	uint32_t adc_temp;
1211:D:\mcu\design-mpu\source\ejemplos\BME680\bme680.c **** 	uint32_t adc_pres;
1212:D:\mcu\design-mpu\source\ejemplos\BME680\bme680.c **** 	uint16_t adc_hum;
1213:D:\mcu\design-mpu\source\ejemplos\BME680\bme680.c **** 	uint16_t adc_gas_res;
1214:D:\mcu\design-mpu\source\ejemplos\BME680\bme680.c **** 	uint8_t tries = 10;
1215:D:\mcu\design-mpu\source\ejemplos\BME680\bme680.c **** 
1216:D:\mcu\design-mpu\source\ejemplos\BME680\bme680.c **** 	/* Check for null pointer in the device structure*/
1217:D:\mcu\design-mpu\source\ejemplos\BME680\bme680.c **** 	rslt = null_ptr_check(dev);
ARM GAS  C:\Users\adria\AppData\Local\Temp\ccQ3AXqi.s 			page 34


1218:D:\mcu\design-mpu\source\ejemplos\BME680\bme680.c **** 	do {
1219:D:\mcu\design-mpu\source\ejemplos\BME680\bme680.c **** 		if (rslt == BME680_OK) {
1220:D:\mcu\design-mpu\source\ejemplos\BME680\bme680.c **** 			rslt = bme680_get_regs(((uint8_t) (BME680_FIELD0_ADDR)), buff, (uint16_t) BME680_FIELD_LENGTH,
1221:D:\mcu\design-mpu\source\ejemplos\BME680\bme680.c **** 				dev);
1222:D:\mcu\design-mpu\source\ejemplos\BME680\bme680.c **** 
1223:D:\mcu\design-mpu\source\ejemplos\BME680\bme680.c **** 			data->status = buff[0] & BME680_NEW_DATA_MSK;
1224:D:\mcu\design-mpu\source\ejemplos\BME680\bme680.c **** 			data->gas_index = buff[0] & BME680_GAS_INDEX_MSK;
1225:D:\mcu\design-mpu\source\ejemplos\BME680\bme680.c **** 			data->meas_index = buff[1];
1226:D:\mcu\design-mpu\source\ejemplos\BME680\bme680.c **** 
1227:D:\mcu\design-mpu\source\ejemplos\BME680\bme680.c **** 			/* read the raw data from the sensor */
1228:D:\mcu\design-mpu\source\ejemplos\BME680\bme680.c **** 			adc_pres = (uint32_t) (((uint32_t) buff[2] * 4096) | ((uint32_t) buff[3] * 16)
1229:D:\mcu\design-mpu\source\ejemplos\BME680\bme680.c **** 				| ((uint32_t) buff[4] / 16));
1230:D:\mcu\design-mpu\source\ejemplos\BME680\bme680.c **** 			adc_temp = (uint32_t) (((uint32_t) buff[5] * 4096) | ((uint32_t) buff[6] * 16)
1231:D:\mcu\design-mpu\source\ejemplos\BME680\bme680.c **** 				| ((uint32_t) buff[7] / 16));
1232:D:\mcu\design-mpu\source\ejemplos\BME680\bme680.c **** 			adc_hum = (uint16_t) (((uint32_t) buff[8] * 256) | (uint32_t) buff[9]);
1233:D:\mcu\design-mpu\source\ejemplos\BME680\bme680.c **** 			adc_gas_res = (uint16_t) ((uint32_t) buff[13] * 4 | (((uint32_t) buff[14]) / 64));
1234:D:\mcu\design-mpu\source\ejemplos\BME680\bme680.c **** 			gas_range = buff[14] & BME680_GAS_RANGE_MSK;
1235:D:\mcu\design-mpu\source\ejemplos\BME680\bme680.c **** 
1236:D:\mcu\design-mpu\source\ejemplos\BME680\bme680.c **** 			data->status |= buff[14] & BME680_GASM_VALID_MSK;
1237:D:\mcu\design-mpu\source\ejemplos\BME680\bme680.c **** 			data->status |= buff[14] & BME680_HEAT_STAB_MSK;
1238:D:\mcu\design-mpu\source\ejemplos\BME680\bme680.c **** 
1239:D:\mcu\design-mpu\source\ejemplos\BME680\bme680.c **** 			if (data->status & BME680_NEW_DATA_MSK) {
1240:D:\mcu\design-mpu\source\ejemplos\BME680\bme680.c **** 				data->temperature = calc_temperature(adc_temp, dev);
1241:D:\mcu\design-mpu\source\ejemplos\BME680\bme680.c **** 				data->pressure = calc_pressure(adc_pres, dev);
1242:D:\mcu\design-mpu\source\ejemplos\BME680\bme680.c **** 				data->humidity = calc_humidity(adc_hum, dev);
1243:D:\mcu\design-mpu\source\ejemplos\BME680\bme680.c **** 				data->gas_resistance = calc_gas_resistance(adc_gas_res, gas_range, dev);
1244:D:\mcu\design-mpu\source\ejemplos\BME680\bme680.c **** 				break;
1245:D:\mcu\design-mpu\source\ejemplos\BME680\bme680.c **** 			}
1246:D:\mcu\design-mpu\source\ejemplos\BME680\bme680.c **** 			/* Delay to poll the data */
1247:D:\mcu\design-mpu\source\ejemplos\BME680\bme680.c **** 			dev->delay_ms(BME680_POLL_PERIOD_MS);
1248:D:\mcu\design-mpu\source\ejemplos\BME680\bme680.c **** 		}
1249:D:\mcu\design-mpu\source\ejemplos\BME680\bme680.c **** 		tries--;
1250:D:\mcu\design-mpu\source\ejemplos\BME680\bme680.c **** 	} while (tries);
1251:D:\mcu\design-mpu\source\ejemplos\BME680\bme680.c **** 
1252:D:\mcu\design-mpu\source\ejemplos\BME680\bme680.c **** 	if (!tries)
1253:D:\mcu\design-mpu\source\ejemplos\BME680\bme680.c **** 		rslt = BME680_W_NO_NEW_DATA;
1254:D:\mcu\design-mpu\source\ejemplos\BME680\bme680.c **** 
1255:D:\mcu\design-mpu\source\ejemplos\BME680\bme680.c **** 	return rslt;
1256:D:\mcu\design-mpu\source\ejemplos\BME680\bme680.c **** }
1257:D:\mcu\design-mpu\source\ejemplos\BME680\bme680.c **** 
1258:D:\mcu\design-mpu\source\ejemplos\BME680\bme680.c **** /*!
1259:D:\mcu\design-mpu\source\ejemplos\BME680\bme680.c ****  * @brief This internal API is used to set the memory page based on register address.
1260:D:\mcu\design-mpu\source\ejemplos\BME680\bme680.c ****  */
1261:D:\mcu\design-mpu\source\ejemplos\BME680\bme680.c **** static int8_t set_mem_page(uint8_t reg_addr, struct bme680_dev *dev)
1262:D:\mcu\design-mpu\source\ejemplos\BME680\bme680.c **** {
1263:D:\mcu\design-mpu\source\ejemplos\BME680\bme680.c **** 	int8_t rslt;
1264:D:\mcu\design-mpu\source\ejemplos\BME680\bme680.c **** 	uint8_t reg;
1265:D:\mcu\design-mpu\source\ejemplos\BME680\bme680.c **** 	uint8_t mem_page;
1266:D:\mcu\design-mpu\source\ejemplos\BME680\bme680.c **** 
1267:D:\mcu\design-mpu\source\ejemplos\BME680\bme680.c **** 	/* Check for null pointers in the device structure*/
1268:D:\mcu\design-mpu\source\ejemplos\BME680\bme680.c **** 	rslt = null_ptr_check(dev);
1269:D:\mcu\design-mpu\source\ejemplos\BME680\bme680.c **** 	if (rslt == BME680_OK) {
1270:D:\mcu\design-mpu\source\ejemplos\BME680\bme680.c **** 		if (reg_addr > 0x7f)
1271:D:\mcu\design-mpu\source\ejemplos\BME680\bme680.c **** 			mem_page = BME680_MEM_PAGE1;
1272:D:\mcu\design-mpu\source\ejemplos\BME680\bme680.c **** 		else
1273:D:\mcu\design-mpu\source\ejemplos\BME680\bme680.c **** 			mem_page = BME680_MEM_PAGE0;
1274:D:\mcu\design-mpu\source\ejemplos\BME680\bme680.c **** 
ARM GAS  C:\Users\adria\AppData\Local\Temp\ccQ3AXqi.s 			page 35


1275:D:\mcu\design-mpu\source\ejemplos\BME680\bme680.c **** 		if (mem_page != dev->mem_page) {
1276:D:\mcu\design-mpu\source\ejemplos\BME680\bme680.c **** 			dev->mem_page = mem_page;
1277:D:\mcu\design-mpu\source\ejemplos\BME680\bme680.c **** 
1278:D:\mcu\design-mpu\source\ejemplos\BME680\bme680.c **** 			dev->com_rslt = dev->read(dev->dev_id, BME680_MEM_PAGE_ADDR | BME680_SPI_RD_MSK, &reg, 1);
1279:D:\mcu\design-mpu\source\ejemplos\BME680\bme680.c **** 			if (dev->com_rslt != 0)
1280:D:\mcu\design-mpu\source\ejemplos\BME680\bme680.c **** 				rslt = BME680_E_COM_FAIL;
1281:D:\mcu\design-mpu\source\ejemplos\BME680\bme680.c **** 
1282:D:\mcu\design-mpu\source\ejemplos\BME680\bme680.c **** 			if (rslt == BME680_OK) {
1283:D:\mcu\design-mpu\source\ejemplos\BME680\bme680.c **** 				reg = reg & (~BME680_MEM_PAGE_MSK);
1284:D:\mcu\design-mpu\source\ejemplos\BME680\bme680.c **** 				reg = reg | (dev->mem_page & BME680_MEM_PAGE_MSK);
1285:D:\mcu\design-mpu\source\ejemplos\BME680\bme680.c **** 
1286:D:\mcu\design-mpu\source\ejemplos\BME680\bme680.c **** 				dev->com_rslt = dev->write(dev->dev_id, BME680_MEM_PAGE_ADDR & BME680_SPI_WR_MSK,
1287:D:\mcu\design-mpu\source\ejemplos\BME680\bme680.c **** 					&reg, 1);
1288:D:\mcu\design-mpu\source\ejemplos\BME680\bme680.c **** 				if (dev->com_rslt != 0)
1289:D:\mcu\design-mpu\source\ejemplos\BME680\bme680.c **** 					rslt = BME680_E_COM_FAIL;
1290:D:\mcu\design-mpu\source\ejemplos\BME680\bme680.c **** 			}
1291:D:\mcu\design-mpu\source\ejemplos\BME680\bme680.c **** 		}
1292:D:\mcu\design-mpu\source\ejemplos\BME680\bme680.c **** 	}
1293:D:\mcu\design-mpu\source\ejemplos\BME680\bme680.c **** 
1294:D:\mcu\design-mpu\source\ejemplos\BME680\bme680.c **** 	return rslt;
1295:D:\mcu\design-mpu\source\ejemplos\BME680\bme680.c **** }
1296:D:\mcu\design-mpu\source\ejemplos\BME680\bme680.c **** 
1297:D:\mcu\design-mpu\source\ejemplos\BME680\bme680.c **** /*!
1298:D:\mcu\design-mpu\source\ejemplos\BME680\bme680.c ****  * @brief This internal API is used to get the memory page based on register address.
1299:D:\mcu\design-mpu\source\ejemplos\BME680\bme680.c ****  */
1300:D:\mcu\design-mpu\source\ejemplos\BME680\bme680.c **** static int8_t get_mem_page(struct bme680_dev *dev)
1301:D:\mcu\design-mpu\source\ejemplos\BME680\bme680.c **** {
1302:D:\mcu\design-mpu\source\ejemplos\BME680\bme680.c **** 	int8_t rslt;
1303:D:\mcu\design-mpu\source\ejemplos\BME680\bme680.c **** 	uint8_t reg;
1304:D:\mcu\design-mpu\source\ejemplos\BME680\bme680.c **** 
1305:D:\mcu\design-mpu\source\ejemplos\BME680\bme680.c **** 	/* Check for null pointer in the device structure*/
1306:D:\mcu\design-mpu\source\ejemplos\BME680\bme680.c **** 	rslt = null_ptr_check(dev);
1307:D:\mcu\design-mpu\source\ejemplos\BME680\bme680.c **** 	if (rslt == BME680_OK) {
1308:D:\mcu\design-mpu\source\ejemplos\BME680\bme680.c **** 		dev->com_rslt = dev->read(dev->dev_id, BME680_MEM_PAGE_ADDR | BME680_SPI_RD_MSK, &reg, 1);
1309:D:\mcu\design-mpu\source\ejemplos\BME680\bme680.c **** 		if (dev->com_rslt != 0)
1310:D:\mcu\design-mpu\source\ejemplos\BME680\bme680.c **** 			rslt = BME680_E_COM_FAIL;
1311:D:\mcu\design-mpu\source\ejemplos\BME680\bme680.c **** 		else
1312:D:\mcu\design-mpu\source\ejemplos\BME680\bme680.c **** 			dev->mem_page = reg & BME680_MEM_PAGE_MSK;
1313:D:\mcu\design-mpu\source\ejemplos\BME680\bme680.c **** 	}
1314:D:\mcu\design-mpu\source\ejemplos\BME680\bme680.c **** 
1315:D:\mcu\design-mpu\source\ejemplos\BME680\bme680.c **** 	return rslt;
1316:D:\mcu\design-mpu\source\ejemplos\BME680\bme680.c **** }
1317:D:\mcu\design-mpu\source\ejemplos\BME680\bme680.c **** 
1318:D:\mcu\design-mpu\source\ejemplos\BME680\bme680.c **** /*!
1319:D:\mcu\design-mpu\source\ejemplos\BME680\bme680.c ****  * @brief This internal API is used to validate the boundary
1320:D:\mcu\design-mpu\source\ejemplos\BME680\bme680.c ****  * conditions.
1321:D:\mcu\design-mpu\source\ejemplos\BME680\bme680.c ****  */
1322:D:\mcu\design-mpu\source\ejemplos\BME680\bme680.c **** static int8_t boundary_check(uint8_t *value, uint8_t min, uint8_t max, struct bme680_dev *dev)
1323:D:\mcu\design-mpu\source\ejemplos\BME680\bme680.c **** {
 649              		.loc 1 1323 0
 650              		.cfi_startproc
 651              		@ args = 0, pretend = 0, frame = 0
 652              		@ frame_needed = 0, uses_anonymous_args = 0
 653              		@ link register save eliminated.
 654              	.LVL94:
1324:D:\mcu\design-mpu\source\ejemplos\BME680\bme680.c **** 	int8_t rslt = BME680_OK;
1325:D:\mcu\design-mpu\source\ejemplos\BME680\bme680.c **** 
ARM GAS  C:\Users\adria\AppData\Local\Temp\ccQ3AXqi.s 			page 36


1326:D:\mcu\design-mpu\source\ejemplos\BME680\bme680.c **** 	if (value != NULL) {
 655              		.loc 1 1326 0
 656 0000 B8B1     		cbz	r0, .L32
1323:D:\mcu\design-mpu\source\ejemplos\BME680\bme680.c **** 	int8_t rslt = BME680_OK;
 657              		.loc 1 1323 0
 658 0002 10B4     		push	{r4}
 659              		.cfi_def_cfa_offset 4
 660              		.cfi_offset 4, -4
 661 0004 0446     		mov	r4, r0
1327:D:\mcu\design-mpu\source\ejemplos\BME680\bme680.c **** 		/* Check if value is below minimum value */
1328:D:\mcu\design-mpu\source\ejemplos\BME680\bme680.c **** 		if (*value < min) {
 662              		.loc 1 1328 0
 663 0006 0078     		ldrb	r0, [r0]	@ zero_extendqisi2
 664              	.LVL95:
 665 0008 8842     		cmp	r0, r1
 666 000a 06D2     		bcs	.L31
1329:D:\mcu\design-mpu\source\ejemplos\BME680\bme680.c **** 			/* Auto correct the invalid value to minimum value */
1330:D:\mcu\design-mpu\source\ejemplos\BME680\bme680.c **** 			*value = min;
 667              		.loc 1 1330 0
 668 000c 2170     		strb	r1, [r4]
1331:D:\mcu\design-mpu\source\ejemplos\BME680\bme680.c **** 			dev->info_msg |= BME680_I_MIN_CORRECTION;
 669              		.loc 1 1331 0
 670 000e 93F84610 		ldrb	r1, [r3, #70]	@ zero_extendqisi2
 671              	.LVL96:
 672 0012 41F00101 		orr	r1, r1, #1
 673 0016 83F84610 		strb	r1, [r3, #70]
 674              	.LVL97:
 675              	.L31:
1332:D:\mcu\design-mpu\source\ejemplos\BME680\bme680.c **** 		}
1333:D:\mcu\design-mpu\source\ejemplos\BME680\bme680.c **** 		/* Check if value is above maximum value */
1334:D:\mcu\design-mpu\source\ejemplos\BME680\bme680.c **** 		if (*value > max) {
 676              		.loc 1 1334 0
 677 001a 2178     		ldrb	r1, [r4]	@ zero_extendqisi2
 678 001c 9142     		cmp	r1, r2
 679 001e 0BD9     		bls	.L33
1335:D:\mcu\design-mpu\source\ejemplos\BME680\bme680.c **** 			/* Auto correct the invalid value to maximum value */
1336:D:\mcu\design-mpu\source\ejemplos\BME680\bme680.c **** 			*value = max;
 680              		.loc 1 1336 0
 681 0020 2270     		strb	r2, [r4]
1337:D:\mcu\design-mpu\source\ejemplos\BME680\bme680.c **** 			dev->info_msg |= BME680_I_MAX_CORRECTION;
 682              		.loc 1 1337 0
 683 0022 93F84620 		ldrb	r2, [r3, #70]	@ zero_extendqisi2
 684              	.LVL98:
 685 0026 42F00202 		orr	r2, r2, #2
 686 002a 83F84620 		strb	r2, [r3, #70]
 687              	.LVL99:
1324:D:\mcu\design-mpu\source\ejemplos\BME680\bme680.c **** 
 688              		.loc 1 1324 0
 689 002e 0020     		movs	r0, #0
 690 0030 03E0     		b	.L30
 691              	.LVL100:
 692              	.L32:
 693              		.cfi_def_cfa_offset 0
 694              		.cfi_restore 4
1338:D:\mcu\design-mpu\source\ejemplos\BME680\bme680.c **** 		}
1339:D:\mcu\design-mpu\source\ejemplos\BME680\bme680.c **** 	} else {
1340:D:\mcu\design-mpu\source\ejemplos\BME680\bme680.c **** 		rslt = BME680_E_NULL_PTR;
ARM GAS  C:\Users\adria\AppData\Local\Temp\ccQ3AXqi.s 			page 37


 695              		.loc 1 1340 0
 696 0032 4FF0FF30 		mov	r0, #-1
 697              	.LVL101:
1341:D:\mcu\design-mpu\source\ejemplos\BME680\bme680.c **** 	}
1342:D:\mcu\design-mpu\source\ejemplos\BME680\bme680.c **** 
1343:D:\mcu\design-mpu\source\ejemplos\BME680\bme680.c **** 	return rslt;
1344:D:\mcu\design-mpu\source\ejemplos\BME680\bme680.c **** }
 698              		.loc 1 1344 0
 699 0036 7047     		bx	lr
 700              	.LVL102:
 701              	.L33:
 702              		.cfi_def_cfa_offset 4
 703              		.cfi_offset 4, -4
1324:D:\mcu\design-mpu\source\ejemplos\BME680\bme680.c **** 
 704              		.loc 1 1324 0
 705 0038 0020     		movs	r0, #0
 706              	.LVL103:
 707              	.L30:
 708              		.loc 1 1344 0
 709 003a 10BC     		pop	{r4}
 710              		.cfi_restore 4
 711              		.cfi_def_cfa_offset 0
 712              	.LVL104:
 713 003c 7047     		bx	lr
 714              		.cfi_endproc
 715              	.LFE86:
 716              		.size	boundary_check, .-boundary_check
 717 003e 00BF     		.section	.text.null_ptr_check,"ax",%progbits
 718              		.align	2
 719              		.thumb
 720              		.thumb_func
 721              		.type	null_ptr_check, %function
 722              	null_ptr_check:
 723              	.LFB87:
1345:D:\mcu\design-mpu\source\ejemplos\BME680\bme680.c **** 
1346:D:\mcu\design-mpu\source\ejemplos\BME680\bme680.c **** /*!
1347:D:\mcu\design-mpu\source\ejemplos\BME680\bme680.c ****  * @brief This internal API is used to validate the device structure pointer for
1348:D:\mcu\design-mpu\source\ejemplos\BME680\bme680.c ****  * null conditions.
1349:D:\mcu\design-mpu\source\ejemplos\BME680\bme680.c ****  */
1350:D:\mcu\design-mpu\source\ejemplos\BME680\bme680.c **** static int8_t null_ptr_check(const struct bme680_dev *dev)
1351:D:\mcu\design-mpu\source\ejemplos\BME680\bme680.c **** {
 724              		.loc 1 1351 0
 725              		.cfi_startproc
 726              		@ args = 0, pretend = 0, frame = 0
 727              		@ frame_needed = 0, uses_anonymous_args = 0
 728              		@ link register save eliminated.
 729              	.LVL105:
1352:D:\mcu\design-mpu\source\ejemplos\BME680\bme680.c **** 	int8_t rslt;
1353:D:\mcu\design-mpu\source\ejemplos\BME680\bme680.c **** 
1354:D:\mcu\design-mpu\source\ejemplos\BME680\bme680.c **** 	if ((dev == NULL) || (dev->read == NULL) || (dev->write == NULL) || (dev->delay_ms == NULL)) {
 730              		.loc 1 1354 0
 731 0000 40B1     		cbz	r0, .L37
 732              		.loc 1 1354 0 is_stmt 0 discriminator 1
 733 0002 826C     		ldr	r2, [r0, #72]
 734 0004 4AB1     		cbz	r2, .L38
 735              		.loc 1 1354 0 discriminator 2
 736 0006 C26C     		ldr	r2, [r0, #76]
ARM GAS  C:\Users\adria\AppData\Local\Temp\ccQ3AXqi.s 			page 38


 737 0008 52B1     		cbz	r2, .L39
 738              		.loc 1 1354 0 discriminator 3
 739 000a 036D     		ldr	r3, [r0, #80]
 740 000c 5BB9     		cbnz	r3, .L40
1355:D:\mcu\design-mpu\source\ejemplos\BME680\bme680.c **** 		/* Device structure pointer is not valid */
1356:D:\mcu\design-mpu\source\ejemplos\BME680\bme680.c **** 		rslt = BME680_E_NULL_PTR;
 741              		.loc 1 1356 0 is_stmt 1
 742 000e 4FF0FF30 		mov	r0, #-1
 743              	.LVL106:
 744 0012 7047     		bx	lr
 745              	.LVL107:
 746              	.L37:
 747 0014 4FF0FF30 		mov	r0, #-1
 748              	.LVL108:
 749 0018 7047     		bx	lr
 750              	.LVL109:
 751              	.L38:
 752 001a 4FF0FF30 		mov	r0, #-1
 753              	.LVL110:
 754 001e 7047     		bx	lr
 755              	.LVL111:
 756              	.L39:
 757 0020 4FF0FF30 		mov	r0, #-1
 758              	.LVL112:
 759 0024 7047     		bx	lr
 760              	.LVL113:
 761              	.L40:
1357:D:\mcu\design-mpu\source\ejemplos\BME680\bme680.c **** 	} else {
1358:D:\mcu\design-mpu\source\ejemplos\BME680\bme680.c **** 		/* Device structure is fine */
1359:D:\mcu\design-mpu\source\ejemplos\BME680\bme680.c **** 		rslt = BME680_OK;
 762              		.loc 1 1359 0
 763 0026 0020     		movs	r0, #0
 764              	.LVL114:
1360:D:\mcu\design-mpu\source\ejemplos\BME680\bme680.c **** 	}
1361:D:\mcu\design-mpu\source\ejemplos\BME680\bme680.c **** 
1362:D:\mcu\design-mpu\source\ejemplos\BME680\bme680.c **** 	return rslt;
1363:D:\mcu\design-mpu\source\ejemplos\BME680\bme680.c **** }
 765              		.loc 1 1363 0
 766 0028 7047     		bx	lr
 767              		.cfi_endproc
 768              	.LFE87:
 769              		.size	null_ptr_check, .-null_ptr_check
 770 002a 00BF     		.section	.text.set_mem_page,"ax",%progbits
 771              		.align	2
 772              		.thumb
 773              		.thumb_func
 774              		.type	set_mem_page, %function
 775              	set_mem_page:
 776              	.LFB84:
1262:D:\mcu\design-mpu\source\ejemplos\BME680\bme680.c **** 	int8_t rslt;
 777              		.loc 1 1262 0
 778              		.cfi_startproc
 779              		@ args = 0, pretend = 0, frame = 8
 780              		@ frame_needed = 0, uses_anonymous_args = 0
 781              	.LVL115:
 782 0000 70B5     		push	{r4, r5, r6, lr}
 783              		.cfi_def_cfa_offset 16
ARM GAS  C:\Users\adria\AppData\Local\Temp\ccQ3AXqi.s 			page 39


 784              		.cfi_offset 4, -16
 785              		.cfi_offset 5, -12
 786              		.cfi_offset 6, -8
 787              		.cfi_offset 14, -4
 788 0002 82B0     		sub	sp, sp, #8
 789              		.cfi_def_cfa_offset 24
 790 0004 0646     		mov	r6, r0
 791 0006 0C46     		mov	r4, r1
1268:D:\mcu\design-mpu\source\ejemplos\BME680\bme680.c **** 	if (rslt == BME680_OK) {
 792              		.loc 1 1268 0
 793 0008 0846     		mov	r0, r1
 794              	.LVL116:
 795 000a FFF7FEFF 		bl	null_ptr_check
 796              	.LVL117:
1269:D:\mcu\design-mpu\source\ejemplos\BME680\bme680.c **** 		if (reg_addr > 0x7f)
 797              		.loc 1 1269 0
 798 000e 0546     		mov	r5, r0
 799 0010 58BB     		cbnz	r0, .L42
1270:D:\mcu\design-mpu\source\ejemplos\BME680\bme680.c **** 			mem_page = BME680_MEM_PAGE1;
 800              		.loc 1 1270 0
 801 0012 16F0800F 		tst	r6, #128
 802 0016 01D0     		beq	.L45
1271:D:\mcu\design-mpu\source\ejemplos\BME680\bme680.c **** 		else
 803              		.loc 1 1271 0
 804 0018 0023     		movs	r3, #0
 805 001a 00E0     		b	.L43
 806              	.L45:
1273:D:\mcu\design-mpu\source\ejemplos\BME680\bme680.c **** 
 807              		.loc 1 1273 0
 808 001c 1023     		movs	r3, #16
 809              	.L43:
 810              	.LVL118:
1275:D:\mcu\design-mpu\source\ejemplos\BME680\bme680.c **** 			dev->mem_page = mem_page;
 811              		.loc 1 1275 0
 812 001e E278     		ldrb	r2, [r4, #3]	@ zero_extendqisi2
 813 0020 9342     		cmp	r3, r2
 814 0022 22D0     		beq	.L42
1276:D:\mcu\design-mpu\source\ejemplos\BME680\bme680.c **** 
 815              		.loc 1 1276 0
 816 0024 E370     		strb	r3, [r4, #3]
1278:D:\mcu\design-mpu\source\ejemplos\BME680\bme680.c **** 			if (dev->com_rslt != 0)
 817              		.loc 1 1278 0
 818 0026 A66C     		ldr	r6, [r4, #72]
 819 0028 0123     		movs	r3, #1
 820              	.LVL119:
 821 002a 0DF10702 		add	r2, sp, #7
 822 002e F321     		movs	r1, #243
 823 0030 6078     		ldrb	r0, [r4, #1]	@ zero_extendqisi2
 824              	.LVL120:
 825 0032 B047     		blx	r6
 826              	.LVL121:
 827 0034 84F85400 		strb	r0, [r4, #84]
1279:D:\mcu\design-mpu\source\ejemplos\BME680\bme680.c **** 				rslt = BME680_E_COM_FAIL;
 828              		.loc 1 1279 0
 829 0038 08B1     		cbz	r0, .L44
1280:D:\mcu\design-mpu\source\ejemplos\BME680\bme680.c **** 
 830              		.loc 1 1280 0
ARM GAS  C:\Users\adria\AppData\Local\Temp\ccQ3AXqi.s 			page 40


 831 003a 6FF00105 		mvn	r5, #1
 832              	.L44:
 833              	.LVL122:
1282:D:\mcu\design-mpu\source\ejemplos\BME680\bme680.c **** 				reg = reg & (~BME680_MEM_PAGE_MSK);
 834              		.loc 1 1282 0
 835 003e A5B9     		cbnz	r5, .L42
1283:D:\mcu\design-mpu\source\ejemplos\BME680\bme680.c **** 				reg = reg | (dev->mem_page & BME680_MEM_PAGE_MSK);
 836              		.loc 1 1283 0
 837 0040 9DF80730 		ldrb	r3, [sp, #7]	@ zero_extendqisi2
 838 0044 03F0EF02 		and	r2, r3, #239
1284:D:\mcu\design-mpu\source\ejemplos\BME680\bme680.c **** 
 839              		.loc 1 1284 0
 840 0048 E378     		ldrb	r3, [r4, #3]	@ zero_extendqisi2
 841 004a 03F01003 		and	r3, r3, #16
 842 004e 1343     		orrs	r3, r3, r2
 843 0050 02AA     		add	r2, sp, #8
 844 0052 02F8013D 		strb	r3, [r2, #-1]!
1286:D:\mcu\design-mpu\source\ejemplos\BME680\bme680.c **** 					&reg, 1);
 845              		.loc 1 1286 0
 846 0056 E66C     		ldr	r6, [r4, #76]
 847 0058 0123     		movs	r3, #1
 848 005a 7321     		movs	r1, #115
 849 005c 6078     		ldrb	r0, [r4, #1]	@ zero_extendqisi2
 850 005e B047     		blx	r6
 851              	.LVL123:
 852 0060 84F85400 		strb	r0, [r4, #84]
1288:D:\mcu\design-mpu\source\ejemplos\BME680\bme680.c **** 					rslt = BME680_E_COM_FAIL;
 853              		.loc 1 1288 0
 854 0064 08B1     		cbz	r0, .L42
1289:D:\mcu\design-mpu\source\ejemplos\BME680\bme680.c **** 			}
 855              		.loc 1 1289 0
 856 0066 6FF00105 		mvn	r5, #1
 857              	.LVL124:
 858              	.L42:
1295:D:\mcu\design-mpu\source\ejemplos\BME680\bme680.c **** 
 859              		.loc 1 1295 0
 860 006a 2846     		mov	r0, r5
 861 006c 02B0     		add	sp, sp, #8
 862              		.cfi_def_cfa_offset 16
 863              		@ sp needed
 864 006e 70BD     		pop	{r4, r5, r6, pc}
 865              		.cfi_endproc
 866              	.LFE84:
 867              		.size	set_mem_page, .-set_mem_page
 868              		.section	.text.get_mem_page,"ax",%progbits
 869              		.align	2
 870              		.thumb
 871              		.thumb_func
 872              		.type	get_mem_page, %function
 873              	get_mem_page:
 874              	.LFB85:
1301:D:\mcu\design-mpu\source\ejemplos\BME680\bme680.c **** 	int8_t rslt;
 875              		.loc 1 1301 0
 876              		.cfi_startproc
 877              		@ args = 0, pretend = 0, frame = 8
 878              		@ frame_needed = 0, uses_anonymous_args = 0
 879              	.LVL125:
ARM GAS  C:\Users\adria\AppData\Local\Temp\ccQ3AXqi.s 			page 41


 880 0000 70B5     		push	{r4, r5, r6, lr}
 881              		.cfi_def_cfa_offset 16
 882              		.cfi_offset 4, -16
 883              		.cfi_offset 5, -12
 884              		.cfi_offset 6, -8
 885              		.cfi_offset 14, -4
 886 0002 82B0     		sub	sp, sp, #8
 887              		.cfi_def_cfa_offset 24
 888 0004 0446     		mov	r4, r0
1306:D:\mcu\design-mpu\source\ejemplos\BME680\bme680.c **** 	if (rslt == BME680_OK) {
 889              		.loc 1 1306 0
 890 0006 FFF7FEFF 		bl	null_ptr_check
 891              	.LVL126:
1307:D:\mcu\design-mpu\source\ejemplos\BME680\bme680.c **** 		dev->com_rslt = dev->read(dev->dev_id, BME680_MEM_PAGE_ADDR | BME680_SPI_RD_MSK, &reg, 1);
 892              		.loc 1 1307 0
 893 000a 0546     		mov	r5, r0
 894 000c 88B9     		cbnz	r0, .L50
1308:D:\mcu\design-mpu\source\ejemplos\BME680\bme680.c **** 		if (dev->com_rslt != 0)
 895              		.loc 1 1308 0
 896 000e A66C     		ldr	r6, [r4, #72]
 897 0010 0123     		movs	r3, #1
 898 0012 0DF10702 		add	r2, sp, #7
 899 0016 F321     		movs	r1, #243
 900 0018 6078     		ldrb	r0, [r4, #1]	@ zero_extendqisi2
 901              	.LVL127:
 902 001a B047     		blx	r6
 903              	.LVL128:
 904 001c 84F85400 		strb	r0, [r4, #84]
1309:D:\mcu\design-mpu\source\ejemplos\BME680\bme680.c **** 			rslt = BME680_E_COM_FAIL;
 905              		.loc 1 1309 0
 906 0020 28B9     		cbnz	r0, .L51
1312:D:\mcu\design-mpu\source\ejemplos\BME680\bme680.c **** 	}
 907              		.loc 1 1312 0
 908 0022 9DF80730 		ldrb	r3, [sp, #7]	@ zero_extendqisi2
 909 0026 03F01003 		and	r3, r3, #16
 910 002a E370     		strb	r3, [r4, #3]
 911 002c 01E0     		b	.L50
 912              	.L51:
1310:D:\mcu\design-mpu\source\ejemplos\BME680\bme680.c **** 		else
 913              		.loc 1 1310 0
 914 002e 6FF00105 		mvn	r5, #1
 915              	.L50:
 916              	.LVL129:
1316:D:\mcu\design-mpu\source\ejemplos\BME680\bme680.c **** 
 917              		.loc 1 1316 0
 918 0032 2846     		mov	r0, r5
 919 0034 02B0     		add	sp, sp, #8
 920              		.cfi_def_cfa_offset 16
 921              		@ sp needed
 922 0036 70BD     		pop	{r4, r5, r6, pc}
 923              		.cfi_endproc
 924              	.LFE85:
 925              		.size	get_mem_page, .-get_mem_page
 926              		.section	.text.analyze_sensor_data,"ax",%progbits
 927              		.align	2
 928              		.thumb
 929              		.thumb_func
ARM GAS  C:\Users\adria\AppData\Local\Temp\ccQ3AXqi.s 			page 42


 930              		.type	analyze_sensor_data, %function
 931              	analyze_sensor_data:
 932              	.LFB89:
1364:D:\mcu\design-mpu\source\ejemplos\BME680\bme680.c **** 
1365:D:\mcu\design-mpu\source\ejemplos\BME680\bme680.c **** /*!
1366:D:\mcu\design-mpu\source\ejemplos\BME680\bme680.c ****  * @brief       Function to analyze the sensor data
1367:D:\mcu\design-mpu\source\ejemplos\BME680\bme680.c ****  *
1368:D:\mcu\design-mpu\source\ejemplos\BME680\bme680.c ****  * @param[in]   data	Array of measurement data 
1369:D:\mcu\design-mpu\source\ejemplos\BME680\bme680.c ****  * @param[in]   n_meas	Number of measurements 
1370:D:\mcu\design-mpu\source\ejemplos\BME680\bme680.c ****  *
1371:D:\mcu\design-mpu\source\ejemplos\BME680\bme680.c ****  * @return      Error code
1372:D:\mcu\design-mpu\source\ejemplos\BME680\bme680.c ****  * @retval		0	Success
1373:D:\mcu\design-mpu\source\ejemplos\BME680\bme680.c ****  * @retval      > 0	Warning	
1374:D:\mcu\design-mpu\source\ejemplos\BME680\bme680.c ****  */
1375:D:\mcu\design-mpu\source\ejemplos\BME680\bme680.c **** static int8_t analyze_sensor_data(struct bme680_field_data *data, uint8_t n_meas);
1376:D:\mcu\design-mpu\source\ejemplos\BME680\bme680.c **** 
1377:D:\mcu\design-mpu\source\ejemplos\BME680\bme680.c **** /*!
1378:D:\mcu\design-mpu\source\ejemplos\BME680\bme680.c ****  * @brief       Self-test API for the BME680
1379:D:\mcu\design-mpu\source\ejemplos\BME680\bme680.c ****  */
1380:D:\mcu\design-mpu\source\ejemplos\BME680\bme680.c **** int8_t bme680_self_test(struct bme680_dev *dev)
1381:D:\mcu\design-mpu\source\ejemplos\BME680\bme680.c **** {
1382:D:\mcu\design-mpu\source\ejemplos\BME680\bme680.c **** 	int8_t rslt = BME680_OK;
1383:D:\mcu\design-mpu\source\ejemplos\BME680\bme680.c **** 	struct bme680_field_data data[N_MEAS];
1384:D:\mcu\design-mpu\source\ejemplos\BME680\bme680.c **** 
1385:D:\mcu\design-mpu\source\ejemplos\BME680\bme680.c **** 	struct bme680_dev t_dev;
1386:D:\mcu\design-mpu\source\ejemplos\BME680\bme680.c **** 
1387:D:\mcu\design-mpu\source\ejemplos\BME680\bme680.c **** 	/* Copy required parameters from reference bme680_dev struct */
1388:D:\mcu\design-mpu\source\ejemplos\BME680\bme680.c **** 	t_dev.dev_id = dev->dev_id;
1389:D:\mcu\design-mpu\source\ejemplos\BME680\bme680.c **** 	t_dev.amb_temp = 25;
1390:D:\mcu\design-mpu\source\ejemplos\BME680\bme680.c **** 	t_dev.read = dev->read;
1391:D:\mcu\design-mpu\source\ejemplos\BME680\bme680.c **** 	t_dev.write = dev->write;
1392:D:\mcu\design-mpu\source\ejemplos\BME680\bme680.c **** 	t_dev.intf = dev->intf;
1393:D:\mcu\design-mpu\source\ejemplos\BME680\bme680.c **** 	t_dev.delay_ms = dev->delay_ms;
1394:D:\mcu\design-mpu\source\ejemplos\BME680\bme680.c **** 
1395:D:\mcu\design-mpu\source\ejemplos\BME680\bme680.c **** 	rslt = bme680_init(&t_dev);
1396:D:\mcu\design-mpu\source\ejemplos\BME680\bme680.c **** 
1397:D:\mcu\design-mpu\source\ejemplos\BME680\bme680.c **** 	if (rslt == BME680_OK) {
1398:D:\mcu\design-mpu\source\ejemplos\BME680\bme680.c **** 		/* Select the power mode */
1399:D:\mcu\design-mpu\source\ejemplos\BME680\bme680.c **** 		/* Must be set before writing the sensor configuration */
1400:D:\mcu\design-mpu\source\ejemplos\BME680\bme680.c **** 		t_dev.power_mode = BME680_FORCED_MODE;
1401:D:\mcu\design-mpu\source\ejemplos\BME680\bme680.c **** 
1402:D:\mcu\design-mpu\source\ejemplos\BME680\bme680.c **** 		uint16_t settings_sel;
1403:D:\mcu\design-mpu\source\ejemplos\BME680\bme680.c **** 
1404:D:\mcu\design-mpu\source\ejemplos\BME680\bme680.c **** 		/* Set the temperature, pressure and humidity & filter settings */
1405:D:\mcu\design-mpu\source\ejemplos\BME680\bme680.c **** 		t_dev.tph_sett.os_hum = BME680_OS_1X;
1406:D:\mcu\design-mpu\source\ejemplos\BME680\bme680.c **** 		t_dev.tph_sett.os_pres = BME680_OS_16X;
1407:D:\mcu\design-mpu\source\ejemplos\BME680\bme680.c **** 		t_dev.tph_sett.os_temp = BME680_OS_2X;
1408:D:\mcu\design-mpu\source\ejemplos\BME680\bme680.c **** 
1409:D:\mcu\design-mpu\source\ejemplos\BME680\bme680.c **** 		/* Set the remaining gas sensor settings and link the heating profile */
1410:D:\mcu\design-mpu\source\ejemplos\BME680\bme680.c **** 		t_dev.gas_sett.run_gas = BME680_ENABLE_GAS_MEAS;
1411:D:\mcu\design-mpu\source\ejemplos\BME680\bme680.c **** 		t_dev.gas_sett.heatr_dur = HEATR_DUR;
1412:D:\mcu\design-mpu\source\ejemplos\BME680\bme680.c **** 
1413:D:\mcu\design-mpu\source\ejemplos\BME680\bme680.c **** 		settings_sel = BME680_OST_SEL | BME680_OSP_SEL | BME680_OSH_SEL | BME680_GAS_SENSOR_SEL;
1414:D:\mcu\design-mpu\source\ejemplos\BME680\bme680.c **** 
1415:D:\mcu\design-mpu\source\ejemplos\BME680\bme680.c **** 		uint16_t profile_dur = 0;
1416:D:\mcu\design-mpu\source\ejemplos\BME680\bme680.c **** 		bme680_get_profile_dur(&profile_dur, &t_dev);
1417:D:\mcu\design-mpu\source\ejemplos\BME680\bme680.c **** 
ARM GAS  C:\Users\adria\AppData\Local\Temp\ccQ3AXqi.s 			page 43


1418:D:\mcu\design-mpu\source\ejemplos\BME680\bme680.c **** 		uint8_t i = 0;
1419:D:\mcu\design-mpu\source\ejemplos\BME680\bme680.c **** 		while ((rslt == BME680_OK) && (i < N_MEAS)) {
1420:D:\mcu\design-mpu\source\ejemplos\BME680\bme680.c **** 			if (rslt == BME680_OK) {
1421:D:\mcu\design-mpu\source\ejemplos\BME680\bme680.c **** 
1422:D:\mcu\design-mpu\source\ejemplos\BME680\bme680.c **** 				if (i % 2 == 0)
1423:D:\mcu\design-mpu\source\ejemplos\BME680\bme680.c **** 					t_dev.gas_sett.heatr_temp = HIGH_TEMP; /* Higher temperature */
1424:D:\mcu\design-mpu\source\ejemplos\BME680\bme680.c **** 				else
1425:D:\mcu\design-mpu\source\ejemplos\BME680\bme680.c **** 					t_dev.gas_sett.heatr_temp = LOW_TEMP; /* Lower temperature */
1426:D:\mcu\design-mpu\source\ejemplos\BME680\bme680.c **** 
1427:D:\mcu\design-mpu\source\ejemplos\BME680\bme680.c **** 				rslt = bme680_set_sensor_settings(settings_sel, &t_dev);
1428:D:\mcu\design-mpu\source\ejemplos\BME680\bme680.c **** 
1429:D:\mcu\design-mpu\source\ejemplos\BME680\bme680.c **** 				if (rslt == BME680_OK) {
1430:D:\mcu\design-mpu\source\ejemplos\BME680\bme680.c **** 
1431:D:\mcu\design-mpu\source\ejemplos\BME680\bme680.c **** 					rslt = bme680_set_sensor_mode(&t_dev); /* Trigger a measurement */
1432:D:\mcu\design-mpu\source\ejemplos\BME680\bme680.c **** 
1433:D:\mcu\design-mpu\source\ejemplos\BME680\bme680.c **** 					t_dev.delay_ms(profile_dur); /* Wait for the measurement to complete */
1434:D:\mcu\design-mpu\source\ejemplos\BME680\bme680.c **** 
1435:D:\mcu\design-mpu\source\ejemplos\BME680\bme680.c **** 					rslt = bme680_get_sensor_data(&data[i], &t_dev);
1436:D:\mcu\design-mpu\source\ejemplos\BME680\bme680.c **** 				}
1437:D:\mcu\design-mpu\source\ejemplos\BME680\bme680.c **** 			}
1438:D:\mcu\design-mpu\source\ejemplos\BME680\bme680.c **** 
1439:D:\mcu\design-mpu\source\ejemplos\BME680\bme680.c **** 			i++;
1440:D:\mcu\design-mpu\source\ejemplos\BME680\bme680.c **** 		}
1441:D:\mcu\design-mpu\source\ejemplos\BME680\bme680.c **** 
1442:D:\mcu\design-mpu\source\ejemplos\BME680\bme680.c **** 		if (rslt == BME680_OK)
1443:D:\mcu\design-mpu\source\ejemplos\BME680\bme680.c **** 			rslt = analyze_sensor_data(data, N_MEAS);
1444:D:\mcu\design-mpu\source\ejemplos\BME680\bme680.c **** 	}
1445:D:\mcu\design-mpu\source\ejemplos\BME680\bme680.c **** 
1446:D:\mcu\design-mpu\source\ejemplos\BME680\bme680.c **** 	return rslt;
1447:D:\mcu\design-mpu\source\ejemplos\BME680\bme680.c **** }
1448:D:\mcu\design-mpu\source\ejemplos\BME680\bme680.c **** 
1449:D:\mcu\design-mpu\source\ejemplos\BME680\bme680.c **** /*!
1450:D:\mcu\design-mpu\source\ejemplos\BME680\bme680.c ****  * @brief       Function to analyze the sensor data
1451:D:\mcu\design-mpu\source\ejemplos\BME680\bme680.c ****  */
1452:D:\mcu\design-mpu\source\ejemplos\BME680\bme680.c **** static int8_t analyze_sensor_data(struct bme680_field_data *data, uint8_t n_meas)
1453:D:\mcu\design-mpu\source\ejemplos\BME680\bme680.c **** {
 933              		.loc 1 1453 0
 934              		.cfi_startproc
 935              		@ args = 0, pretend = 0, frame = 0
 936              		@ frame_needed = 0, uses_anonymous_args = 0
 937              		@ link register save eliminated.
 938              	.LVL130:
 939 0000 30B4     		push	{r4, r5}
 940              		.cfi_def_cfa_offset 8
 941              		.cfi_offset 4, -8
 942              		.cfi_offset 5, -4
 943              	.LVL131:
1454:D:\mcu\design-mpu\source\ejemplos\BME680\bme680.c **** 	int8_t rslt = BME680_OK;
1455:D:\mcu\design-mpu\source\ejemplos\BME680\bme680.c **** 	uint8_t self_test_failed = 0, i;
1456:D:\mcu\design-mpu\source\ejemplos\BME680\bme680.c **** 	uint32_t cent_res = 0;
1457:D:\mcu\design-mpu\source\ejemplos\BME680\bme680.c **** 
1458:D:\mcu\design-mpu\source\ejemplos\BME680\bme680.c **** 	if ((data[0].temperature < MIN_TEMPERATURE) || (data[0].temperature > MAX_TEMPERATURE))
 944              		.loc 1 1458 0
 945 0002 8288     		ldrh	r2, [r0, #4]
 946 0004 41F27073 		movw	r3, #6000
 947 0008 9A42     		cmp	r2, r3
 948 000a 01D8     		bhi	.L63
ARM GAS  C:\Users\adria\AppData\Local\Temp\ccQ3AXqi.s 			page 44


1455:D:\mcu\design-mpu\source\ejemplos\BME680\bme680.c **** 	uint32_t cent_res = 0;
 949              		.loc 1 1455 0
 950 000c 0025     		movs	r5, #0
 951 000e 00E0     		b	.L54
 952              	.L63:
1459:D:\mcu\design-mpu\source\ejemplos\BME680\bme680.c **** 		self_test_failed++;
 953              		.loc 1 1459 0
 954 0010 0125     		movs	r5, #1
 955              	.L54:
 956              	.LVL132:
1460:D:\mcu\design-mpu\source\ejemplos\BME680\bme680.c **** 
1461:D:\mcu\design-mpu\source\ejemplos\BME680\bme680.c **** 	if ((data[0].pressure < MIN_PRESSURE) || (data[0].pressure > MAX_PRESSURE))
 957              		.loc 1 1461 0
 958 0012 8368     		ldr	r3, [r0, #8]
 959 0014 A3F5AF33 		sub	r3, r3, #89600
 960 0018 A3F5C873 		sub	r3, r3, #400
 961 001c 44F62062 		movw	r2, #20000
 962 0020 9342     		cmp	r3, r2
 963 0022 01D9     		bls	.L55
1462:D:\mcu\design-mpu\source\ejemplos\BME680\bme680.c **** 		self_test_failed++;
 964              		.loc 1 1462 0
 965 0024 0135     		adds	r5, r5, #1
 966              	.LVL133:
 967 0026 EDB2     		uxtb	r5, r5
 968              	.LVL134:
 969              	.L55:
1463:D:\mcu\design-mpu\source\ejemplos\BME680\bme680.c **** 
1464:D:\mcu\design-mpu\source\ejemplos\BME680\bme680.c **** 	if ((data[0].humidity < MIN_HUMIDITY) || (data[0].humidity > MAX_HUMIDITY))
 970              		.loc 1 1464 0
 971 0028 C368     		ldr	r3, [r0, #12]
 972 002a A3F59C43 		sub	r3, r3, #19968
 973 002e 203B     		subs	r3, r3, #32
 974 0030 4EF66022 		movw	r2, #60000
 975 0034 9342     		cmp	r3, r2
 976 0036 01D9     		bls	.L56
1465:D:\mcu\design-mpu\source\ejemplos\BME680\bme680.c **** 		self_test_failed++;
 977              		.loc 1 1465 0
 978 0038 0135     		adds	r5, r5, #1
 979              	.LVL135:
 980 003a EDB2     		uxtb	r5, r5
 981              	.LVL136:
 982              	.L56:
1459:D:\mcu\design-mpu\source\ejemplos\BME680\bme680.c **** 
 983              		.loc 1 1459 0 discriminator 1
 984 003c 0023     		movs	r3, #0
 985 003e 0AE0     		b	.L57
 986              	.LVL137:
 987              	.L59:
1466:D:\mcu\design-mpu\source\ejemplos\BME680\bme680.c **** 
1467:D:\mcu\design-mpu\source\ejemplos\BME680\bme680.c **** 	for (i = 0; i < n_meas; i++) /* Every gas measurement should be valid */
1468:D:\mcu\design-mpu\source\ejemplos\BME680\bme680.c **** 		if (!(data[i].status & BME680_GASM_VALID_MSK))
 988              		.loc 1 1468 0
 989 0040 03EB8304 		add	r4, r3, r3, lsl #2
 990 0044 A200     		lsls	r2, r4, #2
 991 0046 825C     		ldrb	r2, [r0, r2]	@ zero_extendqisi2
 992 0048 12F0200F 		tst	r2, #32
 993 004c 01D1     		bne	.L58
ARM GAS  C:\Users\adria\AppData\Local\Temp\ccQ3AXqi.s 			page 45


1469:D:\mcu\design-mpu\source\ejemplos\BME680\bme680.c **** 			self_test_failed++;
 994              		.loc 1 1469 0
 995 004e 0135     		adds	r5, r5, #1
 996              	.LVL138:
 997 0050 EDB2     		uxtb	r5, r5
 998              	.LVL139:
 999              	.L58:
1467:D:\mcu\design-mpu\source\ejemplos\BME680\bme680.c **** 		if (!(data[i].status & BME680_GASM_VALID_MSK))
 1000              		.loc 1 1467 0 discriminator 2
 1001 0052 0133     		adds	r3, r3, #1
 1002              	.LVL140:
 1003 0054 DBB2     		uxtb	r3, r3
 1004              	.LVL141:
 1005              	.L57:
1467:D:\mcu\design-mpu\source\ejemplos\BME680\bme680.c **** 		if (!(data[i].status & BME680_GASM_VALID_MSK))
 1006              		.loc 1 1467 0 is_stmt 0 discriminator 1
 1007 0056 8B42     		cmp	r3, r1
 1008 0058 F2D3     		bcc	.L59
1470:D:\mcu\design-mpu\source\ejemplos\BME680\bme680.c **** 
1471:D:\mcu\design-mpu\source\ejemplos\BME680\bme680.c **** 	if (n_meas >= 6)
 1009              		.loc 1 1471 0 is_stmt 1
 1010 005a 0529     		cmp	r1, #5
 1011 005c 07D9     		bls	.L64
1472:D:\mcu\design-mpu\source\ejemplos\BME680\bme680.c **** 		cent_res = (data[3].gas_resistance + data[5].gas_resistance) / (2 * data[4].gas_resistance);
 1012              		.loc 1 1472 0
 1013 005e C26C     		ldr	r2, [r0, #76]
 1014 0060 436F     		ldr	r3, [r0, #116]
 1015              	.LVL142:
 1016 0062 1344     		add	r3, r3, r2
 1017 0064 026E     		ldr	r2, [r0, #96]
 1018 0066 5200     		lsls	r2, r2, #1
 1019 0068 B3FBF2F3 		udiv	r3, r3, r2
 1020              	.LVL143:
 1021 006c 00E0     		b	.L60
 1022              	.LVL144:
 1023              	.L64:
1456:D:\mcu\design-mpu\source\ejemplos\BME680\bme680.c **** 
 1024              		.loc 1 1456 0
 1025 006e 0023     		movs	r3, #0
 1026              	.LVL145:
 1027              	.L60:
1473:D:\mcu\design-mpu\source\ejemplos\BME680\bme680.c **** 
1474:D:\mcu\design-mpu\source\ejemplos\BME680\bme680.c **** 	if ((cent_res * 5) < 6)
 1028              		.loc 1 1474 0
 1029 0070 03EB8303 		add	r3, r3, r3, lsl #2
 1030              	.LVL146:
 1031 0074 052B     		cmp	r3, #5
 1032 0076 01D8     		bhi	.L61
1475:D:\mcu\design-mpu\source\ejemplos\BME680\bme680.c **** 		self_test_failed++;
 1033              		.loc 1 1475 0
 1034 0078 0135     		adds	r5, r5, #1
 1035              	.LVL147:
 1036 007a EDB2     		uxtb	r5, r5
 1037              	.LVL148:
 1038              	.L61:
1476:D:\mcu\design-mpu\source\ejemplos\BME680\bme680.c **** 
1477:D:\mcu\design-mpu\source\ejemplos\BME680\bme680.c **** 	if (self_test_failed)
ARM GAS  C:\Users\adria\AppData\Local\Temp\ccQ3AXqi.s 			page 46


 1039              		.loc 1 1477 0
 1040 007c 0DB9     		cbnz	r5, .L65
1454:D:\mcu\design-mpu\source\ejemplos\BME680\bme680.c **** 	uint8_t self_test_failed = 0, i;
 1041              		.loc 1 1454 0
 1042 007e 0020     		movs	r0, #0
 1043              	.LVL149:
 1044 0080 00E0     		b	.L62
 1045              	.LVL150:
 1046              	.L65:
1478:D:\mcu\design-mpu\source\ejemplos\BME680\bme680.c **** 		rslt = BME680_W_SELF_TEST_FAILED;
 1047              		.loc 1 1478 0
 1048 0082 0320     		movs	r0, #3
 1049              	.LVL151:
 1050              	.L62:
1479:D:\mcu\design-mpu\source\ejemplos\BME680\bme680.c **** 
1480:D:\mcu\design-mpu\source\ejemplos\BME680\bme680.c **** 	return rslt;
1481:D:\mcu\design-mpu\source\ejemplos\BME680\bme680.c **** }
 1051              		.loc 1 1481 0
 1052 0084 30BC     		pop	{r4, r5}
 1053              		.cfi_restore 5
 1054              		.cfi_restore 4
 1055              		.cfi_def_cfa_offset 0
 1056              	.LVL152:
 1057 0086 7047     		bx	lr
 1058              		.cfi_endproc
 1059              	.LFE89:
 1060              		.size	analyze_sensor_data, .-analyze_sensor_data
 1061              		.section	.text.user_delay_ms,"ax",%progbits
 1062              		.align	2
 1063              		.thumb
 1064              		.thumb_func
 1065              		.type	user_delay_ms, %function
 1066              	user_delay_ms:
 1067              	.LFB90:
1482:D:\mcu\design-mpu\source\ejemplos\BME680\bme680.c **** 
1483:D:\mcu\design-mpu\source\ejemplos\BME680\bme680.c **** static void user_delay_ms(uint32_t period)
1484:D:\mcu\design-mpu\source\ejemplos\BME680\bme680.c **** {
 1068              		.loc 1 1484 0
 1069              		.cfi_startproc
 1070              		@ args = 0, pretend = 0, frame = 0
 1071              		@ frame_needed = 0, uses_anonymous_args = 0
 1072              	.LVL153:
 1073 0000 08B5     		push	{r3, lr}
 1074              		.cfi_def_cfa_offset 8
 1075              		.cfi_offset 3, -8
 1076              		.cfi_offset 14, -4
1485:D:\mcu\design-mpu\source\ejemplos\BME680\bme680.c ****     /*
1486:D:\mcu\design-mpu\source\ejemplos\BME680\bme680.c ****      * Return control or wait,
1487:D:\mcu\design-mpu\source\ejemplos\BME680\bme680.c ****      * for a period amount of milliseconds
1488:D:\mcu\design-mpu\source\ejemplos\BME680\bme680.c ****      */
1489:D:\mcu\design-mpu\source\ejemplos\BME680\bme680.c ****     CyDelay(period);
 1077              		.loc 1 1489 0
 1078 0002 FFF7FEFF 		bl	CyDelay
 1079              	.LVL154:
 1080 0006 08BD     		pop	{r3, pc}
 1081              		.cfi_endproc
 1082              	.LFE90:
ARM GAS  C:\Users\adria\AppData\Local\Temp\ccQ3AXqi.s 			page 47


 1083              		.size	user_delay_ms, .-user_delay_ms
 1084              		.section	.text.user_i2c_write,"ax",%progbits
 1085              		.align	2
 1086              		.thumb
 1087              		.thumb_func
 1088              		.type	user_i2c_write, %function
 1089              	user_i2c_write:
 1090              	.LFB92:
1490:D:\mcu\design-mpu\source\ejemplos\BME680\bme680.c **** }
1491:D:\mcu\design-mpu\source\ejemplos\BME680\bme680.c **** 
1492:D:\mcu\design-mpu\source\ejemplos\BME680\bme680.c **** static int8_t user_i2c_read(uint8_t dev_id, uint8_t reg_addr, uint8_t *reg_data, uint16_t len)
1493:D:\mcu\design-mpu\source\ejemplos\BME680\bme680.c **** {
1494:D:\mcu\design-mpu\source\ejemplos\BME680\bme680.c ****     int8_t rslt = 0; /* Return 0 for Success, non-zero for failure */
1495:D:\mcu\design-mpu\source\ejemplos\BME680\bme680.c ****     uint16_t i = 0;
1496:D:\mcu\design-mpu\source\ejemplos\BME680\bme680.c **** 
1497:D:\mcu\design-mpu\source\ejemplos\BME680\bme680.c ****     /*
1498:D:\mcu\design-mpu\source\ejemplos\BME680\bme680.c ****      * The parameter dev_id can be used as a variable to store the I2C address of the device
1499:D:\mcu\design-mpu\source\ejemplos\BME680\bme680.c ****      */
1500:D:\mcu\design-mpu\source\ejemplos\BME680\bme680.c **** 
1501:D:\mcu\design-mpu\source\ejemplos\BME680\bme680.c ****     /*
1502:D:\mcu\design-mpu\source\ejemplos\BME680\bme680.c ****      * Data on the bus should be like
1503:D:\mcu\design-mpu\source\ejemplos\BME680\bme680.c ****      * |------------+---------------------|
1504:D:\mcu\design-mpu\source\ejemplos\BME680\bme680.c ****      * | I2C action | Data                |
1505:D:\mcu\design-mpu\source\ejemplos\BME680\bme680.c ****      * |------------+---------------------|
1506:D:\mcu\design-mpu\source\ejemplos\BME680\bme680.c ****      * | Start      | -                   |
1507:D:\mcu\design-mpu\source\ejemplos\BME680\bme680.c ****      * | Write      | (reg_addr)          |
1508:D:\mcu\design-mpu\source\ejemplos\BME680\bme680.c ****      * | Stop       | -                   |
1509:D:\mcu\design-mpu\source\ejemplos\BME680\bme680.c ****      * | Start      | -                   |
1510:D:\mcu\design-mpu\source\ejemplos\BME680\bme680.c ****      * | Read       | (reg_data[0])       |
1511:D:\mcu\design-mpu\source\ejemplos\BME680\bme680.c ****      * | Read       | (....)              |
1512:D:\mcu\design-mpu\source\ejemplos\BME680\bme680.c ****      * | Read       | (reg_data[len - 1]) |
1513:D:\mcu\design-mpu\source\ejemplos\BME680\bme680.c ****      * | Stop       | -                   |
1514:D:\mcu\design-mpu\source\ejemplos\BME680\bme680.c ****      * |------------+---------------------|
1515:D:\mcu\design-mpu\source\ejemplos\BME680\bme680.c ****      */
1516:D:\mcu\design-mpu\source\ejemplos\BME680\bme680.c ****     
1517:D:\mcu\design-mpu\source\ejemplos\BME680\bme680.c ****     rslt = I2C_MasterSendStart(dev_id, I2C_WRITE_XFER_MODE);
1518:D:\mcu\design-mpu\source\ejemplos\BME680\bme680.c ****     rslt = I2C_MasterWriteByte(reg_addr);
1519:D:\mcu\design-mpu\source\ejemplos\BME680\bme680.c ****     rslt = I2C_MasterSendRestart(dev_id, I2C_READ_XFER_MODE);
1520:D:\mcu\design-mpu\source\ejemplos\BME680\bme680.c ****     while(i < (len - 1)) {
1521:D:\mcu\design-mpu\source\ejemplos\BME680\bme680.c ****         reg_data[i] = I2C_MasterReadByte(I2C_ACK_DATA);
1522:D:\mcu\design-mpu\source\ejemplos\BME680\bme680.c ****         i++;
1523:D:\mcu\design-mpu\source\ejemplos\BME680\bme680.c ****     }
1524:D:\mcu\design-mpu\source\ejemplos\BME680\bme680.c ****     reg_data[i] = I2C_MasterReadByte(I2C_NAK_DATA);
1525:D:\mcu\design-mpu\source\ejemplos\BME680\bme680.c ****     rslt = I2C_MasterSendStop();
1526:D:\mcu\design-mpu\source\ejemplos\BME680\bme680.c ****         
1527:D:\mcu\design-mpu\source\ejemplos\BME680\bme680.c ****     return rslt;
1528:D:\mcu\design-mpu\source\ejemplos\BME680\bme680.c **** }
1529:D:\mcu\design-mpu\source\ejemplos\BME680\bme680.c **** 
1530:D:\mcu\design-mpu\source\ejemplos\BME680\bme680.c **** static int8_t user_i2c_write(uint8_t dev_id, uint8_t reg_addr, uint8_t *reg_data, uint16_t len)
1531:D:\mcu\design-mpu\source\ejemplos\BME680\bme680.c **** {
 1091              		.loc 1 1531 0
 1092              		.cfi_startproc
 1093              		@ args = 0, pretend = 0, frame = 0
 1094              		@ frame_needed = 0, uses_anonymous_args = 0
 1095              	.LVL155:
 1096 0000 70B5     		push	{r4, r5, r6, lr}
 1097              		.cfi_def_cfa_offset 16
ARM GAS  C:\Users\adria\AppData\Local\Temp\ccQ3AXqi.s 			page 48


 1098              		.cfi_offset 4, -16
 1099              		.cfi_offset 5, -12
 1100              		.cfi_offset 6, -8
 1101              		.cfi_offset 14, -4
 1102 0002 0C46     		mov	r4, r1
 1103 0004 1546     		mov	r5, r2
 1104 0006 1E46     		mov	r6, r3
 1105              	.LVL156:
1532:D:\mcu\design-mpu\source\ejemplos\BME680\bme680.c ****     int8_t rslt = 0; /* Return 0 for Success, non-zero for failure */
1533:D:\mcu\design-mpu\source\ejemplos\BME680\bme680.c ****     uint16_t i = 0;
1534:D:\mcu\design-mpu\source\ejemplos\BME680\bme680.c **** 
1535:D:\mcu\design-mpu\source\ejemplos\BME680\bme680.c ****     /*
1536:D:\mcu\design-mpu\source\ejemplos\BME680\bme680.c ****      * The parameter dev_id can be used as a variable to store the I2C address of the device
1537:D:\mcu\design-mpu\source\ejemplos\BME680\bme680.c ****      */
1538:D:\mcu\design-mpu\source\ejemplos\BME680\bme680.c **** 
1539:D:\mcu\design-mpu\source\ejemplos\BME680\bme680.c ****     /*
1540:D:\mcu\design-mpu\source\ejemplos\BME680\bme680.c ****      * Data on the bus should be like
1541:D:\mcu\design-mpu\source\ejemplos\BME680\bme680.c ****      * |------------+---------------------|
1542:D:\mcu\design-mpu\source\ejemplos\BME680\bme680.c ****      * | I2C action | Data                |
1543:D:\mcu\design-mpu\source\ejemplos\BME680\bme680.c ****      * |------------+---------------------|
1544:D:\mcu\design-mpu\source\ejemplos\BME680\bme680.c ****      * | Start      | -                   |
1545:D:\mcu\design-mpu\source\ejemplos\BME680\bme680.c ****      * | Write      | (reg_addr)          |
1546:D:\mcu\design-mpu\source\ejemplos\BME680\bme680.c ****      * | Write      | (reg_data[0])       |
1547:D:\mcu\design-mpu\source\ejemplos\BME680\bme680.c ****      * | Write      | (....)              |
1548:D:\mcu\design-mpu\source\ejemplos\BME680\bme680.c ****      * | Write      | (reg_data[len - 1]) |
1549:D:\mcu\design-mpu\source\ejemplos\BME680\bme680.c ****      * | Stop       | -                   |
1550:D:\mcu\design-mpu\source\ejemplos\BME680\bme680.c ****      * |------------+---------------------|
1551:D:\mcu\design-mpu\source\ejemplos\BME680\bme680.c ****      */
1552:D:\mcu\design-mpu\source\ejemplos\BME680\bme680.c **** 
1553:D:\mcu\design-mpu\source\ejemplos\BME680\bme680.c ****     rslt = I2C_MasterSendStart(dev_id, I2C_WRITE_XFER_MODE);
 1106              		.loc 1 1553 0
 1107 0008 0021     		movs	r1, #0
 1108              	.LVL157:
 1109 000a FFF7FEFF 		bl	I2C_MasterSendStart
 1110              	.LVL158:
1554:D:\mcu\design-mpu\source\ejemplos\BME680\bme680.c ****     rslt = I2C_MasterWriteByte(reg_addr);
 1111              		.loc 1 1554 0
 1112 000e 2046     		mov	r0, r4
 1113 0010 FFF7FEFF 		bl	I2C_MasterWriteByte
 1114              	.LVL159:
1533:D:\mcu\design-mpu\source\ejemplos\BME680\bme680.c **** 
 1115              		.loc 1 1533 0
 1116 0014 0024     		movs	r4, #0
1555:D:\mcu\design-mpu\source\ejemplos\BME680\bme680.c ****     while(i < len) {
 1117              		.loc 1 1555 0
 1118 0016 05E0     		b	.L70
 1119              	.LVL160:
 1120              	.L71:
1556:D:\mcu\design-mpu\source\ejemplos\BME680\bme680.c ****         rslt = I2C_MasterWriteByte(*reg_data);
 1121              		.loc 1 1556 0
 1122 0018 15F8010B 		ldrb	r0, [r5], #1	@ zero_extendqisi2
 1123              	.LVL161:
 1124 001c FFF7FEFF 		bl	I2C_MasterWriteByte
 1125              	.LVL162:
1557:D:\mcu\design-mpu\source\ejemplos\BME680\bme680.c ****         i++;
 1126              		.loc 1 1557 0
 1127 0020 0134     		adds	r4, r4, #1
ARM GAS  C:\Users\adria\AppData\Local\Temp\ccQ3AXqi.s 			page 49


 1128              	.LVL163:
 1129 0022 A4B2     		uxth	r4, r4
 1130              	.LVL164:
 1131              	.L70:
1555:D:\mcu\design-mpu\source\ejemplos\BME680\bme680.c ****     while(i < len) {
 1132              		.loc 1 1555 0
 1133 0024 B442     		cmp	r4, r6
 1134 0026 F7D3     		bcc	.L71
1558:D:\mcu\design-mpu\source\ejemplos\BME680\bme680.c ****         reg_data++;
1559:D:\mcu\design-mpu\source\ejemplos\BME680\bme680.c ****     }
1560:D:\mcu\design-mpu\source\ejemplos\BME680\bme680.c ****     rslt = I2C_MasterSendStop();
 1135              		.loc 1 1560 0
 1136 0028 FFF7FEFF 		bl	I2C_MasterSendStop
 1137              	.LVL165:
1561:D:\mcu\design-mpu\source\ejemplos\BME680\bme680.c ****     
1562:D:\mcu\design-mpu\source\ejemplos\BME680\bme680.c ****     return rslt;
1563:D:\mcu\design-mpu\source\ejemplos\BME680\bme680.c **** }
 1138              		.loc 1 1563 0
 1139 002c 40B2     		sxtb	r0, r0
 1140 002e 70BD     		pop	{r4, r5, r6, pc}
 1141              		.cfi_endproc
 1142              	.LFE92:
 1143              		.size	user_i2c_write, .-user_i2c_write
 1144              		.section	.text.user_i2c_read,"ax",%progbits
 1145              		.align	2
 1146              		.thumb
 1147              		.thumb_func
 1148              		.type	user_i2c_read, %function
 1149              	user_i2c_read:
 1150              	.LFB91:
1493:D:\mcu\design-mpu\source\ejemplos\BME680\bme680.c ****     int8_t rslt = 0; /* Return 0 for Success, non-zero for failure */
 1151              		.loc 1 1493 0
 1152              		.cfi_startproc
 1153              		@ args = 0, pretend = 0, frame = 0
 1154              		@ frame_needed = 0, uses_anonymous_args = 0
 1155              	.LVL166:
 1156 0000 F8B5     		push	{r3, r4, r5, r6, r7, lr}
 1157              		.cfi_def_cfa_offset 24
 1158              		.cfi_offset 3, -24
 1159              		.cfi_offset 4, -20
 1160              		.cfi_offset 5, -16
 1161              		.cfi_offset 6, -12
 1162              		.cfi_offset 7, -8
 1163              		.cfi_offset 14, -4
 1164 0002 0446     		mov	r4, r0
 1165 0004 0F46     		mov	r7, r1
 1166 0006 1546     		mov	r5, r2
 1167 0008 1E46     		mov	r6, r3
 1168              	.LVL167:
1517:D:\mcu\design-mpu\source\ejemplos\BME680\bme680.c ****     rslt = I2C_MasterWriteByte(reg_addr);
 1169              		.loc 1 1517 0
 1170 000a 0021     		movs	r1, #0
 1171              	.LVL168:
 1172 000c FFF7FEFF 		bl	I2C_MasterSendStart
 1173              	.LVL169:
1518:D:\mcu\design-mpu\source\ejemplos\BME680\bme680.c ****     rslt = I2C_MasterSendRestart(dev_id, I2C_READ_XFER_MODE);
 1174              		.loc 1 1518 0
ARM GAS  C:\Users\adria\AppData\Local\Temp\ccQ3AXqi.s 			page 50


 1175 0010 3846     		mov	r0, r7
 1176 0012 FFF7FEFF 		bl	I2C_MasterWriteByte
 1177              	.LVL170:
1519:D:\mcu\design-mpu\source\ejemplos\BME680\bme680.c ****     while(i < (len - 1)) {
 1178              		.loc 1 1519 0
 1179 0016 0121     		movs	r1, #1
 1180 0018 2046     		mov	r0, r4
 1181 001a FFF7FEFF 		bl	I2C_MasterSendRestart
 1182              	.LVL171:
1495:D:\mcu\design-mpu\source\ejemplos\BME680\bme680.c **** 
 1183              		.loc 1 1495 0
 1184 001e 0024     		movs	r4, #0
1520:D:\mcu\design-mpu\source\ejemplos\BME680\bme680.c ****         reg_data[i] = I2C_MasterReadByte(I2C_ACK_DATA);
 1185              		.loc 1 1520 0
 1186 0020 05E0     		b	.L74
 1187              	.LVL172:
 1188              	.L75:
1521:D:\mcu\design-mpu\source\ejemplos\BME680\bme680.c ****         i++;
 1189              		.loc 1 1521 0
 1190 0022 0120     		movs	r0, #1
 1191 0024 FFF7FEFF 		bl	I2C_MasterReadByte
 1192              	.LVL173:
 1193 0028 2855     		strb	r0, [r5, r4]
1522:D:\mcu\design-mpu\source\ejemplos\BME680\bme680.c ****     }
 1194              		.loc 1 1522 0
 1195 002a 0134     		adds	r4, r4, #1
 1196              	.LVL174:
 1197 002c A4B2     		uxth	r4, r4
 1198              	.LVL175:
 1199              	.L74:
1520:D:\mcu\design-mpu\source\ejemplos\BME680\bme680.c ****         reg_data[i] = I2C_MasterReadByte(I2C_ACK_DATA);
 1200              		.loc 1 1520 0
 1201 002e 731E     		subs	r3, r6, #1
 1202 0030 9C42     		cmp	r4, r3
 1203 0032 F6DB     		blt	.L75
1524:D:\mcu\design-mpu\source\ejemplos\BME680\bme680.c ****     rslt = I2C_MasterSendStop();
 1204              		.loc 1 1524 0
 1205 0034 0020     		movs	r0, #0
 1206 0036 FFF7FEFF 		bl	I2C_MasterReadByte
 1207              	.LVL176:
 1208 003a 2855     		strb	r0, [r5, r4]
1525:D:\mcu\design-mpu\source\ejemplos\BME680\bme680.c ****         
 1209              		.loc 1 1525 0
 1210 003c FFF7FEFF 		bl	I2C_MasterSendStop
 1211              	.LVL177:
1528:D:\mcu\design-mpu\source\ejemplos\BME680\bme680.c **** 
 1212              		.loc 1 1528 0
 1213 0040 40B2     		sxtb	r0, r0
 1214 0042 F8BD     		pop	{r3, r4, r5, r6, r7, pc}
 1215              		.cfi_endproc
 1216              	.LFE91:
 1217              		.size	user_i2c_read, .-user_i2c_read
 1218              		.section	.text.bme680_get_regs,"ax",%progbits
 1219              		.align	2
 1220              		.global	bme680_get_regs
 1221              		.thumb
 1222              		.thumb_func
ARM GAS  C:\Users\adria\AppData\Local\Temp\ccQ3AXqi.s 			page 51


 1223              		.type	bme680_get_regs, %function
 1224              	bme680_get_regs:
 1225              	.LFB64:
 312:D:\mcu\design-mpu\source\ejemplos\BME680\bme680.c **** 	int8_t rslt;
 1226              		.loc 1 312 0
 1227              		.cfi_startproc
 1228              		@ args = 0, pretend = 0, frame = 0
 1229              		@ frame_needed = 0, uses_anonymous_args = 0
 1230              	.LVL178:
 1231 0000 2DE9F843 		push	{r3, r4, r5, r6, r7, r8, r9, lr}
 1232              		.cfi_def_cfa_offset 32
 1233              		.cfi_offset 3, -32
 1234              		.cfi_offset 4, -28
 1235              		.cfi_offset 5, -24
 1236              		.cfi_offset 6, -20
 1237              		.cfi_offset 7, -16
 1238              		.cfi_offset 8, -12
 1239              		.cfi_offset 9, -8
 1240              		.cfi_offset 14, -4
 1241 0004 0646     		mov	r6, r0
 1242 0006 8846     		mov	r8, r1
 1243 0008 9146     		mov	r9, r2
 1244 000a 1C46     		mov	r4, r3
 316:D:\mcu\design-mpu\source\ejemplos\BME680\bme680.c **** 	if (rslt == BME680_OK) {
 1245              		.loc 1 316 0
 1246 000c 1846     		mov	r0, r3
 1247              	.LVL179:
 1248 000e FFF7FEFF 		bl	null_ptr_check
 1249              	.LVL180:
 317:D:\mcu\design-mpu\source\ejemplos\BME680\bme680.c **** 		if (dev->intf == BME680_SPI_INTF) {
 1250              		.loc 1 317 0
 1251 0012 0546     		mov	r5, r0
 1252 0014 A0B9     		cbnz	r0, .L78
 318:D:\mcu\design-mpu\source\ejemplos\BME680\bme680.c **** 			/* Set the memory page */
 1253              		.loc 1 318 0
 1254 0016 A378     		ldrb	r3, [r4, #2]	@ zero_extendqisi2
 1255 0018 3BB9     		cbnz	r3, .L79
 320:D:\mcu\design-mpu\source\ejemplos\BME680\bme680.c **** 			if (rslt == BME680_OK)
 1256              		.loc 1 320 0
 1257 001a 2146     		mov	r1, r4
 1258 001c 3046     		mov	r0, r6
 1259              	.LVL181:
 1260 001e FFF7FEFF 		bl	set_mem_page
 1261              	.LVL182:
 321:D:\mcu\design-mpu\source\ejemplos\BME680\bme680.c **** 				reg_addr = reg_addr | BME680_SPI_RD_MSK;
 1262              		.loc 1 321 0
 1263 0022 0546     		mov	r5, r0
 1264 0024 08B9     		cbnz	r0, .L79
 322:D:\mcu\design-mpu\source\ejemplos\BME680\bme680.c **** 		}
 1265              		.loc 1 322 0
 1266 0026 46F08006 		orr	r6, r6, #128
 1267              	.LVL183:
 1268              	.L79:
 324:D:\mcu\design-mpu\source\ejemplos\BME680\bme680.c **** 		if (dev->com_rslt != 0)
 1269              		.loc 1 324 0
 1270 002a A76C     		ldr	r7, [r4, #72]
 1271 002c 4B46     		mov	r3, r9
ARM GAS  C:\Users\adria\AppData\Local\Temp\ccQ3AXqi.s 			page 52


 1272 002e 4246     		mov	r2, r8
 1273 0030 3146     		mov	r1, r6
 1274 0032 6078     		ldrb	r0, [r4, #1]	@ zero_extendqisi2
 1275 0034 B847     		blx	r7
 1276              	.LVL184:
 1277 0036 84F85400 		strb	r0, [r4, #84]
 325:D:\mcu\design-mpu\source\ejemplos\BME680\bme680.c **** 			rslt = BME680_E_COM_FAIL;
 1278              		.loc 1 325 0
 1279 003a 08B1     		cbz	r0, .L78
 326:D:\mcu\design-mpu\source\ejemplos\BME680\bme680.c **** 	}
 1280              		.loc 1 326 0
 1281 003c 6FF00105 		mvn	r5, #1
 1282              	.LVL185:
 1283              	.L78:
 330:D:\mcu\design-mpu\source\ejemplos\BME680\bme680.c **** 
 1284              		.loc 1 330 0
 1285 0040 2846     		mov	r0, r5
 1286 0042 BDE8F883 		pop	{r3, r4, r5, r6, r7, r8, r9, pc}
 1287              		.cfi_endproc
 1288              	.LFE64:
 1289              		.size	bme680_get_regs, .-bme680_get_regs
 1290 0046 00BF     		.section	.text.get_calib_data,"ax",%progbits
 1291              		.align	2
 1292              		.thumb
 1293              		.thumb_func
 1294              		.type	get_calib_data, %function
 1295              	get_calib_data:
 1296              	.LFB74:
 725:D:\mcu\design-mpu\source\ejemplos\BME680\bme680.c **** 	int8_t rslt;
 1297              		.loc 1 725 0
 1298              		.cfi_startproc
 1299              		@ args = 0, pretend = 0, frame = 48
 1300              		@ frame_needed = 0, uses_anonymous_args = 0
 1301              	.LVL186:
 1302 0000 10B5     		push	{r4, lr}
 1303              		.cfi_def_cfa_offset 8
 1304              		.cfi_offset 4, -8
 1305              		.cfi_offset 14, -4
 1306 0002 8CB0     		sub	sp, sp, #48
 1307              		.cfi_def_cfa_offset 56
 1308 0004 0446     		mov	r4, r0
 727:D:\mcu\design-mpu\source\ejemplos\BME680\bme680.c **** 	uint8_t temp_var = 0; /* Temporary variable */
 1309              		.loc 1 727 0
 1310 0006 2922     		movs	r2, #41
 1311 0008 0021     		movs	r1, #0
 1312 000a 01A8     		add	r0, sp, #4
 1313              	.LVL187:
 1314 000c FFF7FEFF 		bl	memset
 1315              	.LVL188:
 728:D:\mcu\design-mpu\source\ejemplos\BME680\bme680.c **** 
 1316              		.loc 1 728 0
 1317 0010 0023     		movs	r3, #0
 1318 0012 8DF80330 		strb	r3, [sp, #3]
 731:D:\mcu\design-mpu\source\ejemplos\BME680\bme680.c **** 	if (rslt == BME680_OK) {
 1319              		.loc 1 731 0
 1320 0016 2046     		mov	r0, r4
 1321 0018 FFF7FEFF 		bl	null_ptr_check
ARM GAS  C:\Users\adria\AppData\Local\Temp\ccQ3AXqi.s 			page 53


 1322              	.LVL189:
 732:D:\mcu\design-mpu\source\ejemplos\BME680\bme680.c **** 		rslt = bme680_get_regs(BME680_COEFF_ADDR1, coeff_array, BME680_COEFF_ADDR1_LEN, dev);
 1323              		.loc 1 732 0
 1324 001c 0346     		mov	r3, r0
 1325 001e 0028     		cmp	r0, #0
 1326 0020 40F0B080 		bne	.L83
 733:D:\mcu\design-mpu\source\ejemplos\BME680\bme680.c **** 		/* Append the second half in the same array */
 1327              		.loc 1 733 0
 1328 0024 2346     		mov	r3, r4
 1329 0026 1922     		movs	r2, #25
 1330 0028 01A9     		add	r1, sp, #4
 1331 002a 8920     		movs	r0, #137
 1332              	.LVL190:
 1333 002c FFF7FEFF 		bl	bme680_get_regs
 1334              	.LVL191:
 735:D:\mcu\design-mpu\source\ejemplos\BME680\bme680.c **** 			rslt = bme680_get_regs(BME680_COEFF_ADDR2, &coeff_array[BME680_COEFF_ADDR1_LEN]
 1335              		.loc 1 735 0
 1336 0030 0346     		mov	r3, r0
 1337 0032 38B9     		cbnz	r0, .L84
 736:D:\mcu\design-mpu\source\ejemplos\BME680\bme680.c **** 			, BME680_COEFF_ADDR2_LEN, dev);
 1338              		.loc 1 736 0
 1339 0034 2346     		mov	r3, r4
 1340 0036 1022     		movs	r2, #16
 1341 0038 0DF11D01 		add	r1, sp, #29
 1342 003c E120     		movs	r0, #225
 1343              	.LVL192:
 1344 003e FFF7FEFF 		bl	bme680_get_regs
 1345              	.LVL193:
 1346 0042 0346     		mov	r3, r0
 1347              	.LVL194:
 1348              	.L84:
 740:D:\mcu\design-mpu\source\ejemplos\BME680\bme680.c **** 			coeff_array[BME680_T1_LSB_REG]));
 1349              		.loc 1 740 0
 1350 0044 9DF82610 		ldrb	r1, [sp, #38]	@ zero_extendqisi2
 1351 0048 9DF82520 		ldrb	r2, [sp, #37]	@ zero_extendqisi2
 1352 004c 42EA0122 		orr	r2, r2, r1, lsl #8
 1353 0050 E282     		strh	r2, [r4, #22]	@ movhi
 742:D:\mcu\design-mpu\source\ejemplos\BME680\bme680.c **** 			coeff_array[BME680_T2_LSB_REG]));
 1354              		.loc 1 742 0
 1355 0052 9DF80610 		ldrb	r1, [sp, #6]	@ zero_extendqisi2
 1356 0056 9DF80520 		ldrb	r2, [sp, #5]	@ zero_extendqisi2
 1357 005a 42EA0122 		orr	r2, r2, r1, lsl #8
 1358 005e 2283     		strh	r2, [r4, #24]	@ movhi
 744:D:\mcu\design-mpu\source\ejemplos\BME680\bme680.c **** 
 1359              		.loc 1 744 0
 1360 0060 9DF90720 		ldrsb	r2, [sp, #7]
 1361 0064 A276     		strb	r2, [r4, #26]
 747:D:\mcu\design-mpu\source\ejemplos\BME680\bme680.c **** 			coeff_array[BME680_P1_LSB_REG]));
 1362              		.loc 1 747 0
 1363 0066 9DF80A10 		ldrb	r1, [sp, #10]	@ zero_extendqisi2
 1364 006a 9DF80920 		ldrb	r2, [sp, #9]	@ zero_extendqisi2
 1365 006e 42EA0122 		orr	r2, r2, r1, lsl #8
 1366 0072 A283     		strh	r2, [r4, #28]	@ movhi
 749:D:\mcu\design-mpu\source\ejemplos\BME680\bme680.c **** 			coeff_array[BME680_P2_LSB_REG]));
 1367              		.loc 1 749 0
 1368 0074 9DF80C10 		ldrb	r1, [sp, #12]	@ zero_extendqisi2
 1369 0078 9DF80B20 		ldrb	r2, [sp, #11]	@ zero_extendqisi2
ARM GAS  C:\Users\adria\AppData\Local\Temp\ccQ3AXqi.s 			page 54


 1370 007c 42EA0122 		orr	r2, r2, r1, lsl #8
 1371 0080 E283     		strh	r2, [r4, #30]	@ movhi
 751:D:\mcu\design-mpu\source\ejemplos\BME680\bme680.c **** 		dev->calib.par_p4 = (int16_t) (BME680_CONCAT_BYTES(coeff_array[BME680_P4_MSB_REG],
 1372              		.loc 1 751 0
 1373 0082 9DF90D20 		ldrsb	r2, [sp, #13]
 1374 0086 84F82020 		strb	r2, [r4, #32]
 752:D:\mcu\design-mpu\source\ejemplos\BME680\bme680.c **** 			coeff_array[BME680_P4_LSB_REG]));
 1375              		.loc 1 752 0
 1376 008a 9DF81010 		ldrb	r1, [sp, #16]	@ zero_extendqisi2
 1377 008e 9DF80F20 		ldrb	r2, [sp, #15]	@ zero_extendqisi2
 1378 0092 42EA0122 		orr	r2, r2, r1, lsl #8
 1379 0096 6284     		strh	r2, [r4, #34]	@ movhi
 754:D:\mcu\design-mpu\source\ejemplos\BME680\bme680.c **** 			coeff_array[BME680_P5_LSB_REG]));
 1380              		.loc 1 754 0
 1381 0098 9DF81210 		ldrb	r1, [sp, #18]	@ zero_extendqisi2
 1382 009c 9DF81120 		ldrb	r2, [sp, #17]	@ zero_extendqisi2
 1383 00a0 42EA0122 		orr	r2, r2, r1, lsl #8
 1384 00a4 A284     		strh	r2, [r4, #36]	@ movhi
 756:D:\mcu\design-mpu\source\ejemplos\BME680\bme680.c **** 		dev->calib.par_p7 = (int8_t) (coeff_array[BME680_P7_REG]);
 1385              		.loc 1 756 0
 1386 00a6 9DF91420 		ldrsb	r2, [sp, #20]
 1387 00aa 84F82620 		strb	r2, [r4, #38]
 757:D:\mcu\design-mpu\source\ejemplos\BME680\bme680.c **** 		dev->calib.par_p8 = (int16_t) (BME680_CONCAT_BYTES(coeff_array[BME680_P8_MSB_REG],
 1388              		.loc 1 757 0
 1389 00ae 9DF91320 		ldrsb	r2, [sp, #19]
 1390 00b2 84F82720 		strb	r2, [r4, #39]
 758:D:\mcu\design-mpu\source\ejemplos\BME680\bme680.c **** 			coeff_array[BME680_P8_LSB_REG]));
 1391              		.loc 1 758 0
 1392 00b6 9DF81810 		ldrb	r1, [sp, #24]	@ zero_extendqisi2
 1393 00ba 9DF81720 		ldrb	r2, [sp, #23]	@ zero_extendqisi2
 1394 00be 42EA0122 		orr	r2, r2, r1, lsl #8
 1395 00c2 2285     		strh	r2, [r4, #40]	@ movhi
 760:D:\mcu\design-mpu\source\ejemplos\BME680\bme680.c **** 			coeff_array[BME680_P9_LSB_REG]));
 1396              		.loc 1 760 0
 1397 00c4 9DF81A10 		ldrb	r1, [sp, #26]	@ zero_extendqisi2
 1398 00c8 9DF81920 		ldrb	r2, [sp, #25]	@ zero_extendqisi2
 1399 00cc 42EA0122 		orr	r2, r2, r1, lsl #8
 1400 00d0 6285     		strh	r2, [r4, #42]	@ movhi
 762:D:\mcu\design-mpu\source\ejemplos\BME680\bme680.c **** 
 1401              		.loc 1 762 0
 1402 00d2 9DF81B20 		ldrb	r2, [sp, #27]	@ zero_extendqisi2
 1403 00d6 84F82C20 		strb	r2, [r4, #44]
 765:D:\mcu\design-mpu\source\ejemplos\BME680\bme680.c **** 			| (coeff_array[BME680_H1_LSB_REG] & BME680_BIT_H1_DATA_MSK));
 1404              		.loc 1 765 0
 1405 00da 9DF81F00 		ldrb	r0, [sp, #31]	@ zero_extendqisi2
 766:D:\mcu\design-mpu\source\ejemplos\BME680\bme680.c **** 		dev->calib.par_h2 = (uint16_t) (((uint16_t) coeff_array[BME680_H2_MSB_REG] << BME680_HUM_REG_SHIF
 1406              		.loc 1 766 0
 1407 00de 9DF81E20 		ldrb	r2, [sp, #30]	@ zero_extendqisi2
 765:D:\mcu\design-mpu\source\ejemplos\BME680\bme680.c **** 			| (coeff_array[BME680_H1_LSB_REG] & BME680_BIT_H1_DATA_MSK));
 1408              		.loc 1 765 0
 1409 00e2 02F00F01 		and	r1, r2, #15
 1410 00e6 41EA0011 		orr	r1, r1, r0, lsl #4
 1411 00ea 2181     		strh	r1, [r4, #8]	@ movhi
 767:D:\mcu\design-mpu\source\ejemplos\BME680\bme680.c **** 			| ((coeff_array[BME680_H2_LSB_REG]) >> BME680_HUM_REG_SHIFT_VAL));
 1412              		.loc 1 767 0
 1413 00ec 9DF81D10 		ldrb	r1, [sp, #29]	@ zero_extendqisi2
 1414 00f0 1209     		lsrs	r2, r2, #4
ARM GAS  C:\Users\adria\AppData\Local\Temp\ccQ3AXqi.s 			page 55


 1415 00f2 42EA0112 		orr	r2, r2, r1, lsl #4
 1416 00f6 6281     		strh	r2, [r4, #10]	@ movhi
 769:D:\mcu\design-mpu\source\ejemplos\BME680\bme680.c **** 		dev->calib.par_h4 = (int8_t) coeff_array[BME680_H4_REG];
 1417              		.loc 1 769 0
 1418 00f8 9DF92020 		ldrsb	r2, [sp, #32]
 1419 00fc 2273     		strb	r2, [r4, #12]
 770:D:\mcu\design-mpu\source\ejemplos\BME680\bme680.c **** 		dev->calib.par_h5 = (int8_t) coeff_array[BME680_H5_REG];
 1420              		.loc 1 770 0
 1421 00fe 9DF92120 		ldrsb	r2, [sp, #33]
 1422 0102 6273     		strb	r2, [r4, #13]
 771:D:\mcu\design-mpu\source\ejemplos\BME680\bme680.c **** 		dev->calib.par_h6 = (uint8_t) coeff_array[BME680_H6_REG];
 1423              		.loc 1 771 0
 1424 0104 9DF92220 		ldrsb	r2, [sp, #34]
 1425 0108 A273     		strb	r2, [r4, #14]
 772:D:\mcu\design-mpu\source\ejemplos\BME680\bme680.c **** 		dev->calib.par_h7 = (int8_t) coeff_array[BME680_H7_REG];
 1426              		.loc 1 772 0
 1427 010a 9DF82320 		ldrb	r2, [sp, #35]	@ zero_extendqisi2
 1428 010e E273     		strb	r2, [r4, #15]
 773:D:\mcu\design-mpu\source\ejemplos\BME680\bme680.c **** 
 1429              		.loc 1 773 0
 1430 0110 9DF92420 		ldrsb	r2, [sp, #36]
 1431 0114 2274     		strb	r2, [r4, #16]
 776:D:\mcu\design-mpu\source\ejemplos\BME680\bme680.c **** 		dev->calib.par_gh2 = (int16_t) (BME680_CONCAT_BYTES(coeff_array[BME680_GH2_MSB_REG],
 1432              		.loc 1 776 0
 1433 0116 9DF92920 		ldrsb	r2, [sp, #41]
 1434 011a 6274     		strb	r2, [r4, #17]
 777:D:\mcu\design-mpu\source\ejemplos\BME680\bme680.c **** 			coeff_array[BME680_GH2_LSB_REG]));
 1435              		.loc 1 777 0
 1436 011c 9DF82810 		ldrb	r1, [sp, #40]	@ zero_extendqisi2
 1437 0120 9DF82720 		ldrb	r2, [sp, #39]	@ zero_extendqisi2
 1438 0124 42EA0122 		orr	r2, r2, r1, lsl #8
 1439 0128 6282     		strh	r2, [r4, #18]	@ movhi
 779:D:\mcu\design-mpu\source\ejemplos\BME680\bme680.c **** 
 1440              		.loc 1 779 0
 1441 012a 9DF92A20 		ldrsb	r2, [sp, #42]
 1442 012e 2275     		strb	r2, [r4, #20]
 782:D:\mcu\design-mpu\source\ejemplos\BME680\bme680.c **** 			rslt = bme680_get_regs(BME680_ADDR_RES_HEAT_RANGE_ADDR, &temp_var, 1, dev);
 1443              		.loc 1 782 0
 1444 0130 1BBB     		cbnz	r3, .L85
 783:D:\mcu\design-mpu\source\ejemplos\BME680\bme680.c **** 
 1445              		.loc 1 783 0
 1446 0132 2346     		mov	r3, r4
 1447              	.LVL195:
 1448 0134 0122     		movs	r2, #1
 1449 0136 0DF10301 		add	r1, sp, #3
 1450 013a 0220     		movs	r0, #2
 1451 013c FFF7FEFF 		bl	bme680_get_regs
 1452              	.LVL196:
 785:D:\mcu\design-mpu\source\ejemplos\BME680\bme680.c **** 			if (rslt == BME680_OK) {
 1453              		.loc 1 785 0
 1454 0140 9DF80330 		ldrb	r3, [sp, #3]	@ zero_extendqisi2
 1455 0144 03F03003 		and	r3, r3, #48
 1456 0148 1B11     		asrs	r3, r3, #4
 1457 014a 84F83430 		strb	r3, [r4, #52]
 786:D:\mcu\design-mpu\source\ejemplos\BME680\bme680.c **** 				rslt = bme680_get_regs(BME680_ADDR_RES_HEAT_VAL_ADDR, &temp_var, 1, dev);
 1458              		.loc 1 786 0
 1459 014e 0346     		mov	r3, r0
ARM GAS  C:\Users\adria\AppData\Local\Temp\ccQ3AXqi.s 			page 56


 1460 0150 98B9     		cbnz	r0, .L85
 787:D:\mcu\design-mpu\source\ejemplos\BME680\bme680.c **** 
 1461              		.loc 1 787 0
 1462 0152 2346     		mov	r3, r4
 1463 0154 0122     		movs	r2, #1
 1464 0156 0DF10301 		add	r1, sp, #3
 1465 015a FFF7FEFF 		bl	bme680_get_regs
 1466              	.LVL197:
 789:D:\mcu\design-mpu\source\ejemplos\BME680\bme680.c **** 				if (rslt == BME680_OK)
 1467              		.loc 1 789 0
 1468 015e 9DF90330 		ldrsb	r3, [sp, #3]
 1469 0162 84F83530 		strb	r3, [r4, #53]
 790:D:\mcu\design-mpu\source\ejemplos\BME680\bme680.c **** 					rslt = bme680_get_regs(BME680_ADDR_RANGE_SW_ERR_ADDR, &temp_var, 1, dev);
 1470              		.loc 1 790 0
 1471 0166 0346     		mov	r3, r0
 1472 0168 38B9     		cbnz	r0, .L85
 791:D:\mcu\design-mpu\source\ejemplos\BME680\bme680.c **** 			}
 1473              		.loc 1 791 0
 1474 016a 2346     		mov	r3, r4
 1475 016c 0122     		movs	r2, #1
 1476 016e 0DF10301 		add	r1, sp, #3
 1477 0172 0420     		movs	r0, #4
 1478              	.LVL198:
 1479 0174 FFF7FEFF 		bl	bme680_get_regs
 1480              	.LVL199:
 1481 0178 0346     		mov	r3, r0
 1482              	.LVL200:
 1483              	.L85:
 794:D:\mcu\design-mpu\source\ejemplos\BME680\bme680.c **** 	}
 1484              		.loc 1 794 0
 1485 017a 9DF90320 		ldrsb	r2, [sp, #3]
 1486 017e 1211     		asrs	r2, r2, #4
 1487 0180 84F83620 		strb	r2, [r4, #54]
 1488              	.LVL201:
 1489              	.L83:
 798:D:\mcu\design-mpu\source\ejemplos\BME680\bme680.c **** 
 1490              		.loc 1 798 0
 1491 0184 1846     		mov	r0, r3
 1492 0186 0CB0     		add	sp, sp, #48
 1493              		.cfi_def_cfa_offset 8
 1494              		@ sp needed
 1495 0188 10BD     		pop	{r4, pc}
 1496              		.cfi_endproc
 1497              	.LFE74:
 1498              		.size	get_calib_data, .-get_calib_data
 1499 018a 00BF     		.section	.text.get_gas_config,"ax",%progbits
 1500              		.align	2
 1501              		.thumb
 1502              		.thumb_func
 1503              		.type	get_gas_config, %function
 1504              	get_gas_config:
 1505              	.LFB76:
 836:D:\mcu\design-mpu\source\ejemplos\BME680\bme680.c **** 	int8_t rslt;
 1506              		.loc 1 836 0
 1507              		.cfi_startproc
 1508              		@ args = 0, pretend = 0, frame = 8
 1509              		@ frame_needed = 0, uses_anonymous_args = 0
ARM GAS  C:\Users\adria\AppData\Local\Temp\ccQ3AXqi.s 			page 57


 1510              	.LVL202:
 1511 0000 10B5     		push	{r4, lr}
 1512              		.cfi_def_cfa_offset 8
 1513              		.cfi_offset 4, -8
 1514              		.cfi_offset 14, -4
 1515 0002 82B0     		sub	sp, sp, #8
 1516              		.cfi_def_cfa_offset 16
 1517 0004 0446     		mov	r4, r0
 1518              	.LVL203:
 841:D:\mcu\design-mpu\source\ejemplos\BME680\bme680.c **** 
 1519              		.loc 1 841 0
 1520 0006 0023     		movs	r3, #0
 1521 0008 8DF80730 		strb	r3, [sp, #7]
 844:D:\mcu\design-mpu\source\ejemplos\BME680\bme680.c **** 	if (rslt == BME680_OK) {
 1522              		.loc 1 844 0
 1523 000c FFF7FEFF 		bl	null_ptr_check
 1524              	.LVL204:
 845:D:\mcu\design-mpu\source\ejemplos\BME680\bme680.c **** 		if (BME680_SPI_INTF == dev->intf) {
 1525              		.loc 1 845 0
 1526 0010 0346     		mov	r3, r0
 1527 0012 00BB     		cbnz	r0, .L89
 846:D:\mcu\design-mpu\source\ejemplos\BME680\bme680.c **** 			/* Memory page switch the SPI address*/
 1528              		.loc 1 846 0
 1529 0014 A278     		ldrb	r2, [r4, #2]	@ zero_extendqisi2
 1530 0016 22B9     		cbnz	r2, .L90
 848:D:\mcu\design-mpu\source\ejemplos\BME680\bme680.c **** 		}
 1531              		.loc 1 848 0
 1532 0018 2146     		mov	r1, r4
 1533 001a 5A20     		movs	r0, #90
 1534              	.LVL205:
 1535 001c FFF7FEFF 		bl	set_mem_page
 1536              	.LVL206:
 1537 0020 0346     		mov	r3, r0
 1538              	.LVL207:
 1539              	.L90:
 851:D:\mcu\design-mpu\source\ejemplos\BME680\bme680.c **** 			rslt = bme680_get_regs(reg_addr1, &reg_data, 1, dev);
 1540              		.loc 1 851 0
 1541 0022 C3B9     		cbnz	r3, .L89
 852:D:\mcu\design-mpu\source\ejemplos\BME680\bme680.c **** 			if (rslt == BME680_OK) {
 1542              		.loc 1 852 0
 1543 0024 2346     		mov	r3, r4
 1544              	.LVL208:
 1545 0026 0122     		movs	r2, #1
 1546 0028 0DF10701 		add	r1, sp, #7
 1547 002c 5A20     		movs	r0, #90
 1548 002e FFF7FEFF 		bl	bme680_get_regs
 1549              	.LVL209:
 853:D:\mcu\design-mpu\source\ejemplos\BME680\bme680.c **** 				dev->gas_sett.heatr_temp = reg_data;
 1550              		.loc 1 853 0
 1551 0032 0346     		mov	r3, r0
 1552 0034 78B9     		cbnz	r0, .L89
 854:D:\mcu\design-mpu\source\ejemplos\BME680\bme680.c **** 				rslt = bme680_get_regs(reg_addr2, &reg_data, 1, dev);
 1553              		.loc 1 854 0
 1554 0036 02A9     		add	r1, sp, #8
 1555 0038 11F8013D 		ldrb	r3, [r1, #-1]!	@ zero_extendqisi2
 1556 003c A4F84030 		strh	r3, [r4, #64]	@ movhi
 855:D:\mcu\design-mpu\source\ejemplos\BME680\bme680.c **** 				if (rslt == BME680_OK) {
ARM GAS  C:\Users\adria\AppData\Local\Temp\ccQ3AXqi.s 			page 58


 1557              		.loc 1 855 0
 1558 0040 2346     		mov	r3, r4
 1559 0042 0122     		movs	r2, #1
 1560 0044 6420     		movs	r0, #100
 1561              	.LVL210:
 1562 0046 FFF7FEFF 		bl	bme680_get_regs
 1563              	.LVL211:
 856:D:\mcu\design-mpu\source\ejemplos\BME680\bme680.c **** 					/* Heating duration register value */
 1564              		.loc 1 856 0
 1565 004a 0346     		mov	r3, r0
 1566 004c 18B9     		cbnz	r0, .L89
 858:D:\mcu\design-mpu\source\ejemplos\BME680\bme680.c **** 				}
 1567              		.loc 1 858 0
 1568 004e 9DF80720 		ldrb	r2, [sp, #7]	@ zero_extendqisi2
 1569 0052 A4F84220 		strh	r2, [r4, #66]	@ movhi
 1570              	.LVL212:
 1571              	.L89:
 865:D:\mcu\design-mpu\source\ejemplos\BME680\bme680.c **** 
 1572              		.loc 1 865 0
 1573 0056 1846     		mov	r0, r3
 1574 0058 02B0     		add	sp, sp, #8
 1575              		.cfi_def_cfa_offset 8
 1576              		@ sp needed
 1577 005a 10BD     		pop	{r4, pc}
 1578              		.cfi_endproc
 1579              	.LFE76:
 1580              		.size	get_gas_config, .-get_gas_config
 1581              		.section	.text.read_field_data,"ax",%progbits
 1582              		.align	2
 1583              		.thumb
 1584              		.thumb_func
 1585              		.type	read_field_data, %function
 1586              	read_field_data:
 1587              	.LFB83:
1206:D:\mcu\design-mpu\source\ejemplos\BME680\bme680.c **** 	int8_t rslt;
 1588              		.loc 1 1206 0
 1589              		.cfi_startproc
 1590              		@ args = 0, pretend = 0, frame = 16
 1591              		@ frame_needed = 0, uses_anonymous_args = 0
 1592              	.LVL213:
 1593 0000 2DE9F04F 		push	{r4, r5, r6, r7, r8, r9, r10, fp, lr}
 1594              		.cfi_def_cfa_offset 36
 1595              		.cfi_offset 4, -36
 1596              		.cfi_offset 5, -32
 1597              		.cfi_offset 6, -28
 1598              		.cfi_offset 7, -24
 1599              		.cfi_offset 8, -20
 1600              		.cfi_offset 9, -16
 1601              		.cfi_offset 10, -12
 1602              		.cfi_offset 11, -8
 1603              		.cfi_offset 14, -4
 1604 0004 85B0     		sub	sp, sp, #20
 1605              		.cfi_def_cfa_offset 56
 1606 0006 0746     		mov	r7, r0
 1607 0008 8A46     		mov	r10, r1
1208:D:\mcu\design-mpu\source\ejemplos\BME680\bme680.c **** 	uint8_t gas_range;
 1608              		.loc 1 1208 0
ARM GAS  C:\Users\adria\AppData\Local\Temp\ccQ3AXqi.s 			page 59


 1609 000a 0023     		movs	r3, #0
 1610 000c 0093     		str	r3, [sp]
 1611 000e 0193     		str	r3, [sp, #4]
 1612 0010 0293     		str	r3, [sp, #8]
 1613 0012 CDF80B30 		str	r3, [sp, #11]	@ unaligned
 1614              	.LVL214:
1217:D:\mcu\design-mpu\source\ejemplos\BME680\bme680.c **** 	do {
 1615              		.loc 1 1217 0
 1616 0016 0846     		mov	r0, r1
 1617              	.LVL215:
 1618 0018 FFF7FEFF 		bl	null_ptr_check
 1619              	.LVL216:
 1620 001c 0646     		mov	r6, r0
 1621              	.LVL217:
1214:D:\mcu\design-mpu\source\ejemplos\BME680\bme680.c **** 
 1622              		.loc 1 1214 0
 1623 001e 0A24     		movs	r4, #10
 1624              	.LVL218:
 1625              	.L96:
1219:D:\mcu\design-mpu\source\ejemplos\BME680\bme680.c **** 			rslt = bme680_get_regs(((uint8_t) (BME680_FIELD0_ADDR)), buff, (uint16_t) BME680_FIELD_LENGTH,
 1626              		.loc 1 1219 0
 1627 0020 002E     		cmp	r6, #0
 1628 0022 59D1     		bne	.L93
1220:D:\mcu\design-mpu\source\ejemplos\BME680\bme680.c **** 				dev);
 1629              		.loc 1 1220 0
 1630 0024 5346     		mov	r3, r10
 1631 0026 0F22     		movs	r2, #15
 1632 0028 6946     		mov	r1, sp
 1633 002a 1D20     		movs	r0, #29
 1634 002c FFF7FEFF 		bl	bme680_get_regs
 1635              	.LVL219:
 1636 0030 0646     		mov	r6, r0
 1637              	.LVL220:
1223:D:\mcu\design-mpu\source\ejemplos\BME680\bme680.c **** 			data->gas_index = buff[0] & BME680_GAS_INDEX_MSK;
 1638              		.loc 1 1223 0
 1639 0032 9DF80030 		ldrb	r3, [sp]	@ zero_extendqisi2
 1640 0036 03F0800E 		and	lr, r3, #128
1224:D:\mcu\design-mpu\source\ejemplos\BME680\bme680.c **** 			data->meas_index = buff[1];
 1641              		.loc 1 1224 0
 1642 003a 03F00F03 		and	r3, r3, #15
 1643 003e 7B70     		strb	r3, [r7, #1]
1225:D:\mcu\design-mpu\source\ejemplos\BME680\bme680.c **** 
 1644              		.loc 1 1225 0
 1645 0040 9DF80130 		ldrb	r3, [sp, #1]	@ zero_extendqisi2
 1646 0044 BB70     		strb	r3, [r7, #2]
1228:D:\mcu\design-mpu\source\ejemplos\BME680\bme680.c **** 				| ((uint32_t) buff[4] / 16));
 1647              		.loc 1 1228 0
 1648 0046 9DF80250 		ldrb	r5, [sp, #2]	@ zero_extendqisi2
 1649 004a 9DF80330 		ldrb	r3, [sp, #3]	@ zero_extendqisi2
 1650 004e 1B01     		lsls	r3, r3, #4
 1651 0050 43EA0533 		orr	r3, r3, r5, lsl #12
1229:D:\mcu\design-mpu\source\ejemplos\BME680\bme680.c **** 			adc_temp = (uint32_t) (((uint32_t) buff[5] * 4096) | ((uint32_t) buff[6] * 16)
 1652              		.loc 1 1229 0
 1653 0054 9DF80450 		ldrb	r5, [sp, #4]	@ zero_extendqisi2
1228:D:\mcu\design-mpu\source\ejemplos\BME680\bme680.c **** 				| ((uint32_t) buff[4] / 16));
 1654              		.loc 1 1228 0
 1655 0058 43EA1515 		orr	r5, r3, r5, lsr #4
ARM GAS  C:\Users\adria\AppData\Local\Temp\ccQ3AXqi.s 			page 60


 1656              	.LVL221:
1230:D:\mcu\design-mpu\source\ejemplos\BME680\bme680.c **** 				| ((uint32_t) buff[7] / 16));
 1657              		.loc 1 1230 0
 1658 005c 9DF80500 		ldrb	r0, [sp, #5]	@ zero_extendqisi2
 1659 0060 9DF80610 		ldrb	r1, [sp, #6]	@ zero_extendqisi2
 1660 0064 0901     		lsls	r1, r1, #4
 1661 0066 41EA0031 		orr	r1, r1, r0, lsl #12
1231:D:\mcu\design-mpu\source\ejemplos\BME680\bme680.c **** 			adc_hum = (uint16_t) (((uint32_t) buff[8] * 256) | (uint32_t) buff[9]);
 1662              		.loc 1 1231 0
 1663 006a 9DF80700 		ldrb	r0, [sp, #7]	@ zero_extendqisi2
1230:D:\mcu\design-mpu\source\ejemplos\BME680\bme680.c **** 				| ((uint32_t) buff[7] / 16));
 1664              		.loc 1 1230 0
 1665 006e 41EA1010 		orr	r0, r1, r0, lsr #4
 1666              	.LVL222:
1232:D:\mcu\design-mpu\source\ejemplos\BME680\bme680.c **** 			adc_gas_res = (uint16_t) ((uint32_t) buff[13] * 4 | (((uint32_t) buff[14]) / 64));
 1667              		.loc 1 1232 0
 1668 0072 9DF80890 		ldrb	r9, [sp, #8]	@ zero_extendqisi2
 1669 0076 9DF80930 		ldrb	r3, [sp, #9]	@ zero_extendqisi2
 1670 007a 43EA0929 		orr	r9, r3, r9, lsl #8
 1671              	.LVL223:
1233:D:\mcu\design-mpu\source\ejemplos\BME680\bme680.c **** 			gas_range = buff[14] & BME680_GAS_RANGE_MSK;
 1672              		.loc 1 1233 0
 1673 007e 9DF80D80 		ldrb	r8, [sp, #13]	@ zero_extendqisi2
 1674 0082 9DF80E30 		ldrb	r3, [sp, #14]	@ zero_extendqisi2
 1675 0086 9A09     		lsrs	r2, r3, #6
 1676 0088 42EA8808 		orr	r8, r2, r8, lsl #2
 1677              	.LVL224:
1234:D:\mcu\design-mpu\source\ejemplos\BME680\bme680.c **** 
 1678              		.loc 1 1234 0
 1679 008c 03F00F0B 		and	fp, r3, #15
 1680              	.LVL225:
1236:D:\mcu\design-mpu\source\ejemplos\BME680\bme680.c **** 			data->status |= buff[14] & BME680_HEAT_STAB_MSK;
 1681              		.loc 1 1236 0
 1682 0090 03F02002 		and	r2, r3, #32
 1683 0094 4EEA0202 		orr	r2, lr, r2
 1684 0098 52B2     		sxtb	r2, r2
1237:D:\mcu\design-mpu\source\ejemplos\BME680\bme680.c **** 
 1685              		.loc 1 1237 0
 1686 009a 03F01003 		and	r3, r3, #16
 1687 009e 1343     		orrs	r3, r3, r2
 1688 00a0 3B70     		strb	r3, [r7]
1239:D:\mcu\design-mpu\source\ejemplos\BME680\bme680.c **** 				data->temperature = calc_temperature(adc_temp, dev);
 1689              		.loc 1 1239 0
 1690 00a2 002B     		cmp	r3, #0
 1691 00a4 14DA     		bge	.L94
1240:D:\mcu\design-mpu\source\ejemplos\BME680\bme680.c **** 				data->pressure = calc_pressure(adc_pres, dev);
 1692              		.loc 1 1240 0
 1693 00a6 5146     		mov	r1, r10
 1694 00a8 FFF7FEFF 		bl	calc_temperature
 1695              	.LVL226:
 1696 00ac B880     		strh	r0, [r7, #4]	@ movhi
1241:D:\mcu\design-mpu\source\ejemplos\BME680\bme680.c **** 				data->humidity = calc_humidity(adc_hum, dev);
 1697              		.loc 1 1241 0
 1698 00ae 5146     		mov	r1, r10
 1699 00b0 2846     		mov	r0, r5
 1700 00b2 FFF7FEFF 		bl	calc_pressure
 1701              	.LVL227:
ARM GAS  C:\Users\adria\AppData\Local\Temp\ccQ3AXqi.s 			page 61


 1702 00b6 B860     		str	r0, [r7, #8]
1242:D:\mcu\design-mpu\source\ejemplos\BME680\bme680.c **** 				data->gas_resistance = calc_gas_resistance(adc_gas_res, gas_range, dev);
 1703              		.loc 1 1242 0
 1704 00b8 5146     		mov	r1, r10
 1705 00ba 4846     		mov	r0, r9
 1706 00bc FFF7FEFF 		bl	calc_humidity
 1707              	.LVL228:
 1708 00c0 F860     		str	r0, [r7, #12]
1243:D:\mcu\design-mpu\source\ejemplos\BME680\bme680.c **** 				break;
 1709              		.loc 1 1243 0
 1710 00c2 5246     		mov	r2, r10
 1711 00c4 5946     		mov	r1, fp
 1712 00c6 4046     		mov	r0, r8
 1713 00c8 FFF7FEFF 		bl	calc_gas_resistance
 1714              	.LVL229:
 1715 00cc 3861     		str	r0, [r7, #16]
1244:D:\mcu\design-mpu\source\ejemplos\BME680\bme680.c **** 			}
 1716              		.loc 1 1244 0
 1717 00ce 07E0     		b	.L95
 1718              	.LVL230:
 1719              	.L94:
1247:D:\mcu\design-mpu\source\ejemplos\BME680\bme680.c **** 		}
 1720              		.loc 1 1247 0
 1721 00d0 DAF85030 		ldr	r3, [r10, #80]
 1722 00d4 0A20     		movs	r0, #10
 1723              	.LVL231:
 1724 00d6 9847     		blx	r3
 1725              	.LVL232:
 1726              	.L93:
1249:D:\mcu\design-mpu\source\ejemplos\BME680\bme680.c **** 	} while (tries);
 1727              		.loc 1 1249 0
 1728 00d8 631E     		subs	r3, r4, #1
 1729              	.LVL233:
1250:D:\mcu\design-mpu\source\ejemplos\BME680\bme680.c **** 
 1730              		.loc 1 1250 0
 1731 00da 13F0FF04 		ands	r4, r3, #255
 1732 00de 9FD1     		bne	.L96
 1733              	.LVL234:
 1734              	.L95:
1252:D:\mcu\design-mpu\source\ejemplos\BME680\bme680.c **** 		rslt = BME680_W_NO_NEW_DATA;
 1735              		.loc 1 1252 0
 1736 00e0 04B9     		cbnz	r4, .L97
1253:D:\mcu\design-mpu\source\ejemplos\BME680\bme680.c **** 
 1737              		.loc 1 1253 0
 1738 00e2 0226     		movs	r6, #2
 1739              	.LVL235:
 1740              	.L97:
1256:D:\mcu\design-mpu\source\ejemplos\BME680\bme680.c **** 
 1741              		.loc 1 1256 0
 1742 00e4 3046     		mov	r0, r6
 1743 00e6 05B0     		add	sp, sp, #20
 1744              		.cfi_def_cfa_offset 36
 1745              		@ sp needed
 1746 00e8 BDE8F08F 		pop	{r4, r5, r6, r7, r8, r9, r10, fp, pc}
 1747              		.cfi_endproc
 1748              	.LFE83:
 1749              		.size	read_field_data, .-read_field_data
ARM GAS  C:\Users\adria\AppData\Local\Temp\ccQ3AXqi.s 			page 62


 1750              		.section	.text.bme680_set_regs,"ax",%progbits
 1751              		.align	2
 1752              		.global	bme680_set_regs
 1753              		.thumb
 1754              		.thumb_func
 1755              		.type	bme680_set_regs, %function
 1756              	bme680_set_regs:
 1757              	.LFB65:
 337:D:\mcu\design-mpu\source\ejemplos\BME680\bme680.c **** 	int8_t rslt;
 1758              		.loc 1 337 0
 1759              		.cfi_startproc
 1760              		@ args = 0, pretend = 0, frame = 40
 1761              		@ frame_needed = 0, uses_anonymous_args = 0
 1762              	.LVL236:
 1763 0000 2DE9F043 		push	{r4, r5, r6, r7, r8, r9, lr}
 1764              		.cfi_def_cfa_offset 28
 1765              		.cfi_offset 4, -28
 1766              		.cfi_offset 5, -24
 1767              		.cfi_offset 6, -20
 1768              		.cfi_offset 7, -16
 1769              		.cfi_offset 8, -12
 1770              		.cfi_offset 9, -8
 1771              		.cfi_offset 14, -4
 1772 0004 8BB0     		sub	sp, sp, #44
 1773              		.cfi_def_cfa_offset 72
 1774 0006 0646     		mov	r6, r0
 1775 0008 8846     		mov	r8, r1
 1776 000a 1746     		mov	r7, r2
 1777 000c 1D46     		mov	r5, r3
 340:D:\mcu\design-mpu\source\ejemplos\BME680\bme680.c **** 	uint16_t index;
 1778              		.loc 1 340 0
 1779 000e 2822     		movs	r2, #40
 1780              	.LVL237:
 1781 0010 0021     		movs	r1, #0
 1782              	.LVL238:
 1783 0012 6846     		mov	r0, sp
 1784              	.LVL239:
 1785 0014 FFF7FEFF 		bl	memset
 1786              	.LVL240:
 344:D:\mcu\design-mpu\source\ejemplos\BME680\bme680.c **** 	if (rslt == BME680_OK) {
 1787              		.loc 1 344 0
 1788 0018 2846     		mov	r0, r5
 1789 001a FFF7FEFF 		bl	null_ptr_check
 1790              	.LVL241:
 345:D:\mcu\design-mpu\source\ejemplos\BME680\bme680.c **** 		if ((len > 0) && (len < BME680_TMP_BUFFER_LENGTH / 2)) {
 1791              		.loc 1 345 0
 1792 001e 8146     		mov	r9, r0
 1793 0020 0028     		cmp	r0, #0
 1794 0022 3DD1     		bne	.L101
 346:D:\mcu\design-mpu\source\ejemplos\BME680\bme680.c **** 			/* Interleave the 2 arrays */
 1795              		.loc 1 346 0
 1796 0024 7B1E     		subs	r3, r7, #1
 1797 0026 DBB2     		uxtb	r3, r3
 1798 0028 122B     		cmp	r3, #18
 1799 002a 23D9     		bls	.L106
 365:D:\mcu\design-mpu\source\ejemplos\BME680\bme680.c **** 		}
 1800              		.loc 1 365 0
ARM GAS  C:\Users\adria\AppData\Local\Temp\ccQ3AXqi.s 			page 63


 1801 002c 6FF00309 		mvn	r9, #3
 1802 0030 36E0     		b	.L101
 1803              	.LVL242:
 1804              	.L105:
 349:D:\mcu\design-mpu\source\ejemplos\BME680\bme680.c **** 					/* Set the memory page */
 1805              		.loc 1 349 0
 1806 0032 AB78     		ldrb	r3, [r5, #2]	@ zero_extendqisi2
 1807 0034 6BB9     		cbnz	r3, .L103
 351:D:\mcu\design-mpu\source\ejemplos\BME680\bme680.c **** 					tmp_buff[(2 * index)] = reg_addr[index] & BME680_SPI_WR_MSK;
 1808              		.loc 1 351 0
 1809 0036 2946     		mov	r1, r5
 1810 0038 305D     		ldrb	r0, [r6, r4]	@ zero_extendqisi2
 1811 003a FFF7FEFF 		bl	set_mem_page
 1812              	.LVL243:
 1813 003e 8146     		mov	r9, r0
 1814              	.LVL244:
 352:D:\mcu\design-mpu\source\ejemplos\BME680\bme680.c **** 				} else {
 1815              		.loc 1 352 0
 1816 0040 325D     		ldrb	r2, [r6, r4]	@ zero_extendqisi2
 1817 0042 02F07F02 		and	r2, r2, #127
 1818 0046 0AAB     		add	r3, sp, #40
 1819 0048 03EB4403 		add	r3, r3, r4, lsl #1
 1820 004c 03F8282C 		strb	r2, [r3, #-40]
 1821 0050 05E0     		b	.L104
 1822              	.L103:
 354:D:\mcu\design-mpu\source\ejemplos\BME680\bme680.c **** 				}
 1823              		.loc 1 354 0
 1824 0052 325D     		ldrb	r2, [r6, r4]	@ zero_extendqisi2
 1825 0054 0AAB     		add	r3, sp, #40
 1826 0056 03EB4403 		add	r3, r3, r4, lsl #1
 1827 005a 03F8282C 		strb	r2, [r3, #-40]
 1828              	.L104:
 356:D:\mcu\design-mpu\source\ejemplos\BME680\bme680.c **** 			}
 1829              		.loc 1 356 0 discriminator 2
 1830 005e 6300     		lsls	r3, r4, #1
 1831 0060 0133     		adds	r3, r3, #1
 1832 0062 18F80420 		ldrb	r2, [r8, r4]	@ zero_extendqisi2
 1833 0066 0AA9     		add	r1, sp, #40
 1834 0068 0B44     		add	r3, r3, r1
 1835 006a 03F8282C 		strb	r2, [r3, #-40]
 348:D:\mcu\design-mpu\source\ejemplos\BME680\bme680.c **** 				if (dev->intf == BME680_SPI_INTF) {
 1836              		.loc 1 348 0 discriminator 2
 1837 006e 0134     		adds	r4, r4, #1
 1838              	.LVL245:
 1839 0070 A4B2     		uxth	r4, r4
 1840              	.LVL246:
 1841 0072 00E0     		b	.L102
 1842              	.LVL247:
 1843              	.L106:
 1844 0074 0024     		movs	r4, #0
 1845              	.LVL248:
 1846              	.L102:
 348:D:\mcu\design-mpu\source\ejemplos\BME680\bme680.c **** 				if (dev->intf == BME680_SPI_INTF) {
 1847              		.loc 1 348 0 is_stmt 0 discriminator 1
 1848 0076 BBB2     		uxth	r3, r7
 1849 0078 9C42     		cmp	r4, r3
 1850 007a DAD3     		bcc	.L105
ARM GAS  C:\Users\adria\AppData\Local\Temp\ccQ3AXqi.s 			page 64


 359:D:\mcu\design-mpu\source\ejemplos\BME680\bme680.c **** 				dev->com_rslt = dev->write(dev->dev_id, tmp_buff[0], &tmp_buff[1], (2 * len) - 1);
 1851              		.loc 1 359 0 is_stmt 1
 1852 007c B9F1000F 		cmp	r9, #0
 1853 0080 0ED1     		bne	.L101
 360:D:\mcu\design-mpu\source\ejemplos\BME680\bme680.c **** 				if (dev->com_rslt != 0)
 1854              		.loc 1 360 0
 1855 0082 EC6C     		ldr	r4, [r5, #76]
 1856              	.LVL249:
 1857 0084 5B00     		lsls	r3, r3, #1
 1858 0086 013B     		subs	r3, r3, #1
 1859 0088 9BB2     		uxth	r3, r3
 1860 008a 0DF10102 		add	r2, sp, #1
 1861 008e 9DF80010 		ldrb	r1, [sp]	@ zero_extendqisi2
 1862 0092 6878     		ldrb	r0, [r5, #1]	@ zero_extendqisi2
 1863 0094 A047     		blx	r4
 1864              	.LVL250:
 1865 0096 85F85400 		strb	r0, [r5, #84]
 361:D:\mcu\design-mpu\source\ejemplos\BME680\bme680.c **** 					rslt = BME680_E_COM_FAIL;
 1866              		.loc 1 361 0
 1867 009a 08B1     		cbz	r0, .L101
 362:D:\mcu\design-mpu\source\ejemplos\BME680\bme680.c **** 			}
 1868              		.loc 1 362 0
 1869 009c 6FF00109 		mvn	r9, #1
 1870              	.LVL251:
 1871              	.L101:
 370:D:\mcu\design-mpu\source\ejemplos\BME680\bme680.c **** 
 1872              		.loc 1 370 0
 1873 00a0 4846     		mov	r0, r9
 1874 00a2 0BB0     		add	sp, sp, #44
 1875              		.cfi_def_cfa_offset 28
 1876              		@ sp needed
 1877 00a4 BDE8F083 		pop	{r4, r5, r6, r7, r8, r9, pc}
 1878              		.cfi_endproc
 1879              	.LFE65:
 1880              		.size	bme680_set_regs, .-bme680_set_regs
 1881              		.section	.text.set_gas_config,"ax",%progbits
 1882              		.align	2
 1883              		.thumb
 1884              		.thumb_func
 1885              		.type	set_gas_config, %function
 1886              	set_gas_config:
 1887              	.LFB75:
 804:D:\mcu\design-mpu\source\ejemplos\BME680\bme680.c **** 	int8_t rslt;
 1888              		.loc 1 804 0
 1889              		.cfi_startproc
 1890              		@ args = 0, pretend = 0, frame = 8
 1891              		@ frame_needed = 0, uses_anonymous_args = 0
 1892              	.LVL252:
 1893 0000 30B5     		push	{r4, r5, lr}
 1894              		.cfi_def_cfa_offset 12
 1895              		.cfi_offset 4, -12
 1896              		.cfi_offset 5, -8
 1897              		.cfi_offset 14, -4
 1898 0002 83B0     		sub	sp, sp, #12
 1899              		.cfi_def_cfa_offset 24
 1900 0004 0546     		mov	r5, r0
 808:D:\mcu\design-mpu\source\ejemplos\BME680\bme680.c **** 	if (rslt == BME680_OK) {
ARM GAS  C:\Users\adria\AppData\Local\Temp\ccQ3AXqi.s 			page 65


 1901              		.loc 1 808 0
 1902 0006 FFF7FEFF 		bl	null_ptr_check
 1903              	.LVL253:
 809:D:\mcu\design-mpu\source\ejemplos\BME680\bme680.c **** 
 1904              		.loc 1 809 0
 1905 000a 0446     		mov	r4, r0
 1906 000c 40BB     		cbnz	r0, .L110
 1907              	.LBB2:
 811:D:\mcu\design-mpu\source\ejemplos\BME680\bme680.c **** 		uint8_t reg_data[2] = {0};
 1908              		.loc 1 811 0
 1909 000e 0023     		movs	r3, #0
 1910 0010 ADF80030 		strh	r3, [sp]	@ movhi
 812:D:\mcu\design-mpu\source\ejemplos\BME680\bme680.c **** 
 1911              		.loc 1 812 0
 1912 0014 ADF80430 		strh	r3, [sp, #4]	@ movhi
 814:D:\mcu\design-mpu\source\ejemplos\BME680\bme680.c **** 			reg_addr[0] = BME680_RES_HEAT0_ADDR;
 1913              		.loc 1 814 0
 1914 0018 95F84430 		ldrb	r3, [r5, #68]	@ zero_extendqisi2
 1915 001c 012B     		cmp	r3, #1
 1916 001e 16D1     		bne	.L113
 815:D:\mcu\design-mpu\source\ejemplos\BME680\bme680.c **** 			reg_data[0] = calc_heater_res(dev->gas_sett.heatr_temp, dev);
 1917              		.loc 1 815 0
 1918 0020 5A23     		movs	r3, #90
 1919 0022 8DF80030 		strb	r3, [sp]
 816:D:\mcu\design-mpu\source\ejemplos\BME680\bme680.c **** 			reg_addr[1] = BME680_GAS_WAIT0_ADDR;
 1920              		.loc 1 816 0
 1921 0026 2946     		mov	r1, r5
 1922 0028 B5F84000 		ldrh	r0, [r5, #64]
 1923              	.LVL254:
 1924 002c FFF7FEFF 		bl	calc_heater_res
 1925              	.LVL255:
 1926 0030 8DF80400 		strb	r0, [sp, #4]
 817:D:\mcu\design-mpu\source\ejemplos\BME680\bme680.c **** 			reg_data[1] = calc_heater_dur(dev->gas_sett.heatr_dur);
 1927              		.loc 1 817 0
 1928 0034 6423     		movs	r3, #100
 1929 0036 8DF80130 		strb	r3, [sp, #1]
 818:D:\mcu\design-mpu\source\ejemplos\BME680\bme680.c **** 			dev->gas_sett.nb_conv = 0;
 1930              		.loc 1 818 0
 1931 003a B5F84200 		ldrh	r0, [r5, #66]
 1932 003e FFF7FEFF 		bl	calc_heater_dur
 1933              	.LVL256:
 1934 0042 8DF80500 		strb	r0, [sp, #5]
 819:D:\mcu\design-mpu\source\ejemplos\BME680\bme680.c **** 		} else {
 1935              		.loc 1 819 0
 1936 0046 0023     		movs	r3, #0
 1937 0048 85F83C30 		strb	r3, [r5, #60]
 1938 004c 00E0     		b	.L111
 1939              	.LVL257:
 1940              	.L113:
 821:D:\mcu\design-mpu\source\ejemplos\BME680\bme680.c **** 		}
 1941              		.loc 1 821 0
 1942 004e 0124     		movs	r4, #1
 1943              	.LVL258:
 1944              	.L111:
 823:D:\mcu\design-mpu\source\ejemplos\BME680\bme680.c **** 			rslt = bme680_set_regs(reg_addr, reg_data, 2, dev);
 1945              		.loc 1 823 0
 1946 0050 34B9     		cbnz	r4, .L110
ARM GAS  C:\Users\adria\AppData\Local\Temp\ccQ3AXqi.s 			page 66


 824:D:\mcu\design-mpu\source\ejemplos\BME680\bme680.c **** 	}
 1947              		.loc 1 824 0
 1948 0052 2B46     		mov	r3, r5
 1949 0054 0222     		movs	r2, #2
 1950 0056 01A9     		add	r1, sp, #4
 1951 0058 6846     		mov	r0, sp
 1952 005a FFF7FEFF 		bl	bme680_set_regs
 1953              	.LVL259:
 1954 005e 0446     		mov	r4, r0
 1955              	.LVL260:
 1956              	.L110:
 1957              	.LBE2:
 828:D:\mcu\design-mpu\source\ejemplos\BME680\bme680.c **** 
 1958              		.loc 1 828 0
 1959 0060 2046     		mov	r0, r4
 1960 0062 03B0     		add	sp, sp, #12
 1961              		.cfi_def_cfa_offset 12
 1962              		@ sp needed
 1963 0064 30BD     		pop	{r4, r5, pc}
 1964              		.cfi_endproc
 1965              	.LFE75:
 1966              		.size	set_gas_config, .-set_gas_config
 1967 0066 00BF     		.section	.text.bme680_soft_reset,"ax",%progbits
 1968              		.align	2
 1969              		.global	bme680_soft_reset
 1970              		.thumb
 1971              		.thumb_func
 1972              		.type	bme680_soft_reset, %function
 1973              	bme680_soft_reset:
 1974              	.LFB66:
 376:D:\mcu\design-mpu\source\ejemplos\BME680\bme680.c **** 	int8_t rslt;
 1975              		.loc 1 376 0
 1976              		.cfi_startproc
 1977              		@ args = 0, pretend = 0, frame = 8
 1978              		@ frame_needed = 0, uses_anonymous_args = 0
 1979              	.LVL261:
 1980 0000 30B5     		push	{r4, r5, lr}
 1981              		.cfi_def_cfa_offset 12
 1982              		.cfi_offset 4, -12
 1983              		.cfi_offset 5, -8
 1984              		.cfi_offset 14, -4
 1985 0002 83B0     		sub	sp, sp, #12
 1986              		.cfi_def_cfa_offset 24
 1987 0004 0546     		mov	r5, r0
 378:D:\mcu\design-mpu\source\ejemplos\BME680\bme680.c **** 	/* 0xb6 is the soft reset command */
 1988              		.loc 1 378 0
 1989 0006 E023     		movs	r3, #224
 1990 0008 8DF80730 		strb	r3, [sp, #7]
 380:D:\mcu\design-mpu\source\ejemplos\BME680\bme680.c **** 
 1991              		.loc 1 380 0
 1992 000c B623     		movs	r3, #182
 1993 000e 8DF80630 		strb	r3, [sp, #6]
 383:D:\mcu\design-mpu\source\ejemplos\BME680\bme680.c **** 	if (rslt == BME680_OK) {
 1994              		.loc 1 383 0
 1995 0012 FFF7FEFF 		bl	null_ptr_check
 1996              	.LVL262:
 384:D:\mcu\design-mpu\source\ejemplos\BME680\bme680.c **** 		if (dev->intf == BME680_SPI_INTF)
ARM GAS  C:\Users\adria\AppData\Local\Temp\ccQ3AXqi.s 			page 67


 1997              		.loc 1 384 0
 1998 0016 0446     		mov	r4, r0
 1999 0018 C8B9     		cbnz	r0, .L116
 385:D:\mcu\design-mpu\source\ejemplos\BME680\bme680.c **** 			rslt = get_mem_page(dev);
 2000              		.loc 1 385 0
 2001 001a AB78     		ldrb	r3, [r5, #2]	@ zero_extendqisi2
 2002 001c 1BB9     		cbnz	r3, .L117
 386:D:\mcu\design-mpu\source\ejemplos\BME680\bme680.c **** 
 2003              		.loc 1 386 0
 2004 001e 2846     		mov	r0, r5
 2005              	.LVL263:
 2006 0020 FFF7FEFF 		bl	get_mem_page
 2007              	.LVL264:
 2008 0024 0446     		mov	r4, r0
 2009              	.LVL265:
 2010              	.L117:
 389:D:\mcu\design-mpu\source\ejemplos\BME680\bme680.c **** 			rslt = bme680_set_regs(&reg_addr, &soft_rst_cmd, 1, dev);
 2011              		.loc 1 389 0
 2012 0026 94B9     		cbnz	r4, .L116
 390:D:\mcu\design-mpu\source\ejemplos\BME680\bme680.c **** 			/* Wait for 5ms */
 2013              		.loc 1 390 0
 2014 0028 2B46     		mov	r3, r5
 2015 002a 0122     		movs	r2, #1
 2016 002c 0DF10601 		add	r1, sp, #6
 2017 0030 0DF10700 		add	r0, sp, #7
 2018 0034 FFF7FEFF 		bl	bme680_set_regs
 2019              	.LVL266:
 2020 0038 0446     		mov	r4, r0
 2021              	.LVL267:
 392:D:\mcu\design-mpu\source\ejemplos\BME680\bme680.c **** 
 2022              		.loc 1 392 0
 2023 003a 2B6D     		ldr	r3, [r5, #80]
 2024 003c 0A20     		movs	r0, #10
 2025 003e 9847     		blx	r3
 2026              	.LVL268:
 394:D:\mcu\design-mpu\source\ejemplos\BME680\bme680.c **** 				/* After reset get the memory page */
 2027              		.loc 1 394 0
 2028 0040 2CB9     		cbnz	r4, .L116
 396:D:\mcu\design-mpu\source\ejemplos\BME680\bme680.c **** 					rslt = get_mem_page(dev);
 2029              		.loc 1 396 0
 2030 0042 AB78     		ldrb	r3, [r5, #2]	@ zero_extendqisi2
 2031 0044 1BB9     		cbnz	r3, .L116
 397:D:\mcu\design-mpu\source\ejemplos\BME680\bme680.c **** 			}
 2032              		.loc 1 397 0
 2033 0046 2846     		mov	r0, r5
 2034 0048 FFF7FEFF 		bl	get_mem_page
 2035              	.LVL269:
 2036 004c 0446     		mov	r4, r0
 2037              	.LVL270:
 2038              	.L116:
 403:D:\mcu\design-mpu\source\ejemplos\BME680\bme680.c **** 
 2039              		.loc 1 403 0
 2040 004e 2046     		mov	r0, r4
 2041 0050 03B0     		add	sp, sp, #12
 2042              		.cfi_def_cfa_offset 12
 2043              		@ sp needed
 2044 0052 30BD     		pop	{r4, r5, pc}
ARM GAS  C:\Users\adria\AppData\Local\Temp\ccQ3AXqi.s 			page 68


 2045              		.cfi_endproc
 2046              	.LFE66:
 2047              		.size	bme680_soft_reset, .-bme680_soft_reset
 2048              		.section	.text.bme680_init,"ax",%progbits
 2049              		.align	2
 2050              		.global	bme680_init
 2051              		.thumb
 2052              		.thumb_func
 2053              		.type	bme680_init, %function
 2054              	bme680_init:
 2055              	.LFB63:
 284:D:\mcu\design-mpu\source\ejemplos\BME680\bme680.c **** 	int8_t rslt;
 2056              		.loc 1 284 0
 2057              		.cfi_startproc
 2058              		@ args = 0, pretend = 0, frame = 0
 2059              		@ frame_needed = 0, uses_anonymous_args = 0
 2060              	.LVL271:
 2061 0000 10B5     		push	{r4, lr}
 2062              		.cfi_def_cfa_offset 8
 2063              		.cfi_offset 4, -8
 2064              		.cfi_offset 14, -4
 2065 0002 0446     		mov	r4, r0
 288:D:\mcu\design-mpu\source\ejemplos\BME680\bme680.c **** 	if (rslt == BME680_OK) {
 2066              		.loc 1 288 0
 2067 0004 FFF7FEFF 		bl	null_ptr_check
 2068              	.LVL272:
 289:D:\mcu\design-mpu\source\ejemplos\BME680\bme680.c **** 		/* Soft reset to restore it to default values*/
 2069              		.loc 1 289 0
 2070 0008 0346     		mov	r3, r0
 2071 000a B0B9     		cbnz	r0, .L120
 291:D:\mcu\design-mpu\source\ejemplos\BME680\bme680.c **** 		if (rslt == BME680_OK) {
 2072              		.loc 1 291 0
 2073 000c 2046     		mov	r0, r4
 2074              	.LVL273:
 2075 000e FFF7FEFF 		bl	bme680_soft_reset
 2076              	.LVL274:
 292:D:\mcu\design-mpu\source\ejemplos\BME680\bme680.c **** 			rslt = bme680_get_regs(BME680_CHIP_ID_ADDR, &dev->chip_id, 1, dev);
 2077              		.loc 1 292 0
 2078 0012 0346     		mov	r3, r0
 2079 0014 88B9     		cbnz	r0, .L120
 293:D:\mcu\design-mpu\source\ejemplos\BME680\bme680.c **** 			if (rslt == BME680_OK) {
 2080              		.loc 1 293 0
 2081 0016 2346     		mov	r3, r4
 2082 0018 0122     		movs	r2, #1
 2083 001a 2146     		mov	r1, r4
 2084 001c D020     		movs	r0, #208
 2085              	.LVL275:
 2086 001e FFF7FEFF 		bl	bme680_get_regs
 2087              	.LVL276:
 294:D:\mcu\design-mpu\source\ejemplos\BME680\bme680.c **** 				if (dev->chip_id == BME680_CHIP_ID) {
 2088              		.loc 1 294 0
 2089 0022 0346     		mov	r3, r0
 2090 0024 48B9     		cbnz	r0, .L120
 295:D:\mcu\design-mpu\source\ejemplos\BME680\bme680.c **** 					/* Get the Calibration data */
 2091              		.loc 1 295 0
 2092 0026 2378     		ldrb	r3, [r4]	@ zero_extendqisi2
 2093 0028 612B     		cmp	r3, #97
ARM GAS  C:\Users\adria\AppData\Local\Temp\ccQ3AXqi.s 			page 69


 2094 002a 04D1     		bne	.L121
 297:D:\mcu\design-mpu\source\ejemplos\BME680\bme680.c **** 				} else {
 2095              		.loc 1 297 0
 2096 002c 2046     		mov	r0, r4
 2097              	.LVL277:
 2098 002e FFF7FEFF 		bl	get_calib_data
 2099              	.LVL278:
 2100 0032 0346     		mov	r3, r0
 2101              	.LVL279:
 2102 0034 01E0     		b	.L120
 2103              	.LVL280:
 2104              	.L121:
 299:D:\mcu\design-mpu\source\ejemplos\BME680\bme680.c **** 				}
 2105              		.loc 1 299 0
 2106 0036 6FF00203 		mvn	r3, #2
 2107              	.LVL281:
 2108              	.L120:
 306:D:\mcu\design-mpu\source\ejemplos\BME680\bme680.c **** 
 2109              		.loc 1 306 0
 2110 003a 1846     		mov	r0, r3
 2111 003c 10BD     		pop	{r4, pc}
 2112              		.cfi_endproc
 2113              	.LFE63:
 2114              		.size	bme680_init, .-bme680_init
 2115 003e 00BF     		.section	.text.bme680_get_sensor_settings,"ax",%progbits
 2116              		.align	2
 2117              		.global	bme680_get_sensor_settings
 2118              		.thumb
 2119              		.thumb_func
 2120              		.type	bme680_get_sensor_settings, %function
 2121              	bme680_get_sensor_settings:
 2122              	.LFB68:
 534:D:\mcu\design-mpu\source\ejemplos\BME680\bme680.c **** 	int8_t rslt;
 2123              		.loc 1 534 0
 2124              		.cfi_startproc
 2125              		@ args = 0, pretend = 0, frame = 8
 2126              		@ frame_needed = 0, uses_anonymous_args = 0
 2127              	.LVL282:
 2128 0000 30B5     		push	{r4, r5, lr}
 2129              		.cfi_def_cfa_offset 12
 2130              		.cfi_offset 4, -12
 2131              		.cfi_offset 5, -8
 2132              		.cfi_offset 14, -4
 2133 0002 83B0     		sub	sp, sp, #12
 2134              		.cfi_def_cfa_offset 24
 2135 0004 0546     		mov	r5, r0
 2136 0006 0C46     		mov	r4, r1
 2137              	.LVL283:
 538:D:\mcu\design-mpu\source\ejemplos\BME680\bme680.c **** 
 2138              		.loc 1 538 0
 2139 0008 0023     		movs	r3, #0
 2140 000a 0093     		str	r3, [sp]
 2141 000c ADF80430 		strh	r3, [sp, #4]	@ movhi
 541:D:\mcu\design-mpu\source\ejemplos\BME680\bme680.c **** 	if (rslt == BME680_OK) {
 2142              		.loc 1 541 0
 2143 0010 0846     		mov	r0, r1
 2144              	.LVL284:
ARM GAS  C:\Users\adria\AppData\Local\Temp\ccQ3AXqi.s 			page 70


 2145 0012 FFF7FEFF 		bl	null_ptr_check
 2146              	.LVL285:
 542:D:\mcu\design-mpu\source\ejemplos\BME680\bme680.c **** 		rslt = bme680_get_regs(reg_addr, data_array, BME680_REG_BUFFER_LENGTH, dev);
 2147              		.loc 1 542 0
 2148 0016 0028     		cmp	r0, #0
 2149 0018 48D1     		bne	.L130
 543:D:\mcu\design-mpu\source\ejemplos\BME680\bme680.c **** 
 2150              		.loc 1 543 0
 2151 001a 2346     		mov	r3, r4
 2152 001c 0622     		movs	r2, #6
 2153 001e 6946     		mov	r1, sp
 2154 0020 7020     		movs	r0, #112
 2155              	.LVL286:
 2156 0022 FFF7FEFF 		bl	bme680_get_regs
 2157              	.LVL287:
 545:D:\mcu\design-mpu\source\ejemplos\BME680\bme680.c **** 			if (desired_settings & BME680_GAS_MEAS_SEL)
 2158              		.loc 1 545 0
 2159 0026 0246     		mov	r2, r0
 2160 0028 0028     		cmp	r0, #0
 2161 002a 41D1     		bne	.L124
 546:D:\mcu\design-mpu\source\ejemplos\BME680\bme680.c **** 				rslt = get_gas_config(dev);
 2162              		.loc 1 546 0
 2163 002c 05F00803 		and	r3, r5, #8
 2164 0030 9BB2     		uxth	r3, r3
 2165 0032 1BB1     		cbz	r3, .L125
 547:D:\mcu\design-mpu\source\ejemplos\BME680\bme680.c **** 
 2166              		.loc 1 547 0
 2167 0034 2046     		mov	r0, r4
 2168              	.LVL288:
 2169 0036 FFF7FEFF 		bl	get_gas_config
 2170              	.LVL289:
 2171 003a 0246     		mov	r2, r0
 2172              	.LVL290:
 2173              	.L125:
 550:D:\mcu\design-mpu\source\ejemplos\BME680\bme680.c **** 				dev->tph_sett.filter = BME680_GET_BITS(data_array[BME680_REG_FILTER_INDEX],
 2174              		.loc 1 550 0
 2175 003c 05F01003 		and	r3, r5, #16
 2176 0040 9BB2     		uxth	r3, r3
 2177 0042 2BB1     		cbz	r3, .L126
 551:D:\mcu\design-mpu\source\ejemplos\BME680\bme680.c **** 					BME680_FILTER);
 2178              		.loc 1 551 0
 2179 0044 9DF80530 		ldrb	r3, [sp, #5]	@ zero_extendqisi2
 2180 0048 C3F38203 		ubfx	r3, r3, #2, #3
 2181 004c 84F83B30 		strb	r3, [r4, #59]
 2182              	.L126:
 554:D:\mcu\design-mpu\source\ejemplos\BME680\bme680.c **** 				dev->tph_sett.os_temp = BME680_GET_BITS(data_array[BME680_REG_TEMP_INDEX], BME680_OST);
 2183              		.loc 1 554 0
 2184 0050 15F0030F 		tst	r5, #3
 2185 0054 08D0     		beq	.L127
 555:D:\mcu\design-mpu\source\ejemplos\BME680\bme680.c **** 				dev->tph_sett.os_pres = BME680_GET_BITS(data_array[BME680_REG_PRES_INDEX], BME680_OSP);
 2186              		.loc 1 555 0
 2187 0056 9DF80430 		ldrb	r3, [sp, #4]	@ zero_extendqisi2
 2188 005a 5909     		lsrs	r1, r3, #5
 2189 005c 84F83910 		strb	r1, [r4, #57]
 556:D:\mcu\design-mpu\source\ejemplos\BME680\bme680.c **** 			}
 2190              		.loc 1 556 0
 2191 0060 C3F38203 		ubfx	r3, r3, #2, #3
ARM GAS  C:\Users\adria\AppData\Local\Temp\ccQ3AXqi.s 			page 71


 2192 0064 84F83A30 		strb	r3, [r4, #58]
 2193              	.L127:
 559:D:\mcu\design-mpu\source\ejemplos\BME680\bme680.c **** 				dev->tph_sett.os_hum = BME680_GET_BITS_POS_0(data_array[BME680_REG_HUM_INDEX],
 2194              		.loc 1 559 0
 2195 0068 05F00403 		and	r3, r5, #4
 2196 006c 9BB2     		uxth	r3, r3
 2197 006e 2BB1     		cbz	r3, .L128
 560:D:\mcu\design-mpu\source\ejemplos\BME680\bme680.c **** 					BME680_OSH);
 2198              		.loc 1 560 0
 2199 0070 9DF80230 		ldrb	r3, [sp, #2]	@ zero_extendqisi2
 2200 0074 03F00703 		and	r3, r3, #7
 2201 0078 84F83830 		strb	r3, [r4, #56]
