ARM GAS  C:\Users\adria\AppData\Local\Temp\ccQ3AXqi.s 			page 1


   1              		.syntax unified
   2              		.cpu cortex-m3
   3              		.fpu softvfp
   4              		.eabi_attribute 20, 1
   5              		.eabi_attribute 21, 1
   6              		.eabi_attribute 23, 3
   7              		.eabi_attribute 24, 1
   8              		.eabi_attribute 25, 1
   9              		.eabi_attribute 26, 1
  10              		.eabi_attribute 30, 1
  11              		.eabi_attribute 34, 1
  12              		.eabi_attribute 18, 4
  13              		.thumb
  14              		.syntax unified
  15              		.file	"bme680.c"
  16              		.text
  17              	.Ltext0:
  18              		.cfi_sections	.debug_frame
  19              		.section	.text.calc_temperature,"ax",%progbits
  20              		.align	2
  21              		.thumb
  22              		.thumb_func
  23              		.type	calc_temperature, %function
  24              	calc_temperature:
  25              	.LFB77:
  26              		.file 1 "D:\\mcu\\design-mpu\\source\\ejemplos\\BME680\\bme680.c"
   1:D:\mcu\design-mpu\source\ejemplos\BME680\bme680.c **** /**\mainpage
   2:D:\mcu\design-mpu\source\ejemplos\BME680\bme680.c ****  * Copyright (c) 2020 Bosch Sensortec GmbH. All rights reserved.
   3:D:\mcu\design-mpu\source\ejemplos\BME680\bme680.c ****  *
   4:D:\mcu\design-mpu\source\ejemplos\BME680\bme680.c ****  * BSD-3-Clause
   5:D:\mcu\design-mpu\source\ejemplos\BME680\bme680.c ****  *
   6:D:\mcu\design-mpu\source\ejemplos\BME680\bme680.c ****  * Redistribution and use in source and binary forms, with or without
   7:D:\mcu\design-mpu\source\ejemplos\BME680\bme680.c ****  * modification, are permitted provided that the following conditions are met:
   8:D:\mcu\design-mpu\source\ejemplos\BME680\bme680.c ****  *
   9:D:\mcu\design-mpu\source\ejemplos\BME680\bme680.c ****  * 1. Redistributions of source code must retain the above copyright
  10:D:\mcu\design-mpu\source\ejemplos\BME680\bme680.c ****  *    notice, this list of conditions and the following disclaimer.
  11:D:\mcu\design-mpu\source\ejemplos\BME680\bme680.c ****  *
  12:D:\mcu\design-mpu\source\ejemplos\BME680\bme680.c ****  * 2. Redistributions in binary form must reproduce the above copyright
  13:D:\mcu\design-mpu\source\ejemplos\BME680\bme680.c ****  *    notice, this list of conditions and the following disclaimer in the
  14:D:\mcu\design-mpu\source\ejemplos\BME680\bme680.c ****  *    documentation and/or other materials provided with the distribution.
  15:D:\mcu\design-mpu\source\ejemplos\BME680\bme680.c ****  *
  16:D:\mcu\design-mpu\source\ejemplos\BME680\bme680.c ****  * 3. Neither the name of the copyright holder nor the names of its
  17:D:\mcu\design-mpu\source\ejemplos\BME680\bme680.c ****  *    contributors may be used to endorse or promote products derived from
  18:D:\mcu\design-mpu\source\ejemplos\BME680\bme680.c ****  *    this software without specific prior written permission.
  19:D:\mcu\design-mpu\source\ejemplos\BME680\bme680.c ****  *
  20:D:\mcu\design-mpu\source\ejemplos\BME680\bme680.c ****  * THIS SOFTWARE IS PROVIDED BY THE COPYRIGHT HOLDERS AND CONTRIBUTORS
  21:D:\mcu\design-mpu\source\ejemplos\BME680\bme680.c ****  * "AS IS" AND ANY EXPRESS OR IMPLIED WARRANTIES, INCLUDING, BUT NOT
  22:D:\mcu\design-mpu\source\ejemplos\BME680\bme680.c ****  * LIMITED TO, THE IMPLIED WARRANTIES OF MERCHANTABILITY AND FITNESS
  23:D:\mcu\design-mpu\source\ejemplos\BME680\bme680.c ****  * FOR A PARTICULAR PURPOSE ARE DISCLAIMED. IN NO EVENT SHALL THE
  24:D:\mcu\design-mpu\source\ejemplos\BME680\bme680.c ****  * COPYRIGHT HOLDER OR CONTRIBUTORS BE LIABLE FOR ANY DIRECT, INDIRECT,
  25:D:\mcu\design-mpu\source\ejemplos\BME680\bme680.c ****  * INCIDENTAL, SPECIAL, EXEMPLARY, OR CONSEQUENTIAL DAMAGES
  26:D:\mcu\design-mpu\source\ejemplos\BME680\bme680.c ****  * (INCLUDING, BUT NOT LIMITED TO, PROCUREMENT OF SUBSTITUTE GOODS OR
  27:D:\mcu\design-mpu\source\ejemplos\BME680\bme680.c ****  * SERVICES; LOSS OF USE, DATA, OR PROFITS; OR BUSINESS INTERRUPTION)
  28:D:\mcu\design-mpu\source\ejemplos\BME680\bme680.c ****  * HOWEVER CAUSED AND ON ANY THEORY OF LIABILITY, WHETHER IN CONTRACT,
  29:D:\mcu\design-mpu\source\ejemplos\BME680\bme680.c ****  * STRICT LIABILITY, OR TORT (INCLUDING NEGLIGENCE OR OTHERWISE) ARISING
  30:D:\mcu\design-mpu\source\ejemplos\BME680\bme680.c ****  * IN ANY WAY OUT OF THE USE OF THIS SOFTWARE, EVEN IF ADVISED OF THE
  31:D:\mcu\design-mpu\source\ejemplos\BME680\bme680.c ****  * POSSIBILITY OF SUCH DAMAGE.
ARM GAS  C:\Users\adria\AppData\Local\Temp\ccQ3AXqi.s 			page 2


  32:D:\mcu\design-mpu\source\ejemplos\BME680\bme680.c ****  *
  33:D:\mcu\design-mpu\source\ejemplos\BME680\bme680.c ****  * File		bme680.c
  34:D:\mcu\design-mpu\source\ejemplos\BME680\bme680.c ****  * @date	23 Jan 2020
  35:D:\mcu\design-mpu\source\ejemplos\BME680\bme680.c ****  * @version	3.5.10
  36:D:\mcu\design-mpu\source\ejemplos\BME680\bme680.c ****  *
  37:D:\mcu\design-mpu\source\ejemplos\BME680\bme680.c ****  */
  38:D:\mcu\design-mpu\source\ejemplos\BME680\bme680.c **** 
  39:D:\mcu\design-mpu\source\ejemplos\BME680\bme680.c **** /*! @file bme680.c
  40:D:\mcu\design-mpu\source\ejemplos\BME680\bme680.c ****  @brief Sensor driver for BME680 sensor */
  41:D:\mcu\design-mpu\source\ejemplos\BME680\bme680.c **** #include "bme680.h"
  42:D:\mcu\design-mpu\source\ejemplos\BME680\bme680.c **** #include "project.h"
  43:D:\mcu\design-mpu\source\ejemplos\BME680\bme680.c **** 
  44:D:\mcu\design-mpu\source\ejemplos\BME680\bme680.c **** /*!
  45:D:\mcu\design-mpu\source\ejemplos\BME680\bme680.c ****  * @brief This internal API is used to read the calibrated data from the sensor.
  46:D:\mcu\design-mpu\source\ejemplos\BME680\bme680.c ****  *
  47:D:\mcu\design-mpu\source\ejemplos\BME680\bme680.c ****  * This function is used to retrieve the calibration
  48:D:\mcu\design-mpu\source\ejemplos\BME680\bme680.c ****  * data from the image registers of the sensor.
  49:D:\mcu\design-mpu\source\ejemplos\BME680\bme680.c ****  *
  50:D:\mcu\design-mpu\source\ejemplos\BME680\bme680.c ****  * @note Registers 89h  to A1h for calibration data 1 to 24
  51:D:\mcu\design-mpu\source\ejemplos\BME680\bme680.c ****  *        from bit 0 to 7
  52:D:\mcu\design-mpu\source\ejemplos\BME680\bme680.c ****  * @note Registers E1h to F0h for calibration data 25 to 40
  53:D:\mcu\design-mpu\source\ejemplos\BME680\bme680.c ****  *        from bit 0 to 7
  54:D:\mcu\design-mpu\source\ejemplos\BME680\bme680.c ****  * @param[in] dev	:Structure instance of bme680_dev.
  55:D:\mcu\design-mpu\source\ejemplos\BME680\bme680.c ****  *
  56:D:\mcu\design-mpu\source\ejemplos\BME680\bme680.c ****  * @return Result of API execution status.
  57:D:\mcu\design-mpu\source\ejemplos\BME680\bme680.c ****  * @retval zero -> Success / +ve value -> Warning / -ve value -> Error
  58:D:\mcu\design-mpu\source\ejemplos\BME680\bme680.c ****  */
  59:D:\mcu\design-mpu\source\ejemplos\BME680\bme680.c **** static int8_t get_calib_data(struct bme680_dev *dev);
  60:D:\mcu\design-mpu\source\ejemplos\BME680\bme680.c **** 
  61:D:\mcu\design-mpu\source\ejemplos\BME680\bme680.c **** /*!
  62:D:\mcu\design-mpu\source\ejemplos\BME680\bme680.c ****  * @brief This internal API is used to set the gas configuration of the sensor.
  63:D:\mcu\design-mpu\source\ejemplos\BME680\bme680.c ****  *
  64:D:\mcu\design-mpu\source\ejemplos\BME680\bme680.c ****  * @param[in] dev	:Structure instance of bme680_dev.
  65:D:\mcu\design-mpu\source\ejemplos\BME680\bme680.c ****  *
  66:D:\mcu\design-mpu\source\ejemplos\BME680\bme680.c ****  * @return Result of API execution status.
  67:D:\mcu\design-mpu\source\ejemplos\BME680\bme680.c ****  * @retval zero -> Success / +ve value -> Warning / -ve value -> Error
  68:D:\mcu\design-mpu\source\ejemplos\BME680\bme680.c ****  */
  69:D:\mcu\design-mpu\source\ejemplos\BME680\bme680.c **** static int8_t set_gas_config(struct bme680_dev *dev);
  70:D:\mcu\design-mpu\source\ejemplos\BME680\bme680.c **** 
  71:D:\mcu\design-mpu\source\ejemplos\BME680\bme680.c **** /*!
  72:D:\mcu\design-mpu\source\ejemplos\BME680\bme680.c ****  * @brief This internal API is used to get the gas configuration of the sensor.
  73:D:\mcu\design-mpu\source\ejemplos\BME680\bme680.c ****  * @note heatr_temp and heatr_dur values are currently register data
  74:D:\mcu\design-mpu\source\ejemplos\BME680\bme680.c ****  * and not the actual values set
  75:D:\mcu\design-mpu\source\ejemplos\BME680\bme680.c ****  *
  76:D:\mcu\design-mpu\source\ejemplos\BME680\bme680.c ****  * @param[in] dev	:Structure instance of bme680_dev.
  77:D:\mcu\design-mpu\source\ejemplos\BME680\bme680.c ****  *
  78:D:\mcu\design-mpu\source\ejemplos\BME680\bme680.c ****  * @return Result of API execution status.
  79:D:\mcu\design-mpu\source\ejemplos\BME680\bme680.c ****  * @retval zero -> Success / +ve value -> Warning / -ve value -> Error
  80:D:\mcu\design-mpu\source\ejemplos\BME680\bme680.c ****  */
  81:D:\mcu\design-mpu\source\ejemplos\BME680\bme680.c **** static int8_t get_gas_config(struct bme680_dev *dev);
  82:D:\mcu\design-mpu\source\ejemplos\BME680\bme680.c **** 
  83:D:\mcu\design-mpu\source\ejemplos\BME680\bme680.c **** /*!
  84:D:\mcu\design-mpu\source\ejemplos\BME680\bme680.c ****  * @brief This internal API is used to calculate the Heat duration value.
  85:D:\mcu\design-mpu\source\ejemplos\BME680\bme680.c ****  *
  86:D:\mcu\design-mpu\source\ejemplos\BME680\bme680.c ****  * @param[in] dur	:Value of the duration to be shared.
  87:D:\mcu\design-mpu\source\ejemplos\BME680\bme680.c ****  *
  88:D:\mcu\design-mpu\source\ejemplos\BME680\bme680.c ****  * @return uint8_t threshold duration after calculation.
ARM GAS  C:\Users\adria\AppData\Local\Temp\ccQ3AXqi.s 			page 3


  89:D:\mcu\design-mpu\source\ejemplos\BME680\bme680.c ****  */
  90:D:\mcu\design-mpu\source\ejemplos\BME680\bme680.c **** static uint8_t calc_heater_dur(uint16_t dur);
  91:D:\mcu\design-mpu\source\ejemplos\BME680\bme680.c **** 
  92:D:\mcu\design-mpu\source\ejemplos\BME680\bme680.c **** #ifndef BME680_FLOAT_POINT_COMPENSATION
  93:D:\mcu\design-mpu\source\ejemplos\BME680\bme680.c **** 
  94:D:\mcu\design-mpu\source\ejemplos\BME680\bme680.c **** /*!
  95:D:\mcu\design-mpu\source\ejemplos\BME680\bme680.c ****  * @brief This internal API is used to calculate the temperature value.
  96:D:\mcu\design-mpu\source\ejemplos\BME680\bme680.c ****  *
  97:D:\mcu\design-mpu\source\ejemplos\BME680\bme680.c ****  * @param[in] dev	:Structure instance of bme680_dev.
  98:D:\mcu\design-mpu\source\ejemplos\BME680\bme680.c ****  * @param[in] temp_adc	:Contains the temperature ADC value .
  99:D:\mcu\design-mpu\source\ejemplos\BME680\bme680.c ****  *
 100:D:\mcu\design-mpu\source\ejemplos\BME680\bme680.c ****  * @return uint32_t calculated temperature.
 101:D:\mcu\design-mpu\source\ejemplos\BME680\bme680.c ****  */
 102:D:\mcu\design-mpu\source\ejemplos\BME680\bme680.c **** static int16_t calc_temperature(uint32_t temp_adc, struct bme680_dev *dev);
 103:D:\mcu\design-mpu\source\ejemplos\BME680\bme680.c **** 
 104:D:\mcu\design-mpu\source\ejemplos\BME680\bme680.c **** /*!
 105:D:\mcu\design-mpu\source\ejemplos\BME680\bme680.c ****  * @brief This internal API is used to calculate the pressure value.
 106:D:\mcu\design-mpu\source\ejemplos\BME680\bme680.c ****  *
 107:D:\mcu\design-mpu\source\ejemplos\BME680\bme680.c ****  * @param[in] dev	:Structure instance of bme680_dev.
 108:D:\mcu\design-mpu\source\ejemplos\BME680\bme680.c ****  * @param[in] pres_adc	:Contains the pressure ADC value .
 109:D:\mcu\design-mpu\source\ejemplos\BME680\bme680.c ****  *
 110:D:\mcu\design-mpu\source\ejemplos\BME680\bme680.c ****  * @return uint32_t calculated pressure.
 111:D:\mcu\design-mpu\source\ejemplos\BME680\bme680.c ****  */
 112:D:\mcu\design-mpu\source\ejemplos\BME680\bme680.c **** static uint32_t calc_pressure(uint32_t pres_adc, const struct bme680_dev *dev);
 113:D:\mcu\design-mpu\source\ejemplos\BME680\bme680.c **** 
 114:D:\mcu\design-mpu\source\ejemplos\BME680\bme680.c **** /*!
 115:D:\mcu\design-mpu\source\ejemplos\BME680\bme680.c ****  * @brief This internal API is used to calculate the humidity value.
 116:D:\mcu\design-mpu\source\ejemplos\BME680\bme680.c ****  *
 117:D:\mcu\design-mpu\source\ejemplos\BME680\bme680.c ****  * @param[in] dev	:Structure instance of bme680_dev.
 118:D:\mcu\design-mpu\source\ejemplos\BME680\bme680.c ****  * @param[in] hum_adc	:Contains the humidity ADC value.
 119:D:\mcu\design-mpu\source\ejemplos\BME680\bme680.c ****  *
 120:D:\mcu\design-mpu\source\ejemplos\BME680\bme680.c ****  * @return uint32_t calculated humidity.
 121:D:\mcu\design-mpu\source\ejemplos\BME680\bme680.c ****  */
 122:D:\mcu\design-mpu\source\ejemplos\BME680\bme680.c **** static uint32_t calc_humidity(uint16_t hum_adc, const struct bme680_dev *dev);
 123:D:\mcu\design-mpu\source\ejemplos\BME680\bme680.c **** 
 124:D:\mcu\design-mpu\source\ejemplos\BME680\bme680.c **** /*!
 125:D:\mcu\design-mpu\source\ejemplos\BME680\bme680.c ****  * @brief This internal API is used to calculate the Gas Resistance value.
 126:D:\mcu\design-mpu\source\ejemplos\BME680\bme680.c ****  *
 127:D:\mcu\design-mpu\source\ejemplos\BME680\bme680.c ****  * @param[in] dev		:Structure instance of bme680_dev.
 128:D:\mcu\design-mpu\source\ejemplos\BME680\bme680.c ****  * @param[in] gas_res_adc	:Contains the Gas Resistance ADC value.
 129:D:\mcu\design-mpu\source\ejemplos\BME680\bme680.c ****  * @param[in] gas_range		:Contains the range of gas values.
 130:D:\mcu\design-mpu\source\ejemplos\BME680\bme680.c ****  *
 131:D:\mcu\design-mpu\source\ejemplos\BME680\bme680.c ****  * @return uint32_t calculated gas resistance.
 132:D:\mcu\design-mpu\source\ejemplos\BME680\bme680.c ****  */
 133:D:\mcu\design-mpu\source\ejemplos\BME680\bme680.c **** static uint32_t calc_gas_resistance(uint16_t gas_res_adc, uint8_t gas_range, const struct bme680_de
 134:D:\mcu\design-mpu\source\ejemplos\BME680\bme680.c **** 
 135:D:\mcu\design-mpu\source\ejemplos\BME680\bme680.c **** /*!
 136:D:\mcu\design-mpu\source\ejemplos\BME680\bme680.c ****  * @brief This internal API is used to calculate the Heat Resistance value.
 137:D:\mcu\design-mpu\source\ejemplos\BME680\bme680.c ****  *
 138:D:\mcu\design-mpu\source\ejemplos\BME680\bme680.c ****  * @param[in] dev	: Structure instance of bme680_dev
 139:D:\mcu\design-mpu\source\ejemplos\BME680\bme680.c ****  * @param[in] temp	: Contains the target temperature value.
 140:D:\mcu\design-mpu\source\ejemplos\BME680\bme680.c ****  *
 141:D:\mcu\design-mpu\source\ejemplos\BME680\bme680.c ****  * @return uint8_t calculated heater resistance.
 142:D:\mcu\design-mpu\source\ejemplos\BME680\bme680.c ****  */
 143:D:\mcu\design-mpu\source\ejemplos\BME680\bme680.c **** static uint8_t calc_heater_res(uint16_t temp, const struct bme680_dev *dev);
 144:D:\mcu\design-mpu\source\ejemplos\BME680\bme680.c **** 
 145:D:\mcu\design-mpu\source\ejemplos\BME680\bme680.c **** #else
ARM GAS  C:\Users\adria\AppData\Local\Temp\ccQ3AXqi.s 			page 4


 146:D:\mcu\design-mpu\source\ejemplos\BME680\bme680.c **** /*!
 147:D:\mcu\design-mpu\source\ejemplos\BME680\bme680.c ****  * @brief This internal API is used to calculate the
 148:D:\mcu\design-mpu\source\ejemplos\BME680\bme680.c ****  * temperature value value in float format
 149:D:\mcu\design-mpu\source\ejemplos\BME680\bme680.c ****  *
 150:D:\mcu\design-mpu\source\ejemplos\BME680\bme680.c ****  * @param[in] dev	:Structure instance of bme680_dev.
 151:D:\mcu\design-mpu\source\ejemplos\BME680\bme680.c ****  * @param[in] temp_adc	:Contains the temperature ADC value .
 152:D:\mcu\design-mpu\source\ejemplos\BME680\bme680.c ****  *
 153:D:\mcu\design-mpu\source\ejemplos\BME680\bme680.c ****  * @return Calculated temperature in float
 154:D:\mcu\design-mpu\source\ejemplos\BME680\bme680.c ****  */
 155:D:\mcu\design-mpu\source\ejemplos\BME680\bme680.c **** static float calc_temperature(uint32_t temp_adc, struct bme680_dev *dev);
 156:D:\mcu\design-mpu\source\ejemplos\BME680\bme680.c **** 
 157:D:\mcu\design-mpu\source\ejemplos\BME680\bme680.c **** /*!
 158:D:\mcu\design-mpu\source\ejemplos\BME680\bme680.c ****  * @brief This internal API is used to calculate the
 159:D:\mcu\design-mpu\source\ejemplos\BME680\bme680.c ****  * pressure value value in float format
 160:D:\mcu\design-mpu\source\ejemplos\BME680\bme680.c ****  *
 161:D:\mcu\design-mpu\source\ejemplos\BME680\bme680.c ****  * @param[in] dev	:Structure instance of bme680_dev.
 162:D:\mcu\design-mpu\source\ejemplos\BME680\bme680.c ****  * @param[in] pres_adc	:Contains the pressure ADC value .
 163:D:\mcu\design-mpu\source\ejemplos\BME680\bme680.c ****  *
 164:D:\mcu\design-mpu\source\ejemplos\BME680\bme680.c ****  * @return Calculated pressure in float.
 165:D:\mcu\design-mpu\source\ejemplos\BME680\bme680.c ****  */
 166:D:\mcu\design-mpu\source\ejemplos\BME680\bme680.c **** static float calc_pressure(uint32_t pres_adc, const struct bme680_dev *dev);
 167:D:\mcu\design-mpu\source\ejemplos\BME680\bme680.c **** 
 168:D:\mcu\design-mpu\source\ejemplos\BME680\bme680.c **** /*!
 169:D:\mcu\design-mpu\source\ejemplos\BME680\bme680.c ****  * @brief This internal API is used to calculate the
 170:D:\mcu\design-mpu\source\ejemplos\BME680\bme680.c ****  * humidity value value in float format
 171:D:\mcu\design-mpu\source\ejemplos\BME680\bme680.c ****  *
 172:D:\mcu\design-mpu\source\ejemplos\BME680\bme680.c ****  * @param[in] dev	:Structure instance of bme680_dev.
 173:D:\mcu\design-mpu\source\ejemplos\BME680\bme680.c ****  * @param[in] hum_adc	:Contains the humidity ADC value.
 174:D:\mcu\design-mpu\source\ejemplos\BME680\bme680.c ****  *
 175:D:\mcu\design-mpu\source\ejemplos\BME680\bme680.c ****  * @return Calculated humidity in float.
 176:D:\mcu\design-mpu\source\ejemplos\BME680\bme680.c ****  */
 177:D:\mcu\design-mpu\source\ejemplos\BME680\bme680.c **** static float calc_humidity(uint16_t hum_adc, const struct bme680_dev *dev);
 178:D:\mcu\design-mpu\source\ejemplos\BME680\bme680.c **** 
 179:D:\mcu\design-mpu\source\ejemplos\BME680\bme680.c **** /*!
 180:D:\mcu\design-mpu\source\ejemplos\BME680\bme680.c ****  * @brief This internal API is used to calculate the
 181:D:\mcu\design-mpu\source\ejemplos\BME680\bme680.c ****  * gas resistance value value in float format
 182:D:\mcu\design-mpu\source\ejemplos\BME680\bme680.c ****  *
 183:D:\mcu\design-mpu\source\ejemplos\BME680\bme680.c ****  * @param[in] dev		:Structure instance of bme680_dev.
 184:D:\mcu\design-mpu\source\ejemplos\BME680\bme680.c ****  * @param[in] gas_res_adc	:Contains the Gas Resistance ADC value.
 185:D:\mcu\design-mpu\source\ejemplos\BME680\bme680.c ****  * @param[in] gas_range		:Contains the range of gas values.
 186:D:\mcu\design-mpu\source\ejemplos\BME680\bme680.c ****  *
 187:D:\mcu\design-mpu\source\ejemplos\BME680\bme680.c ****  * @return Calculated gas resistance in float.
 188:D:\mcu\design-mpu\source\ejemplos\BME680\bme680.c ****  */
 189:D:\mcu\design-mpu\source\ejemplos\BME680\bme680.c **** static float calc_gas_resistance(uint16_t gas_res_adc, uint8_t gas_range, const struct bme680_dev *
 190:D:\mcu\design-mpu\source\ejemplos\BME680\bme680.c **** 
 191:D:\mcu\design-mpu\source\ejemplos\BME680\bme680.c **** /*!
 192:D:\mcu\design-mpu\source\ejemplos\BME680\bme680.c ****  * @brief This internal API is used to calculate the
 193:D:\mcu\design-mpu\source\ejemplos\BME680\bme680.c ****  * heater resistance value in float format
 194:D:\mcu\design-mpu\source\ejemplos\BME680\bme680.c ****  *
 195:D:\mcu\design-mpu\source\ejemplos\BME680\bme680.c ****  * @param[in] temp	: Contains the target temperature value.
 196:D:\mcu\design-mpu\source\ejemplos\BME680\bme680.c ****  * @param[in] dev	: Structure instance of bme680_dev.
 197:D:\mcu\design-mpu\source\ejemplos\BME680\bme680.c ****  *
 198:D:\mcu\design-mpu\source\ejemplos\BME680\bme680.c ****  * @return Calculated heater resistance in float.
 199:D:\mcu\design-mpu\source\ejemplos\BME680\bme680.c ****  */
 200:D:\mcu\design-mpu\source\ejemplos\BME680\bme680.c **** static float calc_heater_res(uint16_t temp, const struct bme680_dev *dev);
 201:D:\mcu\design-mpu\source\ejemplos\BME680\bme680.c **** 
 202:D:\mcu\design-mpu\source\ejemplos\BME680\bme680.c **** #endif
ARM GAS  C:\Users\adria\AppData\Local\Temp\ccQ3AXqi.s 			page 5


 203:D:\mcu\design-mpu\source\ejemplos\BME680\bme680.c **** 
 204:D:\mcu\design-mpu\source\ejemplos\BME680\bme680.c **** /*!
 205:D:\mcu\design-mpu\source\ejemplos\BME680\bme680.c ****  * @brief This internal API is used to calculate the field data of sensor.
 206:D:\mcu\design-mpu\source\ejemplos\BME680\bme680.c ****  *
 207:D:\mcu\design-mpu\source\ejemplos\BME680\bme680.c ****  * @param[out] data :Structure instance to hold the data
 208:D:\mcu\design-mpu\source\ejemplos\BME680\bme680.c ****  * @param[in] dev	:Structure instance of bme680_dev.
 209:D:\mcu\design-mpu\source\ejemplos\BME680\bme680.c ****  *
 210:D:\mcu\design-mpu\source\ejemplos\BME680\bme680.c ****  *  @return int8_t result of the field data from sensor.
 211:D:\mcu\design-mpu\source\ejemplos\BME680\bme680.c ****  */
 212:D:\mcu\design-mpu\source\ejemplos\BME680\bme680.c **** static int8_t read_field_data(struct bme680_field_data *data, struct bme680_dev *dev);
 213:D:\mcu\design-mpu\source\ejemplos\BME680\bme680.c **** 
 214:D:\mcu\design-mpu\source\ejemplos\BME680\bme680.c **** /*!
 215:D:\mcu\design-mpu\source\ejemplos\BME680\bme680.c ****  * @brief This internal API is used to set the memory page
 216:D:\mcu\design-mpu\source\ejemplos\BME680\bme680.c ****  * based on register address.
 217:D:\mcu\design-mpu\source\ejemplos\BME680\bme680.c ****  *
 218:D:\mcu\design-mpu\source\ejemplos\BME680\bme680.c ****  * The value of memory page
 219:D:\mcu\design-mpu\source\ejemplos\BME680\bme680.c ****  *  value  | Description
 220:D:\mcu\design-mpu\source\ejemplos\BME680\bme680.c ****  * --------|--------------
 221:D:\mcu\design-mpu\source\ejemplos\BME680\bme680.c ****  *   0     | BME680_PAGE0_SPI
 222:D:\mcu\design-mpu\source\ejemplos\BME680\bme680.c ****  *   1     | BME680_PAGE1_SPI
 223:D:\mcu\design-mpu\source\ejemplos\BME680\bme680.c ****  *
 224:D:\mcu\design-mpu\source\ejemplos\BME680\bme680.c ****  * @param[in] dev	:Structure instance of bme680_dev.
 225:D:\mcu\design-mpu\source\ejemplos\BME680\bme680.c ****  * @param[in] reg_addr	:Contains the register address array.
 226:D:\mcu\design-mpu\source\ejemplos\BME680\bme680.c ****  *
 227:D:\mcu\design-mpu\source\ejemplos\BME680\bme680.c ****  * @return Result of API execution status
 228:D:\mcu\design-mpu\source\ejemplos\BME680\bme680.c ****  * @retval zero -> Success / +ve value -> Warning / -ve value -> Error
 229:D:\mcu\design-mpu\source\ejemplos\BME680\bme680.c ****  */
 230:D:\mcu\design-mpu\source\ejemplos\BME680\bme680.c **** static int8_t set_mem_page(uint8_t reg_addr, struct bme680_dev *dev);
 231:D:\mcu\design-mpu\source\ejemplos\BME680\bme680.c **** 
 232:D:\mcu\design-mpu\source\ejemplos\BME680\bme680.c **** /*!
 233:D:\mcu\design-mpu\source\ejemplos\BME680\bme680.c ****  * @brief This internal API is used to get the memory page based
 234:D:\mcu\design-mpu\source\ejemplos\BME680\bme680.c ****  * on register address.
 235:D:\mcu\design-mpu\source\ejemplos\BME680\bme680.c ****  *
 236:D:\mcu\design-mpu\source\ejemplos\BME680\bme680.c ****  * The value of memory page
 237:D:\mcu\design-mpu\source\ejemplos\BME680\bme680.c ****  *  value  | Description
 238:D:\mcu\design-mpu\source\ejemplos\BME680\bme680.c ****  * --------|--------------
 239:D:\mcu\design-mpu\source\ejemplos\BME680\bme680.c ****  *   0     | BME680_PAGE0_SPI
 240:D:\mcu\design-mpu\source\ejemplos\BME680\bme680.c ****  *   1     | BME680_PAGE1_SPI
 241:D:\mcu\design-mpu\source\ejemplos\BME680\bme680.c ****  *
 242:D:\mcu\design-mpu\source\ejemplos\BME680\bme680.c ****  * @param[in] dev	:Structure instance of bme680_dev.
 243:D:\mcu\design-mpu\source\ejemplos\BME680\bme680.c ****  *
 244:D:\mcu\design-mpu\source\ejemplos\BME680\bme680.c ****  * @return Result of API execution status
 245:D:\mcu\design-mpu\source\ejemplos\BME680\bme680.c ****  * @retval zero -> Success / +ve value -> Warning / -ve value -> Error
 246:D:\mcu\design-mpu\source\ejemplos\BME680\bme680.c ****  */
 247:D:\mcu\design-mpu\source\ejemplos\BME680\bme680.c **** static int8_t get_mem_page(struct bme680_dev *dev);
 248:D:\mcu\design-mpu\source\ejemplos\BME680\bme680.c **** 
 249:D:\mcu\design-mpu\source\ejemplos\BME680\bme680.c **** /*!
 250:D:\mcu\design-mpu\source\ejemplos\BME680\bme680.c ****  * @brief This internal API is used to validate the device pointer for
 251:D:\mcu\design-mpu\source\ejemplos\BME680\bme680.c ****  * null conditions.
 252:D:\mcu\design-mpu\source\ejemplos\BME680\bme680.c ****  *
 253:D:\mcu\design-mpu\source\ejemplos\BME680\bme680.c ****  * @param[in] dev	:Structure instance of bme680_dev.
 254:D:\mcu\design-mpu\source\ejemplos\BME680\bme680.c ****  *
 255:D:\mcu\design-mpu\source\ejemplos\BME680\bme680.c ****  * @return Result of API execution status
 256:D:\mcu\design-mpu\source\ejemplos\BME680\bme680.c ****  * @retval zero -> Success / +ve value -> Warning / -ve value -> Error
 257:D:\mcu\design-mpu\source\ejemplos\BME680\bme680.c ****  */
 258:D:\mcu\design-mpu\source\ejemplos\BME680\bme680.c **** static int8_t null_ptr_check(const struct bme680_dev *dev);
 259:D:\mcu\design-mpu\source\ejemplos\BME680\bme680.c **** 
ARM GAS  C:\Users\adria\AppData\Local\Temp\ccQ3AXqi.s 			page 6


 260:D:\mcu\design-mpu\source\ejemplos\BME680\bme680.c **** /*!
 261:D:\mcu\design-mpu\source\ejemplos\BME680\bme680.c ****  * @brief This internal API is used to check the boundary
 262:D:\mcu\design-mpu\source\ejemplos\BME680\bme680.c ****  * conditions.
 263:D:\mcu\design-mpu\source\ejemplos\BME680\bme680.c ****  *
 264:D:\mcu\design-mpu\source\ejemplos\BME680\bme680.c ****  * @param[in] value	:pointer to the value.
 265:D:\mcu\design-mpu\source\ejemplos\BME680\bme680.c ****  * @param[in] min	:minimum value.
 266:D:\mcu\design-mpu\source\ejemplos\BME680\bme680.c ****  * @param[in] max	:maximum value.
 267:D:\mcu\design-mpu\source\ejemplos\BME680\bme680.c ****  * @param[in] dev	:Structure instance of bme680_dev.
 268:D:\mcu\design-mpu\source\ejemplos\BME680\bme680.c ****  *
 269:D:\mcu\design-mpu\source\ejemplos\BME680\bme680.c ****  * @return Result of API execution status
 270:D:\mcu\design-mpu\source\ejemplos\BME680\bme680.c ****  * @retval zero -> Success / +ve value -> Warning / -ve value -> Error
 271:D:\mcu\design-mpu\source\ejemplos\BME680\bme680.c ****  */
 272:D:\mcu\design-mpu\source\ejemplos\BME680\bme680.c **** static int8_t boundary_check(uint8_t *value, uint8_t min, uint8_t max, struct bme680_dev *dev);
 273:D:\mcu\design-mpu\source\ejemplos\BME680\bme680.c **** 
 274:D:\mcu\design-mpu\source\ejemplos\BME680\bme680.c **** static void user_delay_ms(uint32_t period);
 275:D:\mcu\design-mpu\source\ejemplos\BME680\bme680.c **** static int8_t user_i2c_read(uint8_t dev_id, uint8_t reg_addr, uint8_t *reg_data, uint16_t len);
 276:D:\mcu\design-mpu\source\ejemplos\BME680\bme680.c **** static int8_t user_i2c_write(uint8_t dev_id, uint8_t reg_addr, uint8_t *reg_data, uint16_t len);
 277:D:\mcu\design-mpu\source\ejemplos\BME680\bme680.c **** 
 278:D:\mcu\design-mpu\source\ejemplos\BME680\bme680.c **** /****************** Global Function Definitions *******************************/
 279:D:\mcu\design-mpu\source\ejemplos\BME680\bme680.c **** /*!
 280:D:\mcu\design-mpu\source\ejemplos\BME680\bme680.c ****  *@brief This API is the entry point.
 281:D:\mcu\design-mpu\source\ejemplos\BME680\bme680.c ****  *It reads the chip-id and calibration data from the sensor.
 282:D:\mcu\design-mpu\source\ejemplos\BME680\bme680.c ****  */
 283:D:\mcu\design-mpu\source\ejemplos\BME680\bme680.c **** int8_t bme680_init(struct bme680_dev *dev)
 284:D:\mcu\design-mpu\source\ejemplos\BME680\bme680.c **** {
 285:D:\mcu\design-mpu\source\ejemplos\BME680\bme680.c **** 	int8_t rslt;
 286:D:\mcu\design-mpu\source\ejemplos\BME680\bme680.c **** 
 287:D:\mcu\design-mpu\source\ejemplos\BME680\bme680.c **** 	/* Check for null pointer in the device structure*/
 288:D:\mcu\design-mpu\source\ejemplos\BME680\bme680.c **** 	rslt = null_ptr_check(dev);
 289:D:\mcu\design-mpu\source\ejemplos\BME680\bme680.c **** 	if (rslt == BME680_OK) {
 290:D:\mcu\design-mpu\source\ejemplos\BME680\bme680.c **** 		/* Soft reset to restore it to default values*/
 291:D:\mcu\design-mpu\source\ejemplos\BME680\bme680.c **** 		rslt = bme680_soft_reset(dev);
 292:D:\mcu\design-mpu\source\ejemplos\BME680\bme680.c **** 		if (rslt == BME680_OK) {
 293:D:\mcu\design-mpu\source\ejemplos\BME680\bme680.c **** 			rslt = bme680_get_regs(BME680_CHIP_ID_ADDR, &dev->chip_id, 1, dev);
 294:D:\mcu\design-mpu\source\ejemplos\BME680\bme680.c **** 			if (rslt == BME680_OK) {
 295:D:\mcu\design-mpu\source\ejemplos\BME680\bme680.c **** 				if (dev->chip_id == BME680_CHIP_ID) {
 296:D:\mcu\design-mpu\source\ejemplos\BME680\bme680.c **** 					/* Get the Calibration data */
 297:D:\mcu\design-mpu\source\ejemplos\BME680\bme680.c **** 					rslt = get_calib_data(dev);
 298:D:\mcu\design-mpu\source\ejemplos\BME680\bme680.c **** 				} else {
 299:D:\mcu\design-mpu\source\ejemplos\BME680\bme680.c **** 					rslt = BME680_E_DEV_NOT_FOUND;
 300:D:\mcu\design-mpu\source\ejemplos\BME680\bme680.c **** 				}
 301:D:\mcu\design-mpu\source\ejemplos\BME680\bme680.c **** 			}
 302:D:\mcu\design-mpu\source\ejemplos\BME680\bme680.c **** 		}
 303:D:\mcu\design-mpu\source\ejemplos\BME680\bme680.c **** 	}
 304:D:\mcu\design-mpu\source\ejemplos\BME680\bme680.c **** 
 305:D:\mcu\design-mpu\source\ejemplos\BME680\bme680.c **** 	return rslt;
 306:D:\mcu\design-mpu\source\ejemplos\BME680\bme680.c **** }
 307:D:\mcu\design-mpu\source\ejemplos\BME680\bme680.c **** 
 308:D:\mcu\design-mpu\source\ejemplos\BME680\bme680.c **** /*!
 309:D:\mcu\design-mpu\source\ejemplos\BME680\bme680.c ****  * @brief This API reads the data from the given register address of the sensor.
 310:D:\mcu\design-mpu\source\ejemplos\BME680\bme680.c ****  */
 311:D:\mcu\design-mpu\source\ejemplos\BME680\bme680.c **** int8_t bme680_get_regs(uint8_t reg_addr, uint8_t *reg_data, uint16_t len, struct bme680_dev *dev)
 312:D:\mcu\design-mpu\source\ejemplos\BME680\bme680.c **** {
 313:D:\mcu\design-mpu\source\ejemplos\BME680\bme680.c **** 	int8_t rslt;
 314:D:\mcu\design-mpu\source\ejemplos\BME680\bme680.c **** 
 315:D:\mcu\design-mpu\source\ejemplos\BME680\bme680.c **** 	/* Check for null pointer in the device structure*/
 316:D:\mcu\design-mpu\source\ejemplos\BME680\bme680.c **** 	rslt = null_ptr_check(dev);
ARM GAS  C:\Users\adria\AppData\Local\Temp\ccQ3AXqi.s 			page 7


 317:D:\mcu\design-mpu\source\ejemplos\BME680\bme680.c **** 	if (rslt == BME680_OK) {
 318:D:\mcu\design-mpu\source\ejemplos\BME680\bme680.c **** 		if (dev->intf == BME680_SPI_INTF) {
 319:D:\mcu\design-mpu\source\ejemplos\BME680\bme680.c **** 			/* Set the memory page */
 320:D:\mcu\design-mpu\source\ejemplos\BME680\bme680.c **** 			rslt = set_mem_page(reg_addr, dev);
 321:D:\mcu\design-mpu\source\ejemplos\BME680\bme680.c **** 			if (rslt == BME680_OK)
 322:D:\mcu\design-mpu\source\ejemplos\BME680\bme680.c **** 				reg_addr = reg_addr | BME680_SPI_RD_MSK;
 323:D:\mcu\design-mpu\source\ejemplos\BME680\bme680.c **** 		}
 324:D:\mcu\design-mpu\source\ejemplos\BME680\bme680.c **** 		dev->com_rslt = dev->read(dev->dev_id, reg_addr, reg_data, len);
 325:D:\mcu\design-mpu\source\ejemplos\BME680\bme680.c **** 		if (dev->com_rslt != 0)
 326:D:\mcu\design-mpu\source\ejemplos\BME680\bme680.c **** 			rslt = BME680_E_COM_FAIL;
 327:D:\mcu\design-mpu\source\ejemplos\BME680\bme680.c **** 	}
 328:D:\mcu\design-mpu\source\ejemplos\BME680\bme680.c **** 
 329:D:\mcu\design-mpu\source\ejemplos\BME680\bme680.c **** 	return rslt;
 330:D:\mcu\design-mpu\source\ejemplos\BME680\bme680.c **** }
 331:D:\mcu\design-mpu\source\ejemplos\BME680\bme680.c **** 
 332:D:\mcu\design-mpu\source\ejemplos\BME680\bme680.c **** /*!
 333:D:\mcu\design-mpu\source\ejemplos\BME680\bme680.c ****  * @brief This API writes the given data to the register address
 334:D:\mcu\design-mpu\source\ejemplos\BME680\bme680.c ****  * of the sensor.
 335:D:\mcu\design-mpu\source\ejemplos\BME680\bme680.c ****  */
 336:D:\mcu\design-mpu\source\ejemplos\BME680\bme680.c **** int8_t bme680_set_regs(const uint8_t *reg_addr, const uint8_t *reg_data, uint8_t len, struct bme680
 337:D:\mcu\design-mpu\source\ejemplos\BME680\bme680.c **** {
 338:D:\mcu\design-mpu\source\ejemplos\BME680\bme680.c **** 	int8_t rslt;
 339:D:\mcu\design-mpu\source\ejemplos\BME680\bme680.c **** 	/* Length of the temporary buffer is 2*(length of register)*/
 340:D:\mcu\design-mpu\source\ejemplos\BME680\bme680.c **** 	uint8_t tmp_buff[BME680_TMP_BUFFER_LENGTH] = { 0 };
 341:D:\mcu\design-mpu\source\ejemplos\BME680\bme680.c **** 	uint16_t index;
 342:D:\mcu\design-mpu\source\ejemplos\BME680\bme680.c **** 
 343:D:\mcu\design-mpu\source\ejemplos\BME680\bme680.c **** 	/* Check for null pointer in the device structure*/
 344:D:\mcu\design-mpu\source\ejemplos\BME680\bme680.c **** 	rslt = null_ptr_check(dev);
 345:D:\mcu\design-mpu\source\ejemplos\BME680\bme680.c **** 	if (rslt == BME680_OK) {
 346:D:\mcu\design-mpu\source\ejemplos\BME680\bme680.c **** 		if ((len > 0) && (len < BME680_TMP_BUFFER_LENGTH / 2)) {
 347:D:\mcu\design-mpu\source\ejemplos\BME680\bme680.c **** 			/* Interleave the 2 arrays */
 348:D:\mcu\design-mpu\source\ejemplos\BME680\bme680.c **** 			for (index = 0; index < len; index++) {
 349:D:\mcu\design-mpu\source\ejemplos\BME680\bme680.c **** 				if (dev->intf == BME680_SPI_INTF) {
 350:D:\mcu\design-mpu\source\ejemplos\BME680\bme680.c **** 					/* Set the memory page */
 351:D:\mcu\design-mpu\source\ejemplos\BME680\bme680.c **** 					rslt = set_mem_page(reg_addr[index], dev);
 352:D:\mcu\design-mpu\source\ejemplos\BME680\bme680.c **** 					tmp_buff[(2 * index)] = reg_addr[index] & BME680_SPI_WR_MSK;
 353:D:\mcu\design-mpu\source\ejemplos\BME680\bme680.c **** 				} else {
 354:D:\mcu\design-mpu\source\ejemplos\BME680\bme680.c **** 					tmp_buff[(2 * index)] = reg_addr[index];
 355:D:\mcu\design-mpu\source\ejemplos\BME680\bme680.c **** 				}
 356:D:\mcu\design-mpu\source\ejemplos\BME680\bme680.c **** 				tmp_buff[(2 * index) + 1] = reg_data[index];
 357:D:\mcu\design-mpu\source\ejemplos\BME680\bme680.c **** 			}
 358:D:\mcu\design-mpu\source\ejemplos\BME680\bme680.c **** 			/* Write the interleaved array */
 359:D:\mcu\design-mpu\source\ejemplos\BME680\bme680.c **** 			if (rslt == BME680_OK) {
 360:D:\mcu\design-mpu\source\ejemplos\BME680\bme680.c **** 				dev->com_rslt = dev->write(dev->dev_id, tmp_buff[0], &tmp_buff[1], (2 * len) - 1);
 361:D:\mcu\design-mpu\source\ejemplos\BME680\bme680.c **** 				if (dev->com_rslt != 0)
 362:D:\mcu\design-mpu\source\ejemplos\BME680\bme680.c **** 					rslt = BME680_E_COM_FAIL;
 363:D:\mcu\design-mpu\source\ejemplos\BME680\bme680.c **** 			}
 364:D:\mcu\design-mpu\source\ejemplos\BME680\bme680.c **** 		} else {
 365:D:\mcu\design-mpu\source\ejemplos\BME680\bme680.c **** 			rslt = BME680_E_INVALID_LENGTH;
 366:D:\mcu\design-mpu\source\ejemplos\BME680\bme680.c **** 		}
 367:D:\mcu\design-mpu\source\ejemplos\BME680\bme680.c **** 	}
 368:D:\mcu\design-mpu\source\ejemplos\BME680\bme680.c **** 
 369:D:\mcu\design-mpu\source\ejemplos\BME680\bme680.c **** 	return rslt;
 370:D:\mcu\design-mpu\source\ejemplos\BME680\bme680.c **** }
 371:D:\mcu\design-mpu\source\ejemplos\BME680\bme680.c **** 
 372:D:\mcu\design-mpu\source\ejemplos\BME680\bme680.c **** /*!
 373:D:\mcu\design-mpu\source\ejemplos\BME680\bme680.c ****  * @brief This API performs the soft reset of the sensor.
ARM GAS  C:\Users\adria\AppData\Local\Temp\ccQ3AXqi.s 			page 8


 374:D:\mcu\design-mpu\source\ejemplos\BME680\bme680.c ****  */
 375:D:\mcu\design-mpu\source\ejemplos\BME680\bme680.c **** int8_t bme680_soft_reset(struct bme680_dev *dev)
 376:D:\mcu\design-mpu\source\ejemplos\BME680\bme680.c **** {
 377:D:\mcu\design-mpu\source\ejemplos\BME680\bme680.c **** 	int8_t rslt;
 378:D:\mcu\design-mpu\source\ejemplos\BME680\bme680.c **** 	uint8_t reg_addr = BME680_SOFT_RESET_ADDR;
 379:D:\mcu\design-mpu\source\ejemplos\BME680\bme680.c **** 	/* 0xb6 is the soft reset command */
 380:D:\mcu\design-mpu\source\ejemplos\BME680\bme680.c **** 	uint8_t soft_rst_cmd = BME680_SOFT_RESET_CMD;
 381:D:\mcu\design-mpu\source\ejemplos\BME680\bme680.c **** 
 382:D:\mcu\design-mpu\source\ejemplos\BME680\bme680.c **** 	/* Check for null pointer in the device structure*/
 383:D:\mcu\design-mpu\source\ejemplos\BME680\bme680.c **** 	rslt = null_ptr_check(dev);
 384:D:\mcu\design-mpu\source\ejemplos\BME680\bme680.c **** 	if (rslt == BME680_OK) {
 385:D:\mcu\design-mpu\source\ejemplos\BME680\bme680.c **** 		if (dev->intf == BME680_SPI_INTF)
 386:D:\mcu\design-mpu\source\ejemplos\BME680\bme680.c **** 			rslt = get_mem_page(dev);
 387:D:\mcu\design-mpu\source\ejemplos\BME680\bme680.c **** 
 388:D:\mcu\design-mpu\source\ejemplos\BME680\bme680.c **** 		/* Reset the device */
 389:D:\mcu\design-mpu\source\ejemplos\BME680\bme680.c **** 		if (rslt == BME680_OK) {
 390:D:\mcu\design-mpu\source\ejemplos\BME680\bme680.c **** 			rslt = bme680_set_regs(&reg_addr, &soft_rst_cmd, 1, dev);
 391:D:\mcu\design-mpu\source\ejemplos\BME680\bme680.c **** 			/* Wait for 5ms */
 392:D:\mcu\design-mpu\source\ejemplos\BME680\bme680.c **** 			dev->delay_ms(BME680_RESET_PERIOD);
 393:D:\mcu\design-mpu\source\ejemplos\BME680\bme680.c **** 
 394:D:\mcu\design-mpu\source\ejemplos\BME680\bme680.c **** 			if (rslt == BME680_OK) {
 395:D:\mcu\design-mpu\source\ejemplos\BME680\bme680.c **** 				/* After reset get the memory page */
 396:D:\mcu\design-mpu\source\ejemplos\BME680\bme680.c **** 				if (dev->intf == BME680_SPI_INTF)
 397:D:\mcu\design-mpu\source\ejemplos\BME680\bme680.c **** 					rslt = get_mem_page(dev);
 398:D:\mcu\design-mpu\source\ejemplos\BME680\bme680.c **** 			}
 399:D:\mcu\design-mpu\source\ejemplos\BME680\bme680.c **** 		}
 400:D:\mcu\design-mpu\source\ejemplos\BME680\bme680.c **** 	}
 401:D:\mcu\design-mpu\source\ejemplos\BME680\bme680.c **** 
 402:D:\mcu\design-mpu\source\ejemplos\BME680\bme680.c **** 	return rslt;
 403:D:\mcu\design-mpu\source\ejemplos\BME680\bme680.c **** }
 404:D:\mcu\design-mpu\source\ejemplos\BME680\bme680.c **** 
 405:D:\mcu\design-mpu\source\ejemplos\BME680\bme680.c **** /*!
 406:D:\mcu\design-mpu\source\ejemplos\BME680\bme680.c ****  * @brief This API is used to set the oversampling, filter and T,P,H, gas selection
 407:D:\mcu\design-mpu\source\ejemplos\BME680\bme680.c ****  * settings in the sensor.
 408:D:\mcu\design-mpu\source\ejemplos\BME680\bme680.c ****  */
 409:D:\mcu\design-mpu\source\ejemplos\BME680\bme680.c **** int8_t bme680_set_sensor_settings(uint16_t desired_settings, struct bme680_dev *dev)
 410:D:\mcu\design-mpu\source\ejemplos\BME680\bme680.c **** {
 411:D:\mcu\design-mpu\source\ejemplos\BME680\bme680.c **** 	int8_t rslt;
 412:D:\mcu\design-mpu\source\ejemplos\BME680\bme680.c **** 	uint8_t reg_addr;
 413:D:\mcu\design-mpu\source\ejemplos\BME680\bme680.c **** 	uint8_t data = 0;
 414:D:\mcu\design-mpu\source\ejemplos\BME680\bme680.c **** 	uint8_t count = 0;
 415:D:\mcu\design-mpu\source\ejemplos\BME680\bme680.c **** 	uint8_t reg_array[BME680_REG_BUFFER_LENGTH] = { 0 };
 416:D:\mcu\design-mpu\source\ejemplos\BME680\bme680.c **** 	uint8_t data_array[BME680_REG_BUFFER_LENGTH] = { 0 };
 417:D:\mcu\design-mpu\source\ejemplos\BME680\bme680.c **** 	uint8_t intended_power_mode = dev->power_mode; /* Save intended power mode */
 418:D:\mcu\design-mpu\source\ejemplos\BME680\bme680.c **** 
 419:D:\mcu\design-mpu\source\ejemplos\BME680\bme680.c **** 	/* Check for null pointer in the device structure*/
 420:D:\mcu\design-mpu\source\ejemplos\BME680\bme680.c **** 	rslt = null_ptr_check(dev);
 421:D:\mcu\design-mpu\source\ejemplos\BME680\bme680.c **** 	if (rslt == BME680_OK) {
 422:D:\mcu\design-mpu\source\ejemplos\BME680\bme680.c **** 		if (desired_settings & BME680_GAS_MEAS_SEL)
 423:D:\mcu\design-mpu\source\ejemplos\BME680\bme680.c **** 			rslt = set_gas_config(dev);
 424:D:\mcu\design-mpu\source\ejemplos\BME680\bme680.c **** 
 425:D:\mcu\design-mpu\source\ejemplos\BME680\bme680.c **** 		dev->power_mode = BME680_SLEEP_MODE;
 426:D:\mcu\design-mpu\source\ejemplos\BME680\bme680.c **** 		if (rslt == BME680_OK)
 427:D:\mcu\design-mpu\source\ejemplos\BME680\bme680.c **** 			rslt = bme680_set_sensor_mode(dev);
 428:D:\mcu\design-mpu\source\ejemplos\BME680\bme680.c **** 
 429:D:\mcu\design-mpu\source\ejemplos\BME680\bme680.c **** 		/* Selecting the filter */
 430:D:\mcu\design-mpu\source\ejemplos\BME680\bme680.c **** 		if (desired_settings & BME680_FILTER_SEL) {
ARM GAS  C:\Users\adria\AppData\Local\Temp\ccQ3AXqi.s 			page 9


 431:D:\mcu\design-mpu\source\ejemplos\BME680\bme680.c **** 			rslt = boundary_check(&dev->tph_sett.filter, BME680_FILTER_SIZE_0, BME680_FILTER_SIZE_127, dev);
 432:D:\mcu\design-mpu\source\ejemplos\BME680\bme680.c **** 			reg_addr = BME680_CONF_ODR_FILT_ADDR;
 433:D:\mcu\design-mpu\source\ejemplos\BME680\bme680.c **** 
 434:D:\mcu\design-mpu\source\ejemplos\BME680\bme680.c **** 			if (rslt == BME680_OK)
 435:D:\mcu\design-mpu\source\ejemplos\BME680\bme680.c **** 				rslt = bme680_get_regs(reg_addr, &data, 1, dev);
 436:D:\mcu\design-mpu\source\ejemplos\BME680\bme680.c **** 
 437:D:\mcu\design-mpu\source\ejemplos\BME680\bme680.c **** 			if (desired_settings & BME680_FILTER_SEL)
 438:D:\mcu\design-mpu\source\ejemplos\BME680\bme680.c **** 				data = BME680_SET_BITS(data, BME680_FILTER, dev->tph_sett.filter);
 439:D:\mcu\design-mpu\source\ejemplos\BME680\bme680.c **** 
 440:D:\mcu\design-mpu\source\ejemplos\BME680\bme680.c **** 			reg_array[count] = reg_addr; /* Append configuration */
 441:D:\mcu\design-mpu\source\ejemplos\BME680\bme680.c **** 			data_array[count] = data;
 442:D:\mcu\design-mpu\source\ejemplos\BME680\bme680.c **** 			count++;
 443:D:\mcu\design-mpu\source\ejemplos\BME680\bme680.c **** 		}
 444:D:\mcu\design-mpu\source\ejemplos\BME680\bme680.c **** 
 445:D:\mcu\design-mpu\source\ejemplos\BME680\bme680.c **** 		/* Selecting heater control for the sensor */
 446:D:\mcu\design-mpu\source\ejemplos\BME680\bme680.c **** 		if (desired_settings & BME680_HCNTRL_SEL) {
 447:D:\mcu\design-mpu\source\ejemplos\BME680\bme680.c **** 			rslt = boundary_check(&dev->gas_sett.heatr_ctrl, BME680_ENABLE_HEATER,
 448:D:\mcu\design-mpu\source\ejemplos\BME680\bme680.c **** 				BME680_DISABLE_HEATER, dev);
 449:D:\mcu\design-mpu\source\ejemplos\BME680\bme680.c **** 			reg_addr = BME680_CONF_HEAT_CTRL_ADDR;
 450:D:\mcu\design-mpu\source\ejemplos\BME680\bme680.c **** 
 451:D:\mcu\design-mpu\source\ejemplos\BME680\bme680.c **** 			if (rslt == BME680_OK)
 452:D:\mcu\design-mpu\source\ejemplos\BME680\bme680.c **** 				rslt = bme680_get_regs(reg_addr, &data, 1, dev);
 453:D:\mcu\design-mpu\source\ejemplos\BME680\bme680.c **** 			data = BME680_SET_BITS_POS_0(data, BME680_HCTRL, dev->gas_sett.heatr_ctrl);
 454:D:\mcu\design-mpu\source\ejemplos\BME680\bme680.c **** 
 455:D:\mcu\design-mpu\source\ejemplos\BME680\bme680.c **** 			reg_array[count] = reg_addr; /* Append configuration */
 456:D:\mcu\design-mpu\source\ejemplos\BME680\bme680.c **** 			data_array[count] = data;
 457:D:\mcu\design-mpu\source\ejemplos\BME680\bme680.c **** 			count++;
 458:D:\mcu\design-mpu\source\ejemplos\BME680\bme680.c **** 		}
 459:D:\mcu\design-mpu\source\ejemplos\BME680\bme680.c **** 
 460:D:\mcu\design-mpu\source\ejemplos\BME680\bme680.c **** 		/* Selecting heater T,P oversampling for the sensor */
 461:D:\mcu\design-mpu\source\ejemplos\BME680\bme680.c **** 		if (desired_settings & (BME680_OST_SEL | BME680_OSP_SEL)) {
 462:D:\mcu\design-mpu\source\ejemplos\BME680\bme680.c **** 			rslt = boundary_check(&dev->tph_sett.os_temp, BME680_OS_NONE, BME680_OS_16X, dev);
 463:D:\mcu\design-mpu\source\ejemplos\BME680\bme680.c **** 			reg_addr = BME680_CONF_T_P_MODE_ADDR;
 464:D:\mcu\design-mpu\source\ejemplos\BME680\bme680.c **** 
 465:D:\mcu\design-mpu\source\ejemplos\BME680\bme680.c **** 			if (rslt == BME680_OK)
 466:D:\mcu\design-mpu\source\ejemplos\BME680\bme680.c **** 				rslt = bme680_get_regs(reg_addr, &data, 1, dev);
 467:D:\mcu\design-mpu\source\ejemplos\BME680\bme680.c **** 
 468:D:\mcu\design-mpu\source\ejemplos\BME680\bme680.c **** 			if (desired_settings & BME680_OST_SEL)
 469:D:\mcu\design-mpu\source\ejemplos\BME680\bme680.c **** 				data = BME680_SET_BITS(data, BME680_OST, dev->tph_sett.os_temp);
 470:D:\mcu\design-mpu\source\ejemplos\BME680\bme680.c **** 
 471:D:\mcu\design-mpu\source\ejemplos\BME680\bme680.c **** 			if (desired_settings & BME680_OSP_SEL)
 472:D:\mcu\design-mpu\source\ejemplos\BME680\bme680.c **** 				data = BME680_SET_BITS(data, BME680_OSP, dev->tph_sett.os_pres);
 473:D:\mcu\design-mpu\source\ejemplos\BME680\bme680.c **** 
 474:D:\mcu\design-mpu\source\ejemplos\BME680\bme680.c **** 			reg_array[count] = reg_addr;
 475:D:\mcu\design-mpu\source\ejemplos\BME680\bme680.c **** 			data_array[count] = data;
 476:D:\mcu\design-mpu\source\ejemplos\BME680\bme680.c **** 			count++;
 477:D:\mcu\design-mpu\source\ejemplos\BME680\bme680.c **** 		}
 478:D:\mcu\design-mpu\source\ejemplos\BME680\bme680.c **** 
 479:D:\mcu\design-mpu\source\ejemplos\BME680\bme680.c **** 		/* Selecting humidity oversampling for the sensor */
 480:D:\mcu\design-mpu\source\ejemplos\BME680\bme680.c **** 		if (desired_settings & BME680_OSH_SEL) {
 481:D:\mcu\design-mpu\source\ejemplos\BME680\bme680.c **** 			rslt = boundary_check(&dev->tph_sett.os_hum, BME680_OS_NONE, BME680_OS_16X, dev);
 482:D:\mcu\design-mpu\source\ejemplos\BME680\bme680.c **** 			reg_addr = BME680_CONF_OS_H_ADDR;
 483:D:\mcu\design-mpu\source\ejemplos\BME680\bme680.c **** 
 484:D:\mcu\design-mpu\source\ejemplos\BME680\bme680.c **** 			if (rslt == BME680_OK)
 485:D:\mcu\design-mpu\source\ejemplos\BME680\bme680.c **** 				rslt = bme680_get_regs(reg_addr, &data, 1, dev);
 486:D:\mcu\design-mpu\source\ejemplos\BME680\bme680.c **** 			data = BME680_SET_BITS_POS_0(data, BME680_OSH, dev->tph_sett.os_hum);
 487:D:\mcu\design-mpu\source\ejemplos\BME680\bme680.c **** 
ARM GAS  C:\Users\adria\AppData\Local\Temp\ccQ3AXqi.s 			page 10


 488:D:\mcu\design-mpu\source\ejemplos\BME680\bme680.c **** 			reg_array[count] = reg_addr; /* Append configuration */
 489:D:\mcu\design-mpu\source\ejemplos\BME680\bme680.c **** 			data_array[count] = data;
 490:D:\mcu\design-mpu\source\ejemplos\BME680\bme680.c **** 			count++;
 491:D:\mcu\design-mpu\source\ejemplos\BME680\bme680.c **** 		}
 492:D:\mcu\design-mpu\source\ejemplos\BME680\bme680.c **** 
 493:D:\mcu\design-mpu\source\ejemplos\BME680\bme680.c **** 		/* Selecting the runGas and NB conversion settings for the sensor */
 494:D:\mcu\design-mpu\source\ejemplos\BME680\bme680.c **** 		if (desired_settings & (BME680_RUN_GAS_SEL | BME680_NBCONV_SEL)) {
 495:D:\mcu\design-mpu\source\ejemplos\BME680\bme680.c **** 			rslt = boundary_check(&dev->gas_sett.run_gas, BME680_RUN_GAS_DISABLE,
 496:D:\mcu\design-mpu\source\ejemplos\BME680\bme680.c **** 				BME680_RUN_GAS_ENABLE, dev);
 497:D:\mcu\design-mpu\source\ejemplos\BME680\bme680.c **** 			if (rslt == BME680_OK) {
 498:D:\mcu\design-mpu\source\ejemplos\BME680\bme680.c **** 				/* Validate boundary conditions */
 499:D:\mcu\design-mpu\source\ejemplos\BME680\bme680.c **** 				rslt = boundary_check(&dev->gas_sett.nb_conv, BME680_NBCONV_MIN,
 500:D:\mcu\design-mpu\source\ejemplos\BME680\bme680.c **** 					BME680_NBCONV_MAX, dev);
 501:D:\mcu\design-mpu\source\ejemplos\BME680\bme680.c **** 			}
 502:D:\mcu\design-mpu\source\ejemplos\BME680\bme680.c **** 
 503:D:\mcu\design-mpu\source\ejemplos\BME680\bme680.c **** 			reg_addr = BME680_CONF_ODR_RUN_GAS_NBC_ADDR;
 504:D:\mcu\design-mpu\source\ejemplos\BME680\bme680.c **** 
 505:D:\mcu\design-mpu\source\ejemplos\BME680\bme680.c **** 			if (rslt == BME680_OK)
 506:D:\mcu\design-mpu\source\ejemplos\BME680\bme680.c **** 				rslt = bme680_get_regs(reg_addr, &data, 1, dev);
 507:D:\mcu\design-mpu\source\ejemplos\BME680\bme680.c **** 
 508:D:\mcu\design-mpu\source\ejemplos\BME680\bme680.c **** 			if (desired_settings & BME680_RUN_GAS_SEL)
 509:D:\mcu\design-mpu\source\ejemplos\BME680\bme680.c **** 				data = BME680_SET_BITS(data, BME680_RUN_GAS, dev->gas_sett.run_gas);
 510:D:\mcu\design-mpu\source\ejemplos\BME680\bme680.c **** 
 511:D:\mcu\design-mpu\source\ejemplos\BME680\bme680.c **** 			if (desired_settings & BME680_NBCONV_SEL)
 512:D:\mcu\design-mpu\source\ejemplos\BME680\bme680.c **** 				data = BME680_SET_BITS_POS_0(data, BME680_NBCONV, dev->gas_sett.nb_conv);
 513:D:\mcu\design-mpu\source\ejemplos\BME680\bme680.c **** 
 514:D:\mcu\design-mpu\source\ejemplos\BME680\bme680.c **** 			reg_array[count] = reg_addr; /* Append configuration */
 515:D:\mcu\design-mpu\source\ejemplos\BME680\bme680.c **** 			data_array[count] = data;
 516:D:\mcu\design-mpu\source\ejemplos\BME680\bme680.c **** 			count++;
 517:D:\mcu\design-mpu\source\ejemplos\BME680\bme680.c **** 		}
 518:D:\mcu\design-mpu\source\ejemplos\BME680\bme680.c **** 
 519:D:\mcu\design-mpu\source\ejemplos\BME680\bme680.c **** 		if (rslt == BME680_OK)
 520:D:\mcu\design-mpu\source\ejemplos\BME680\bme680.c **** 			rslt = bme680_set_regs(reg_array, data_array, count, dev);
 521:D:\mcu\design-mpu\source\ejemplos\BME680\bme680.c **** 
 522:D:\mcu\design-mpu\source\ejemplos\BME680\bme680.c **** 		/* Restore previous intended power mode */
 523:D:\mcu\design-mpu\source\ejemplos\BME680\bme680.c **** 		dev->power_mode = intended_power_mode;
 524:D:\mcu\design-mpu\source\ejemplos\BME680\bme680.c **** 	}
 525:D:\mcu\design-mpu\source\ejemplos\BME680\bme680.c **** 
 526:D:\mcu\design-mpu\source\ejemplos\BME680\bme680.c **** 	return rslt;
 527:D:\mcu\design-mpu\source\ejemplos\BME680\bme680.c **** }
 528:D:\mcu\design-mpu\source\ejemplos\BME680\bme680.c **** 
 529:D:\mcu\design-mpu\source\ejemplos\BME680\bme680.c **** /*!
 530:D:\mcu\design-mpu\source\ejemplos\BME680\bme680.c ****  * @brief This API is used to get the oversampling, filter and T,P,H, gas selection
 531:D:\mcu\design-mpu\source\ejemplos\BME680\bme680.c ****  * settings in the sensor.
 532:D:\mcu\design-mpu\source\ejemplos\BME680\bme680.c ****  */
 533:D:\mcu\design-mpu\source\ejemplos\BME680\bme680.c **** int8_t bme680_get_sensor_settings(uint16_t desired_settings, struct bme680_dev *dev)
 534:D:\mcu\design-mpu\source\ejemplos\BME680\bme680.c **** {
 535:D:\mcu\design-mpu\source\ejemplos\BME680\bme680.c **** 	int8_t rslt;
 536:D:\mcu\design-mpu\source\ejemplos\BME680\bme680.c **** 	/* starting address of the register array for burst read*/
 537:D:\mcu\design-mpu\source\ejemplos\BME680\bme680.c **** 	uint8_t reg_addr = BME680_CONF_HEAT_CTRL_ADDR;
 538:D:\mcu\design-mpu\source\ejemplos\BME680\bme680.c **** 	uint8_t data_array[BME680_REG_BUFFER_LENGTH] = { 0 };
 539:D:\mcu\design-mpu\source\ejemplos\BME680\bme680.c **** 
 540:D:\mcu\design-mpu\source\ejemplos\BME680\bme680.c **** 	/* Check for null pointer in the device structure*/
 541:D:\mcu\design-mpu\source\ejemplos\BME680\bme680.c **** 	rslt = null_ptr_check(dev);
 542:D:\mcu\design-mpu\source\ejemplos\BME680\bme680.c **** 	if (rslt == BME680_OK) {
 543:D:\mcu\design-mpu\source\ejemplos\BME680\bme680.c **** 		rslt = bme680_get_regs(reg_addr, data_array, BME680_REG_BUFFER_LENGTH, dev);
 544:D:\mcu\design-mpu\source\ejemplos\BME680\bme680.c **** 
ARM GAS  C:\Users\adria\AppData\Local\Temp\ccQ3AXqi.s 			page 11


 545:D:\mcu\design-mpu\source\ejemplos\BME680\bme680.c **** 		if (rslt == BME680_OK) {
 546:D:\mcu\design-mpu\source\ejemplos\BME680\bme680.c **** 			if (desired_settings & BME680_GAS_MEAS_SEL)
 547:D:\mcu\design-mpu\source\ejemplos\BME680\bme680.c **** 				rslt = get_gas_config(dev);
 548:D:\mcu\design-mpu\source\ejemplos\BME680\bme680.c **** 
 549:D:\mcu\design-mpu\source\ejemplos\BME680\bme680.c **** 			/* get the T,P,H ,Filter,ODR settings here */
 550:D:\mcu\design-mpu\source\ejemplos\BME680\bme680.c **** 			if (desired_settings & BME680_FILTER_SEL)
 551:D:\mcu\design-mpu\source\ejemplos\BME680\bme680.c **** 				dev->tph_sett.filter = BME680_GET_BITS(data_array[BME680_REG_FILTER_INDEX],
 552:D:\mcu\design-mpu\source\ejemplos\BME680\bme680.c **** 					BME680_FILTER);
 553:D:\mcu\design-mpu\source\ejemplos\BME680\bme680.c **** 
 554:D:\mcu\design-mpu\source\ejemplos\BME680\bme680.c **** 			if (desired_settings & (BME680_OST_SEL | BME680_OSP_SEL)) {
 555:D:\mcu\design-mpu\source\ejemplos\BME680\bme680.c **** 				dev->tph_sett.os_temp = BME680_GET_BITS(data_array[BME680_REG_TEMP_INDEX], BME680_OST);
 556:D:\mcu\design-mpu\source\ejemplos\BME680\bme680.c **** 				dev->tph_sett.os_pres = BME680_GET_BITS(data_array[BME680_REG_PRES_INDEX], BME680_OSP);
 557:D:\mcu\design-mpu\source\ejemplos\BME680\bme680.c **** 			}
 558:D:\mcu\design-mpu\source\ejemplos\BME680\bme680.c **** 
 559:D:\mcu\design-mpu\source\ejemplos\BME680\bme680.c **** 			if (desired_settings & BME680_OSH_SEL)
 560:D:\mcu\design-mpu\source\ejemplos\BME680\bme680.c **** 				dev->tph_sett.os_hum = BME680_GET_BITS_POS_0(data_array[BME680_REG_HUM_INDEX],
 561:D:\mcu\design-mpu\source\ejemplos\BME680\bme680.c **** 					BME680_OSH);
 562:D:\mcu\design-mpu\source\ejemplos\BME680\bme680.c **** 
 563:D:\mcu\design-mpu\source\ejemplos\BME680\bme680.c **** 			/* get the gas related settings */
 564:D:\mcu\design-mpu\source\ejemplos\BME680\bme680.c **** 			if (desired_settings & BME680_HCNTRL_SEL)
 565:D:\mcu\design-mpu\source\ejemplos\BME680\bme680.c **** 				dev->gas_sett.heatr_ctrl = BME680_GET_BITS_POS_0(data_array[BME680_REG_HCTRL_INDEX],
 566:D:\mcu\design-mpu\source\ejemplos\BME680\bme680.c **** 					BME680_HCTRL);
 567:D:\mcu\design-mpu\source\ejemplos\BME680\bme680.c **** 
 568:D:\mcu\design-mpu\source\ejemplos\BME680\bme680.c **** 			if (desired_settings & (BME680_RUN_GAS_SEL | BME680_NBCONV_SEL)) {
 569:D:\mcu\design-mpu\source\ejemplos\BME680\bme680.c **** 				dev->gas_sett.nb_conv = BME680_GET_BITS_POS_0(data_array[BME680_REG_NBCONV_INDEX],
 570:D:\mcu\design-mpu\source\ejemplos\BME680\bme680.c **** 					BME680_NBCONV);
 571:D:\mcu\design-mpu\source\ejemplos\BME680\bme680.c **** 				dev->gas_sett.run_gas = BME680_GET_BITS(data_array[BME680_REG_RUN_GAS_INDEX],
 572:D:\mcu\design-mpu\source\ejemplos\BME680\bme680.c **** 					BME680_RUN_GAS);
 573:D:\mcu\design-mpu\source\ejemplos\BME680\bme680.c **** 			}
 574:D:\mcu\design-mpu\source\ejemplos\BME680\bme680.c **** 		}
 575:D:\mcu\design-mpu\source\ejemplos\BME680\bme680.c **** 	} else {
 576:D:\mcu\design-mpu\source\ejemplos\BME680\bme680.c **** 		rslt = BME680_E_NULL_PTR;
 577:D:\mcu\design-mpu\source\ejemplos\BME680\bme680.c **** 	}
 578:D:\mcu\design-mpu\source\ejemplos\BME680\bme680.c **** 
 579:D:\mcu\design-mpu\source\ejemplos\BME680\bme680.c **** 	return rslt;
 580:D:\mcu\design-mpu\source\ejemplos\BME680\bme680.c **** }
 581:D:\mcu\design-mpu\source\ejemplos\BME680\bme680.c **** 
 582:D:\mcu\design-mpu\source\ejemplos\BME680\bme680.c **** /*!
 583:D:\mcu\design-mpu\source\ejemplos\BME680\bme680.c ****  * @brief This API is used to set the power mode of the sensor.
 584:D:\mcu\design-mpu\source\ejemplos\BME680\bme680.c ****  */
 585:D:\mcu\design-mpu\source\ejemplos\BME680\bme680.c **** int8_t bme680_set_sensor_mode(struct bme680_dev *dev)
 586:D:\mcu\design-mpu\source\ejemplos\BME680\bme680.c **** {
 587:D:\mcu\design-mpu\source\ejemplos\BME680\bme680.c **** 	int8_t rslt;
 588:D:\mcu\design-mpu\source\ejemplos\BME680\bme680.c **** 	uint8_t tmp_pow_mode;
 589:D:\mcu\design-mpu\source\ejemplos\BME680\bme680.c **** 	uint8_t pow_mode = 0;
 590:D:\mcu\design-mpu\source\ejemplos\BME680\bme680.c **** 	uint8_t reg_addr = BME680_CONF_T_P_MODE_ADDR;
 591:D:\mcu\design-mpu\source\ejemplos\BME680\bme680.c **** 
 592:D:\mcu\design-mpu\source\ejemplos\BME680\bme680.c **** 	/* Check for null pointer in the device structure*/
 593:D:\mcu\design-mpu\source\ejemplos\BME680\bme680.c **** 	rslt = null_ptr_check(dev);
 594:D:\mcu\design-mpu\source\ejemplos\BME680\bme680.c **** 	if (rslt == BME680_OK) {
 595:D:\mcu\design-mpu\source\ejemplos\BME680\bme680.c **** 		/* Call repeatedly until in sleep */
 596:D:\mcu\design-mpu\source\ejemplos\BME680\bme680.c **** 		do {
 597:D:\mcu\design-mpu\source\ejemplos\BME680\bme680.c **** 			rslt = bme680_get_regs(BME680_CONF_T_P_MODE_ADDR, &tmp_pow_mode, 1, dev);
 598:D:\mcu\design-mpu\source\ejemplos\BME680\bme680.c **** 			if (rslt == BME680_OK) {
 599:D:\mcu\design-mpu\source\ejemplos\BME680\bme680.c **** 				/* Put to sleep before changing mode */
 600:D:\mcu\design-mpu\source\ejemplos\BME680\bme680.c **** 				pow_mode = (tmp_pow_mode & BME680_MODE_MSK);
 601:D:\mcu\design-mpu\source\ejemplos\BME680\bme680.c **** 
ARM GAS  C:\Users\adria\AppData\Local\Temp\ccQ3AXqi.s 			page 12


 602:D:\mcu\design-mpu\source\ejemplos\BME680\bme680.c **** 				if (pow_mode != BME680_SLEEP_MODE) {
 603:D:\mcu\design-mpu\source\ejemplos\BME680\bme680.c **** 					tmp_pow_mode = tmp_pow_mode & (~BME680_MODE_MSK); /* Set to sleep */
 604:D:\mcu\design-mpu\source\ejemplos\BME680\bme680.c **** 					rslt = bme680_set_regs(&reg_addr, &tmp_pow_mode, 1, dev);
 605:D:\mcu\design-mpu\source\ejemplos\BME680\bme680.c **** 					dev->delay_ms(BME680_POLL_PERIOD_MS);
 606:D:\mcu\design-mpu\source\ejemplos\BME680\bme680.c **** 				}
 607:D:\mcu\design-mpu\source\ejemplos\BME680\bme680.c **** 			}
 608:D:\mcu\design-mpu\source\ejemplos\BME680\bme680.c **** 		} while (pow_mode != BME680_SLEEP_MODE);
 609:D:\mcu\design-mpu\source\ejemplos\BME680\bme680.c **** 
 610:D:\mcu\design-mpu\source\ejemplos\BME680\bme680.c **** 		/* Already in sleep */
 611:D:\mcu\design-mpu\source\ejemplos\BME680\bme680.c **** 		if (dev->power_mode != BME680_SLEEP_MODE) {
 612:D:\mcu\design-mpu\source\ejemplos\BME680\bme680.c **** 			tmp_pow_mode = (tmp_pow_mode & ~BME680_MODE_MSK) | (dev->power_mode & BME680_MODE_MSK);
 613:D:\mcu\design-mpu\source\ejemplos\BME680\bme680.c **** 			if (rslt == BME680_OK)
 614:D:\mcu\design-mpu\source\ejemplos\BME680\bme680.c **** 				rslt = bme680_set_regs(&reg_addr, &tmp_pow_mode, 1, dev);
 615:D:\mcu\design-mpu\source\ejemplos\BME680\bme680.c **** 		}
 616:D:\mcu\design-mpu\source\ejemplos\BME680\bme680.c **** 	}
 617:D:\mcu\design-mpu\source\ejemplos\BME680\bme680.c **** 
 618:D:\mcu\design-mpu\source\ejemplos\BME680\bme680.c **** 	return rslt;
 619:D:\mcu\design-mpu\source\ejemplos\BME680\bme680.c **** }
 620:D:\mcu\design-mpu\source\ejemplos\BME680\bme680.c **** 
 621:D:\mcu\design-mpu\source\ejemplos\BME680\bme680.c **** /*!
 622:D:\mcu\design-mpu\source\ejemplos\BME680\bme680.c ****  * @brief This API is used to get the power mode of the sensor.
 623:D:\mcu\design-mpu\source\ejemplos\BME680\bme680.c ****  */
 624:D:\mcu\design-mpu\source\ejemplos\BME680\bme680.c **** int8_t bme680_get_sensor_mode(struct bme680_dev *dev)
 625:D:\mcu\design-mpu\source\ejemplos\BME680\bme680.c **** {
 626:D:\mcu\design-mpu\source\ejemplos\BME680\bme680.c **** 	int8_t rslt;
 627:D:\mcu\design-mpu\source\ejemplos\BME680\bme680.c **** 	uint8_t mode;
 628:D:\mcu\design-mpu\source\ejemplos\BME680\bme680.c **** 
 629:D:\mcu\design-mpu\source\ejemplos\BME680\bme680.c **** 	/* Check for null pointer in the device structure*/
 630:D:\mcu\design-mpu\source\ejemplos\BME680\bme680.c **** 	rslt = null_ptr_check(dev);
 631:D:\mcu\design-mpu\source\ejemplos\BME680\bme680.c **** 	if (rslt == BME680_OK) {
 632:D:\mcu\design-mpu\source\ejemplos\BME680\bme680.c **** 		rslt = bme680_get_regs(BME680_CONF_T_P_MODE_ADDR, &mode, 1, dev);
 633:D:\mcu\design-mpu\source\ejemplos\BME680\bme680.c **** 		/* Masking the other register bit info*/
 634:D:\mcu\design-mpu\source\ejemplos\BME680\bme680.c **** 		dev->power_mode = mode & BME680_MODE_MSK;
 635:D:\mcu\design-mpu\source\ejemplos\BME680\bme680.c **** 	}
 636:D:\mcu\design-mpu\source\ejemplos\BME680\bme680.c **** 
 637:D:\mcu\design-mpu\source\ejemplos\BME680\bme680.c **** 	return rslt;
 638:D:\mcu\design-mpu\source\ejemplos\BME680\bme680.c **** }
 639:D:\mcu\design-mpu\source\ejemplos\BME680\bme680.c **** 
 640:D:\mcu\design-mpu\source\ejemplos\BME680\bme680.c **** /*!
 641:D:\mcu\design-mpu\source\ejemplos\BME680\bme680.c ****  * @brief This API is used to set the profile duration of the sensor.
 642:D:\mcu\design-mpu\source\ejemplos\BME680\bme680.c ****  */
 643:D:\mcu\design-mpu\source\ejemplos\BME680\bme680.c **** void bme680_set_profile_dur(uint16_t duration, struct bme680_dev *dev)
 644:D:\mcu\design-mpu\source\ejemplos\BME680\bme680.c **** {
 645:D:\mcu\design-mpu\source\ejemplos\BME680\bme680.c **** 	uint32_t tph_dur; /* Calculate in us */
 646:D:\mcu\design-mpu\source\ejemplos\BME680\bme680.c **** 	uint32_t meas_cycles;
 647:D:\mcu\design-mpu\source\ejemplos\BME680\bme680.c **** 	uint8_t os_to_meas_cycles[6] = {0, 1, 2, 4, 8, 16};
 648:D:\mcu\design-mpu\source\ejemplos\BME680\bme680.c **** 
 649:D:\mcu\design-mpu\source\ejemplos\BME680\bme680.c **** 	meas_cycles = os_to_meas_cycles[dev->tph_sett.os_temp];
 650:D:\mcu\design-mpu\source\ejemplos\BME680\bme680.c **** 	meas_cycles += os_to_meas_cycles[dev->tph_sett.os_pres];
 651:D:\mcu\design-mpu\source\ejemplos\BME680\bme680.c **** 	meas_cycles += os_to_meas_cycles[dev->tph_sett.os_hum];
 652:D:\mcu\design-mpu\source\ejemplos\BME680\bme680.c **** 
 653:D:\mcu\design-mpu\source\ejemplos\BME680\bme680.c **** 	/* TPH measurement duration */
 654:D:\mcu\design-mpu\source\ejemplos\BME680\bme680.c **** 	tph_dur = meas_cycles * UINT32_C(1963);
 655:D:\mcu\design-mpu\source\ejemplos\BME680\bme680.c **** 	tph_dur += UINT32_C(477 * 4); /* TPH switching duration */
 656:D:\mcu\design-mpu\source\ejemplos\BME680\bme680.c **** 	tph_dur += UINT32_C(477 * 5); /* Gas measurement duration */
 657:D:\mcu\design-mpu\source\ejemplos\BME680\bme680.c **** 	tph_dur += UINT32_C(500); /* Get it to the closest whole number.*/
 658:D:\mcu\design-mpu\source\ejemplos\BME680\bme680.c **** 	tph_dur /= UINT32_C(1000); /* Convert to ms */
ARM GAS  C:\Users\adria\AppData\Local\Temp\ccQ3AXqi.s 			page 13


 659:D:\mcu\design-mpu\source\ejemplos\BME680\bme680.c **** 
 660:D:\mcu\design-mpu\source\ejemplos\BME680\bme680.c **** 	tph_dur += UINT32_C(1); /* Wake up duration of 1ms */
 661:D:\mcu\design-mpu\source\ejemplos\BME680\bme680.c **** 	/* The remaining time should be used for heating */
 662:D:\mcu\design-mpu\source\ejemplos\BME680\bme680.c **** 	dev->gas_sett.heatr_dur = duration - (uint16_t) tph_dur;
 663:D:\mcu\design-mpu\source\ejemplos\BME680\bme680.c **** }
 664:D:\mcu\design-mpu\source\ejemplos\BME680\bme680.c **** 
 665:D:\mcu\design-mpu\source\ejemplos\BME680\bme680.c **** /*!
 666:D:\mcu\design-mpu\source\ejemplos\BME680\bme680.c ****  * @brief This API is used to get the profile duration of the sensor.
 667:D:\mcu\design-mpu\source\ejemplos\BME680\bme680.c ****  */
 668:D:\mcu\design-mpu\source\ejemplos\BME680\bme680.c **** void bme680_get_profile_dur(uint16_t *duration, const struct bme680_dev *dev)
 669:D:\mcu\design-mpu\source\ejemplos\BME680\bme680.c **** {
 670:D:\mcu\design-mpu\source\ejemplos\BME680\bme680.c **** 	uint32_t tph_dur; /* Calculate in us */
 671:D:\mcu\design-mpu\source\ejemplos\BME680\bme680.c **** 	uint32_t meas_cycles;
 672:D:\mcu\design-mpu\source\ejemplos\BME680\bme680.c **** 	uint8_t os_to_meas_cycles[6] = {0, 1, 2, 4, 8, 16};
 673:D:\mcu\design-mpu\source\ejemplos\BME680\bme680.c **** 
 674:D:\mcu\design-mpu\source\ejemplos\BME680\bme680.c **** 	meas_cycles = os_to_meas_cycles[dev->tph_sett.os_temp];
 675:D:\mcu\design-mpu\source\ejemplos\BME680\bme680.c **** 	meas_cycles += os_to_meas_cycles[dev->tph_sett.os_pres];
 676:D:\mcu\design-mpu\source\ejemplos\BME680\bme680.c **** 	meas_cycles += os_to_meas_cycles[dev->tph_sett.os_hum];
 677:D:\mcu\design-mpu\source\ejemplos\BME680\bme680.c **** 
 678:D:\mcu\design-mpu\source\ejemplos\BME680\bme680.c **** 	/* TPH measurement duration */
 679:D:\mcu\design-mpu\source\ejemplos\BME680\bme680.c **** 	tph_dur = meas_cycles * UINT32_C(1963);
 680:D:\mcu\design-mpu\source\ejemplos\BME680\bme680.c **** 	tph_dur += UINT32_C(477 * 4); /* TPH switching duration */
 681:D:\mcu\design-mpu\source\ejemplos\BME680\bme680.c **** 	tph_dur += UINT32_C(477 * 5); /* Gas measurement duration */
 682:D:\mcu\design-mpu\source\ejemplos\BME680\bme680.c **** 	tph_dur += UINT32_C(500); /* Get it to the closest whole number.*/
 683:D:\mcu\design-mpu\source\ejemplos\BME680\bme680.c **** 	tph_dur /= UINT32_C(1000); /* Convert to ms */
 684:D:\mcu\design-mpu\source\ejemplos\BME680\bme680.c **** 
 685:D:\mcu\design-mpu\source\ejemplos\BME680\bme680.c **** 	tph_dur += UINT32_C(1); /* Wake up duration of 1ms */
 686:D:\mcu\design-mpu\source\ejemplos\BME680\bme680.c **** 
 687:D:\mcu\design-mpu\source\ejemplos\BME680\bme680.c **** 	*duration = (uint16_t) tph_dur;
 688:D:\mcu\design-mpu\source\ejemplos\BME680\bme680.c **** 
 689:D:\mcu\design-mpu\source\ejemplos\BME680\bme680.c **** 	/* Get the gas duration only when the run gas is enabled */
 690:D:\mcu\design-mpu\source\ejemplos\BME680\bme680.c **** 	if (dev->gas_sett.run_gas) {
 691:D:\mcu\design-mpu\source\ejemplos\BME680\bme680.c **** 		/* The remaining time should be used for heating */
 692:D:\mcu\design-mpu\source\ejemplos\BME680\bme680.c **** 		*duration += dev->gas_sett.heatr_dur;
 693:D:\mcu\design-mpu\source\ejemplos\BME680\bme680.c **** 	}
 694:D:\mcu\design-mpu\source\ejemplos\BME680\bme680.c **** }
 695:D:\mcu\design-mpu\source\ejemplos\BME680\bme680.c **** 
 696:D:\mcu\design-mpu\source\ejemplos\BME680\bme680.c **** /*!
 697:D:\mcu\design-mpu\source\ejemplos\BME680\bme680.c ****  * @brief This API reads the pressure, temperature and humidity and gas data
 698:D:\mcu\design-mpu\source\ejemplos\BME680\bme680.c ****  * from the sensor, compensates the data and store it in the bme680_data
 699:D:\mcu\design-mpu\source\ejemplos\BME680\bme680.c ****  * structure instance passed by the user.
 700:D:\mcu\design-mpu\source\ejemplos\BME680\bme680.c ****  */
 701:D:\mcu\design-mpu\source\ejemplos\BME680\bme680.c **** int8_t bme680_get_sensor_data(struct bme680_field_data *data, struct bme680_dev *dev)
 702:D:\mcu\design-mpu\source\ejemplos\BME680\bme680.c **** {
 703:D:\mcu\design-mpu\source\ejemplos\BME680\bme680.c **** 	int8_t rslt;
 704:D:\mcu\design-mpu\source\ejemplos\BME680\bme680.c **** 
 705:D:\mcu\design-mpu\source\ejemplos\BME680\bme680.c **** 	/* Check for null pointer in the device structure*/
 706:D:\mcu\design-mpu\source\ejemplos\BME680\bme680.c **** 	rslt = null_ptr_check(dev);
 707:D:\mcu\design-mpu\source\ejemplos\BME680\bme680.c **** 	if (rslt == BME680_OK) {
 708:D:\mcu\design-mpu\source\ejemplos\BME680\bme680.c **** 		/* Reading the sensor data in forced mode only */
 709:D:\mcu\design-mpu\source\ejemplos\BME680\bme680.c **** 		rslt = read_field_data(data, dev);
 710:D:\mcu\design-mpu\source\ejemplos\BME680\bme680.c **** 		if (rslt == BME680_OK) {
 711:D:\mcu\design-mpu\source\ejemplos\BME680\bme680.c **** 			if (data->status & BME680_NEW_DATA_MSK)
 712:D:\mcu\design-mpu\source\ejemplos\BME680\bme680.c **** 				dev->new_fields = 1;
 713:D:\mcu\design-mpu\source\ejemplos\BME680\bme680.c **** 			else
 714:D:\mcu\design-mpu\source\ejemplos\BME680\bme680.c **** 				dev->new_fields = 0;
 715:D:\mcu\design-mpu\source\ejemplos\BME680\bme680.c **** 		}
ARM GAS  C:\Users\adria\AppData\Local\Temp\ccQ3AXqi.s 			page 14


 716:D:\mcu\design-mpu\source\ejemplos\BME680\bme680.c **** 	}
 717:D:\mcu\design-mpu\source\ejemplos\BME680\bme680.c **** 
 718:D:\mcu\design-mpu\source\ejemplos\BME680\bme680.c **** 	return rslt;
 719:D:\mcu\design-mpu\source\ejemplos\BME680\bme680.c **** }
 720:D:\mcu\design-mpu\source\ejemplos\BME680\bme680.c **** 
 721:D:\mcu\design-mpu\source\ejemplos\BME680\bme680.c **** /*!
 722:D:\mcu\design-mpu\source\ejemplos\BME680\bme680.c ****  * @brief This internal API is used to read the calibrated data from the sensor.
 723:D:\mcu\design-mpu\source\ejemplos\BME680\bme680.c ****  */
 724:D:\mcu\design-mpu\source\ejemplos\BME680\bme680.c **** static int8_t get_calib_data(struct bme680_dev *dev)
 725:D:\mcu\design-mpu\source\ejemplos\BME680\bme680.c **** {
 726:D:\mcu\design-mpu\source\ejemplos\BME680\bme680.c **** 	int8_t rslt;
 727:D:\mcu\design-mpu\source\ejemplos\BME680\bme680.c **** 	uint8_t coeff_array[BME680_COEFF_SIZE] = { 0 };
 728:D:\mcu\design-mpu\source\ejemplos\BME680\bme680.c **** 	uint8_t temp_var = 0; /* Temporary variable */
 729:D:\mcu\design-mpu\source\ejemplos\BME680\bme680.c **** 
 730:D:\mcu\design-mpu\source\ejemplos\BME680\bme680.c **** 	/* Check for null pointer in the device structure*/
 731:D:\mcu\design-mpu\source\ejemplos\BME680\bme680.c **** 	rslt = null_ptr_check(dev);
 732:D:\mcu\design-mpu\source\ejemplos\BME680\bme680.c **** 	if (rslt == BME680_OK) {
 733:D:\mcu\design-mpu\source\ejemplos\BME680\bme680.c **** 		rslt = bme680_get_regs(BME680_COEFF_ADDR1, coeff_array, BME680_COEFF_ADDR1_LEN, dev);
 734:D:\mcu\design-mpu\source\ejemplos\BME680\bme680.c **** 		/* Append the second half in the same array */
 735:D:\mcu\design-mpu\source\ejemplos\BME680\bme680.c **** 		if (rslt == BME680_OK)
 736:D:\mcu\design-mpu\source\ejemplos\BME680\bme680.c **** 			rslt = bme680_get_regs(BME680_COEFF_ADDR2, &coeff_array[BME680_COEFF_ADDR1_LEN]
 737:D:\mcu\design-mpu\source\ejemplos\BME680\bme680.c **** 			, BME680_COEFF_ADDR2_LEN, dev);
 738:D:\mcu\design-mpu\source\ejemplos\BME680\bme680.c **** 
 739:D:\mcu\design-mpu\source\ejemplos\BME680\bme680.c **** 		/* Temperature related coefficients */
 740:D:\mcu\design-mpu\source\ejemplos\BME680\bme680.c **** 		dev->calib.par_t1 = (uint16_t) (BME680_CONCAT_BYTES(coeff_array[BME680_T1_MSB_REG],
 741:D:\mcu\design-mpu\source\ejemplos\BME680\bme680.c **** 			coeff_array[BME680_T1_LSB_REG]));
 742:D:\mcu\design-mpu\source\ejemplos\BME680\bme680.c **** 		dev->calib.par_t2 = (int16_t) (BME680_CONCAT_BYTES(coeff_array[BME680_T2_MSB_REG],
 743:D:\mcu\design-mpu\source\ejemplos\BME680\bme680.c **** 			coeff_array[BME680_T2_LSB_REG]));
 744:D:\mcu\design-mpu\source\ejemplos\BME680\bme680.c **** 		dev->calib.par_t3 = (int8_t) (coeff_array[BME680_T3_REG]);
 745:D:\mcu\design-mpu\source\ejemplos\BME680\bme680.c **** 
 746:D:\mcu\design-mpu\source\ejemplos\BME680\bme680.c **** 		/* Pressure related coefficients */
 747:D:\mcu\design-mpu\source\ejemplos\BME680\bme680.c **** 		dev->calib.par_p1 = (uint16_t) (BME680_CONCAT_BYTES(coeff_array[BME680_P1_MSB_REG],
 748:D:\mcu\design-mpu\source\ejemplos\BME680\bme680.c **** 			coeff_array[BME680_P1_LSB_REG]));
 749:D:\mcu\design-mpu\source\ejemplos\BME680\bme680.c **** 		dev->calib.par_p2 = (int16_t) (BME680_CONCAT_BYTES(coeff_array[BME680_P2_MSB_REG],
 750:D:\mcu\design-mpu\source\ejemplos\BME680\bme680.c **** 			coeff_array[BME680_P2_LSB_REG]));
 751:D:\mcu\design-mpu\source\ejemplos\BME680\bme680.c **** 		dev->calib.par_p3 = (int8_t) coeff_array[BME680_P3_REG];
 752:D:\mcu\design-mpu\source\ejemplos\BME680\bme680.c **** 		dev->calib.par_p4 = (int16_t) (BME680_CONCAT_BYTES(coeff_array[BME680_P4_MSB_REG],
 753:D:\mcu\design-mpu\source\ejemplos\BME680\bme680.c **** 			coeff_array[BME680_P4_LSB_REG]));
 754:D:\mcu\design-mpu\source\ejemplos\BME680\bme680.c **** 		dev->calib.par_p5 = (int16_t) (BME680_CONCAT_BYTES(coeff_array[BME680_P5_MSB_REG],
 755:D:\mcu\design-mpu\source\ejemplos\BME680\bme680.c **** 			coeff_array[BME680_P5_LSB_REG]));
 756:D:\mcu\design-mpu\source\ejemplos\BME680\bme680.c **** 		dev->calib.par_p6 = (int8_t) (coeff_array[BME680_P6_REG]);
 757:D:\mcu\design-mpu\source\ejemplos\BME680\bme680.c **** 		dev->calib.par_p7 = (int8_t) (coeff_array[BME680_P7_REG]);
 758:D:\mcu\design-mpu\source\ejemplos\BME680\bme680.c **** 		dev->calib.par_p8 = (int16_t) (BME680_CONCAT_BYTES(coeff_array[BME680_P8_MSB_REG],
 759:D:\mcu\design-mpu\source\ejemplos\BME680\bme680.c **** 			coeff_array[BME680_P8_LSB_REG]));
 760:D:\mcu\design-mpu\source\ejemplos\BME680\bme680.c **** 		dev->calib.par_p9 = (int16_t) (BME680_CONCAT_BYTES(coeff_array[BME680_P9_MSB_REG],
 761:D:\mcu\design-mpu\source\ejemplos\BME680\bme680.c **** 			coeff_array[BME680_P9_LSB_REG]));
 762:D:\mcu\design-mpu\source\ejemplos\BME680\bme680.c **** 		dev->calib.par_p10 = (uint8_t) (coeff_array[BME680_P10_REG]);
 763:D:\mcu\design-mpu\source\ejemplos\BME680\bme680.c **** 
 764:D:\mcu\design-mpu\source\ejemplos\BME680\bme680.c **** 		/* Humidity related coefficients */
 765:D:\mcu\design-mpu\source\ejemplos\BME680\bme680.c **** 		dev->calib.par_h1 = (uint16_t) (((uint16_t) coeff_array[BME680_H1_MSB_REG] << BME680_HUM_REG_SHIF
 766:D:\mcu\design-mpu\source\ejemplos\BME680\bme680.c **** 			| (coeff_array[BME680_H1_LSB_REG] & BME680_BIT_H1_DATA_MSK));
 767:D:\mcu\design-mpu\source\ejemplos\BME680\bme680.c **** 		dev->calib.par_h2 = (uint16_t) (((uint16_t) coeff_array[BME680_H2_MSB_REG] << BME680_HUM_REG_SHIF
 768:D:\mcu\design-mpu\source\ejemplos\BME680\bme680.c **** 			| ((coeff_array[BME680_H2_LSB_REG]) >> BME680_HUM_REG_SHIFT_VAL));
 769:D:\mcu\design-mpu\source\ejemplos\BME680\bme680.c **** 		dev->calib.par_h3 = (int8_t) coeff_array[BME680_H3_REG];
 770:D:\mcu\design-mpu\source\ejemplos\BME680\bme680.c **** 		dev->calib.par_h4 = (int8_t) coeff_array[BME680_H4_REG];
 771:D:\mcu\design-mpu\source\ejemplos\BME680\bme680.c **** 		dev->calib.par_h5 = (int8_t) coeff_array[BME680_H5_REG];
 772:D:\mcu\design-mpu\source\ejemplos\BME680\bme680.c **** 		dev->calib.par_h6 = (uint8_t) coeff_array[BME680_H6_REG];
ARM GAS  C:\Users\adria\AppData\Local\Temp\ccQ3AXqi.s 			page 15


 773:D:\mcu\design-mpu\source\ejemplos\BME680\bme680.c **** 		dev->calib.par_h7 = (int8_t) coeff_array[BME680_H7_REG];
 774:D:\mcu\design-mpu\source\ejemplos\BME680\bme680.c **** 
 775:D:\mcu\design-mpu\source\ejemplos\BME680\bme680.c **** 		/* Gas heater related coefficients */
 776:D:\mcu\design-mpu\source\ejemplos\BME680\bme680.c **** 		dev->calib.par_gh1 = (int8_t) coeff_array[BME680_GH1_REG];
 777:D:\mcu\design-mpu\source\ejemplos\BME680\bme680.c **** 		dev->calib.par_gh2 = (int16_t) (BME680_CONCAT_BYTES(coeff_array[BME680_GH2_MSB_REG],
 778:D:\mcu\design-mpu\source\ejemplos\BME680\bme680.c **** 			coeff_array[BME680_GH2_LSB_REG]));
 779:D:\mcu\design-mpu\source\ejemplos\BME680\bme680.c **** 		dev->calib.par_gh3 = (int8_t) coeff_array[BME680_GH3_REG];
 780:D:\mcu\design-mpu\source\ejemplos\BME680\bme680.c **** 
 781:D:\mcu\design-mpu\source\ejemplos\BME680\bme680.c **** 		/* Other coefficients */
 782:D:\mcu\design-mpu\source\ejemplos\BME680\bme680.c **** 		if (rslt == BME680_OK) {
 783:D:\mcu\design-mpu\source\ejemplos\BME680\bme680.c **** 			rslt = bme680_get_regs(BME680_ADDR_RES_HEAT_RANGE_ADDR, &temp_var, 1, dev);
 784:D:\mcu\design-mpu\source\ejemplos\BME680\bme680.c **** 
 785:D:\mcu\design-mpu\source\ejemplos\BME680\bme680.c **** 			dev->calib.res_heat_range = ((temp_var & BME680_RHRANGE_MSK) / 16);
 786:D:\mcu\design-mpu\source\ejemplos\BME680\bme680.c **** 			if (rslt == BME680_OK) {
 787:D:\mcu\design-mpu\source\ejemplos\BME680\bme680.c **** 				rslt = bme680_get_regs(BME680_ADDR_RES_HEAT_VAL_ADDR, &temp_var, 1, dev);
 788:D:\mcu\design-mpu\source\ejemplos\BME680\bme680.c **** 
 789:D:\mcu\design-mpu\source\ejemplos\BME680\bme680.c **** 				dev->calib.res_heat_val = (int8_t) temp_var;
 790:D:\mcu\design-mpu\source\ejemplos\BME680\bme680.c **** 				if (rslt == BME680_OK)
 791:D:\mcu\design-mpu\source\ejemplos\BME680\bme680.c **** 					rslt = bme680_get_regs(BME680_ADDR_RANGE_SW_ERR_ADDR, &temp_var, 1, dev);
 792:D:\mcu\design-mpu\source\ejemplos\BME680\bme680.c **** 			}
 793:D:\mcu\design-mpu\source\ejemplos\BME680\bme680.c **** 		}
 794:D:\mcu\design-mpu\source\ejemplos\BME680\bme680.c **** 		dev->calib.range_sw_err = ((int8_t) temp_var & (int8_t) BME680_RSERROR_MSK) / 16;
 795:D:\mcu\design-mpu\source\ejemplos\BME680\bme680.c **** 	}
 796:D:\mcu\design-mpu\source\ejemplos\BME680\bme680.c **** 
 797:D:\mcu\design-mpu\source\ejemplos\BME680\bme680.c **** 	return rslt;
 798:D:\mcu\design-mpu\source\ejemplos\BME680\bme680.c **** }
 799:D:\mcu\design-mpu\source\ejemplos\BME680\bme680.c **** 
 800:D:\mcu\design-mpu\source\ejemplos\BME680\bme680.c **** /*!
 801:D:\mcu\design-mpu\source\ejemplos\BME680\bme680.c ****  * @brief This internal API is used to set the gas configuration of the sensor.
 802:D:\mcu\design-mpu\source\ejemplos\BME680\bme680.c ****  */
 803:D:\mcu\design-mpu\source\ejemplos\BME680\bme680.c **** static int8_t set_gas_config(struct bme680_dev *dev)
 804:D:\mcu\design-mpu\source\ejemplos\BME680\bme680.c **** {
 805:D:\mcu\design-mpu\source\ejemplos\BME680\bme680.c **** 	int8_t rslt;
 806:D:\mcu\design-mpu\source\ejemplos\BME680\bme680.c **** 
 807:D:\mcu\design-mpu\source\ejemplos\BME680\bme680.c **** 	/* Check for null pointer in the device structure*/
 808:D:\mcu\design-mpu\source\ejemplos\BME680\bme680.c **** 	rslt = null_ptr_check(dev);
 809:D:\mcu\design-mpu\source\ejemplos\BME680\bme680.c **** 	if (rslt == BME680_OK) {
 810:D:\mcu\design-mpu\source\ejemplos\BME680\bme680.c **** 
 811:D:\mcu\design-mpu\source\ejemplos\BME680\bme680.c **** 		uint8_t reg_addr[2] = {0};
 812:D:\mcu\design-mpu\source\ejemplos\BME680\bme680.c **** 		uint8_t reg_data[2] = {0};
 813:D:\mcu\design-mpu\source\ejemplos\BME680\bme680.c **** 
 814:D:\mcu\design-mpu\source\ejemplos\BME680\bme680.c **** 		if (dev->power_mode == BME680_FORCED_MODE) {
 815:D:\mcu\design-mpu\source\ejemplos\BME680\bme680.c **** 			reg_addr[0] = BME680_RES_HEAT0_ADDR;
 816:D:\mcu\design-mpu\source\ejemplos\BME680\bme680.c **** 			reg_data[0] = calc_heater_res(dev->gas_sett.heatr_temp, dev);
 817:D:\mcu\design-mpu\source\ejemplos\BME680\bme680.c **** 			reg_addr[1] = BME680_GAS_WAIT0_ADDR;
 818:D:\mcu\design-mpu\source\ejemplos\BME680\bme680.c **** 			reg_data[1] = calc_heater_dur(dev->gas_sett.heatr_dur);
 819:D:\mcu\design-mpu\source\ejemplos\BME680\bme680.c **** 			dev->gas_sett.nb_conv = 0;
 820:D:\mcu\design-mpu\source\ejemplos\BME680\bme680.c **** 		} else {
 821:D:\mcu\design-mpu\source\ejemplos\BME680\bme680.c **** 			rslt = BME680_W_DEFINE_PWR_MODE;
 822:D:\mcu\design-mpu\source\ejemplos\BME680\bme680.c **** 		}
 823:D:\mcu\design-mpu\source\ejemplos\BME680\bme680.c **** 		if (rslt == BME680_OK)
 824:D:\mcu\design-mpu\source\ejemplos\BME680\bme680.c **** 			rslt = bme680_set_regs(reg_addr, reg_data, 2, dev);
 825:D:\mcu\design-mpu\source\ejemplos\BME680\bme680.c **** 	}
 826:D:\mcu\design-mpu\source\ejemplos\BME680\bme680.c **** 
 827:D:\mcu\design-mpu\source\ejemplos\BME680\bme680.c **** 	return rslt;
 828:D:\mcu\design-mpu\source\ejemplos\BME680\bme680.c **** }
 829:D:\mcu\design-mpu\source\ejemplos\BME680\bme680.c **** 
ARM GAS  C:\Users\adria\AppData\Local\Temp\ccQ3AXqi.s 			page 16


 830:D:\mcu\design-mpu\source\ejemplos\BME680\bme680.c **** /*!
 831:D:\mcu\design-mpu\source\ejemplos\BME680\bme680.c ****  * @brief This internal API is used to get the gas configuration of the sensor.
 832:D:\mcu\design-mpu\source\ejemplos\BME680\bme680.c ****  * @note heatr_temp and heatr_dur values are currently register data
 833:D:\mcu\design-mpu\source\ejemplos\BME680\bme680.c ****  * and not the actual values set
 834:D:\mcu\design-mpu\source\ejemplos\BME680\bme680.c ****  */
 835:D:\mcu\design-mpu\source\ejemplos\BME680\bme680.c **** static int8_t get_gas_config(struct bme680_dev *dev)
 836:D:\mcu\design-mpu\source\ejemplos\BME680\bme680.c **** {
 837:D:\mcu\design-mpu\source\ejemplos\BME680\bme680.c **** 	int8_t rslt;
 838:D:\mcu\design-mpu\source\ejemplos\BME680\bme680.c **** 	/* starting address of the register array for burst read*/
 839:D:\mcu\design-mpu\source\ejemplos\BME680\bme680.c **** 	uint8_t reg_addr1 = BME680_ADDR_SENS_CONF_START;
 840:D:\mcu\design-mpu\source\ejemplos\BME680\bme680.c **** 	uint8_t reg_addr2 = BME680_ADDR_GAS_CONF_START;
 841:D:\mcu\design-mpu\source\ejemplos\BME680\bme680.c **** 	uint8_t reg_data = 0;
 842:D:\mcu\design-mpu\source\ejemplos\BME680\bme680.c **** 
 843:D:\mcu\design-mpu\source\ejemplos\BME680\bme680.c **** 	/* Check for null pointer in the device structure*/
 844:D:\mcu\design-mpu\source\ejemplos\BME680\bme680.c **** 	rslt = null_ptr_check(dev);
 845:D:\mcu\design-mpu\source\ejemplos\BME680\bme680.c **** 	if (rslt == BME680_OK) {
 846:D:\mcu\design-mpu\source\ejemplos\BME680\bme680.c **** 		if (BME680_SPI_INTF == dev->intf) {
 847:D:\mcu\design-mpu\source\ejemplos\BME680\bme680.c **** 			/* Memory page switch the SPI address*/
 848:D:\mcu\design-mpu\source\ejemplos\BME680\bme680.c **** 			rslt = set_mem_page(reg_addr1, dev);
 849:D:\mcu\design-mpu\source\ejemplos\BME680\bme680.c **** 		}
 850:D:\mcu\design-mpu\source\ejemplos\BME680\bme680.c **** 
 851:D:\mcu\design-mpu\source\ejemplos\BME680\bme680.c **** 		if (rslt == BME680_OK) {
 852:D:\mcu\design-mpu\source\ejemplos\BME680\bme680.c **** 			rslt = bme680_get_regs(reg_addr1, &reg_data, 1, dev);
 853:D:\mcu\design-mpu\source\ejemplos\BME680\bme680.c **** 			if (rslt == BME680_OK) {
 854:D:\mcu\design-mpu\source\ejemplos\BME680\bme680.c **** 				dev->gas_sett.heatr_temp = reg_data;
 855:D:\mcu\design-mpu\source\ejemplos\BME680\bme680.c **** 				rslt = bme680_get_regs(reg_addr2, &reg_data, 1, dev);
 856:D:\mcu\design-mpu\source\ejemplos\BME680\bme680.c **** 				if (rslt == BME680_OK) {
 857:D:\mcu\design-mpu\source\ejemplos\BME680\bme680.c **** 					/* Heating duration register value */
 858:D:\mcu\design-mpu\source\ejemplos\BME680\bme680.c **** 					dev->gas_sett.heatr_dur = reg_data;
 859:D:\mcu\design-mpu\source\ejemplos\BME680\bme680.c **** 				}
 860:D:\mcu\design-mpu\source\ejemplos\BME680\bme680.c **** 			}
 861:D:\mcu\design-mpu\source\ejemplos\BME680\bme680.c **** 		}
 862:D:\mcu\design-mpu\source\ejemplos\BME680\bme680.c **** 	}
 863:D:\mcu\design-mpu\source\ejemplos\BME680\bme680.c **** 
 864:D:\mcu\design-mpu\source\ejemplos\BME680\bme680.c **** 	return rslt;
 865:D:\mcu\design-mpu\source\ejemplos\BME680\bme680.c **** }
 866:D:\mcu\design-mpu\source\ejemplos\BME680\bme680.c **** 
 867:D:\mcu\design-mpu\source\ejemplos\BME680\bme680.c **** #ifndef BME680_FLOAT_POINT_COMPENSATION
 868:D:\mcu\design-mpu\source\ejemplos\BME680\bme680.c **** 
 869:D:\mcu\design-mpu\source\ejemplos\BME680\bme680.c **** /*!
 870:D:\mcu\design-mpu\source\ejemplos\BME680\bme680.c ****  * @brief This internal API is used to calculate the temperature value.
 871:D:\mcu\design-mpu\source\ejemplos\BME680\bme680.c ****  */
 872:D:\mcu\design-mpu\source\ejemplos\BME680\bme680.c **** static int16_t calc_temperature(uint32_t temp_adc, struct bme680_dev *dev)
 873:D:\mcu\design-mpu\source\ejemplos\BME680\bme680.c **** {
  27              		.loc 1 873 0
  28              		.cfi_startproc
  29              		@ args = 0, pretend = 0, frame = 0
  30              		@ frame_needed = 0, uses_anonymous_args = 0
  31              		@ link register save eliminated.
  32              	.LVL0:
  33 0000 F0B4     		push	{r4, r5, r6, r7}
  34              		.cfi_def_cfa_offset 16
  35              		.cfi_offset 4, -16
  36              		.cfi_offset 5, -12
  37              		.cfi_offset 6, -8
  38              		.cfi_offset 7, -4
 874:D:\mcu\design-mpu\source\ejemplos\BME680\bme680.c **** 	int64_t var1;
ARM GAS  C:\Users\adria\AppData\Local\Temp\ccQ3AXqi.s 			page 17


 875:D:\mcu\design-mpu\source\ejemplos\BME680\bme680.c **** 	int64_t var2;
 876:D:\mcu\design-mpu\source\ejemplos\BME680\bme680.c **** 	int64_t var3;
 877:D:\mcu\design-mpu\source\ejemplos\BME680\bme680.c **** 	int16_t calc_temp;
 878:D:\mcu\design-mpu\source\ejemplos\BME680\bme680.c **** 
 879:D:\mcu\design-mpu\source\ejemplos\BME680\bme680.c **** 	var1 = ((int32_t) temp_adc >> 3) - ((int32_t) dev->calib.par_t1 << 1);
  39              		.loc 1 879 0
  40 0002 CC8A     		ldrh	r4, [r1, #22]
  41 0004 6400     		lsls	r4, r4, #1
  42 0006 C4EBE000 		rsb	r0, r4, r0, asr #3
  43              	.LVL1:
  44 000a 0246     		mov	r2, r0
  45 000c C317     		asrs	r3, r0, #31
  46              	.LVL2:
 880:D:\mcu\design-mpu\source\ejemplos\BME680\bme680.c **** 	var2 = (var1 * (int32_t) dev->calib.par_t2) >> 11;
  47              		.loc 1 880 0
  48 000e B1F91840 		ldrsh	r4, [r1, #24]
  49 0012 E517     		asrs	r5, r4, #31
  50 0014 04FB03F6 		mul	r6, r4, r3
  51 0018 00FB0566 		mla	r6, r0, r5, r6
  52 001c A4FB0045 		umull	r4, r5, r4, r0
  53 0020 3544     		add	r5, r5, r6
  54 0022 E00A     		lsrs	r0, r4, #11
  55 0024 40EA4550 		orr	r0, r0, r5, lsl #21
  56              	.LVL3:
 881:D:\mcu\design-mpu\source\ejemplos\BME680\bme680.c **** 	var3 = ((var1 >> 1) * (var1 >> 1)) >> 12;
  57              		.loc 1 881 0
  58 0028 5B10     		movs	r3, r3, asr #1
  59 002a 4FEA3202 		mov	r2, r2, rrx
  60              	.LVL4:
  61 002e 02FB03F4 		mul	r4, r2, r3
  62              	.LVL5:
  63 0032 A2FB0223 		umull	r2, r3, r2, r2
  64 0036 03EB4403 		add	r3, r3, r4, lsl #1
  65 003a 140B     		lsrs	r4, r2, #12
  66 003c 44EA0354 		orr	r4, r4, r3, lsl #20
  67 0040 1A13     		asrs	r2, r3, #12
  68              	.LVL6:
 882:D:\mcu\design-mpu\source\ejemplos\BME680\bme680.c **** 	var3 = ((var3) * ((int32_t) dev->calib.par_t3 << 4)) >> 14;
  69              		.loc 1 882 0
  70 0042 91F91A30 		ldrsb	r3, [r1, #26]
  71 0046 1B01     		lsls	r3, r3, #4
  72 0048 DF17     		asrs	r7, r3, #31
  73 004a 03FB02F2 		mul	r2, r3, r2
  74              	.LVL7:
  75 004e 04FB0722 		mla	r2, r4, r7, r2
  76 0052 A3FB0445 		umull	r4, r5, r3, r4
  77 0056 1544     		add	r5, r5, r2
  78 0058 A30B     		lsrs	r3, r4, #14
  79 005a 43EA8543 		orr	r3, r3, r5, lsl #18
  80              	.LVL8:
 883:D:\mcu\design-mpu\source\ejemplos\BME680\bme680.c **** 	dev->calib.t_fine = (int32_t) (var2 + var3);
  81              		.loc 1 883 0
  82 005e 1844     		add	r0, r0, r3
  83              	.LVL9:
  84 0060 0863     		str	r0, [r1, #48]
 884:D:\mcu\design-mpu\source\ejemplos\BME680\bme680.c **** 	calc_temp = (int16_t) (((dev->calib.t_fine * 5) + 128) >> 8);
  85              		.loc 1 884 0
ARM GAS  C:\Users\adria\AppData\Local\Temp\ccQ3AXqi.s 			page 18


  86 0062 00EB8000 		add	r0, r0, r0, lsl #2
  87 0066 8030     		adds	r0, r0, #128
  88              	.LVL10:
 885:D:\mcu\design-mpu\source\ejemplos\BME680\bme680.c **** 
 886:D:\mcu\design-mpu\source\ejemplos\BME680\bme680.c **** 	return calc_temp;
 887:D:\mcu\design-mpu\source\ejemplos\BME680\bme680.c **** }
  89              		.loc 1 887 0
  90 0068 40F30F20 		sbfx	r0, r0, #8, #16
  91              	.LVL11:
  92 006c F0BC     		pop	{r4, r5, r6, r7}
  93              		.cfi_restore 7
  94              		.cfi_restore 6
  95              		.cfi_restore 5
  96              		.cfi_restore 4
  97              		.cfi_def_cfa_offset 0
  98              	.LVL12:
  99 006e 7047     		bx	lr
 100              		.cfi_endproc
 101              	.LFE77:
 102              		.size	calc_temperature, .-calc_temperature
 103              		.section	.text.calc_pressure,"ax",%progbits
 104              		.align	2
 105              		.thumb
 106              		.thumb_func
 107              		.type	calc_pressure, %function
 108              	calc_pressure:
 109              	.LFB78:
 888:D:\mcu\design-mpu\source\ejemplos\BME680\bme680.c **** 
 889:D:\mcu\design-mpu\source\ejemplos\BME680\bme680.c **** /*!
 890:D:\mcu\design-mpu\source\ejemplos\BME680\bme680.c ****  * @brief This internal API is used to calculate the pressure value.
 891:D:\mcu\design-mpu\source\ejemplos\BME680\bme680.c ****  */
 892:D:\mcu\design-mpu\source\ejemplos\BME680\bme680.c **** static uint32_t calc_pressure(uint32_t pres_adc, const struct bme680_dev *dev)
 893:D:\mcu\design-mpu\source\ejemplos\BME680\bme680.c **** {
 110              		.loc 1 893 0
 111              		.cfi_startproc
 112              		@ args = 0, pretend = 0, frame = 0
 113              		@ frame_needed = 0, uses_anonymous_args = 0
 114              		@ link register save eliminated.
 115              	.LVL13:
 116 0000 30B4     		push	{r4, r5}
 117              		.cfi_def_cfa_offset 8
 118              		.cfi_offset 4, -8
 119              		.cfi_offset 5, -4
 894:D:\mcu\design-mpu\source\ejemplos\BME680\bme680.c **** 	int32_t var1;
 895:D:\mcu\design-mpu\source\ejemplos\BME680\bme680.c **** 	int32_t var2;
 896:D:\mcu\design-mpu\source\ejemplos\BME680\bme680.c **** 	int32_t var3;
 897:D:\mcu\design-mpu\source\ejemplos\BME680\bme680.c **** 	int32_t pressure_comp;
 898:D:\mcu\design-mpu\source\ejemplos\BME680\bme680.c **** 
 899:D:\mcu\design-mpu\source\ejemplos\BME680\bme680.c **** 	var1 = (((int32_t)dev->calib.t_fine) >> 1) - 64000;
 120              		.loc 1 899 0
 121 0002 0C6B     		ldr	r4, [r1, #48]
 122 0004 6410     		asrs	r4, r4, #1
 123 0006 A4F57A44 		sub	r4, r4, #64000
 124              	.LVL14:
 900:D:\mcu\design-mpu\source\ejemplos\BME680\bme680.c **** 	var2 = ((((var1 >> 2) * (var1 >> 2)) >> 11) *
 125              		.loc 1 900 0
 126 000a A510     		asrs	r5, r4, #2
ARM GAS  C:\Users\adria\AppData\Local\Temp\ccQ3AXqi.s 			page 19


 127 000c 05FB05F5 		mul	r5, r5, r5
 128 0010 EA12     		asrs	r2, r5, #11
 901:D:\mcu\design-mpu\source\ejemplos\BME680\bme680.c **** 		(int32_t)dev->calib.par_p6) >> 2;
 129              		.loc 1 901 0
 130 0012 91F92630 		ldrsb	r3, [r1, #38]
 900:D:\mcu\design-mpu\source\ejemplos\BME680\bme680.c **** 	var2 = ((((var1 >> 2) * (var1 >> 2)) >> 11) *
 131              		.loc 1 900 0
 132 0016 03FB02F2 		mul	r2, r3, r2
 133              	.LVL15:
 902:D:\mcu\design-mpu\source\ejemplos\BME680\bme680.c **** 	var2 = var2 + ((var1 * (int32_t)dev->calib.par_p5) << 1);
 134              		.loc 1 902 0
 135 001a B1F92430 		ldrsh	r3, [r1, #36]
 136 001e 03FB04F3 		mul	r3, r3, r4
 137 0022 5B00     		lsls	r3, r3, #1
 138 0024 03EBA203 		add	r3, r3, r2, asr #2
 139              	.LVL16:
 903:D:\mcu\design-mpu\source\ejemplos\BME680\bme680.c **** 	var2 = (var2 >> 2) + ((int32_t)dev->calib.par_p4 << 16);
 140              		.loc 1 903 0
 141 0028 B1F92220 		ldrsh	r2, [r1, #34]
 142 002c 1204     		lsls	r2, r2, #16
 143 002e 02EBA303 		add	r3, r2, r3, asr #2
 144              	.LVL17:
 904:D:\mcu\design-mpu\source\ejemplos\BME680\bme680.c **** 	var1 = (((((var1 >> 2) * (var1 >> 2)) >> 13) *
 145              		.loc 1 904 0
 146 0032 6D13     		asrs	r5, r5, #13
 905:D:\mcu\design-mpu\source\ejemplos\BME680\bme680.c **** 		((int32_t)dev->calib.par_p3 << 5)) >> 3) +
 147              		.loc 1 905 0
 148 0034 91F92020 		ldrsb	r2, [r1, #32]
 149 0038 5201     		lsls	r2, r2, #5
 904:D:\mcu\design-mpu\source\ejemplos\BME680\bme680.c **** 	var1 = (((((var1 >> 2) * (var1 >> 2)) >> 13) *
 150              		.loc 1 904 0
 151 003a 02FB05F2 		mul	r2, r2, r5
 906:D:\mcu\design-mpu\source\ejemplos\BME680\bme680.c **** 		(((int32_t)dev->calib.par_p2 * var1) >> 1);
 152              		.loc 1 906 0
 153 003e B1F91E50 		ldrsh	r5, [r1, #30]
 154 0042 05FB04F4 		mul	r4, r5, r4
 155              	.LVL18:
 156 0046 6410     		asrs	r4, r4, #1
 904:D:\mcu\design-mpu\source\ejemplos\BME680\bme680.c **** 	var1 = (((((var1 >> 2) * (var1 >> 2)) >> 13) *
 157              		.loc 1 904 0
 158 0048 04EBE202 		add	r2, r4, r2, asr #3
 159              	.LVL19:
 907:D:\mcu\design-mpu\source\ejemplos\BME680\bme680.c **** 	var1 = var1 >> 18;
 160              		.loc 1 907 0
 161 004c 9214     		asrs	r2, r2, #18
 162              	.LVL20:
 908:D:\mcu\design-mpu\source\ejemplos\BME680\bme680.c **** 	var1 = ((32768 + var1) * (int32_t)dev->calib.par_p1) >> 15;
 163              		.loc 1 908 0
 164 004e 02F50042 		add	r2, r2, #32768
 165              	.LVL21:
 166 0052 8C8B     		ldrh	r4, [r1, #28]
 167 0054 04FB02F2 		mul	r2, r4, r2
 168              	.LVL22:
 169 0058 D213     		asrs	r2, r2, #15
 170              	.LVL23:
 909:D:\mcu\design-mpu\source\ejemplos\BME680\bme680.c **** 	pressure_comp = 1048576 - pres_adc;
 171              		.loc 1 909 0
ARM GAS  C:\Users\adria\AppData\Local\Temp\ccQ3AXqi.s 			page 20


 172 005a C0F58010 		rsb	r0, r0, #1048576
 173              	.LVL24:
 910:D:\mcu\design-mpu\source\ejemplos\BME680\bme680.c **** 	pressure_comp = (int32_t)((pressure_comp - (var2 >> 12)) * ((uint32_t)3125));
 174              		.loc 1 910 0
 175 005e A0EB2333 		sub	r3, r0, r3, asr #12
 176              	.LVL25:
 177 0062 40F63544 		movw	r4, #3125
 178 0066 04FB03F0 		mul	r0, r4, r3
 179              	.LVL26:
 911:D:\mcu\design-mpu\source\ejemplos\BME680\bme680.c **** 	if (pressure_comp >= BME680_MAX_OVERFLOW_VAL)
 180              		.loc 1 911 0
 181 006a B0F1804F 		cmp	r0, #1073741824
 182 006e 03DB     		blt	.L4
 912:D:\mcu\design-mpu\source\ejemplos\BME680\bme680.c **** 		pressure_comp = ((pressure_comp / var1) << 1);
 183              		.loc 1 912 0
 184 0070 90FBF2F3 		sdiv	r3, r0, r2
 185 0074 5B00     		lsls	r3, r3, #1
 186              	.LVL27:
 187 0076 02E0     		b	.L5
 188              	.LVL28:
 189              	.L4:
 913:D:\mcu\design-mpu\source\ejemplos\BME680\bme680.c **** 	else
 914:D:\mcu\design-mpu\source\ejemplos\BME680\bme680.c **** 		pressure_comp = ((pressure_comp << 1) / var1);
 190              		.loc 1 914 0
 191 0078 4000     		lsls	r0, r0, #1
 192              	.LVL29:
 193 007a 90FBF2F3 		sdiv	r3, r0, r2
 194              	.LVL30:
 195              	.L5:
 915:D:\mcu\design-mpu\source\ejemplos\BME680\bme680.c **** 	var1 = ((int32_t)dev->calib.par_p9 * (int32_t)(((pressure_comp >> 3) *
 196              		.loc 1 915 0
 197 007e B1F92A20 		ldrsh	r2, [r1, #42]
 198              	.LVL31:
 916:D:\mcu\design-mpu\source\ejemplos\BME680\bme680.c **** 		(pressure_comp >> 3)) >> 13)) >> 12;
 199              		.loc 1 916 0
 200 0082 DC10     		asrs	r4, r3, #3
 915:D:\mcu\design-mpu\source\ejemplos\BME680\bme680.c **** 	var1 = ((int32_t)dev->calib.par_p9 * (int32_t)(((pressure_comp >> 3) *
 201              		.loc 1 915 0
 202 0084 04FB04F4 		mul	r4, r4, r4
 203              		.loc 1 916 0
 204 0088 6413     		asrs	r4, r4, #13
 915:D:\mcu\design-mpu\source\ejemplos\BME680\bme680.c **** 	var1 = ((int32_t)dev->calib.par_p9 * (int32_t)(((pressure_comp >> 3) *
 205              		.loc 1 915 0
 206 008a 04FB02F5 		mul	r5, r4, r2
 207              	.LVL32:
 917:D:\mcu\design-mpu\source\ejemplos\BME680\bme680.c **** 	var2 = ((int32_t)(pressure_comp >> 2) *
 208              		.loc 1 917 0
 209 008e 9A10     		asrs	r2, r3, #2
 918:D:\mcu\design-mpu\source\ejemplos\BME680\bme680.c **** 		(int32_t)dev->calib.par_p8) >> 13;
 210              		.loc 1 918 0
 211 0090 B1F92840 		ldrsh	r4, [r1, #40]
 917:D:\mcu\design-mpu\source\ejemplos\BME680\bme680.c **** 	var2 = ((int32_t)(pressure_comp >> 2) *
 212              		.loc 1 917 0
 213 0094 04FB02F2 		mul	r2, r4, r2
 214 0098 5213     		asrs	r2, r2, #13
 215              	.LVL33:
 919:D:\mcu\design-mpu\source\ejemplos\BME680\bme680.c **** 	var3 = ((int32_t)(pressure_comp >> 8) * (int32_t)(pressure_comp >> 8) *
ARM GAS  C:\Users\adria\AppData\Local\Temp\ccQ3AXqi.s 			page 21


 216              		.loc 1 919 0
 217 009a 1C12     		asrs	r4, r3, #8
 218 009c 04FB04F0 		mul	r0, r4, r4
 219 00a0 00FB04F0 		mul	r0, r0, r4
 920:D:\mcu\design-mpu\source\ejemplos\BME680\bme680.c **** 		(int32_t)(pressure_comp >> 8) *
 921:D:\mcu\design-mpu\source\ejemplos\BME680\bme680.c **** 		(int32_t)dev->calib.par_p10) >> 17;
 220              		.loc 1 921 0
 221 00a4 91F82C40 		ldrb	r4, [r1, #44]	@ zero_extendqisi2
 920:D:\mcu\design-mpu\source\ejemplos\BME680\bme680.c **** 		(int32_t)(pressure_comp >> 8) *
 222              		.loc 1 920 0
 223 00a8 04FB00F0 		mul	r0, r4, r0
 224              	.LVL34:
 922:D:\mcu\design-mpu\source\ejemplos\BME680\bme680.c **** 
 923:D:\mcu\design-mpu\source\ejemplos\BME680\bme680.c **** 	pressure_comp = (int32_t)(pressure_comp) + ((var1 + var2 + var3 +
 225              		.loc 1 923 0
 226 00ac 02EB2532 		add	r2, r2, r5, asr #12
 227              	.LVL35:
 228 00b0 02EB6040 		add	r0, r2, r0, asr #17
 229              	.LVL36:
 924:D:\mcu\design-mpu\source\ejemplos\BME680\bme680.c **** 		((int32_t)dev->calib.par_p7 << 7)) >> 4);
 230              		.loc 1 924 0
 231 00b4 91F92720 		ldrsb	r2, [r1, #39]
 923:D:\mcu\design-mpu\source\ejemplos\BME680\bme680.c **** 		((int32_t)dev->calib.par_p7 << 7)) >> 4);
 232              		.loc 1 923 0
 233 00b8 00EBC210 		add	r0, r0, r2, lsl #7
 234              	.LVL37:
 925:D:\mcu\design-mpu\source\ejemplos\BME680\bme680.c **** 
 926:D:\mcu\design-mpu\source\ejemplos\BME680\bme680.c **** 	return (uint32_t)pressure_comp;
 927:D:\mcu\design-mpu\source\ejemplos\BME680\bme680.c **** 
 928:D:\mcu\design-mpu\source\ejemplos\BME680\bme680.c **** }
 235              		.loc 1 928 0
 236 00bc 03EB2010 		add	r0, r3, r0, asr #4
 237              	.LVL38:
 238 00c0 30BC     		pop	{r4, r5}
 239              		.cfi_restore 5
 240              		.cfi_restore 4
 241              		.cfi_def_cfa_offset 0
 242              	.LVL39:
 243 00c2 7047     		bx	lr
 244              		.cfi_endproc
 245              	.LFE78:
 246              		.size	calc_pressure, .-calc_pressure
 247              		.section	.text.calc_humidity,"ax",%progbits
 248              		.align	2
 249              		.thumb
 250              		.thumb_func
 251              		.type	calc_humidity, %function
 252              	calc_humidity:
 253              	.LFB79:
 929:D:\mcu\design-mpu\source\ejemplos\BME680\bme680.c **** 
 930:D:\mcu\design-mpu\source\ejemplos\BME680\bme680.c **** /*!
 931:D:\mcu\design-mpu\source\ejemplos\BME680\bme680.c ****  * @brief This internal API is used to calculate the humidity value.
 932:D:\mcu\design-mpu\source\ejemplos\BME680\bme680.c ****  */
 933:D:\mcu\design-mpu\source\ejemplos\BME680\bme680.c **** static uint32_t calc_humidity(uint16_t hum_adc, const struct bme680_dev *dev)
 934:D:\mcu\design-mpu\source\ejemplos\BME680\bme680.c **** {
 254              		.loc 1 934 0
 255              		.cfi_startproc
ARM GAS  C:\Users\adria\AppData\Local\Temp\ccQ3AXqi.s 			page 22


 256              		@ args = 0, pretend = 0, frame = 0
 257              		@ frame_needed = 0, uses_anonymous_args = 0
 258              	.LVL40:
 259 0000 F0B5     		push	{r4, r5, r6, r7, lr}
 260              		.cfi_def_cfa_offset 20
 261              		.cfi_offset 4, -20
 262              		.cfi_offset 5, -16
 263              		.cfi_offset 6, -12
 264              		.cfi_offset 7, -8
 265              		.cfi_offset 14, -4
 935:D:\mcu\design-mpu\source\ejemplos\BME680\bme680.c **** 	int32_t var1;
 936:D:\mcu\design-mpu\source\ejemplos\BME680\bme680.c **** 	int32_t var2;
 937:D:\mcu\design-mpu\source\ejemplos\BME680\bme680.c **** 	int32_t var3;
 938:D:\mcu\design-mpu\source\ejemplos\BME680\bme680.c **** 	int32_t var4;
 939:D:\mcu\design-mpu\source\ejemplos\BME680\bme680.c **** 	int32_t var5;
 940:D:\mcu\design-mpu\source\ejemplos\BME680\bme680.c **** 	int32_t var6;
 941:D:\mcu\design-mpu\source\ejemplos\BME680\bme680.c **** 	int32_t temp_scaled;
 942:D:\mcu\design-mpu\source\ejemplos\BME680\bme680.c **** 	int32_t calc_hum;
 943:D:\mcu\design-mpu\source\ejemplos\BME680\bme680.c **** 
 944:D:\mcu\design-mpu\source\ejemplos\BME680\bme680.c **** 	temp_scaled = (((int32_t) dev->calib.t_fine * 5) + 128) >> 8;
 266              		.loc 1 944 0
 267 0002 0C6B     		ldr	r4, [r1, #48]
 268 0004 04EB8404 		add	r4, r4, r4, lsl #2
 269 0008 8034     		adds	r4, r4, #128
 270 000a 2412     		asrs	r4, r4, #8
 271              	.LVL41:
 945:D:\mcu\design-mpu\source\ejemplos\BME680\bme680.c **** 	var1 = (int32_t) (hum_adc - ((int32_t) ((int32_t) dev->calib.par_h1 * 16)))
 272              		.loc 1 945 0
 273 000c 0B89     		ldrh	r3, [r1, #8]
 274 000e A0EB0310 		sub	r0, r0, r3, lsl #4
 275              	.LVL42:
 946:D:\mcu\design-mpu\source\ejemplos\BME680\bme680.c **** 		- (((temp_scaled * (int32_t) dev->calib.par_h3) / ((int32_t) 100)) >> 1);
 276              		.loc 1 946 0
 277 0012 91F90C30 		ldrsb	r3, [r1, #12]
 278 0016 03FB04F3 		mul	r3, r3, r4
 279 001a 284D     		ldr	r5, .L12
 280 001c 85FB0362 		smull	r6, r2, r5, r3
 281 0020 DB17     		asrs	r3, r3, #31
 282 0022 C3EB6213 		rsb	r3, r3, r2, asr #5
 945:D:\mcu\design-mpu\source\ejemplos\BME680\bme680.c **** 	var1 = (int32_t) (hum_adc - ((int32_t) ((int32_t) dev->calib.par_h1 * 16)))
 283              		.loc 1 945 0
 284 0026 A0EB6300 		sub	r0, r0, r3, asr #1
 285              	.LVL43:
 947:D:\mcu\design-mpu\source\ejemplos\BME680\bme680.c **** 	var2 = ((int32_t) dev->calib.par_h2
 286              		.loc 1 947 0
 287 002a 4E89     		ldrh	r6, [r1, #10]
 948:D:\mcu\design-mpu\source\ejemplos\BME680\bme680.c **** 		* (((temp_scaled * (int32_t) dev->calib.par_h4) / ((int32_t) 100))
 288              		.loc 1 948 0
 289 002c 91F90D20 		ldrsb	r2, [r1, #13]
 290 0030 02FB04F2 		mul	r2, r2, r4
 291 0034 85FB0273 		smull	r7, r3, r5, r2
 292 0038 D217     		asrs	r2, r2, #31
 293 003a C2EB6317 		rsb	r7, r2, r3, asr #5
 949:D:\mcu\design-mpu\source\ejemplos\BME680\bme680.c **** 			+ (((temp_scaled * ((temp_scaled * (int32_t) dev->calib.par_h5) / ((int32_t) 100))) >> 6)
 294              		.loc 1 949 0
 295 003e 91F90E20 		ldrsb	r2, [r1, #14]
 296 0042 02FB04F2 		mul	r2, r2, r4
ARM GAS  C:\Users\adria\AppData\Local\Temp\ccQ3AXqi.s 			page 23


 297 0046 85FB02E3 		smull	lr, r3, r5, r2
 298 004a D217     		asrs	r2, r2, #31
 299 004c C2EB6312 		rsb	r2, r2, r3, asr #5
 300 0050 02FB04F3 		mul	r3, r2, r4
 301 0054 9A11     		asrs	r2, r3, #6
 950:D:\mcu\design-mpu\source\ejemplos\BME680\bme680.c **** 				/ ((int32_t) 100)) + (int32_t) (1 << 14))) >> 10;
 302              		.loc 1 950 0
 303 0056 85FB022E 		smull	r2, lr, r5, r2
 304 005a DA17     		asrs	r2, r3, #31
 305 005c C2EB6E12 		rsb	r2, r2, lr, asr #5
 949:D:\mcu\design-mpu\source\ejemplos\BME680\bme680.c **** 			+ (((temp_scaled * ((temp_scaled * (int32_t) dev->calib.par_h5) / ((int32_t) 100))) >> 6)
 306              		.loc 1 949 0
 307 0060 BB18     		adds	r3, r7, r2
 308              		.loc 1 950 0
 309 0062 03F58043 		add	r3, r3, #16384
 948:D:\mcu\design-mpu\source\ejemplos\BME680\bme680.c **** 		* (((temp_scaled * (int32_t) dev->calib.par_h4) / ((int32_t) 100))
 310              		.loc 1 948 0
 311 0066 03FB06F3 		mul	r3, r3, r6
 947:D:\mcu\design-mpu\source\ejemplos\BME680\bme680.c **** 		* (((temp_scaled * (int32_t) dev->calib.par_h4) / ((int32_t) 100))
 312              		.loc 1 947 0
 313 006a 9B12     		asrs	r3, r3, #10
 314              	.LVL44:
 951:D:\mcu\design-mpu\source\ejemplos\BME680\bme680.c **** 	var3 = var1 * var2;
 315              		.loc 1 951 0
 316 006c 03FB00F0 		mul	r0, r3, r0
 317              	.LVL45:
 952:D:\mcu\design-mpu\source\ejemplos\BME680\bme680.c **** 	var4 = (int32_t) dev->calib.par_h6 << 7;
 318              		.loc 1 952 0
 319 0070 CA7B     		ldrb	r2, [r1, #15]	@ zero_extendqisi2
 320              	.LVL46:
 953:D:\mcu\design-mpu\source\ejemplos\BME680\bme680.c **** 	var4 = ((var4) + ((temp_scaled * (int32_t) dev->calib.par_h7) / ((int32_t) 100))) >> 4;
 321              		.loc 1 953 0
 322 0072 91F91030 		ldrsb	r3, [r1, #16]
 323              	.LVL47:
 324 0076 03FB04F4 		mul	r4, r3, r4
 325              	.LVL48:
 326 007a 85FB0435 		smull	r3, r5, r5, r4
 327              	.LVL49:
 328 007e E317     		asrs	r3, r4, #31
 329 0080 C3EB6514 		rsb	r4, r3, r5, asr #5
 330 0084 04EBC214 		add	r4, r4, r2, lsl #7
 331 0088 2411     		asrs	r4, r4, #4
 332              	.LVL50:
 954:D:\mcu\design-mpu\source\ejemplos\BME680\bme680.c **** 	var5 = ((var3 >> 14) * (var3 >> 14)) >> 10;
 333              		.loc 1 954 0
 334 008a 8313     		asrs	r3, r0, #14
 335 008c 03FB03F3 		mul	r3, r3, r3
 336 0090 9B12     		asrs	r3, r3, #10
 337              	.LVL51:
 955:D:\mcu\design-mpu\source\ejemplos\BME680\bme680.c **** 	var6 = (var4 * var5) >> 1;
 338              		.loc 1 955 0
 339 0092 03FB04F4 		mul	r4, r3, r4
 340              	.LVL52:
 956:D:\mcu\design-mpu\source\ejemplos\BME680\bme680.c **** 	calc_hum = (((var3 + var6) >> 10) * ((int32_t) 1000)) >> 12;
 341              		.loc 1 956 0
 342 0096 00EB6400 		add	r0, r0, r4, asr #1
 343              	.LVL53:
ARM GAS  C:\Users\adria\AppData\Local\Temp\ccQ3AXqi.s 			page 24


 344 009a 8012     		asrs	r0, r0, #10
 345 009c 4FF47A72 		mov	r2, #1000
 346              	.LVL54:
 347 00a0 02FB00F0 		mul	r0, r2, r0
 348 00a4 0013     		asrs	r0, r0, #12
 349              	.LVL55:
 957:D:\mcu\design-mpu\source\ejemplos\BME680\bme680.c **** 
 958:D:\mcu\design-mpu\source\ejemplos\BME680\bme680.c **** 	if (calc_hum > 100000) /* Cap at 100%rH */
 350              		.loc 1 958 0
 351 00a6 064B     		ldr	r3, .L12+4
 352              	.LVL56:
 353 00a8 9842     		cmp	r0, r3
 354 00aa 02DC     		bgt	.L9
 959:D:\mcu\design-mpu\source\ejemplos\BME680\bme680.c **** 		calc_hum = 100000;
 960:D:\mcu\design-mpu\source\ejemplos\BME680\bme680.c **** 	else if (calc_hum < 0)
 355              		.loc 1 960 0
 356 00ac 0028     		cmp	r0, #0
 357 00ae 03DA     		bge	.L8
 358 00b0 01E0     		b	.L10
 359              	.L9:
 959:D:\mcu\design-mpu\source\ejemplos\BME680\bme680.c **** 		calc_hum = 100000;
 360              		.loc 1 959 0
 361 00b2 0348     		ldr	r0, .L12+4
 362              	.LVL57:
 363 00b4 F0BD     		pop	{r4, r5, r6, r7, pc}
 364              	.LVL58:
 365              	.L10:
 961:D:\mcu\design-mpu\source\ejemplos\BME680\bme680.c **** 		calc_hum = 0;
 366              		.loc 1 961 0
 367 00b6 0020     		movs	r0, #0
 368              	.LVL59:
 369              	.L8:
 962:D:\mcu\design-mpu\source\ejemplos\BME680\bme680.c **** 
 963:D:\mcu\design-mpu\source\ejemplos\BME680\bme680.c **** 	return (uint32_t) calc_hum;
 964:D:\mcu\design-mpu\source\ejemplos\BME680\bme680.c **** }
 370              		.loc 1 964 0
 371 00b8 F0BD     		pop	{r4, r5, r6, r7, pc}
 372              	.LVL60:
 373              	.L13:
 374 00ba 00BF     		.align	2
 375              	.L12:
 376 00bc 1F85EB51 		.word	1374389535
 377 00c0 A0860100 		.word	100000
 378              		.cfi_endproc
 379              	.LFE79:
 380              		.size	calc_humidity, .-calc_humidity
 381              		.global	__aeabi_ldivmod
 382              		.section	.text.calc_gas_resistance,"ax",%progbits
 383              		.align	2
 384              		.thumb
 385              		.thumb_func
 386              		.type	calc_gas_resistance, %function
 387              	calc_gas_resistance:
 388              	.LFB80:
 965:D:\mcu\design-mpu\source\ejemplos\BME680\bme680.c **** 
 966:D:\mcu\design-mpu\source\ejemplos\BME680\bme680.c **** /*!
 967:D:\mcu\design-mpu\source\ejemplos\BME680\bme680.c ****  * @brief This internal API is used to calculate the Gas Resistance value.
ARM GAS  C:\Users\adria\AppData\Local\Temp\ccQ3AXqi.s 			page 25


 968:D:\mcu\design-mpu\source\ejemplos\BME680\bme680.c ****  */
 969:D:\mcu\design-mpu\source\ejemplos\BME680\bme680.c **** static uint32_t calc_gas_resistance(uint16_t gas_res_adc, uint8_t gas_range, const struct bme680_de
 970:D:\mcu\design-mpu\source\ejemplos\BME680\bme680.c **** {
 389              		.loc 1 970 0
 390              		.cfi_startproc
 391              		@ args = 0, pretend = 0, frame = 128
 392              		@ frame_needed = 0, uses_anonymous_args = 0
 393              	.LVL61:
 394 0000 F0B5     		push	{r4, r5, r6, r7, lr}
 395              		.cfi_def_cfa_offset 20
 396              		.cfi_offset 4, -20
 397              		.cfi_offset 5, -16
 398              		.cfi_offset 6, -12
 399              		.cfi_offset 7, -8
 400              		.cfi_offset 14, -4
 401 0002 A1B0     		sub	sp, sp, #132
 402              		.cfi_def_cfa_offset 152
 403 0004 0746     		mov	r7, r0
 404 0006 8E46     		mov	lr, r1
 405 0008 9446     		mov	ip, r2
 971:D:\mcu\design-mpu\source\ejemplos\BME680\bme680.c **** 	int64_t var1;
 972:D:\mcu\design-mpu\source\ejemplos\BME680\bme680.c **** 	uint64_t var2;
 973:D:\mcu\design-mpu\source\ejemplos\BME680\bme680.c **** 	int64_t var3;
 974:D:\mcu\design-mpu\source\ejemplos\BME680\bme680.c **** 	uint32_t calc_gas_res;
 975:D:\mcu\design-mpu\source\ejemplos\BME680\bme680.c **** 	/**Look up table 1 for the possible gas range values */
 976:D:\mcu\design-mpu\source\ejemplos\BME680\bme680.c **** 	uint32_t lookupTable1[16] = { UINT32_C(2147483647), UINT32_C(2147483647), UINT32_C(2147483647), UI
 406              		.loc 1 976 0
 407 000a 274C     		ldr	r4, .L16
 408 000c 10AD     		add	r5, sp, #64
 409 000e 2646     		mov	r6, r4
 410 0010 0FCE     		ldmia	r6!, {r0, r1, r2, r3}
 411              	.LVL62:
 412 0012 0FC5     		stmia	r5!, {r0, r1, r2, r3}
 413 0014 0FCE     		ldmia	r6!, {r0, r1, r2, r3}
 414 0016 0FC5     		stmia	r5!, {r0, r1, r2, r3}
 415 0018 0FCE     		ldmia	r6!, {r0, r1, r2, r3}
 416 001a 0FC5     		stmia	r5!, {r0, r1, r2, r3}
 417 001c 96E80F00 		ldmia	r6, {r0, r1, r2, r3}
 418 0020 85E80F00 		stmia	r5, {r0, r1, r2, r3}
 977:D:\mcu\design-mpu\source\ejemplos\BME680\bme680.c **** 		UINT32_C(2147483647), UINT32_C(2126008810), UINT32_C(2147483647), UINT32_C(2130303777),
 978:D:\mcu\design-mpu\source\ejemplos\BME680\bme680.c **** 		UINT32_C(2147483647), UINT32_C(2147483647), UINT32_C(2143188679), UINT32_C(2136746228),
 979:D:\mcu\design-mpu\source\ejemplos\BME680\bme680.c **** 		UINT32_C(2147483647), UINT32_C(2126008810), UINT32_C(2147483647), UINT32_C(2147483647) };
 980:D:\mcu\design-mpu\source\ejemplos\BME680\bme680.c **** 	/**Look up table 2 for the possible gas range values */
 981:D:\mcu\design-mpu\source\ejemplos\BME680\bme680.c **** 	uint32_t lookupTable2[16] = { UINT32_C(4096000000), UINT32_C(2048000000), UINT32_C(1024000000), UI
 419              		.loc 1 981 0
 420 0024 6D46     		mov	r5, sp
 421 0026 4034     		adds	r4, r4, #64
 422 0028 0FCC     		ldmia	r4!, {r0, r1, r2, r3}
 423 002a 0FC5     		stmia	r5!, {r0, r1, r2, r3}
 424 002c 0FCC     		ldmia	r4!, {r0, r1, r2, r3}
 425 002e 0FC5     		stmia	r5!, {r0, r1, r2, r3}
 426 0030 0FCC     		ldmia	r4!, {r0, r1, r2, r3}
 427 0032 0FC5     		stmia	r5!, {r0, r1, r2, r3}
 428 0034 94E80F00 		ldmia	r4, {r0, r1, r2, r3}
 429 0038 85E80F00 		stmia	r5, {r0, r1, r2, r3}
 982:D:\mcu\design-mpu\source\ejemplos\BME680\bme680.c **** 		UINT32_C(255744255), UINT32_C(127110228), UINT32_C(64000000), UINT32_C(32258064), UINT32_C(160160
 983:D:\mcu\design-mpu\source\ejemplos\BME680\bme680.c **** 		UINT32_C(8000000), UINT32_C(4000000), UINT32_C(2000000), UINT32_C(1000000), UINT32_C(500000),
ARM GAS  C:\Users\adria\AppData\Local\Temp\ccQ3AXqi.s 			page 26


 984:D:\mcu\design-mpu\source\ejemplos\BME680\bme680.c **** 		UINT32_C(250000), UINT32_C(125000) };
 985:D:\mcu\design-mpu\source\ejemplos\BME680\bme680.c **** 
 986:D:\mcu\design-mpu\source\ejemplos\BME680\bme680.c **** 	var1 = (int64_t) ((1340 + (5 * (int64_t) dev->calib.range_sw_err)) *
 430              		.loc 1 986 0
 431 003c 9CF93620 		ldrsb	r2, [ip, #54]
 432 0040 D317     		asrs	r3, r2, #31
 433 0042 9C00     		lsls	r4, r3, #2
 434 0044 9000     		lsls	r0, r2, #2
 435 0046 44EA9271 		orr	r1, r4, r2, lsr #30
 436 004a 1218     		adds	r2, r2, r0
 437 004c 4B41     		adcs	r3, r3, r1
 438 004e 40F23C50 		movw	r0, #1340
 439 0052 0021     		movs	r1, #0
 440 0054 1218     		adds	r2, r2, r0
 441 0056 4B41     		adcs	r3, r3, r1
 987:D:\mcu\design-mpu\source\ejemplos\BME680\bme680.c **** 		((int64_t) lookupTable1[gas_range])) >> 16;
 442              		.loc 1 987 0
 443 0058 20A9     		add	r1, sp, #128
 444 005a 01EB8E0E 		add	lr, r1, lr, lsl #2
 445 005e 5EF8401C 		ldr	r1, [lr, #-64]
 986:D:\mcu\design-mpu\source\ejemplos\BME680\bme680.c **** 		((int64_t) lookupTable1[gas_range])) >> 16;
 446              		.loc 1 986 0
 447 0062 A2FB0145 		umull	r4, r5, r2, r1
 448 0066 01FB0355 		mla	r5, r1, r3, r5
 449 006a 200C     		lsrs	r0, r4, #16
 450 006c 40EA0540 		orr	r0, r0, r5, lsl #16
 451 0070 2914     		asrs	r1, r5, #16
 452              	.LVL63:
 988:D:\mcu\design-mpu\source\ejemplos\BME680\bme680.c **** 	var2 = (((int64_t) ((int64_t) gas_res_adc << 15) - (int64_t) (16777216)) + var1);
 453              		.loc 1 988 0
 454 0072 0023     		movs	r3, #0
 455 0074 FA03     		lsls	r2, r7, #15
 456 0076 12F17F42 		adds	r2, r2, #-16777216
 457 007a 43F1FF33 		adc	r3, r3, #-1
 458 007e 1218     		adds	r2, r2, r0
 459 0080 4B41     		adcs	r3, r3, r1
 460              	.LVL64:
 989:D:\mcu\design-mpu\source\ejemplos\BME680\bme680.c **** 	var3 = (((int64_t) lookupTable2[gas_range] * (int64_t) var1) >> 9);
 461              		.loc 1 989 0
 462 0082 5EF8806C 		ldr	r6, [lr, #-128]
 463 0086 A0FB0645 		umull	r4, r5, r0, r6
 464 008a 06FB0155 		mla	r5, r6, r1, r5
 465 008e 600A     		lsrs	r0, r4, #9
 466              	.LVL65:
 467 0090 40EAC550 		orr	r0, r0, r5, lsl #23
 468 0094 6912     		asrs	r1, r5, #9
 469              	.LVL66:
 990:D:\mcu\design-mpu\source\ejemplos\BME680\bme680.c **** 	calc_gas_res = (uint32_t) ((var3 + ((int64_t) var2 >> 1)) / (int64_t) var2);
 470              		.loc 1 990 0
 471 0096 5D10     		movs	r5, r3, asr #1
 472 0098 4FEA3204 		mov	r4, r2, rrx
 473 009c 0019     		adds	r0, r0, r4
 474              	.LVL67:
 475 009e 6941     		adcs	r1, r1, r5
 476 00a0 FFF7FEFF 		bl	__aeabi_ldivmod
 477              	.LVL68:
 991:D:\mcu\design-mpu\source\ejemplos\BME680\bme680.c **** 
ARM GAS  C:\Users\adria\AppData\Local\Temp\ccQ3AXqi.s 			page 27


 992:D:\mcu\design-mpu\source\ejemplos\BME680\bme680.c **** 	return calc_gas_res;
 993:D:\mcu\design-mpu\source\ejemplos\BME680\bme680.c **** }
 478              		.loc 1 993 0
 479 00a4 21B0     		add	sp, sp, #132
 480              		.cfi_def_cfa_offset 20
 481              		@ sp needed
 482 00a6 F0BD     		pop	{r4, r5, r6, r7, pc}
 483              	.L17:
 484              		.align	2
 485              	.L16:
 486 00a8 00000000 		.word	.LANCHOR0
 487              		.cfi_endproc
 488              	.LFE80:
 489              		.size	calc_gas_resistance, .-calc_gas_resistance
 490              		.section	.text.calc_heater_res,"ax",%progbits
 491              		.align	2
 492              		.thumb
 493              		.thumb_func
 494              		.type	calc_heater_res, %function
 495              	calc_heater_res:
 496              	.LFB81:
 994:D:\mcu\design-mpu\source\ejemplos\BME680\bme680.c **** 
 995:D:\mcu\design-mpu\source\ejemplos\BME680\bme680.c **** /*!
 996:D:\mcu\design-mpu\source\ejemplos\BME680\bme680.c ****  * @brief This internal API is used to calculate the Heat Resistance value.
 997:D:\mcu\design-mpu\source\ejemplos\BME680\bme680.c ****  */
 998:D:\mcu\design-mpu\source\ejemplos\BME680\bme680.c **** static uint8_t calc_heater_res(uint16_t temp, const struct bme680_dev *dev)
 999:D:\mcu\design-mpu\source\ejemplos\BME680\bme680.c **** {
 497              		.loc 1 999 0
 498              		.cfi_startproc
 499              		@ args = 0, pretend = 0, frame = 0
 500              		@ frame_needed = 0, uses_anonymous_args = 0
 501              	.LVL69:
 502 0000 F0B5     		push	{r4, r5, r6, r7, lr}
 503              		.cfi_def_cfa_offset 20
 504              		.cfi_offset 4, -20
 505              		.cfi_offset 5, -16
 506              		.cfi_offset 6, -12
 507              		.cfi_offset 7, -8
 508              		.cfi_offset 14, -4
1000:D:\mcu\design-mpu\source\ejemplos\BME680\bme680.c **** 	uint8_t heatr_res;
1001:D:\mcu\design-mpu\source\ejemplos\BME680\bme680.c **** 	int32_t var1;
1002:D:\mcu\design-mpu\source\ejemplos\BME680\bme680.c **** 	int32_t var2;
1003:D:\mcu\design-mpu\source\ejemplos\BME680\bme680.c **** 	int32_t var3;
1004:D:\mcu\design-mpu\source\ejemplos\BME680\bme680.c **** 	int32_t var4;
1005:D:\mcu\design-mpu\source\ejemplos\BME680\bme680.c **** 	int32_t var5;
1006:D:\mcu\design-mpu\source\ejemplos\BME680\bme680.c **** 	int32_t heatr_res_x100;
1007:D:\mcu\design-mpu\source\ejemplos\BME680\bme680.c **** 
1008:D:\mcu\design-mpu\source\ejemplos\BME680\bme680.c **** 	if (temp > 400) /* Cap temperature */
 509              		.loc 1 1008 0
 510 0002 B0F5C87F 		cmp	r0, #400
 511 0006 01D9     		bls	.L19
1009:D:\mcu\design-mpu\source\ejemplos\BME680\bme680.c **** 		temp = 400;
 512              		.loc 1 1009 0
 513 0008 4FF4C870 		mov	r0, #400
 514              	.LVL70:
 515              	.L19:
1010:D:\mcu\design-mpu\source\ejemplos\BME680\bme680.c **** 
ARM GAS  C:\Users\adria\AppData\Local\Temp\ccQ3AXqi.s 			page 28


1011:D:\mcu\design-mpu\source\ejemplos\BME680\bme680.c **** 	var1 = (((int32_t) dev->amb_temp * dev->calib.par_gh3) / 1000) * 256;
 516              		.loc 1 1011 0
 517 000c 91F90420 		ldrsb	r2, [r1, #4]
 518 0010 91F91450 		ldrsb	r5, [r1, #20]
 519 0014 02FB05F5 		mul	r5, r2, r5
 520 0018 224C     		ldr	r4, .L22
 521 001a 84FB0534 		smull	r3, r4, r4, r5
 522 001e ED17     		asrs	r5, r5, #31
 523 0020 C5EBA417 		rsb	r7, r5, r4, asr #6
 524              	.LVL71:
1012:D:\mcu\design-mpu\source\ejemplos\BME680\bme680.c **** 	var2 = (dev->calib.par_gh1 + 784) * (((((dev->calib.par_gh2 + 154009) * temp * 5) / 100) + 3276800
 525              		.loc 1 1012 0
 526 0024 91F91120 		ldrsb	r2, [r1, #17]
 527 0028 02F5447E 		add	lr, r2, #784
 528 002c B1F91250 		ldrsh	r5, [r1, #18]
 529 0030 05F51633 		add	r3, r5, #153600
 530 0034 03F29913 		addw	r3, r3, #409
 531 0038 03FB00F3 		mul	r3, r3, r0
 532 003c 03EB8303 		add	r3, r3, r3, lsl #2
 533 0040 194E     		ldr	r6, .L22+4
 534 0042 86FB0324 		smull	r2, r4, r6, r3
 535 0046 DB17     		asrs	r3, r3, #31
 536 0048 C3EB6414 		rsb	r4, r3, r4, asr #5
 537 004c 04F54814 		add	r4, r4, #3276800
 538 0050 164A     		ldr	r2, .L22+8
 539 0052 82FB0432 		smull	r3, r2, r2, r4
 540 0056 E517     		asrs	r5, r4, #31
 541 0058 C5EBA205 		rsb	r5, r5, r2, asr #2
 542 005c 05FB0EF2 		mul	r2, r5, lr
 543              	.LVL72:
1013:D:\mcu\design-mpu\source\ejemplos\BME680\bme680.c **** 	var3 = var1 + (var2 / 2);
 544              		.loc 1 1013 0
 545 0060 02EBD272 		add	r2, r2, r2, lsr #31
 546              	.LVL73:
 547 0064 5210     		asrs	r2, r2, #1
 548 0066 02EB0724 		add	r4, r2, r7, lsl #8
 549              	.LVL74:
1014:D:\mcu\design-mpu\source\ejemplos\BME680\bme680.c **** 	var4 = (var3 / (dev->calib.res_heat_range + 4));
 550              		.loc 1 1014 0
 551 006a 91F83430 		ldrb	r3, [r1, #52]	@ zero_extendqisi2
 552 006e 0433     		adds	r3, r3, #4
 553 0070 94FBF3F2 		sdiv	r2, r4, r3
 554              	.LVL75:
1015:D:\mcu\design-mpu\source\ejemplos\BME680\bme680.c **** 	var5 = (131 * dev->calib.res_heat_val) + 65536;
 555              		.loc 1 1015 0
 556 0074 91F93530 		ldrsb	r3, [r1, #53]
 557 0078 03EB8311 		add	r1, r3, r3, lsl #6
 558              	.LVL76:
 559 007c 03EB4103 		add	r3, r3, r1, lsl #1
 560 0080 03F58033 		add	r3, r3, #65536
 561              	.LVL77:
1016:D:\mcu\design-mpu\source\ejemplos\BME680\bme680.c **** 	heatr_res_x100 = (int32_t) (((var4 / var5) - 250) * 34);
 562              		.loc 1 1016 0
 563 0084 92FBF3F3 		sdiv	r3, r2, r3
 564              	.LVL78:
 565 0088 FA3B     		subs	r3, r3, #250
 566 008a 03EB0313 		add	r3, r3, r3, lsl #4
ARM GAS  C:\Users\adria\AppData\Local\Temp\ccQ3AXqi.s 			page 29


 567 008e 5800     		lsls	r0, r3, #1
 568              	.LVL79:
1017:D:\mcu\design-mpu\source\ejemplos\BME680\bme680.c **** 	heatr_res = (uint8_t) ((heatr_res_x100 + 50) / 100);
 569              		.loc 1 1017 0
 570 0090 00F13203 		add	r3, r0, #50
 571 0094 86FB0320 		smull	r2, r0, r6, r3
 572              	.LVL80:
 573 0098 DB17     		asrs	r3, r3, #31
 574              	.LVL81:
 575 009a C3EB6010 		rsb	r0, r3, r0, asr #5
 576              	.LVL82:
1018:D:\mcu\design-mpu\source\ejemplos\BME680\bme680.c **** 
1019:D:\mcu\design-mpu\source\ejemplos\BME680\bme680.c **** 	return heatr_res;
1020:D:\mcu\design-mpu\source\ejemplos\BME680\bme680.c **** }
 577              		.loc 1 1020 0
 578 009e C0B2     		uxtb	r0, r0
 579 00a0 F0BD     		pop	{r4, r5, r6, r7, pc}
 580              	.LVL83:
 581              	.L23:
 582 00a2 00BF     		.align	2
 583              	.L22:
 584 00a4 D34D6210 		.word	274877907
 585 00a8 1F85EB51 		.word	1374389535
 586 00ac 67666666 		.word	1717986919
 587              		.cfi_endproc
 588              	.LFE81:
 589              		.size	calc_heater_res, .-calc_heater_res
 590              		.section	.text.calc_heater_dur,"ax",%progbits
 591              		.align	2
 592              		.thumb
 593              		.thumb_func
 594              		.type	calc_heater_dur, %function
 595              	calc_heater_dur:
 596              	.LFB82:
1021:D:\mcu\design-mpu\source\ejemplos\BME680\bme680.c **** 
1022:D:\mcu\design-mpu\source\ejemplos\BME680\bme680.c **** #else
1023:D:\mcu\design-mpu\source\ejemplos\BME680\bme680.c **** 
1024:D:\mcu\design-mpu\source\ejemplos\BME680\bme680.c **** 
1025:D:\mcu\design-mpu\source\ejemplos\BME680\bme680.c **** /*!
1026:D:\mcu\design-mpu\source\ejemplos\BME680\bme680.c ****  * @brief This internal API is used to calculate the
1027:D:\mcu\design-mpu\source\ejemplos\BME680\bme680.c ****  * temperature value in float format
1028:D:\mcu\design-mpu\source\ejemplos\BME680\bme680.c ****  */
1029:D:\mcu\design-mpu\source\ejemplos\BME680\bme680.c **** static float calc_temperature(uint32_t temp_adc, struct bme680_dev *dev)
1030:D:\mcu\design-mpu\source\ejemplos\BME680\bme680.c **** {
1031:D:\mcu\design-mpu\source\ejemplos\BME680\bme680.c **** 	float var1 = 0;
1032:D:\mcu\design-mpu\source\ejemplos\BME680\bme680.c **** 	float var2 = 0;
1033:D:\mcu\design-mpu\source\ejemplos\BME680\bme680.c **** 	float calc_temp = 0;
1034:D:\mcu\design-mpu\source\ejemplos\BME680\bme680.c **** 
1035:D:\mcu\design-mpu\source\ejemplos\BME680\bme680.c **** 	/* calculate var1 data */
1036:D:\mcu\design-mpu\source\ejemplos\BME680\bme680.c **** 	var1  = ((((float)temp_adc / 16384.0f) - ((float)dev->calib.par_t1 / 1024.0f))
1037:D:\mcu\design-mpu\source\ejemplos\BME680\bme680.c **** 			* ((float)dev->calib.par_t2));
1038:D:\mcu\design-mpu\source\ejemplos\BME680\bme680.c **** 
1039:D:\mcu\design-mpu\source\ejemplos\BME680\bme680.c **** 	/* calculate var2 data */
1040:D:\mcu\design-mpu\source\ejemplos\BME680\bme680.c **** 	var2  = (((((float)temp_adc / 131072.0f) - ((float)dev->calib.par_t1 / 8192.0f)) *
1041:D:\mcu\design-mpu\source\ejemplos\BME680\bme680.c **** 		(((float)temp_adc / 131072.0f) - ((float)dev->calib.par_t1 / 8192.0f))) *
1042:D:\mcu\design-mpu\source\ejemplos\BME680\bme680.c **** 		((float)dev->calib.par_t3 * 16.0f));
1043:D:\mcu\design-mpu\source\ejemplos\BME680\bme680.c **** 
ARM GAS  C:\Users\adria\AppData\Local\Temp\ccQ3AXqi.s 			page 30


1044:D:\mcu\design-mpu\source\ejemplos\BME680\bme680.c **** 	/* t_fine value*/
1045:D:\mcu\design-mpu\source\ejemplos\BME680\bme680.c **** 	dev->calib.t_fine = (var1 + var2);
1046:D:\mcu\design-mpu\source\ejemplos\BME680\bme680.c **** 
1047:D:\mcu\design-mpu\source\ejemplos\BME680\bme680.c **** 	/* compensated temperature data*/
1048:D:\mcu\design-mpu\source\ejemplos\BME680\bme680.c **** 	calc_temp  = ((dev->calib.t_fine) / 5120.0f);
1049:D:\mcu\design-mpu\source\ejemplos\BME680\bme680.c **** 
1050:D:\mcu\design-mpu\source\ejemplos\BME680\bme680.c **** 	return calc_temp;
1051:D:\mcu\design-mpu\source\ejemplos\BME680\bme680.c **** }
1052:D:\mcu\design-mpu\source\ejemplos\BME680\bme680.c **** 
1053:D:\mcu\design-mpu\source\ejemplos\BME680\bme680.c **** /*!
1054:D:\mcu\design-mpu\source\ejemplos\BME680\bme680.c ****  * @brief This internal API is used to calculate the
1055:D:\mcu\design-mpu\source\ejemplos\BME680\bme680.c ****  * pressure value in float format
1056:D:\mcu\design-mpu\source\ejemplos\BME680\bme680.c ****  */
1057:D:\mcu\design-mpu\source\ejemplos\BME680\bme680.c **** static float calc_pressure(uint32_t pres_adc, const struct bme680_dev *dev)
1058:D:\mcu\design-mpu\source\ejemplos\BME680\bme680.c **** {
1059:D:\mcu\design-mpu\source\ejemplos\BME680\bme680.c **** 	float var1 = 0;
1060:D:\mcu\design-mpu\source\ejemplos\BME680\bme680.c **** 	float var2 = 0;
1061:D:\mcu\design-mpu\source\ejemplos\BME680\bme680.c **** 	float var3 = 0;
1062:D:\mcu\design-mpu\source\ejemplos\BME680\bme680.c **** 	float calc_pres = 0;
1063:D:\mcu\design-mpu\source\ejemplos\BME680\bme680.c **** 
1064:D:\mcu\design-mpu\source\ejemplos\BME680\bme680.c **** 	var1 = (((float)dev->calib.t_fine / 2.0f) - 64000.0f);
1065:D:\mcu\design-mpu\source\ejemplos\BME680\bme680.c **** 	var2 = var1 * var1 * (((float)dev->calib.par_p6) / (131072.0f));
1066:D:\mcu\design-mpu\source\ejemplos\BME680\bme680.c **** 	var2 = var2 + (var1 * ((float)dev->calib.par_p5) * 2.0f);
1067:D:\mcu\design-mpu\source\ejemplos\BME680\bme680.c **** 	var2 = (var2 / 4.0f) + (((float)dev->calib.par_p4) * 65536.0f);
1068:D:\mcu\design-mpu\source\ejemplos\BME680\bme680.c **** 	var1 = (((((float)dev->calib.par_p3 * var1 * var1) / 16384.0f)
1069:D:\mcu\design-mpu\source\ejemplos\BME680\bme680.c **** 		+ ((float)dev->calib.par_p2 * var1)) / 524288.0f);
1070:D:\mcu\design-mpu\source\ejemplos\BME680\bme680.c **** 	var1 = ((1.0f + (var1 / 32768.0f)) * ((float)dev->calib.par_p1));
1071:D:\mcu\design-mpu\source\ejemplos\BME680\bme680.c **** 	calc_pres = (1048576.0f - ((float)pres_adc));
1072:D:\mcu\design-mpu\source\ejemplos\BME680\bme680.c **** 
1073:D:\mcu\design-mpu\source\ejemplos\BME680\bme680.c **** 	/* Avoid exception caused by division by zero */
1074:D:\mcu\design-mpu\source\ejemplos\BME680\bme680.c **** 	if ((int)var1 != 0) {
1075:D:\mcu\design-mpu\source\ejemplos\BME680\bme680.c **** 		calc_pres = (((calc_pres - (var2 / 4096.0f)) * 6250.0f) / var1);
1076:D:\mcu\design-mpu\source\ejemplos\BME680\bme680.c **** 		var1 = (((float)dev->calib.par_p9) * calc_pres * calc_pres) / 2147483648.0f;
1077:D:\mcu\design-mpu\source\ejemplos\BME680\bme680.c **** 		var2 = calc_pres * (((float)dev->calib.par_p8) / 32768.0f);
1078:D:\mcu\design-mpu\source\ejemplos\BME680\bme680.c **** 		var3 = ((calc_pres / 256.0f) * (calc_pres / 256.0f) * (calc_pres / 256.0f)
1079:D:\mcu\design-mpu\source\ejemplos\BME680\bme680.c **** 			* (dev->calib.par_p10 / 131072.0f));
1080:D:\mcu\design-mpu\source\ejemplos\BME680\bme680.c **** 		calc_pres = (calc_pres + (var1 + var2 + var3 + ((float)dev->calib.par_p7 * 128.0f)) / 16.0f);
1081:D:\mcu\design-mpu\source\ejemplos\BME680\bme680.c **** 	} else {
1082:D:\mcu\design-mpu\source\ejemplos\BME680\bme680.c **** 		calc_pres = 0;
1083:D:\mcu\design-mpu\source\ejemplos\BME680\bme680.c **** 	}
1084:D:\mcu\design-mpu\source\ejemplos\BME680\bme680.c **** 
1085:D:\mcu\design-mpu\source\ejemplos\BME680\bme680.c **** 	return calc_pres;
1086:D:\mcu\design-mpu\source\ejemplos\BME680\bme680.c **** }
1087:D:\mcu\design-mpu\source\ejemplos\BME680\bme680.c **** 
1088:D:\mcu\design-mpu\source\ejemplos\BME680\bme680.c **** /*!
1089:D:\mcu\design-mpu\source\ejemplos\BME680\bme680.c ****  * @brief This internal API is used to calculate the
1090:D:\mcu\design-mpu\source\ejemplos\BME680\bme680.c ****  * humidity value in float format
1091:D:\mcu\design-mpu\source\ejemplos\BME680\bme680.c ****  */
1092:D:\mcu\design-mpu\source\ejemplos\BME680\bme680.c **** static float calc_humidity(uint16_t hum_adc, const struct bme680_dev *dev)
1093:D:\mcu\design-mpu\source\ejemplos\BME680\bme680.c **** {
1094:D:\mcu\design-mpu\source\ejemplos\BME680\bme680.c **** 	float calc_hum = 0;
1095:D:\mcu\design-mpu\source\ejemplos\BME680\bme680.c **** 	float var1 = 0;
1096:D:\mcu\design-mpu\source\ejemplos\BME680\bme680.c **** 	float var2 = 0;
1097:D:\mcu\design-mpu\source\ejemplos\BME680\bme680.c **** 	float var3 = 0;
1098:D:\mcu\design-mpu\source\ejemplos\BME680\bme680.c **** 	float var4 = 0;
1099:D:\mcu\design-mpu\source\ejemplos\BME680\bme680.c **** 	float temp_comp;
1100:D:\mcu\design-mpu\source\ejemplos\BME680\bme680.c **** 
ARM GAS  C:\Users\adria\AppData\Local\Temp\ccQ3AXqi.s 			page 31


1101:D:\mcu\design-mpu\source\ejemplos\BME680\bme680.c **** 	/* compensated temperature data*/
1102:D:\mcu\design-mpu\source\ejemplos\BME680\bme680.c **** 	temp_comp  = ((dev->calib.t_fine) / 5120.0f);
1103:D:\mcu\design-mpu\source\ejemplos\BME680\bme680.c **** 
1104:D:\mcu\design-mpu\source\ejemplos\BME680\bme680.c **** 	var1 = (float)((float)hum_adc) - (((float)dev->calib.par_h1 * 16.0f) + (((float)dev->calib.par_h3 
1105:D:\mcu\design-mpu\source\ejemplos\BME680\bme680.c **** 		* temp_comp));
1106:D:\mcu\design-mpu\source\ejemplos\BME680\bme680.c **** 
1107:D:\mcu\design-mpu\source\ejemplos\BME680\bme680.c **** 	var2 = var1 * ((float)(((float) dev->calib.par_h2 / 262144.0f) * (1.0f + (((float)dev->calib.par_h
1108:D:\mcu\design-mpu\source\ejemplos\BME680\bme680.c **** 		* temp_comp) + (((float)dev->calib.par_h5 / 1048576.0f) * temp_comp * temp_comp))));
1109:D:\mcu\design-mpu\source\ejemplos\BME680\bme680.c **** 
1110:D:\mcu\design-mpu\source\ejemplos\BME680\bme680.c **** 	var3 = (float) dev->calib.par_h6 / 16384.0f;
1111:D:\mcu\design-mpu\source\ejemplos\BME680\bme680.c **** 
1112:D:\mcu\design-mpu\source\ejemplos\BME680\bme680.c **** 	var4 = (float) dev->calib.par_h7 / 2097152.0f;
1113:D:\mcu\design-mpu\source\ejemplos\BME680\bme680.c **** 
1114:D:\mcu\design-mpu\source\ejemplos\BME680\bme680.c **** 	calc_hum = var2 + ((var3 + (var4 * temp_comp)) * var2 * var2);
1115:D:\mcu\design-mpu\source\ejemplos\BME680\bme680.c **** 
1116:D:\mcu\design-mpu\source\ejemplos\BME680\bme680.c **** 	if (calc_hum > 100.0f)
1117:D:\mcu\design-mpu\source\ejemplos\BME680\bme680.c **** 		calc_hum = 100.0f;
1118:D:\mcu\design-mpu\source\ejemplos\BME680\bme680.c **** 	else if (calc_hum < 0.0f)
1119:D:\mcu\design-mpu\source\ejemplos\BME680\bme680.c **** 		calc_hum = 0.0f;
1120:D:\mcu\design-mpu\source\ejemplos\BME680\bme680.c **** 
1121:D:\mcu\design-mpu\source\ejemplos\BME680\bme680.c **** 	return calc_hum;
1122:D:\mcu\design-mpu\source\ejemplos\BME680\bme680.c **** }
1123:D:\mcu\design-mpu\source\ejemplos\BME680\bme680.c **** 
1124:D:\mcu\design-mpu\source\ejemplos\BME680\bme680.c **** /*!
1125:D:\mcu\design-mpu\source\ejemplos\BME680\bme680.c ****  * @brief This internal API is used to calculate the
1126:D:\mcu\design-mpu\source\ejemplos\BME680\bme680.c ****  * gas resistance value in float format
1127:D:\mcu\design-mpu\source\ejemplos\BME680\bme680.c ****  */
1128:D:\mcu\design-mpu\source\ejemplos\BME680\bme680.c **** static float calc_gas_resistance(uint16_t gas_res_adc, uint8_t gas_range, const struct bme680_dev *
1129:D:\mcu\design-mpu\source\ejemplos\BME680\bme680.c **** {
1130:D:\mcu\design-mpu\source\ejemplos\BME680\bme680.c **** 	float calc_gas_res;
1131:D:\mcu\design-mpu\source\ejemplos\BME680\bme680.c **** 	float var1 = 0;
1132:D:\mcu\design-mpu\source\ejemplos\BME680\bme680.c **** 	float var2 = 0;
1133:D:\mcu\design-mpu\source\ejemplos\BME680\bme680.c **** 	float var3 = 0;
1134:D:\mcu\design-mpu\source\ejemplos\BME680\bme680.c **** 
1135:D:\mcu\design-mpu\source\ejemplos\BME680\bme680.c **** 	const float lookup_k1_range[16] = {
1136:D:\mcu\design-mpu\source\ejemplos\BME680\bme680.c **** 	0.0, 0.0, 0.0, 0.0, 0.0, -1.0, 0.0, -0.8,
1137:D:\mcu\design-mpu\source\ejemplos\BME680\bme680.c **** 	0.0, 0.0, -0.2, -0.5, 0.0, -1.0, 0.0, 0.0};
1138:D:\mcu\design-mpu\source\ejemplos\BME680\bme680.c **** 	const float lookup_k2_range[16] = {
1139:D:\mcu\design-mpu\source\ejemplos\BME680\bme680.c **** 	0.0, 0.0, 0.0, 0.0, 0.1, 0.7, 0.0, -0.8,
1140:D:\mcu\design-mpu\source\ejemplos\BME680\bme680.c **** 	-0.1, 0.0, 0.0, 0.0, 0.0, 0.0, 0.0, 0.0};
1141:D:\mcu\design-mpu\source\ejemplos\BME680\bme680.c **** 
1142:D:\mcu\design-mpu\source\ejemplos\BME680\bme680.c **** 	var1 = (1340.0f + (5.0f * dev->calib.range_sw_err));
1143:D:\mcu\design-mpu\source\ejemplos\BME680\bme680.c **** 	var2 = (var1) * (1.0f + lookup_k1_range[gas_range]/100.0f);
1144:D:\mcu\design-mpu\source\ejemplos\BME680\bme680.c **** 	var3 = 1.0f + (lookup_k2_range[gas_range]/100.0f);
1145:D:\mcu\design-mpu\source\ejemplos\BME680\bme680.c **** 
1146:D:\mcu\design-mpu\source\ejemplos\BME680\bme680.c **** 	calc_gas_res = 1.0f / (float)(var3 * (0.000000125f) * (float)(1 << gas_range) * (((((float)gas_res
1147:D:\mcu\design-mpu\source\ejemplos\BME680\bme680.c **** 		- 512.0f)/var2) + 1.0f));
1148:D:\mcu\design-mpu\source\ejemplos\BME680\bme680.c **** 
1149:D:\mcu\design-mpu\source\ejemplos\BME680\bme680.c **** 	return calc_gas_res;
1150:D:\mcu\design-mpu\source\ejemplos\BME680\bme680.c **** }
1151:D:\mcu\design-mpu\source\ejemplos\BME680\bme680.c **** 
1152:D:\mcu\design-mpu\source\ejemplos\BME680\bme680.c **** /*!
1153:D:\mcu\design-mpu\source\ejemplos\BME680\bme680.c ****  * @brief This internal API is used to calculate the
1154:D:\mcu\design-mpu\source\ejemplos\BME680\bme680.c ****  * heater resistance value in float format
1155:D:\mcu\design-mpu\source\ejemplos\BME680\bme680.c ****  */
1156:D:\mcu\design-mpu\source\ejemplos\BME680\bme680.c **** static float calc_heater_res(uint16_t temp, const struct bme680_dev *dev)
1157:D:\mcu\design-mpu\source\ejemplos\BME680\bme680.c **** {
ARM GAS  C:\Users\adria\AppData\Local\Temp\ccQ3AXqi.s 			page 32


1158:D:\mcu\design-mpu\source\ejemplos\BME680\bme680.c **** 	float var1 = 0;
1159:D:\mcu\design-mpu\source\ejemplos\BME680\bme680.c **** 	float var2 = 0;
1160:D:\mcu\design-mpu\source\ejemplos\BME680\bme680.c **** 	float var3 = 0;
1161:D:\mcu\design-mpu\source\ejemplos\BME680\bme680.c **** 	float var4 = 0;
1162:D:\mcu\design-mpu\source\ejemplos\BME680\bme680.c **** 	float var5 = 0;
1163:D:\mcu\design-mpu\source\ejemplos\BME680\bme680.c **** 	float res_heat = 0;
1164:D:\mcu\design-mpu\source\ejemplos\BME680\bme680.c **** 
1165:D:\mcu\design-mpu\source\ejemplos\BME680\bme680.c **** 	if (temp > 400) /* Cap temperature */
1166:D:\mcu\design-mpu\source\ejemplos\BME680\bme680.c **** 		temp = 400;
1167:D:\mcu\design-mpu\source\ejemplos\BME680\bme680.c **** 
1168:D:\mcu\design-mpu\source\ejemplos\BME680\bme680.c **** 	var1 = (((float)dev->calib.par_gh1 / (16.0f)) + 49.0f);
1169:D:\mcu\design-mpu\source\ejemplos\BME680\bme680.c **** 	var2 = ((((float)dev->calib.par_gh2 / (32768.0f)) * (0.0005f)) + 0.00235f);
1170:D:\mcu\design-mpu\source\ejemplos\BME680\bme680.c **** 	var3 = ((float)dev->calib.par_gh3 / (1024.0f));
1171:D:\mcu\design-mpu\source\ejemplos\BME680\bme680.c **** 	var4 = (var1 * (1.0f + (var2 * (float)temp)));
1172:D:\mcu\design-mpu\source\ejemplos\BME680\bme680.c **** 	var5 = (var4 + (var3 * (float)dev->amb_temp));
1173:D:\mcu\design-mpu\source\ejemplos\BME680\bme680.c **** 	res_heat = (uint8_t)(3.4f * ((var5 * (4 / (4 + (float)dev->calib.res_heat_range)) *
1174:D:\mcu\design-mpu\source\ejemplos\BME680\bme680.c **** 		(1/(1 + ((float) dev->calib.res_heat_val * 0.002f)))) - 25));
1175:D:\mcu\design-mpu\source\ejemplos\BME680\bme680.c **** 
1176:D:\mcu\design-mpu\source\ejemplos\BME680\bme680.c **** 	return res_heat;
1177:D:\mcu\design-mpu\source\ejemplos\BME680\bme680.c **** }
1178:D:\mcu\design-mpu\source\ejemplos\BME680\bme680.c **** 
1179:D:\mcu\design-mpu\source\ejemplos\BME680\bme680.c **** #endif
1180:D:\mcu\design-mpu\source\ejemplos\BME680\bme680.c **** 
1181:D:\mcu\design-mpu\source\ejemplos\BME680\bme680.c **** /*!
1182:D:\mcu\design-mpu\source\ejemplos\BME680\bme680.c ****  * @brief This internal API is used to calculate the Heat duration value.
1183:D:\mcu\design-mpu\source\ejemplos\BME680\bme680.c ****  */
1184:D:\mcu\design-mpu\source\ejemplos\BME680\bme680.c **** static uint8_t calc_heater_dur(uint16_t dur)
1185:D:\mcu\design-mpu\source\ejemplos\BME680\bme680.c **** {
 597              		.loc 1 1185 0
 598              		.cfi_startproc
 599              		@ args = 0, pretend = 0, frame = 0
 600              		@ frame_needed = 0, uses_anonymous_args = 0
 601              		@ link register save eliminated.
 602              	.LVL84:
1186:D:\mcu\design-mpu\source\ejemplos\BME680\bme680.c **** 	uint8_t factor = 0;
1187:D:\mcu\design-mpu\source\ejemplos\BME680\bme680.c **** 	uint8_t durval;
1188:D:\mcu\design-mpu\source\ejemplos\BME680\bme680.c **** 
1189:D:\mcu\design-mpu\source\ejemplos\BME680\bme680.c **** 	if (dur >= 0xfc0) {
 603              		.loc 1 1189 0
 604 0000 B0F57C6F 		cmp	r0, #4032
 605 0004 0CD2     		bcs	.L28
 606 0006 0023     		movs	r3, #0
 607 0008 02E0     		b	.L26
 608              	.LVL85:
 609              	.L27:
1190:D:\mcu\design-mpu\source\ejemplos\BME680\bme680.c **** 		durval = 0xff; /* Max duration*/
1191:D:\mcu\design-mpu\source\ejemplos\BME680\bme680.c **** 	} else {
1192:D:\mcu\design-mpu\source\ejemplos\BME680\bme680.c **** 		while (dur > 0x3F) {
1193:D:\mcu\design-mpu\source\ejemplos\BME680\bme680.c **** 			dur = dur / 4;
 610              		.loc 1 1193 0
 611 000a 8008     		lsrs	r0, r0, #2
 612              	.LVL86:
1194:D:\mcu\design-mpu\source\ejemplos\BME680\bme680.c **** 			factor += 1;
 613              		.loc 1 1194 0
 614 000c 0133     		adds	r3, r3, #1
 615              	.LVL87:
 616 000e DBB2     		uxtb	r3, r3
ARM GAS  C:\Users\adria\AppData\Local\Temp\ccQ3AXqi.s 			page 33


 617              	.LVL88:
 618              	.L26:
1192:D:\mcu\design-mpu\source\ejemplos\BME680\bme680.c **** 			dur = dur / 4;
 619              		.loc 1 1192 0
 620 0010 3F28     		cmp	r0, #63
 621 0012 FAD8     		bhi	.L27
1195:D:\mcu\design-mpu\source\ejemplos\BME680\bme680.c **** 		}
1196:D:\mcu\design-mpu\source\ejemplos\BME680\bme680.c **** 		durval = (uint8_t) (dur + (factor * 64));
 622              		.loc 1 1196 0
 623 0014 C0B2     		uxtb	r0, r0
 624              	.LVL89:
 625 0016 9B01     		lsls	r3, r3, #6
 626              	.LVL90:
 627 0018 DBB2     		uxtb	r3, r3
 628 001a 1844     		add	r0, r0, r3
 629 001c C0B2     		uxtb	r0, r0
 630              	.LVL91:
 631 001e 7047     		bx	lr
 632              	.LVL92:
 633              	.L28:
1190:D:\mcu\design-mpu\source\ejemplos\BME680\bme680.c **** 	} else {
 634              		.loc 1 1190 0
 635 0020 FF20     		movs	r0, #255
 636              	.LVL93:
1197:D:\mcu\design-mpu\source\ejemplos\BME680\bme680.c **** 	}
1198:D:\mcu\design-mpu\source\ejemplos\BME680\bme680.c **** 
1199:D:\mcu\design-mpu\source\ejemplos\BME680\bme680.c **** 	return durval;
1200:D:\mcu\design-mpu\source\ejemplos\BME680\bme680.c **** }
 637              		.loc 1 1200 0
 638 0022 7047     		bx	lr
 639              		.cfi_endproc
 640              	.LFE82:
 641              		.size	calc_heater_dur, .-calc_heater_dur
 642              		.section	.text.boundary_check,"ax",%progbits
 643              		.align	2
 644              		.thumb
 645              		.thumb_func
 646              		.type	boundary_check, %function
 647              	boundary_check:
 648              	.LFB86:
1201:D:\mcu\design-mpu\source\ejemplos\BME680\bme680.c **** 
1202:D:\mcu\design-mpu\source\ejemplos\BME680\bme680.c **** /*!
1203:D:\mcu\design-mpu\source\ejemplos\BME680\bme680.c ****  * @brief This internal API is used to calculate the field data of sensor.
1204:D:\mcu\design-mpu\source\ejemplos\BME680\bme680.c ****  */
1205:D:\mcu\design-mpu\source\ejemplos\BME680\bme680.c **** static int8_t read_field_data(struct bme680_field_data *data, struct bme680_dev *dev)
1206:D:\mcu\design-mpu\source\ejemplos\BME680\bme680.c **** {
1207:D:\mcu\design-mpu\source\ejemplos\BME680\bme680.c **** 	int8_t rslt;
1208:D:\mcu\design-mpu\source\ejemplos\BME680\bme680.c **** 	uint8_t buff[BME680_FIELD_LENGTH] = { 0 };
1209:D:\mcu\design-mpu\source\ejemplos\BME680\bme680.c **** 	uint8_t gas_range;
1210:D:\mcu\design-mpu\source\ejemplos\BME680\bme680.c **** 	uint32_t adc_temp;
1211:D:\mcu\design-mpu\source\ejemplos\BME680\bme680.c **** 	uint32_t adc_pres;
1212:D:\mcu\design-mpu\source\ejemplos\BME680\bme680.c **** 	uint16_t adc_hum;
1213:D:\mcu\design-mpu\source\ejemplos\BME680\bme680.c **** 	uint16_t adc_gas_res;
1214:D:\mcu\design-mpu\source\ejemplos\BME680\bme680.c **** 	uint8_t tries = 10;
1215:D:\mcu\design-mpu\source\ejemplos\BME680\bme680.c **** 
1216:D:\mcu\design-mpu\source\ejemplos\BME680\bme680.c **** 	/* Check for null pointer in the device structure*/
1217:D:\mcu\design-mpu\source\ejemplos\BME680\bme680.c **** 	rslt = null_ptr_check(dev);
ARM GAS  C:\Users\adria\AppData\Local\Temp\ccQ3AXqi.s 			page 34


1218:D:\mcu\design-mpu\source\ejemplos\BME680\bme680.c **** 	do {
1219:D:\mcu\design-mpu\source\ejemplos\BME680\bme680.c **** 		if (rslt == BME680_OK) {
1220:D:\mcu\design-mpu\source\ejemplos\BME680\bme680.c **** 			rslt = bme680_get_regs(((uint8_t) (BME680_FIELD0_ADDR)), buff, (uint16_t) BME680_FIELD_LENGTH,
1221:D:\mcu\design-mpu\source\ejemplos\BME680\bme680.c **** 				dev);
1222:D:\mcu\design-mpu\source\ejemplos\BME680\bme680.c **** 
1223:D:\mcu\design-mpu\source\ejemplos\BME680\bme680.c **** 			data->status = buff[0] & BME680_NEW_DATA_MSK;
1224:D:\mcu\design-mpu\source\ejemplos\BME680\bme680.c **** 			data->gas_index = buff[0] & BME680_GAS_INDEX_MSK;
1225:D:\mcu\design-mpu\source\ejemplos\BME680\bme680.c **** 			data->meas_index = buff[1];
1226:D:\mcu\design-mpu\source\ejemplos\BME680\bme680.c **** 
1227:D:\mcu\design-mpu\source\ejemplos\BME680\bme680.c **** 			/* read the raw data from the sensor */
1228:D:\mcu\design-mpu\source\ejemplos\BME680\bme680.c **** 			adc_pres = (uint32_t) (((uint32_t) buff[2] * 4096) | ((uint32_t) buff[3] * 16)
1229:D:\mcu\design-mpu\source\ejemplos\BME680\bme680.c **** 				| ((uint32_t) buff[4] / 16));
1230:D:\mcu\design-mpu\source\ejemplos\BME680\bme680.c **** 			adc_temp = (uint32_t) (((uint32_t) buff[5] * 4096) | ((uint32_t) buff[6] * 16)
1231:D:\mcu\design-mpu\source\ejemplos\BME680\bme680.c **** 				| ((uint32_t) buff[7] / 16));
1232:D:\mcu\design-mpu\source\ejemplos\BME680\bme680.c **** 			adc_hum = (uint16_t) (((uint32_t) buff[8] * 256) | (uint32_t) buff[9]);
1233:D:\mcu\design-mpu\source\ejemplos\BME680\bme680.c **** 			adc_gas_res = (uint16_t) ((uint32_t) buff[13] * 4 | (((uint32_t) buff[14]) / 64));
1234:D:\mcu\design-mpu\source\ejemplos\BME680\bme680.c **** 			gas_range = buff[14] & BME680_GAS_RANGE_MSK;
1235:D:\mcu\design-mpu\source\ejemplos\BME680\bme680.c **** 
1236:D:\mcu\design-mpu\source\ejemplos\BME680\bme680.c **** 			data->status |= buff[14] & BME680_GASM_VALID_MSK;
1237:D:\mcu\design-mpu\source\ejemplos\BME680\bme680.c **** 			data->status |= buff[14] & BME680_HEAT_STAB_MSK;
1238:D:\mcu\design-mpu\source\ejemplos\BME680\bme680.c **** 
1239:D:\mcu\design-mpu\source\ejemplos\BME680\bme680.c **** 			if (data->status & BME680_NEW_DATA_MSK) {
1240:D:\mcu\design-mpu\source\ejemplos\BME680\bme680.c **** 				data->temperature = calc_temperature(adc_temp, dev);
1241:D:\mcu\design-mpu\source\ejemplos\BME680\bme680.c **** 				data->pressure = calc_pressure(adc_pres, dev);
1242:D:\mcu\design-mpu\source\ejemplos\BME680\bme680.c **** 				data->humidity = calc_humidity(adc_hum, dev);
1243:D:\mcu\design-mpu\source\ejemplos\BME680\bme680.c **** 				data->gas_resistance = calc_gas_resistance(adc_gas_res, gas_range, dev);
1244:D:\mcu\design-mpu\source\ejemplos\BME680\bme680.c **** 				break;
1245:D:\mcu\design-mpu\source\ejemplos\BME680\bme680.c **** 			}
1246:D:\mcu\design-mpu\source\ejemplos\BME680\bme680.c **** 			/* Delay to poll the data */
1247:D:\mcu\design-mpu\source\ejemplos\BME680\bme680.c **** 			dev->delay_ms(BME680_POLL_PERIOD_MS);
1248:D:\mcu\design-mpu\source\ejemplos\BME680\bme680.c **** 		}
1249:D:\mcu\design-mpu\source\ejemplos\BME680\bme680.c **** 		tries--;
1250:D:\mcu\design-mpu\source\ejemplos\BME680\bme680.c **** 	} while (tries);
1251:D:\mcu\design-mpu\source\ejemplos\BME680\bme680.c **** 
1252:D:\mcu\design-mpu\source\ejemplos\BME680\bme680.c **** 	if (!tries)
1253:D:\mcu\design-mpu\source\ejemplos\BME680\bme680.c **** 		rslt = BME680_W_NO_NEW_DATA;
1254:D:\mcu\design-mpu\source\ejemplos\BME680\bme680.c **** 
1255:D:\mcu\design-mpu\source\ejemplos\BME680\bme680.c **** 	return rslt;
1256:D:\mcu\design-mpu\source\ejemplos\BME680\bme680.c **** }
1257:D:\mcu\design-mpu\source\ejemplos\BME680\bme680.c **** 
1258:D:\mcu\design-mpu\source\ejemplos\BME680\bme680.c **** /*!
1259:D:\mcu\design-mpu\source\ejemplos\BME680\bme680.c ****  * @brief This internal API is used to set the memory page based on register address.
1260:D:\mcu\design-mpu\source\ejemplos\BME680\bme680.c ****  */
1261:D:\mcu\design-mpu\source\ejemplos\BME680\bme680.c **** static int8_t set_mem_page(uint8_t reg_addr, struct bme680_dev *dev)
1262:D:\mcu\design-mpu\source\ejemplos\BME680\bme680.c **** {
1263:D:\mcu\design-mpu\source\ejemplos\BME680\bme680.c **** 	int8_t rslt;
1264:D:\mcu\design-mpu\source\ejemplos\BME680\bme680.c **** 	uint8_t reg;
1265:D:\mcu\design-mpu\source\ejemplos\BME680\bme680.c **** 	uint8_t mem_page;
1266:D:\mcu\design-mpu\source\ejemplos\BME680\bme680.c **** 
1267:D:\mcu\design-mpu\source\ejemplos\BME680\bme680.c **** 	/* Check for null pointers in the device structure*/
1268:D:\mcu\design-mpu\source\ejemplos\BME680\bme680.c **** 	rslt = null_ptr_check(dev);
1269:D:\mcu\design-mpu\source\ejemplos\BME680\bme680.c **** 	if (rslt == BME680_OK) {
1270:D:\mcu\design-mpu\source\ejemplos\BME680\bme680.c **** 		if (reg_addr > 0x7f)
1271:D:\mcu\design-mpu\source\ejemplos\BME680\bme680.c **** 			mem_page = BME680_MEM_PAGE1;
1272:D:\mcu\design-mpu\source\ejemplos\BME680\bme680.c **** 		else
1273:D:\mcu\design-mpu\source\ejemplos\BME680\bme680.c **** 			mem_page = BME680_MEM_PAGE0;
1274:D:\mcu\design-mpu\source\ejemplos\BME680\bme680.c **** 
ARM GAS  C:\Users\adria\AppData\Local\Temp\ccQ3AXqi.s 			page 35


1275:D:\mcu\design-mpu\source\ejemplos\BME680\bme680.c **** 		if (mem_page != dev->mem_page) {
1276:D:\mcu\design-mpu\source\ejemplos\BME680\bme680.c **** 			dev->mem_page = mem_page;
1277:D:\mcu\design-mpu\source\ejemplos\BME680\bme680.c **** 
1278:D:\mcu\design-mpu\source\ejemplos\BME680\bme680.c **** 			dev->com_rslt = dev->read(dev->dev_id, BME680_MEM_PAGE_ADDR | BME680_SPI_RD_MSK, &reg, 1);
1279:D:\mcu\design-mpu\source\ejemplos\BME680\bme680.c **** 			if (dev->com_rslt != 0)
1280:D:\mcu\design-mpu\source\ejemplos\BME680\bme680.c **** 				rslt = BME680_E_COM_FAIL;
1281:D:\mcu\design-mpu\source\ejemplos\BME680\bme680.c **** 
1282:D:\mcu\design-mpu\source\ejemplos\BME680\bme680.c **** 			if (rslt == BME680_OK) {
1283:D:\mcu\design-mpu\source\ejemplos\BME680\bme680.c **** 				reg = reg & (~BME680_MEM_PAGE_MSK);
1284:D:\mcu\design-mpu\source\ejemplos\BME680\bme680.c **** 				reg = reg | (dev->mem_page & BME680_MEM_PAGE_MSK);
1285:D:\mcu\design-mpu\source\ejemplos\BME680\bme680.c **** 
1286:D:\mcu\design-mpu\source\ejemplos\BME680\bme680.c **** 				dev->com_rslt = dev->write(dev->dev_id, BME680_MEM_PAGE_ADDR & BME680_SPI_WR_MSK,
1287:D:\mcu\design-mpu\source\ejemplos\BME680\bme680.c **** 					&reg, 1);
1288:D:\mcu\design-mpu\source\ejemplos\BME680\bme680.c **** 				if (dev->com_rslt != 0)
1289:D:\mcu\design-mpu\source\ejemplos\BME680\bme680.c **** 					rslt = BME680_E_COM_FAIL;
1290:D:\mcu\design-mpu\source\ejemplos\BME680\bme680.c **** 			}
1291:D:\mcu\design-mpu\source\ejemplos\BME680\bme680.c **** 		}
1292:D:\mcu\design-mpu\source\ejemplos\BME680\bme680.c **** 	}
1293:D:\mcu\design-mpu\source\ejemplos\BME680\bme680.c **** 
1294:D:\mcu\design-mpu\source\ejemplos\BME680\bme680.c **** 	return rslt;
1295:D:\mcu\design-mpu\source\ejemplos\BME680\bme680.c **** }
1296:D:\mcu\design-mpu\source\ejemplos\BME680\bme680.c **** 
1297:D:\mcu\design-mpu\source\ejemplos\BME680\bme680.c **** /*!
1298:D:\mcu\design-mpu\source\ejemplos\BME680\bme680.c ****  * @brief This internal API is used to get the memory page based on register address.
1299:D:\mcu\design-mpu\source\ejemplos\BME680\bme680.c ****  */
1300:D:\mcu\design-mpu\source\ejemplos\BME680\bme680.c **** static int8_t get_mem_page(struct bme680_dev *dev)
1301:D:\mcu\design-mpu\source\ejemplos\BME680\bme680.c **** {
1302:D:\mcu\design-mpu\source\ejemplos\BME680\bme680.c **** 	int8_t rslt;
1303:D:\mcu\design-mpu\source\ejemplos\BME680\bme680.c **** 	uint8_t reg;
1304:D:\mcu\design-mpu\source\ejemplos\BME680\bme680.c **** 
1305:D:\mcu\design-mpu\source\ejemplos\BME680\bme680.c **** 	/* Check for null pointer in the device structure*/
1306:D:\mcu\design-mpu\source\ejemplos\BME680\bme680.c **** 	rslt = null_ptr_check(dev);
1307:D:\mcu\design-mpu\source\ejemplos\BME680\bme680.c **** 	if (rslt == BME680_OK) {
1308:D:\mcu\design-mpu\source\ejemplos\BME680\bme680.c **** 		dev->com_rslt = dev->read(dev->dev_id, BME680_MEM_PAGE_ADDR | BME680_SPI_RD_MSK, &reg, 1);
1309:D:\mcu\design-mpu\source\ejemplos\BME680\bme680.c **** 		if (dev->com_rslt != 0)
1310:D:\mcu\design-mpu\source\ejemplos\BME680\bme680.c **** 			rslt = BME680_E_COM_FAIL;
1311:D:\mcu\design-mpu\source\ejemplos\BME680\bme680.c **** 		else
1312:D:\mcu\design-mpu\source\ejemplos\BME680\bme680.c **** 			dev->mem_page = reg & BME680_MEM_PAGE_MSK;
1313:D:\mcu\design-mpu\source\ejemplos\BME680\bme680.c **** 	}
1314:D:\mcu\design-mpu\source\ejemplos\BME680\bme680.c **** 
1315:D:\mcu\design-mpu\source\ejemplos\BME680\bme680.c **** 	return rslt;
1316:D:\mcu\design-mpu\source\ejemplos\BME680\bme680.c **** }
1317:D:\mcu\design-mpu\source\ejemplos\BME680\bme680.c **** 
1318:D:\mcu\design-mpu\source\ejemplos\BME680\bme680.c **** /*!
1319:D:\mcu\design-mpu\source\ejemplos\BME680\bme680.c ****  * @brief This internal API is used to validate the boundary
1320:D:\mcu\design-mpu\source\ejemplos\BME680\bme680.c ****  * conditions.
1321:D:\mcu\design-mpu\source\ejemplos\BME680\bme680.c ****  */
1322:D:\mcu\design-mpu\source\ejemplos\BME680\bme680.c **** static int8_t boundary_check(uint8_t *value, uint8_t min, uint8_t max, struct bme680_dev *dev)
1323:D:\mcu\design-mpu\source\ejemplos\BME680\bme680.c **** {
 649              		.loc 1 1323 0
 650              		.cfi_startproc
 651              		@ args = 0, pretend = 0, frame = 0
 652              		@ frame_needed = 0, uses_anonymous_args = 0
 653              		@ link register save eliminated.
 654              	.LVL94:
1324:D:\mcu\design-mpu\source\ejemplos\BME680\bme680.c **** 	int8_t rslt = BME680_OK;
1325:D:\mcu\design-mpu\source\ejemplos\BME680\bme680.c **** 
ARM GAS  C:\Users\adria\AppData\Local\Temp\ccQ3AXqi.s 			page 36


1326:D:\mcu\design-mpu\source\ejemplos\BME680\bme680.c **** 	if (value != NULL) {
 655              		.loc 1 1326 0
 656 0000 B8B1     		cbz	r0, .L32
1323:D:\mcu\design-mpu\source\ejemplos\BME680\bme680.c **** 	int8_t rslt = BME680_OK;
 657              		.loc 1 1323 0
 658 0002 10B4     		push	{r4}
 659              		.cfi_def_cfa_offset 4
 660              		.cfi_offset 4, -4
 661 0004 0446     		mov	r4, r0
1327:D:\mcu\design-mpu\source\ejemplos\BME680\bme680.c **** 		/* Check if value is below minimum value */
1328:D:\mcu\design-mpu\source\ejemplos\BME680\bme680.c **** 		if (*value < min) {
 662              		.loc 1 1328 0
 663 0006 0078     		ldrb	r0, [r0]	@ zero_extendqisi2
 664              	.LVL95:
 665 0008 8842     		cmp	r0, r1
 666 000a 06D2     		bcs	.L31
1329:D:\mcu\design-mpu\source\ejemplos\BME680\bme680.c **** 			/* Auto correct the invalid value to minimum value */
1330:D:\mcu\design-mpu\source\ejemplos\BME680\bme680.c **** 			*value = min;
 667              		.loc 1 1330 0
 668 000c 2170     		strb	r1, [r4]
1331:D:\mcu\design-mpu\source\ejemplos\BME680\bme680.c **** 			dev->info_msg |= BME680_I_MIN_CORRECTION;
 669              		.loc 1 1331 0
 670 000e 93F84610 		ldrb	r1, [r3, #70]	@ zero_extendqisi2
 671              	.LVL96:
 672 0012 41F00101 		orr	r1, r1, #1
 673 0016 83F84610 		strb	r1, [r3, #70]
 674              	.LVL97:
 675              	.L31:
1332:D:\mcu\design-mpu\source\ejemplos\BME680\bme680.c **** 		}
1333:D:\mcu\design-mpu\source\ejemplos\BME680\bme680.c **** 		/* Check if value is above maximum value */
1334:D:\mcu\design-mpu\source\ejemplos\BME680\bme680.c **** 		if (*value > max) {
 676              		.loc 1 1334 0
 677 001a 2178     		ldrb	r1, [r4]	@ zero_extendqisi2
 678 001c 9142     		cmp	r1, r2
 679 001e 0BD9     		bls	.L33
1335:D:\mcu\design-mpu\source\ejemplos\BME680\bme680.c **** 			/* Auto correct the invalid value to maximum value */
1336:D:\mcu\design-mpu\source\ejemplos\BME680\bme680.c **** 			*value = max;
 680              		.loc 1 1336 0
 681 0020 2270     		strb	r2, [r4]
1337:D:\mcu\design-mpu\source\ejemplos\BME680\bme680.c **** 			dev->info_msg |= BME680_I_MAX_CORRECTION;
 682              		.loc 1 1337 0
 683 0022 93F84620 		ldrb	r2, [r3, #70]	@ zero_extendqisi2
 684              	.LVL98:
 685 0026 42F00202 		orr	r2, r2, #2
 686 002a 83F84620 		strb	r2, [r3, #70]
 687              	.LVL99:
1324:D:\mcu\design-mpu\source\ejemplos\BME680\bme680.c **** 
 688              		.loc 1 1324 0
 689 002e 0020     		movs	r0, #0
 690 0030 03E0     		b	.L30
 691              	.LVL100:
 692              	.L32:
 693              		.cfi_def_cfa_offset 0
 694              		.cfi_restore 4
1338:D:\mcu\design-mpu\source\ejemplos\BME680\bme680.c **** 		}
1339:D:\mcu\design-mpu\source\ejemplos\BME680\bme680.c **** 	} else {
1340:D:\mcu\design-mpu\source\ejemplos\BME680\bme680.c **** 		rslt = BME680_E_NULL_PTR;
ARM GAS  C:\Users\adria\AppData\Local\Temp\ccQ3AXqi.s 			page 37


 695              		.loc 1 1340 0
 696 0032 4FF0FF30 		mov	r0, #-1
 697              	.LVL101:
1341:D:\mcu\design-mpu\source\ejemplos\BME680\bme680.c **** 	}
1342:D:\mcu\design-mpu\source\ejemplos\BME680\bme680.c **** 
1343:D:\mcu\design-mpu\source\ejemplos\BME680\bme680.c **** 	return rslt;
1344:D:\mcu\design-mpu\source\ejemplos\BME680\bme680.c **** }
 698              		.loc 1 1344 0
 699 0036 7047     		bx	lr
 700              	.LVL102:
 701              	.L33:
 702              		.cfi_def_cfa_offset 4
 703              		.cfi_offset 4, -4
1324:D:\mcu\design-mpu\source\ejemplos\BME680\bme680.c **** 
 704              		.loc 1 1324 0
 705 0038 0020     		movs	r0, #0
 706              	.LVL103:
 707              	.L30:
 708              		.loc 1 1344 0
 709 003a 10BC     		pop	{r4}
 710              		.cfi_restore 4
 711              		.cfi_def_cfa_offset 0
 712              	.LVL104:
 713 003c 7047     		bx	lr
 714              		.cfi_endproc
 715              	.LFE86:
 716              		.size	boundary_check, .-boundary_check
 717 003e 00BF     		.section	.text.null_ptr_check,"ax",%progbits
 718              		.align	2
 719              		.thumb
 720              		.thumb_func
 721              		.type	null_ptr_check, %function
 722              	null_ptr_check:
 723              	.LFB87:
1345:D:\mcu\design-mpu\source\ejemplos\BME680\bme680.c **** 
1346:D:\mcu\design-mpu\source\ejemplos\BME680\bme680.c **** /*!
1347:D:\mcu\design-mpu\source\ejemplos\BME680\bme680.c ****  * @brief This internal API is used to validate the device structure pointer for
1348:D:\mcu\design-mpu\source\ejemplos\BME680\bme680.c ****  * null conditions.
1349:D:\mcu\design-mpu\source\ejemplos\BME680\bme680.c ****  */
1350:D:\mcu\design-mpu\source\ejemplos\BME680\bme680.c **** static int8_t null_ptr_check(const struct bme680_dev *dev)
1351:D:\mcu\design-mpu\source\ejemplos\BME680\bme680.c **** {
 724              		.loc 1 1351 0
 725              		.cfi_startproc
 726              		@ args = 0, pretend = 0, frame = 0
 727              		@ frame_needed = 0, uses_anonymous_args = 0
 728              		@ link register save eliminated.
 729              	.LVL105:
1352:D:\mcu\design-mpu\source\ejemplos\BME680\bme680.c **** 	int8_t rslt;
1353:D:\mcu\design-mpu\source\ejemplos\BME680\bme680.c **** 
1354:D:\mcu\design-mpu\source\ejemplos\BME680\bme680.c **** 	if ((dev == NULL) || (dev->read == NULL) || (dev->write == NULL) || (dev->delay_ms == NULL)) {
 730              		.loc 1 1354 0
 731 0000 40B1     		cbz	r0, .L37
 732              		.loc 1 1354 0 is_stmt 0 discriminator 1
 733 0002 826C     		ldr	r2, [r0, #72]
 734 0004 4AB1     		cbz	r2, .L38
 735              		.loc 1 1354 0 discriminator 2
 736 0006 C26C     		ldr	r2, [r0, #76]
ARM GAS  C:\Users\adria\AppData\Local\Temp\ccQ3AXqi.s 			page 38


 737 0008 52B1     		cbz	r2, .L39
 738              		.loc 1 1354 0 discriminator 3
 739 000a 036D     		ldr	r3, [r0, #80]
 740 000c 5BB9     		cbnz	r3, .L40
1355:D:\mcu\design-mpu\source\ejemplos\BME680\bme680.c **** 		/* Device structure pointer is not valid */
1356:D:\mcu\design-mpu\source\ejemplos\BME680\bme680.c **** 		rslt = BME680_E_NULL_PTR;
 741              		.loc 1 1356 0 is_stmt 1
 742 000e 4FF0FF30 		mov	r0, #-1
 743              	.LVL106:
 744 0012 7047     		bx	lr
 745              	.LVL107:
 746              	.L37:
 747 0014 4FF0FF30 		mov	r0, #-1
 748              	.LVL108:
 749 0018 7047     		bx	lr
 750              	.LVL109:
 751              	.L38:
 752 001a 4FF0FF30 		mov	r0, #-1
 753              	.LVL110:
 754 001e 7047     		bx	lr
 755              	.LVL111:
 756              	.L39:
 757 0020 4FF0FF30 		mov	r0, #-1
 758              	.LVL112:
 759 0024 7047     		bx	lr
 760              	.LVL113:
 761              	.L40:
1357:D:\mcu\design-mpu\source\ejemplos\BME680\bme680.c **** 	} else {
1358:D:\mcu\design-mpu\source\ejemplos\BME680\bme680.c **** 		/* Device structure is fine */
1359:D:\mcu\design-mpu\source\ejemplos\BME680\bme680.c **** 		rslt = BME680_OK;
 762              		.loc 1 1359 0
 763 0026 0020     		movs	r0, #0
 764              	.LVL114:
1360:D:\mcu\design-mpu\source\ejemplos\BME680\bme680.c **** 	}
1361:D:\mcu\design-mpu\source\ejemplos\BME680\bme680.c **** 
1362:D:\mcu\design-mpu\source\ejemplos\BME680\bme680.c **** 	return rslt;
1363:D:\mcu\design-mpu\source\ejemplos\BME680\bme680.c **** }
 765              		.loc 1 1363 0
 766 0028 7047     		bx	lr
 767              		.cfi_endproc
 768              	.LFE87:
 769              		.size	null_ptr_check, .-null_ptr_check
 770 002a 00BF     		.section	.text.set_mem_page,"ax",%progbits
 771              		.align	2
 772              		.thumb
 773              		.thumb_func
 774              		.type	set_mem_page, %function
 775              	set_mem_page:
 776              	.LFB84:
1262:D:\mcu\design-mpu\source\ejemplos\BME680\bme680.c **** 	int8_t rslt;
 777              		.loc 1 1262 0
 778              		.cfi_startproc
 779              		@ args = 0, pretend = 0, frame = 8
 780              		@ frame_needed = 0, uses_anonymous_args = 0
 781              	.LVL115:
 782 0000 70B5     		push	{r4, r5, r6, lr}
 783              		.cfi_def_cfa_offset 16
ARM GAS  C:\Users\adria\AppData\Local\Temp\ccQ3AXqi.s 			page 39


 784              		.cfi_offset 4, -16
 785              		.cfi_offset 5, -12
 786              		.cfi_offset 6, -8
 787              		.cfi_offset 14, -4
 788 0002 82B0     		sub	sp, sp, #8
 789              		.cfi_def_cfa_offset 24
 790 0004 0646     		mov	r6, r0
 791 0006 0C46     		mov	r4, r1
1268:D:\mcu\design-mpu\source\ejemplos\BME680\bme680.c **** 	if (rslt == BME680_OK) {
 792              		.loc 1 1268 0
 793 0008 0846     		mov	r0, r1
 794              	.LVL116:
 795 000a FFF7FEFF 		bl	null_ptr_check
 796              	.LVL117:
1269:D:\mcu\design-mpu\source\ejemplos\BME680\bme680.c **** 		if (reg_addr > 0x7f)
 797              		.loc 1 1269 0
 798 000e 0546     		mov	r5, r0
 799 0010 58BB     		cbnz	r0, .L42
1270:D:\mcu\design-mpu\source\ejemplos\BME680\bme680.c **** 			mem_page = BME680_MEM_PAGE1;
 800              		.loc 1 1270 0
 801 0012 16F0800F 		tst	r6, #128
 802 0016 01D0     		beq	.L45
1271:D:\mcu\design-mpu\source\ejemplos\BME680\bme680.c **** 		else
 803              		.loc 1 1271 0
 804 0018 0023     		movs	r3, #0
 805 001a 00E0     		b	.L43
 806              	.L45:
1273:D:\mcu\design-mpu\source\ejemplos\BME680\bme680.c **** 
 807              		.loc 1 1273 0
 808 001c 1023     		movs	r3, #16
 809              	.L43:
 810              	.LVL118:
1275:D:\mcu\design-mpu\source\ejemplos\BME680\bme680.c **** 			dev->mem_page = mem_page;
 811              		.loc 1 1275 0
 812 001e E278     		ldrb	r2, [r4, #3]	@ zero_extendqisi2
 813 0020 9342     		cmp	r3, r2
 814 0022 22D0     		beq	.L42
1276:D:\mcu\design-mpu\source\ejemplos\BME680\bme680.c **** 
 815              		.loc 1 1276 0
 816 0024 E370     		strb	r3, [r4, #3]
1278:D:\mcu\design-mpu\source\ejemplos\BME680\bme680.c **** 			if (dev->com_rslt != 0)
 817              		.loc 1 1278 0
 818 0026 A66C     		ldr	r6, [r4, #72]
 819 0028 0123     		movs	r3, #1
 820              	.LVL119:
 821 002a 0DF10702 		add	r2, sp, #7
 822 002e F321     		movs	r1, #243
 823 0030 6078     		ldrb	r0, [r4, #1]	@ zero_extendqisi2
 824              	.LVL120:
 825 0032 B047     		blx	r6
 826              	.LVL121:
 827 0034 84F85400 		strb	r0, [r4, #84]
1279:D:\mcu\design-mpu\source\ejemplos\BME680\bme680.c **** 				rslt = BME680_E_COM_FAIL;
 828              		.loc 1 1279 0
 829 0038 08B1     		cbz	r0, .L44
1280:D:\mcu\design-mpu\source\ejemplos\BME680\bme680.c **** 
 830              		.loc 1 1280 0
ARM GAS  C:\Users\adria\AppData\Local\Temp\ccQ3AXqi.s 			page 40


 831 003a 6FF00105 		mvn	r5, #1
 832              	.L44:
 833              	.LVL122:
1282:D:\mcu\design-mpu\source\ejemplos\BME680\bme680.c **** 				reg = reg & (~BME680_MEM_PAGE_MSK);
 834              		.loc 1 1282 0
 835 003e A5B9     		cbnz	r5, .L42
1283:D:\mcu\design-mpu\source\ejemplos\BME680\bme680.c **** 				reg = reg | (dev->mem_page & BME680_MEM_PAGE_MSK);
 836              		.loc 1 1283 0
 837 0040 9DF80730 		ldrb	r3, [sp, #7]	@ zero_extendqisi2
 838 0044 03F0EF02 		and	r2, r3, #239
1284:D:\mcu\design-mpu\source\ejemplos\BME680\bme680.c **** 
 839              		.loc 1 1284 0
 840 0048 E378     		ldrb	r3, [r4, #3]	@ zero_extendqisi2
 841 004a 03F01003 		and	r3, r3, #16
 842 004e 1343     		orrs	r3, r3, r2
 843 0050 02AA     		add	r2, sp, #8
 844 0052 02F8013D 		strb	r3, [r2, #-1]!
1286:D:\mcu\design-mpu\source\ejemplos\BME680\bme680.c **** 					&reg, 1);
 845              		.loc 1 1286 0
 846 0056 E66C     		ldr	r6, [r4, #76]
 847 0058 0123     		movs	r3, #1
 848 005a 7321     		movs	r1, #115
 849 005c 6078     		ldrb	r0, [r4, #1]	@ zero_extendqisi2
 850 005e B047     		blx	r6
 851              	.LVL123:
 852 0060 84F85400 		strb	r0, [r4, #84]
1288:D:\mcu\design-mpu\source\ejemplos\BME680\bme680.c **** 					rslt = BME680_E_COM_FAIL;
 853              		.loc 1 1288 0
 854 0064 08B1     		cbz	r0, .L42
1289:D:\mcu\design-mpu\source\ejemplos\BME680\bme680.c **** 			}
 855              		.loc 1 1289 0
 856 0066 6FF00105 		mvn	r5, #1
 857              	.LVL124:
 858              	.L42:
1295:D:\mcu\design-mpu\source\ejemplos\BME680\bme680.c **** 
 859              		.loc 1 1295 0
 860 006a 2846     		mov	r0, r5
 861 006c 02B0     		add	sp, sp, #8
 862              		.cfi_def_cfa_offset 16
 863              		@ sp needed
 864 006e 70BD     		pop	{r4, r5, r6, pc}
 865              		.cfi_endproc
 866              	.LFE84:
 867              		.size	set_mem_page, .-set_mem_page
 868              		.section	.text.get_mem_page,"ax",%progbits
 869              		.align	2
 870              		.thumb
 871              		.thumb_func
 872              		.type	get_mem_page, %function
 873              	get_mem_page:
 874              	.LFB85:
1301:D:\mcu\design-mpu\source\ejemplos\BME680\bme680.c **** 	int8_t rslt;
 875              		.loc 1 1301 0
 876              		.cfi_startproc
 877              		@ args = 0, pretend = 0, frame = 8
 878              		@ frame_needed = 0, uses_anonymous_args = 0
 879              	.LVL125:
ARM GAS  C:\Users\adria\AppData\Local\Temp\ccQ3AXqi.s 			page 41


 880 0000 70B5     		push	{r4, r5, r6, lr}
 881              		.cfi_def_cfa_offset 16
 882              		.cfi_offset 4, -16
 883              		.cfi_offset 5, -12
 884              		.cfi_offset 6, -8
 885              		.cfi_offset 14, -4
 886 0002 82B0     		sub	sp, sp, #8
 887              		.cfi_def_cfa_offset 24
 888 0004 0446     		mov	r4, r0
1306:D:\mcu\design-mpu\source\ejemplos\BME680\bme680.c **** 	if (rslt == BME680_OK) {
 889              		.loc 1 1306 0
 890 0006 FFF7FEFF 		bl	null_ptr_check
 891              	.LVL126:
1307:D:\mcu\design-mpu\source\ejemplos\BME680\bme680.c **** 		dev->com_rslt = dev->read(dev->dev_id, BME680_MEM_PAGE_ADDR | BME680_SPI_RD_MSK, &reg, 1);
 892              		.loc 1 1307 0
 893 000a 0546     		mov	r5, r0
 894 000c 88B9     		cbnz	r0, .L50
1308:D:\mcu\design-mpu\source\ejemplos\BME680\bme680.c **** 		if (dev->com_rslt != 0)
 895              		.loc 1 1308 0
 896 000e A66C     		ldr	r6, [r4, #72]
 897 0010 0123     		movs	r3, #1
 898 0012 0DF10702 		add	r2, sp, #7
 899 0016 F321     		movs	r1, #243
 900 0018 6078     		ldrb	r0, [r4, #1]	@ zero_extendqisi2
 901              	.LVL127:
 902 001a B047     		blx	r6
 903              	.LVL128:
 904 001c 84F85400 		strb	r0, [r4, #84]
1309:D:\mcu\design-mpu\source\ejemplos\BME680\bme680.c **** 			rslt = BME680_E_COM_FAIL;
 905              		.loc 1 1309 0
 906 0020 28B9     		cbnz	r0, .L51
1312:D:\mcu\design-mpu\source\ejemplos\BME680\bme680.c **** 	}
 907              		.loc 1 1312 0
 908 0022 9DF80730 		ldrb	r3, [sp, #7]	@ zero_extendqisi2
 909 0026 03F01003 		and	r3, r3, #16
 910 002a E370     		strb	r3, [r4, #3]
 911 002c 01E0     		b	.L50
 912              	.L51:
1310:D:\mcu\design-mpu\source\ejemplos\BME680\bme680.c **** 		else
 913              		.loc 1 1310 0
 914 002e 6FF00105 		mvn	r5, #1
 915              	.L50:
 916              	.LVL129:
1316:D:\mcu\design-mpu\source\ejemplos\BME680\bme680.c **** 
 917              		.loc 1 1316 0
 918 0032 2846     		mov	r0, r5
 919 0034 02B0     		add	sp, sp, #8
 920              		.cfi_def_cfa_offset 16
 921              		@ sp needed
 922 0036 70BD     		pop	{r4, r5, r6, pc}
 923              		.cfi_endproc
 924              	.LFE85:
 925              		.size	get_mem_page, .-get_mem_page
 926              		.section	.text.analyze_sensor_data,"ax",%progbits
 927              		.align	2
 928              		.thumb
 929              		.thumb_func
ARM GAS  C:\Users\adria\AppData\Local\Temp\ccQ3AXqi.s 			page 42


 930              		.type	analyze_sensor_data, %function
 931              	analyze_sensor_data:
 932              	.LFB89:
1364:D:\mcu\design-mpu\source\ejemplos\BME680\bme680.c **** 
1365:D:\mcu\design-mpu\source\ejemplos\BME680\bme680.c **** /*!
1366:D:\mcu\design-mpu\source\ejemplos\BME680\bme680.c ****  * @brief       Function to analyze the sensor data
1367:D:\mcu\design-mpu\source\ejemplos\BME680\bme680.c ****  *
1368:D:\mcu\design-mpu\source\ejemplos\BME680\bme680.c ****  * @param[in]   data	Array of measurement data 
1369:D:\mcu\design-mpu\source\ejemplos\BME680\bme680.c ****  * @param[in]   n_meas	Number of measurements 
1370:D:\mcu\design-mpu\source\ejemplos\BME680\bme680.c ****  *
1371:D:\mcu\design-mpu\source\ejemplos\BME680\bme680.c ****  * @return      Error code
1372:D:\mcu\design-mpu\source\ejemplos\BME680\bme680.c ****  * @retval		0	Success
1373:D:\mcu\design-mpu\source\ejemplos\BME680\bme680.c ****  * @retval      > 0	Warning	
1374:D:\mcu\design-mpu\source\ejemplos\BME680\bme680.c ****  */
1375:D:\mcu\design-mpu\source\ejemplos\BME680\bme680.c **** static int8_t analyze_sensor_data(struct bme680_field_data *data, uint8_t n_meas);
1376:D:\mcu\design-mpu\source\ejemplos\BME680\bme680.c **** 
1377:D:\mcu\design-mpu\source\ejemplos\BME680\bme680.c **** /*!
1378:D:\mcu\design-mpu\source\ejemplos\BME680\bme680.c ****  * @brief       Self-test API for the BME680
1379:D:\mcu\design-mpu\source\ejemplos\BME680\bme680.c ****  */
1380:D:\mcu\design-mpu\source\ejemplos\BME680\bme680.c **** int8_t bme680_self_test(struct bme680_dev *dev)
1381:D:\mcu\design-mpu\source\ejemplos\BME680\bme680.c **** {
1382:D:\mcu\design-mpu\source\ejemplos\BME680\bme680.c **** 	int8_t rslt = BME680_OK;
1383:D:\mcu\design-mpu\source\ejemplos\BME680\bme680.c **** 	struct bme680_field_data data[N_MEAS];
1384:D:\mcu\design-mpu\source\ejemplos\BME680\bme680.c **** 
1385:D:\mcu\design-mpu\source\ejemplos\BME680\bme680.c **** 	struct bme680_dev t_dev;
1386:D:\mcu\design-mpu\source\ejemplos\BME680\bme680.c **** 
1387:D:\mcu\design-mpu\source\ejemplos\BME680\bme680.c **** 	/* Copy required parameters from reference bme680_dev struct */
1388:D:\mcu\design-mpu\source\ejemplos\BME680\bme680.c **** 	t_dev.dev_id = dev->dev_id;
1389:D:\mcu\design-mpu\source\ejemplos\BME680\bme680.c **** 	t_dev.amb_temp = 25;
1390:D:\mcu\design-mpu\source\ejemplos\BME680\bme680.c **** 	t_dev.read = dev->read;
1391:D:\mcu\design-mpu\source\ejemplos\BME680\bme680.c **** 	t_dev.write = dev->write;
1392:D:\mcu\design-mpu\source\ejemplos\BME680\bme680.c **** 	t_dev.intf = dev->intf;
1393:D:\mcu\design-mpu\source\ejemplos\BME680\bme680.c **** 	t_dev.delay_ms = dev->delay_ms;
1394:D:\mcu\design-mpu\source\ejemplos\BME680\bme680.c **** 
1395:D:\mcu\design-mpu\source\ejemplos\BME680\bme680.c **** 	rslt = bme680_init(&t_dev);
1396:D:\mcu\design-mpu\source\ejemplos\BME680\bme680.c **** 
1397:D:\mcu\design-mpu\source\ejemplos\BME680\bme680.c **** 	if (rslt == BME680_OK) {
1398:D:\mcu\design-mpu\source\ejemplos\BME680\bme680.c **** 		/* Select the power mode */
1399:D:\mcu\design-mpu\source\ejemplos\BME680\bme680.c **** 		/* Must be set before writing the sensor configuration */
1400:D:\mcu\design-mpu\source\ejemplos\BME680\bme680.c **** 		t_dev.power_mode = BME680_FORCED_MODE;
1401:D:\mcu\design-mpu\source\ejemplos\BME680\bme680.c **** 
1402:D:\mcu\design-mpu\source\ejemplos\BME680\bme680.c **** 		uint16_t settings_sel;
1403:D:\mcu\design-mpu\source\ejemplos\BME680\bme680.c **** 
1404:D:\mcu\design-mpu\source\ejemplos\BME680\bme680.c **** 		/* Set the temperature, pressure and humidity & filter settings */
1405:D:\mcu\design-mpu\source\ejemplos\BME680\bme680.c **** 		t_dev.tph_sett.os_hum = BME680_OS_1X;
1406:D:\mcu\design-mpu\source\ejemplos\BME680\bme680.c **** 		t_dev.tph_sett.os_pres = BME680_OS_16X;
1407:D:\mcu\design-mpu\source\ejemplos\BME680\bme680.c **** 		t_dev.tph_sett.os_temp = BME680_OS_2X;
1408:D:\mcu\design-mpu\source\ejemplos\BME680\bme680.c **** 
1409:D:\mcu\design-mpu\source\ejemplos\BME680\bme680.c **** 		/* Set the remaining gas sensor settings and link the heating profile */
1410:D:\mcu\design-mpu\source\ejemplos\BME680\bme680.c **** 		t_dev.gas_sett.run_gas = BME680_ENABLE_GAS_MEAS;
1411:D:\mcu\design-mpu\source\ejemplos\BME680\bme680.c **** 		t_dev.gas_sett.heatr_dur = HEATR_DUR;
1412:D:\mcu\design-mpu\source\ejemplos\BME680\bme680.c **** 
1413:D:\mcu\design-mpu\source\ejemplos\BME680\bme680.c **** 		settings_sel = BME680_OST_SEL | BME680_OSP_SEL | BME680_OSH_SEL | BME680_GAS_SENSOR_SEL;
1414:D:\mcu\design-mpu\source\ejemplos\BME680\bme680.c **** 
1415:D:\mcu\design-mpu\source\ejemplos\BME680\bme680.c **** 		uint16_t profile_dur = 0;
1416:D:\mcu\design-mpu\source\ejemplos\BME680\bme680.c **** 		bme680_get_profile_dur(&profile_dur, &t_dev);
1417:D:\mcu\design-mpu\source\ejemplos\BME680\bme680.c **** 
ARM GAS  C:\Users\adria\AppData\Local\Temp\ccQ3AXqi.s 			page 43


1418:D:\mcu\design-mpu\source\ejemplos\BME680\bme680.c **** 		uint8_t i = 0;
1419:D:\mcu\design-mpu\source\ejemplos\BME680\bme680.c **** 		while ((rslt == BME680_OK) && (i < N_MEAS)) {
1420:D:\mcu\design-mpu\source\ejemplos\BME680\bme680.c **** 			if (rslt == BME680_OK) {
1421:D:\mcu\design-mpu\source\ejemplos\BME680\bme680.c **** 
1422:D:\mcu\design-mpu\source\ejemplos\BME680\bme680.c **** 				if (i % 2 == 0)
1423:D:\mcu\design-mpu\source\ejemplos\BME680\bme680.c **** 					t_dev.gas_sett.heatr_temp = HIGH_TEMP; /* Higher temperature */
1424:D:\mcu\design-mpu\source\ejemplos\BME680\bme680.c **** 				else
1425:D:\mcu\design-mpu\source\ejemplos\BME680\bme680.c **** 					t_dev.gas_sett.heatr_temp = LOW_TEMP; /* Lower temperature */
1426:D:\mcu\design-mpu\source\ejemplos\BME680\bme680.c **** 
1427:D:\mcu\design-mpu\source\ejemplos\BME680\bme680.c **** 				rslt = bme680_set_sensor_settings(settings_sel, &t_dev);
1428:D:\mcu\design-mpu\source\ejemplos\BME680\bme680.c **** 
1429:D:\mcu\design-mpu\source\ejemplos\BME680\bme680.c **** 				if (rslt == BME680_OK) {
1430:D:\mcu\design-mpu\source\ejemplos\BME680\bme680.c **** 
1431:D:\mcu\design-mpu\source\ejemplos\BME680\bme680.c **** 					rslt = bme680_set_sensor_mode(&t_dev); /* Trigger a measurement */
1432:D:\mcu\design-mpu\source\ejemplos\BME680\bme680.c **** 
1433:D:\mcu\design-mpu\source\ejemplos\BME680\bme680.c **** 					t_dev.delay_ms(profile_dur); /* Wait for the measurement to complete */
1434:D:\mcu\design-mpu\source\ejemplos\BME680\bme680.c **** 
1435:D:\mcu\design-mpu\source\ejemplos\BME680\bme680.c **** 					rslt = bme680_get_sensor_data(&data[i], &t_dev);
1436:D:\mcu\design-mpu\source\ejemplos\BME680\bme680.c **** 				}
1437:D:\mcu\design-mpu\source\ejemplos\BME680\bme680.c **** 			}
1438:D:\mcu\design-mpu\source\ejemplos\BME680\bme680.c **** 
1439:D:\mcu\design-mpu\source\ejemplos\BME680\bme680.c **** 			i++;
1440:D:\mcu\design-mpu\source\ejemplos\BME680\bme680.c **** 		}
1441:D:\mcu\design-mpu\source\ejemplos\BME680\bme680.c **** 
1442:D:\mcu\design-mpu\source\ejemplos\BME680\bme680.c **** 		if (rslt == BME680_OK)
1443:D:\mcu\design-mpu\source\ejemplos\BME680\bme680.c **** 			rslt = analyze_sensor_data(data, N_MEAS);
1444:D:\mcu\design-mpu\source\ejemplos\BME680\bme680.c **** 	}
1445:D:\mcu\design-mpu\source\ejemplos\BME680\bme680.c **** 
1446:D:\mcu\design-mpu\source\ejemplos\BME680\bme680.c **** 	return rslt;
1447:D:\mcu\design-mpu\source\ejemplos\BME680\bme680.c **** }
1448:D:\mcu\design-mpu\source\ejemplos\BME680\bme680.c **** 
1449:D:\mcu\design-mpu\source\ejemplos\BME680\bme680.c **** /*!
1450:D:\mcu\design-mpu\source\ejemplos\BME680\bme680.c ****  * @brief       Function to analyze the sensor data
1451:D:\mcu\design-mpu\source\ejemplos\BME680\bme680.c ****  */
1452:D:\mcu\design-mpu\source\ejemplos\BME680\bme680.c **** static int8_t analyze_sensor_data(struct bme680_field_data *data, uint8_t n_meas)
1453:D:\mcu\design-mpu\source\ejemplos\BME680\bme680.c **** {
 933              		.loc 1 1453 0
 934              		.cfi_startproc
 935              		@ args = 0, pretend = 0, frame = 0
 936              		@ frame_needed = 0, uses_anonymous_args = 0
 937              		@ link register save eliminated.
 938              	.LVL130:
 939 0000 30B4     		push	{r4, r5}
 940              		.cfi_def_cfa_offset 8
 941              		.cfi_offset 4, -8
 942              		.cfi_offset 5, -4
 943              	.LVL131:
1454:D:\mcu\design-mpu\source\ejemplos\BME680\bme680.c **** 	int8_t rslt = BME680_OK;
1455:D:\mcu\design-mpu\source\ejemplos\BME680\bme680.c **** 	uint8_t self_test_failed = 0, i;
1456:D:\mcu\design-mpu\source\ejemplos\BME680\bme680.c **** 	uint32_t cent_res = 0;
1457:D:\mcu\design-mpu\source\ejemplos\BME680\bme680.c **** 
1458:D:\mcu\design-mpu\source\ejemplos\BME680\bme680.c **** 	if ((data[0].temperature < MIN_TEMPERATURE) || (data[0].temperature > MAX_TEMPERATURE))
 944              		.loc 1 1458 0
 945 0002 8288     		ldrh	r2, [r0, #4]
 946 0004 41F27073 		movw	r3, #6000
 947 0008 9A42     		cmp	r2, r3
 948 000a 01D8     		bhi	.L63
ARM GAS  C:\Users\adria\AppData\Local\Temp\ccQ3AXqi.s 			page 44


1455:D:\mcu\design-mpu\source\ejemplos\BME680\bme680.c **** 	uint32_t cent_res = 0;
 949              		.loc 1 1455 0
 950 000c 0025     		movs	r5, #0
 951 000e 00E0     		b	.L54
 952              	.L63:
1459:D:\mcu\design-mpu\source\ejemplos\BME680\bme680.c **** 		self_test_failed++;
 953              		.loc 1 1459 0
 954 0010 0125     		movs	r5, #1
 955              	.L54:
 956              	.LVL132:
1460:D:\mcu\design-mpu\source\ejemplos\BME680\bme680.c **** 
1461:D:\mcu\design-mpu\source\ejemplos\BME680\bme680.c **** 	if ((data[0].pressure < MIN_PRESSURE) || (data[0].pressure > MAX_PRESSURE))
 957              		.loc 1 1461 0
 958 0012 8368     		ldr	r3, [r0, #8]
 959 0014 A3F5AF33 		sub	r3, r3, #89600
 960 0018 A3F5C873 		sub	r3, r3, #400
 961 001c 44F62062 		movw	r2, #20000
 962 0020 9342     		cmp	r3, r2
 963 0022 01D9     		bls	.L55
1462:D:\mcu\design-mpu\source\ejemplos\BME680\bme680.c **** 		self_test_failed++;
 964              		.loc 1 1462 0
 965 0024 0135     		adds	r5, r5, #1
 966              	.LVL133:
 967 0026 EDB2     		uxtb	r5, r5
 968              	.LVL134:
 969              	.L55:
1463:D:\mcu\design-mpu\source\ejemplos\BME680\bme680.c **** 
1464:D:\mcu\design-mpu\source\ejemplos\BME680\bme680.c **** 	if ((data[0].humidity < MIN_HUMIDITY) || (data[0].humidity > MAX_HUMIDITY))
 970              		.loc 1 1464 0
 971 0028 C368     		ldr	r3, [r0, #12]
 972 002a A3F59C43 		sub	r3, r3, #19968
 973 002e 203B     		subs	r3, r3, #32
 974 0030 4EF66022 		movw	r2, #60000
 975 0034 9342     		cmp	r3, r2
 976 0036 01D9     		bls	.L56
1465:D:\mcu\design-mpu\source\ejemplos\BME680\bme680.c **** 		self_test_failed++;
 977              		.loc 1 1465 0
 978 0038 0135     		adds	r5, r5, #1
 979              	.LVL135:
 980 003a EDB2     		uxtb	r5, r5
 981              	.LVL136:
 982              	.L56:
1459:D:\mcu\design-mpu\source\ejemplos\BME680\bme680.c **** 
 983              		.loc 1 1459 0 discriminator 1
 984 003c 0023     		movs	r3, #0
 985 003e 0AE0     		b	.L57
 986              	.LVL137:
 987              	.L59:
1466:D:\mcu\design-mpu\source\ejemplos\BME680\bme680.c **** 
1467:D:\mcu\design-mpu\source\ejemplos\BME680\bme680.c **** 	for (i = 0; i < n_meas; i++) /* Every gas measurement should be valid */
1468:D:\mcu\design-mpu\source\ejemplos\BME680\bme680.c **** 		if (!(data[i].status & BME680_GASM_VALID_MSK))
 988              		.loc 1 1468 0
 989 0040 03EB8304 		add	r4, r3, r3, lsl #2
 990 0044 A200     		lsls	r2, r4, #2
 991 0046 825C     		ldrb	r2, [r0, r2]	@ zero_extendqisi2
 992 0048 12F0200F 		tst	r2, #32
 993 004c 01D1     		bne	.L58
ARM GAS  C:\Users\adria\AppData\Local\Temp\ccQ3AXqi.s 			page 45


1469:D:\mcu\design-mpu\source\ejemplos\BME680\bme680.c **** 			self_test_failed++;
 994              		.loc 1 1469 0
 995 004e 0135     		adds	r5, r5, #1
 996              	.LVL138:
 997 0050 EDB2     		uxtb	r5, r5
 998              	.LVL139:
 999              	.L58:
1467:D:\mcu\design-mpu\source\ejemplos\BME680\bme680.c **** 		if (!(data[i].status & BME680_GASM_VALID_MSK))
 1000              		.loc 1 1467 0 discriminator 2
 1001 0052 0133     		adds	r3, r3, #1
 1002              	.LVL140:
 1003 0054 DBB2     		uxtb	r3, r3
 1004              	.LVL141:
 1005              	.L57:
1467:D:\mcu\design-mpu\source\ejemplos\BME680\bme680.c **** 		if (!(data[i].status & BME680_GASM_VALID_MSK))
 1006              		.loc 1 1467 0 is_stmt 0 discriminator 1
 1007 0056 8B42     		cmp	r3, r1
 1008 0058 F2D3     		bcc	.L59
1470:D:\mcu\design-mpu\source\ejemplos\BME680\bme680.c **** 
1471:D:\mcu\design-mpu\source\ejemplos\BME680\bme680.c **** 	if (n_meas >= 6)
 1009              		.loc 1 1471 0 is_stmt 1
 1010 005a 0529     		cmp	r1, #5
 1011 005c 07D9     		bls	.L64
1472:D:\mcu\design-mpu\source\ejemplos\BME680\bme680.c **** 		cent_res = (data[3].gas_resistance + data[5].gas_resistance) / (2 * data[4].gas_resistance);
 1012              		.loc 1 1472 0
 1013 005e C26C     		ldr	r2, [r0, #76]
 1014 0060 436F     		ldr	r3, [r0, #116]
 1015              	.LVL142:
 1016 0062 1344     		add	r3, r3, r2
 1017 0064 026E     		ldr	r2, [r0, #96]
 1018 0066 5200     		lsls	r2, r2, #1
 1019 0068 B3FBF2F3 		udiv	r3, r3, r2
 1020              	.LVL143:
 1021 006c 00E0     		b	.L60
 1022              	.LVL144:
 1023              	.L64:
1456:D:\mcu\design-mpu\source\ejemplos\BME680\bme680.c **** 
 1024              		.loc 1 1456 0
 1025 006e 0023     		movs	r3, #0
 1026              	.LVL145:
 1027              	.L60:
1473:D:\mcu\design-mpu\source\ejemplos\BME680\bme680.c **** 
1474:D:\mcu\design-mpu\source\ejemplos\BME680\bme680.c **** 	if ((cent_res * 5) < 6)
 1028              		.loc 1 1474 0
 1029 0070 03EB8303 		add	r3, r3, r3, lsl #2
 1030              	.LVL146:
 1031 0074 052B     		cmp	r3, #5
 1032 0076 01D8     		bhi	.L61
1475:D:\mcu\design-mpu\source\ejemplos\BME680\bme680.c **** 		self_test_failed++;
 1033              		.loc 1 1475 0
 1034 0078 0135     		adds	r5, r5, #1
 1035              	.LVL147:
 1036 007a EDB2     		uxtb	r5, r5
 1037              	.LVL148:
 1038              	.L61:
1476:D:\mcu\design-mpu\source\ejemplos\BME680\bme680.c **** 
1477:D:\mcu\design-mpu\source\ejemplos\BME680\bme680.c **** 	if (self_test_failed)
ARM GAS  C:\Users\adria\AppData\Local\Temp\ccQ3AXqi.s 			page 46


 1039              		.loc 1 1477 0
 1040 007c 0DB9     		cbnz	r5, .L65
1454:D:\mcu\design-mpu\source\ejemplos\BME680\bme680.c **** 	uint8_t self_test_failed = 0, i;
 1041              		.loc 1 1454 0
 1042 007e 0020     		movs	r0, #0
 1043              	.LVL149:
 1044 0080 00E0     		b	.L62
 1045              	.LVL150:
 1046              	.L65:
1478:D:\mcu\design-mpu\source\ejemplos\BME680\bme680.c **** 		rslt = BME680_W_SELF_TEST_FAILED;
 1047              		.loc 1 1478 0
 1048 0082 0320     		movs	r0, #3
 1049              	.LVL151:
 1050              	.L62:
1479:D:\mcu\design-mpu\source\ejemplos\BME680\bme680.c **** 
1480:D:\mcu\design-mpu\source\ejemplos\BME680\bme680.c **** 	return rslt;
1481:D:\mcu\design-mpu\source\ejemplos\BME680\bme680.c **** }
 1051              		.loc 1 1481 0
 1052 0084 30BC     		pop	{r4, r5}
 1053              		.cfi_restore 5
 1054              		.cfi_restore 4
 1055              		.cfi_def_cfa_offset 0
 1056              	.LVL152:
 1057 0086 7047     		bx	lr
 1058              		.cfi_endproc
 1059              	.LFE89:
 1060              		.size	analyze_sensor_data, .-analyze_sensor_data
 1061              		.section	.text.user_delay_ms,"ax",%progbits
 1062              		.align	2
 1063              		.thumb
 1064              		.thumb_func
 1065              		.type	user_delay_ms, %function
 1066              	user_delay_ms:
 1067              	.LFB90:
1482:D:\mcu\design-mpu\source\ejemplos\BME680\bme680.c **** 
1483:D:\mcu\design-mpu\source\ejemplos\BME680\bme680.c **** static void user_delay_ms(uint32_t period)
1484:D:\mcu\design-mpu\source\ejemplos\BME680\bme680.c **** {
 1068              		.loc 1 1484 0
 1069              		.cfi_startproc
 1070              		@ args = 0, pretend = 0, frame = 0
 1071              		@ frame_needed = 0, uses_anonymous_args = 0
 1072              	.LVL153:
 1073 0000 08B5     		push	{r3, lr}
 1074              		.cfi_def_cfa_offset 8
 1075              		.cfi_offset 3, -8
 1076              		.cfi_offset 14, -4
1485:D:\mcu\design-mpu\source\ejemplos\BME680\bme680.c ****     /*
1486:D:\mcu\design-mpu\source\ejemplos\BME680\bme680.c ****      * Return control or wait,
1487:D:\mcu\design-mpu\source\ejemplos\BME680\bme680.c ****      * for a period amount of milliseconds
1488:D:\mcu\design-mpu\source\ejemplos\BME680\bme680.c ****      */
1489:D:\mcu\design-mpu\source\ejemplos\BME680\bme680.c ****     CyDelay(period);
 1077              		.loc 1 1489 0
 1078 0002 FFF7FEFF 		bl	CyDelay
 1079              	.LVL154:
 1080 0006 08BD     		pop	{r3, pc}
 1081              		.cfi_endproc
 1082              	.LFE90:
ARM GAS  C:\Users\adria\AppData\Local\Temp\ccQ3AXqi.s 			page 47


 1083              		.size	user_delay_ms, .-user_delay_ms
 1084              		.section	.text.user_i2c_write,"ax",%progbits
 1085              		.align	2
 1086              		.thumb
 1087              		.thumb_func
 1088              		.type	user_i2c_write, %function
 1089              	user_i2c_write:
 1090              	.LFB92:
1490:D:\mcu\design-mpu\source\ejemplos\BME680\bme680.c **** }
1491:D:\mcu\design-mpu\source\ejemplos\BME680\bme680.c **** 
1492:D:\mcu\design-mpu\source\ejemplos\BME680\bme680.c **** static int8_t user_i2c_read(uint8_t dev_id, uint8_t reg_addr, uint8_t *reg_data, uint16_t len)
1493:D:\mcu\design-mpu\source\ejemplos\BME680\bme680.c **** {
1494:D:\mcu\design-mpu\source\ejemplos\BME680\bme680.c ****     int8_t rslt = 0; /* Return 0 for Success, non-zero for failure */
1495:D:\mcu\design-mpu\source\ejemplos\BME680\bme680.c ****     uint16_t i = 0;
1496:D:\mcu\design-mpu\source\ejemplos\BME680\bme680.c **** 
1497:D:\mcu\design-mpu\source\ejemplos\BME680\bme680.c ****     /*
1498:D:\mcu\design-mpu\source\ejemplos\BME680\bme680.c ****      * The parameter dev_id can be used as a variable to store the I2C address of the device
1499:D:\mcu\design-mpu\source\ejemplos\BME680\bme680.c ****      */
1500:D:\mcu\design-mpu\source\ejemplos\BME680\bme680.c **** 
1501:D:\mcu\design-mpu\source\ejemplos\BME680\bme680.c ****     /*
1502:D:\mcu\design-mpu\source\ejemplos\BME680\bme680.c ****      * Data on the bus should be like
1503:D:\mcu\design-mpu\source\ejemplos\BME680\bme680.c ****      * |------------+---------------------|
1504:D:\mcu\design-mpu\source\ejemplos\BME680\bme680.c ****      * | I2C action | Data                |
1505:D:\mcu\design-mpu\source\ejemplos\BME680\bme680.c ****      * |------------+---------------------|
1506:D:\mcu\design-mpu\source\ejemplos\BME680\bme680.c ****      * | Start      | -                   |
1507:D:\mcu\design-mpu\source\ejemplos\BME680\bme680.c ****      * | Write      | (reg_addr)          |
1508:D:\mcu\design-mpu\source\ejemplos\BME680\bme680.c ****      * | Stop       | -                   |
1509:D:\mcu\design-mpu\source\ejemplos\BME680\bme680.c ****      * | Start      | -                   |
1510:D:\mcu\design-mpu\source\ejemplos\BME680\bme680.c ****      * | Read       | (reg_data[0])       |
1511:D:\mcu\design-mpu\source\ejemplos\BME680\bme680.c ****      * | Read       | (....)              |
1512:D:\mcu\design-mpu\source\ejemplos\BME680\bme680.c ****      * | Read       | (reg_data[len - 1]) |
1513:D:\mcu\design-mpu\source\ejemplos\BME680\bme680.c ****      * | Stop       | -                   |
1514:D:\mcu\design-mpu\source\ejemplos\BME680\bme680.c ****      * |------------+---------------------|
1515:D:\mcu\design-mpu\source\ejemplos\BME680\bme680.c ****      */
1516:D:\mcu\design-mpu\source\ejemplos\BME680\bme680.c ****     
1517:D:\mcu\design-mpu\source\ejemplos\BME680\bme680.c ****     rslt = I2C_MasterSendStart(dev_id, I2C_WRITE_XFER_MODE);
1518:D:\mcu\design-mpu\source\ejemplos\BME680\bme680.c ****     rslt = I2C_MasterWriteByte(reg_addr);
1519:D:\mcu\design-mpu\source\ejemplos\BME680\bme680.c ****     rslt = I2C_MasterSendRestart(dev_id, I2C_READ_XFER_MODE);
1520:D:\mcu\design-mpu\source\ejemplos\BME680\bme680.c ****     while(i < (len - 1)) {
1521:D:\mcu\design-mpu\source\ejemplos\BME680\bme680.c ****         reg_data[i] = I2C_MasterReadByte(I2C_ACK_DATA);
1522:D:\mcu\design-mpu\source\ejemplos\BME680\bme680.c ****         i++;
1523:D:\mcu\design-mpu\source\ejemplos\BME680\bme680.c ****     }
1524:D:\mcu\design-mpu\source\ejemplos\BME680\bme680.c ****     reg_data[i] = I2C_MasterReadByte(I2C_NAK_DATA);
1525:D:\mcu\design-mpu\source\ejemplos\BME680\bme680.c ****     rslt = I2C_MasterSendStop();
1526:D:\mcu\design-mpu\source\ejemplos\BME680\bme680.c ****         
1527:D:\mcu\design-mpu\source\ejemplos\BME680\bme680.c ****     return rslt;
1528:D:\mcu\design-mpu\source\ejemplos\BME680\bme680.c **** }
1529:D:\mcu\design-mpu\source\ejemplos\BME680\bme680.c **** 
1530:D:\mcu\design-mpu\source\ejemplos\BME680\bme680.c **** static int8_t user_i2c_write(uint8_t dev_id, uint8_t reg_addr, uint8_t *reg_data, uint16_t len)
1531:D:\mcu\design-mpu\source\ejemplos\BME680\bme680.c **** {
 1091              		.loc 1 1531 0
 1092              		.cfi_startproc
 1093              		@ args = 0, pretend = 0, frame = 0
 1094              		@ frame_needed = 0, uses_anonymous_args = 0
 1095              	.LVL155:
 1096 0000 70B5     		push	{r4, r5, r6, lr}
 1097              		.cfi_def_cfa_offset 16
ARM GAS  C:\Users\adria\AppData\Local\Temp\ccQ3AXqi.s 			page 48


 1098              		.cfi_offset 4, -16
 1099              		.cfi_offset 5, -12
 1100              		.cfi_offset 6, -8
 1101              		.cfi_offset 14, -4
 1102 0002 0C46     		mov	r4, r1
 1103 0004 1546     		mov	r5, r2
 1104 0006 1E46     		mov	r6, r3
 1105              	.LVL156:
1532:D:\mcu\design-mpu\source\ejemplos\BME680\bme680.c ****     int8_t rslt = 0; /* Return 0 for Success, non-zero for failure */
1533:D:\mcu\design-mpu\source\ejemplos\BME680\bme680.c ****     uint16_t i = 0;
1534:D:\mcu\design-mpu\source\ejemplos\BME680\bme680.c **** 
1535:D:\mcu\design-mpu\source\ejemplos\BME680\bme680.c ****     /*
1536:D:\mcu\design-mpu\source\ejemplos\BME680\bme680.c ****      * The parameter dev_id can be used as a variable to store the I2C address of the device
1537:D:\mcu\design-mpu\source\ejemplos\BME680\bme680.c ****      */
1538:D:\mcu\design-mpu\source\ejemplos\BME680\bme680.c **** 
1539:D:\mcu\design-mpu\source\ejemplos\BME680\bme680.c ****     /*
1540:D:\mcu\design-mpu\source\ejemplos\BME680\bme680.c ****      * Data on the bus should be like
1541:D:\mcu\design-mpu\source\ejemplos\BME680\bme680.c ****      * |------------+---------------------|
1542:D:\mcu\design-mpu\source\ejemplos\BME680\bme680.c ****      * | I2C action | Data                |
1543:D:\mcu\design-mpu\source\ejemplos\BME680\bme680.c ****      * |------------+---------------------|
1544:D:\mcu\design-mpu\source\ejemplos\BME680\bme680.c ****      * | Start      | -                   |
1545:D:\mcu\design-mpu\source\ejemplos\BME680\bme680.c ****      * | Write      | (reg_addr)          |
1546:D:\mcu\design-mpu\source\ejemplos\BME680\bme680.c ****      * | Write      | (reg_data[0])       |
1547:D:\mcu\design-mpu\source\ejemplos\BME680\bme680.c ****      * | Write      | (....)              |
1548:D:\mcu\design-mpu\source\ejemplos\BME680\bme680.c ****      * | Write      | (reg_data[len - 1]) |
1549:D:\mcu\design-mpu\source\ejemplos\BME680\bme680.c ****      * | Stop       | -                   |
1550:D:\mcu\design-mpu\source\ejemplos\BME680\bme680.c ****      * |------------+---------------------|
1551:D:\mcu\design-mpu\source\ejemplos\BME680\bme680.c ****      */
1552:D:\mcu\design-mpu\source\ejemplos\BME680\bme680.c **** 
1553:D:\mcu\design-mpu\source\ejemplos\BME680\bme680.c ****     rslt = I2C_MasterSendStart(dev_id, I2C_WRITE_XFER_MODE);
 1106              		.loc 1 1553 0
 1107 0008 0021     		movs	r1, #0
 1108              	.LVL157:
 1109 000a FFF7FEFF 		bl	I2C_MasterSendStart
 1110              	.LVL158:
1554:D:\mcu\design-mpu\source\ejemplos\BME680\bme680.c ****     rslt = I2C_MasterWriteByte(reg_addr);
 1111              		.loc 1 1554 0
 1112 000e 2046     		mov	r0, r4
 1113 0010 FFF7FEFF 		bl	I2C_MasterWriteByte
 1114              	.LVL159:
1533:D:\mcu\design-mpu\source\ejemplos\BME680\bme680.c **** 
 1115              		.loc 1 1533 0
 1116 0014 0024     		movs	r4, #0
1555:D:\mcu\design-mpu\source\ejemplos\BME680\bme680.c ****     while(i < len) {
 1117              		.loc 1 1555 0
 1118 0016 05E0     		b	.L70
 1119              	.LVL160:
 1120              	.L71:
1556:D:\mcu\design-mpu\source\ejemplos\BME680\bme680.c ****         rslt = I2C_MasterWriteByte(*reg_data);
 1121              		.loc 1 1556 0
 1122 0018 15F8010B 		ldrb	r0, [r5], #1	@ zero_extendqisi2
 1123              	.LVL161:
 1124 001c FFF7FEFF 		bl	I2C_MasterWriteByte
 1125              	.LVL162:
1557:D:\mcu\design-mpu\source\ejemplos\BME680\bme680.c ****         i++;
 1126              		.loc 1 1557 0
 1127 0020 0134     		adds	r4, r4, #1
ARM GAS  C:\Users\adria\AppData\Local\Temp\ccQ3AXqi.s 			page 49


 1128              	.LVL163:
 1129 0022 A4B2     		uxth	r4, r4
 1130              	.LVL164:
 1131              	.L70:
1555:D:\mcu\design-mpu\source\ejemplos\BME680\bme680.c ****     while(i < len) {
 1132              		.loc 1 1555 0
 1133 0024 B442     		cmp	r4, r6
 1134 0026 F7D3     		bcc	.L71
1558:D:\mcu\design-mpu\source\ejemplos\BME680\bme680.c ****         reg_data++;
1559:D:\mcu\design-mpu\source\ejemplos\BME680\bme680.c ****     }
1560:D:\mcu\design-mpu\source\ejemplos\BME680\bme680.c ****     rslt = I2C_MasterSendStop();
 1135              		.loc 1 1560 0
 1136 0028 FFF7FEFF 		bl	I2C_MasterSendStop
 1137              	.LVL165:
1561:D:\mcu\design-mpu\source\ejemplos\BME680\bme680.c ****     
1562:D:\mcu\design-mpu\source\ejemplos\BME680\bme680.c ****     return rslt;
1563:D:\mcu\design-mpu\source\ejemplos\BME680\bme680.c **** }
 1138              		.loc 1 1563 0
 1139 002c 40B2     		sxtb	r0, r0
 1140 002e 70BD     		pop	{r4, r5, r6, pc}
 1141              		.cfi_endproc
 1142              	.LFE92:
 1143              		.size	user_i2c_write, .-user_i2c_write
 1144              		.section	.text.user_i2c_read,"ax",%progbits
 1145              		.align	2
 1146              		.thumb
 1147              		.thumb_func
 1148              		.type	user_i2c_read, %function
 1149              	user_i2c_read:
 1150              	.LFB91:
1493:D:\mcu\design-mpu\source\ejemplos\BME680\bme680.c ****     int8_t rslt = 0; /* Return 0 for Success, non-zero for failure */
 1151              		.loc 1 1493 0
 1152              		.cfi_startproc
 1153              		@ args = 0, pretend = 0, frame = 0
 1154              		@ frame_needed = 0, uses_anonymous_args = 0
 1155              	.LVL166:
 1156 0000 F8B5     		push	{r3, r4, r5, r6, r7, lr}
 1157              		.cfi_def_cfa_offset 24
 1158              		.cfi_offset 3, -24
 1159              		.cfi_offset 4, -20
 1160              		.cfi_offset 5, -16
 1161              		.cfi_offset 6, -12
 1162              		.cfi_offset 7, -8
 1163              		.cfi_offset 14, -4
 1164 0002 0446     		mov	r4, r0
 1165 0004 0F46     		mov	r7, r1
 1166 0006 1546     		mov	r5, r2
 1167 0008 1E46     		mov	r6, r3
 1168              	.LVL167:
1517:D:\mcu\design-mpu\source\ejemplos\BME680\bme680.c ****     rslt = I2C_MasterWriteByte(reg_addr);
 1169              		.loc 1 1517 0
 1170 000a 0021     		movs	r1, #0
 1171              	.LVL168:
 1172 000c FFF7FEFF 		bl	I2C_MasterSendStart
 1173              	.LVL169:
1518:D:\mcu\design-mpu\source\ejemplos\BME680\bme680.c ****     rslt = I2C_MasterSendRestart(dev_id, I2C_READ_XFER_MODE);
 1174              		.loc 1 1518 0
ARM GAS  C:\Users\adria\AppData\Local\Temp\ccQ3AXqi.s 			page 50


 1175 0010 3846     		mov	r0, r7
 1176 0012 FFF7FEFF 		bl	I2C_MasterWriteByte
 1177              	.LVL170:
1519:D:\mcu\design-mpu\source\ejemplos\BME680\bme680.c ****     while(i < (len - 1)) {
 1178              		.loc 1 1519 0
 1179 0016 0121     		movs	r1, #1
 1180 0018 2046     		mov	r0, r4
 1181 001a FFF7FEFF 		bl	I2C_MasterSendRestart
 1182              	.LVL171:
1495:D:\mcu\design-mpu\source\ejemplos\BME680\bme680.c **** 
 1183              		.loc 1 1495 0
 1184 001e 0024     		movs	r4, #0
1520:D:\mcu\design-mpu\source\ejemplos\BME680\bme680.c ****         reg_data[i] = I2C_MasterReadByte(I2C_ACK_DATA);
 1185              		.loc 1 1520 0
 1186 0020 05E0     		b	.L74
 1187              	.LVL172:
 1188              	.L75:
1521:D:\mcu\design-mpu\source\ejemplos\BME680\bme680.c ****         i++;
 1189              		.loc 1 1521 0
 1190 0022 0120     		movs	r0, #1
 1191 0024 FFF7FEFF 		bl	I2C_MasterReadByte
 1192              	.LVL173:
 1193 0028 2855     		strb	r0, [r5, r4]
1522:D:\mcu\design-mpu\source\ejemplos\BME680\bme680.c ****     }
 1194              		.loc 1 1522 0
 1195 002a 0134     		adds	r4, r4, #1
 1196              	.LVL174:
 1197 002c A4B2     		uxth	r4, r4
 1198              	.LVL175:
 1199              	.L74:
1520:D:\mcu\design-mpu\source\ejemplos\BME680\bme680.c ****         reg_data[i] = I2C_MasterReadByte(I2C_ACK_DATA);
 1200              		.loc 1 1520 0
 1201 002e 731E     		subs	r3, r6, #1
 1202 0030 9C42     		cmp	r4, r3
 1203 0032 F6DB     		blt	.L75
1524:D:\mcu\design-mpu\source\ejemplos\BME680\bme680.c ****     rslt = I2C_MasterSendStop();
 1204              		.loc 1 1524 0
 1205 0034 0020     		movs	r0, #0
 1206 0036 FFF7FEFF 		bl	I2C_MasterReadByte
 1207              	.LVL176:
 1208 003a 2855     		strb	r0, [r5, r4]
1525:D:\mcu\design-mpu\source\ejemplos\BME680\bme680.c ****         
 1209              		.loc 1 1525 0
 1210 003c FFF7FEFF 		bl	I2C_MasterSendStop
 1211              	.LVL177:
1528:D:\mcu\design-mpu\source\ejemplos\BME680\bme680.c **** 
 1212              		.loc 1 1528 0
 1213 0040 40B2     		sxtb	r0, r0
 1214 0042 F8BD     		pop	{r3, r4, r5, r6, r7, pc}
 1215              		.cfi_endproc
 1216              	.LFE91:
 1217              		.size	user_i2c_read, .-user_i2c_read
 1218              		.section	.text.bme680_get_regs,"ax",%progbits
 1219              		.align	2
 1220              		.global	bme680_get_regs
 1221              		.thumb
 1222              		.thumb_func
ARM GAS  C:\Users\adria\AppData\Local\Temp\ccQ3AXqi.s 			page 51


 1223              		.type	bme680_get_regs, %function
 1224              	bme680_get_regs:
 1225              	.LFB64:
 312:D:\mcu\design-mpu\source\ejemplos\BME680\bme680.c **** 	int8_t rslt;
 1226              		.loc 1 312 0
 1227              		.cfi_startproc
 1228              		@ args = 0, pretend = 0, frame = 0
 1229              		@ frame_needed = 0, uses_anonymous_args = 0
 1230              	.LVL178:
 1231 0000 2DE9F843 		push	{r3, r4, r5, r6, r7, r8, r9, lr}
 1232              		.cfi_def_cfa_offset 32
 1233              		.cfi_offset 3, -32
 1234              		.cfi_offset 4, -28
 1235              		.cfi_offset 5, -24
 1236              		.cfi_offset 6, -20
 1237              		.cfi_offset 7, -16
 1238              		.cfi_offset 8, -12
 1239              		.cfi_offset 9, -8
 1240              		.cfi_offset 14, -4
 1241 0004 0646     		mov	r6, r0
 1242 0006 8846     		mov	r8, r1
 1243 0008 9146     		mov	r9, r2
 1244 000a 1C46     		mov	r4, r3
 316:D:\mcu\design-mpu\source\ejemplos\BME680\bme680.c **** 	if (rslt == BME680_OK) {
 1245              		.loc 1 316 0
 1246 000c 1846     		mov	r0, r3
 1247              	.LVL179:
 1248 000e FFF7FEFF 		bl	null_ptr_check
 1249              	.LVL180:
 317:D:\mcu\design-mpu\source\ejemplos\BME680\bme680.c **** 		if (dev->intf == BME680_SPI_INTF) {
 1250              		.loc 1 317 0
 1251 0012 0546     		mov	r5, r0
 1252 0014 A0B9     		cbnz	r0, .L78
 318:D:\mcu\design-mpu\source\ejemplos\BME680\bme680.c **** 			/* Set the memory page */
 1253              		.loc 1 318 0
 1254 0016 A378     		ldrb	r3, [r4, #2]	@ zero_extendqisi2
 1255 0018 3BB9     		cbnz	r3, .L79
 320:D:\mcu\design-mpu\source\ejemplos\BME680\bme680.c **** 			if (rslt == BME680_OK)
 1256              		.loc 1 320 0
 1257 001a 2146     		mov	r1, r4
 1258 001c 3046     		mov	r0, r6
 1259              	.LVL181:
 1260 001e FFF7FEFF 		bl	set_mem_page
 1261              	.LVL182:
 321:D:\mcu\design-mpu\source\ejemplos\BME680\bme680.c **** 				reg_addr = reg_addr | BME680_SPI_RD_MSK;
 1262              		.loc 1 321 0
 1263 0022 0546     		mov	r5, r0
 1264 0024 08B9     		cbnz	r0, .L79
 322:D:\mcu\design-mpu\source\ejemplos\BME680\bme680.c **** 		}
 1265              		.loc 1 322 0
 1266 0026 46F08006 		orr	r6, r6, #128
 1267              	.LVL183:
 1268              	.L79:
 324:D:\mcu\design-mpu\source\ejemplos\BME680\bme680.c **** 		if (dev->com_rslt != 0)
 1269              		.loc 1 324 0
 1270 002a A76C     		ldr	r7, [r4, #72]
 1271 002c 4B46     		mov	r3, r9
ARM GAS  C:\Users\adria\AppData\Local\Temp\ccQ3AXqi.s 			page 52


 1272 002e 4246     		mov	r2, r8
 1273 0030 3146     		mov	r1, r6
 1274 0032 6078     		ldrb	r0, [r4, #1]	@ zero_extendqisi2
 1275 0034 B847     		blx	r7
 1276              	.LVL184:
 1277 0036 84F85400 		strb	r0, [r4, #84]
 325:D:\mcu\design-mpu\source\ejemplos\BME680\bme680.c **** 			rslt = BME680_E_COM_FAIL;
 1278              		.loc 1 325 0
 1279 003a 08B1     		cbz	r0, .L78
 326:D:\mcu\design-mpu\source\ejemplos\BME680\bme680.c **** 	}
 1280              		.loc 1 326 0
 1281 003c 6FF00105 		mvn	r5, #1
 1282              	.LVL185:
 1283              	.L78:
 330:D:\mcu\design-mpu\source\ejemplos\BME680\bme680.c **** 
 1284              		.loc 1 330 0
 1285 0040 2846     		mov	r0, r5
 1286 0042 BDE8F883 		pop	{r3, r4, r5, r6, r7, r8, r9, pc}
 1287              		.cfi_endproc
 1288              	.LFE64:
 1289              		.size	bme680_get_regs, .-bme680_get_regs
 1290 0046 00BF     		.section	.text.get_calib_data,"ax",%progbits
 1291              		.align	2
 1292              		.thumb
 1293              		.thumb_func
 1294              		.type	get_calib_data, %function
 1295              	get_calib_data:
 1296              	.LFB74:
 725:D:\mcu\design-mpu\source\ejemplos\BME680\bme680.c **** 	int8_t rslt;
 1297              		.loc 1 725 0
 1298              		.cfi_startproc
 1299              		@ args = 0, pretend = 0, frame = 48
 1300              		@ frame_needed = 0, uses_anonymous_args = 0
 1301              	.LVL186:
 1302 0000 10B5     		push	{r4, lr}
 1303              		.cfi_def_cfa_offset 8
 1304              		.cfi_offset 4, -8
 1305              		.cfi_offset 14, -4
 1306 0002 8CB0     		sub	sp, sp, #48
 1307              		.cfi_def_cfa_offset 56
 1308 0004 0446     		mov	r4, r0
 727:D:\mcu\design-mpu\source\ejemplos\BME680\bme680.c **** 	uint8_t temp_var = 0; /* Temporary variable */
 1309              		.loc 1 727 0
 1310 0006 2922     		movs	r2, #41
 1311 0008 0021     		movs	r1, #0
 1312 000a 01A8     		add	r0, sp, #4
 1313              	.LVL187:
 1314 000c FFF7FEFF 		bl	memset
 1315              	.LVL188:
 728:D:\mcu\design-mpu\source\ejemplos\BME680\bme680.c **** 
 1316              		.loc 1 728 0
 1317 0010 0023     		movs	r3, #0
 1318 0012 8DF80330 		strb	r3, [sp, #3]
 731:D:\mcu\design-mpu\source\ejemplos\BME680\bme680.c **** 	if (rslt == BME680_OK) {
 1319              		.loc 1 731 0
 1320 0016 2046     		mov	r0, r4
 1321 0018 FFF7FEFF 		bl	null_ptr_check
ARM GAS  C:\Users\adria\AppData\Local\Temp\ccQ3AXqi.s 			page 53


 1322              	.LVL189:
 732:D:\mcu\design-mpu\source\ejemplos\BME680\bme680.c **** 		rslt = bme680_get_regs(BME680_COEFF_ADDR1, coeff_array, BME680_COEFF_ADDR1_LEN, dev);
 1323              		.loc 1 732 0
 1324 001c 0346     		mov	r3, r0
 1325 001e 0028     		cmp	r0, #0
 1326 0020 40F0B080 		bne	.L83
 733:D:\mcu\design-mpu\source\ejemplos\BME680\bme680.c **** 		/* Append the second half in the same array */
 1327              		.loc 1 733 0
 1328 0024 2346     		mov	r3, r4
 1329 0026 1922     		movs	r2, #25
 1330 0028 01A9     		add	r1, sp, #4
 1331 002a 8920     		movs	r0, #137
 1332              	.LVL190:
 1333 002c FFF7FEFF 		bl	bme680_get_regs
 1334              	.LVL191:
 735:D:\mcu\design-mpu\source\ejemplos\BME680\bme680.c **** 			rslt = bme680_get_regs(BME680_COEFF_ADDR2, &coeff_array[BME680_COEFF_ADDR1_LEN]
 1335              		.loc 1 735 0
 1336 0030 0346     		mov	r3, r0
 1337 0032 38B9     		cbnz	r0, .L84
 736:D:\mcu\design-mpu\source\ejemplos\BME680\bme680.c **** 			, BME680_COEFF_ADDR2_LEN, dev);
 1338              		.loc 1 736 0
 1339 0034 2346     		mov	r3, r4
 1340 0036 1022     		movs	r2, #16
 1341 0038 0DF11D01 		add	r1, sp, #29
 1342 003c E120     		movs	r0, #225
 1343              	.LVL192:
 1344 003e FFF7FEFF 		bl	bme680_get_regs
 1345              	.LVL193:
 1346 0042 0346     		mov	r3, r0
 1347              	.LVL194:
 1348              	.L84:
 740:D:\mcu\design-mpu\source\ejemplos\BME680\bme680.c **** 			coeff_array[BME680_T1_LSB_REG]));
 1349              		.loc 1 740 0
 1350 0044 9DF82610 		ldrb	r1, [sp, #38]	@ zero_extendqisi2
 1351 0048 9DF82520 		ldrb	r2, [sp, #37]	@ zero_extendqisi2
 1352 004c 42EA0122 		orr	r2, r2, r1, lsl #8
 1353 0050 E282     		strh	r2, [r4, #22]	@ movhi
 742:D:\mcu\design-mpu\source\ejemplos\BME680\bme680.c **** 			coeff_array[BME680_T2_LSB_REG]));
 1354              		.loc 1 742 0
 1355 0052 9DF80610 		ldrb	r1, [sp, #6]	@ zero_extendqisi2
 1356 0056 9DF80520 		ldrb	r2, [sp, #5]	@ zero_extendqisi2
 1357 005a 42EA0122 		orr	r2, r2, r1, lsl #8
 1358 005e 2283     		strh	r2, [r4, #24]	@ movhi
 744:D:\mcu\design-mpu\source\ejemplos\BME680\bme680.c **** 
 1359              		.loc 1 744 0
 1360 0060 9DF90720 		ldrsb	r2, [sp, #7]
 1361 0064 A276     		strb	r2, [r4, #26]
 747:D:\mcu\design-mpu\source\ejemplos\BME680\bme680.c **** 			coeff_array[BME680_P1_LSB_REG]));
 1362              		.loc 1 747 0
 1363 0066 9DF80A10 		ldrb	r1, [sp, #10]	@ zero_extendqisi2
 1364 006a 9DF80920 		ldrb	r2, [sp, #9]	@ zero_extendqisi2
 1365 006e 42EA0122 		orr	r2, r2, r1, lsl #8
 1366 0072 A283     		strh	r2, [r4, #28]	@ movhi
 749:D:\mcu\design-mpu\source\ejemplos\BME680\bme680.c **** 			coeff_array[BME680_P2_LSB_REG]));
 1367              		.loc 1 749 0
 1368 0074 9DF80C10 		ldrb	r1, [sp, #12]	@ zero_extendqisi2
 1369 0078 9DF80B20 		ldrb	r2, [sp, #11]	@ zero_extendqisi2
ARM GAS  C:\Users\adria\AppData\Local\Temp\ccQ3AXqi.s 			page 54


 1370 007c 42EA0122 		orr	r2, r2, r1, lsl #8
 1371 0080 E283     		strh	r2, [r4, #30]	@ movhi
 751:D:\mcu\design-mpu\source\ejemplos\BME680\bme680.c **** 		dev->calib.par_p4 = (int16_t) (BME680_CONCAT_BYTES(coeff_array[BME680_P4_MSB_REG],
 1372              		.loc 1 751 0
 1373 0082 9DF90D20 		ldrsb	r2, [sp, #13]
 1374 0086 84F82020 		strb	r2, [r4, #32]
 752:D:\mcu\design-mpu\source\ejemplos\BME680\bme680.c **** 			coeff_array[BME680_P4_LSB_REG]));
 1375              		.loc 1 752 0
 1376 008a 9DF81010 		ldrb	r1, [sp, #16]	@ zero_extendqisi2
 1377 008e 9DF80F20 		ldrb	r2, [sp, #15]	@ zero_extendqisi2
 1378 0092 42EA0122 		orr	r2, r2, r1, lsl #8
 1379 0096 6284     		strh	r2, [r4, #34]	@ movhi
 754:D:\mcu\design-mpu\source\ejemplos\BME680\bme680.c **** 			coeff_array[BME680_P5_LSB_REG]));
 1380              		.loc 1 754 0
 1381 0098 9DF81210 		ldrb	r1, [sp, #18]	@ zero_extendqisi2
 1382 009c 9DF81120 		ldrb	r2, [sp, #17]	@ zero_extendqisi2
 1383 00a0 42EA0122 		orr	r2, r2, r1, lsl #8
 1384 00a4 A284     		strh	r2, [r4, #36]	@ movhi
 756:D:\mcu\design-mpu\source\ejemplos\BME680\bme680.c **** 		dev->calib.par_p7 = (int8_t) (coeff_array[BME680_P7_REG]);
 1385              		.loc 1 756 0
 1386 00a6 9DF91420 		ldrsb	r2, [sp, #20]
 1387 00aa 84F82620 		strb	r2, [r4, #38]
 757:D:\mcu\design-mpu\source\ejemplos\BME680\bme680.c **** 		dev->calib.par_p8 = (int16_t) (BME680_CONCAT_BYTES(coeff_array[BME680_P8_MSB_REG],
 1388              		.loc 1 757 0
 1389 00ae 9DF91320 		ldrsb	r2, [sp, #19]
 1390 00b2 84F82720 		strb	r2, [r4, #39]
 758:D:\mcu\design-mpu\source\ejemplos\BME680\bme680.c **** 			coeff_array[BME680_P8_LSB_REG]));
 1391              		.loc 1 758 0
 1392 00b6 9DF81810 		ldrb	r1, [sp, #24]	@ zero_extendqisi2
 1393 00ba 9DF81720 		ldrb	r2, [sp, #23]	@ zero_extendqisi2
 1394 00be 42EA0122 		orr	r2, r2, r1, lsl #8
 1395 00c2 2285     		strh	r2, [r4, #40]	@ movhi
 760:D:\mcu\design-mpu\source\ejemplos\BME680\bme680.c **** 			coeff_array[BME680_P9_LSB_REG]));
 1396              		.loc 1 760 0
 1397 00c4 9DF81A10 		ldrb	r1, [sp, #26]	@ zero_extendqisi2
 1398 00c8 9DF81920 		ldrb	r2, [sp, #25]	@ zero_extendqisi2
 1399 00cc 42EA0122 		orr	r2, r2, r1, lsl #8
 1400 00d0 6285     		strh	r2, [r4, #42]	@ movhi
 762:D:\mcu\design-mpu\source\ejemplos\BME680\bme680.c **** 
 1401              		.loc 1 762 0
 1402 00d2 9DF81B20 		ldrb	r2, [sp, #27]	@ zero_extendqisi2
 1403 00d6 84F82C20 		strb	r2, [r4, #44]
 765:D:\mcu\design-mpu\source\ejemplos\BME680\bme680.c **** 			| (coeff_array[BME680_H1_LSB_REG] & BME680_BIT_H1_DATA_MSK));
 1404              		.loc 1 765 0
 1405 00da 9DF81F00 		ldrb	r0, [sp, #31]	@ zero_extendqisi2
 766:D:\mcu\design-mpu\source\ejemplos\BME680\bme680.c **** 		dev->calib.par_h2 = (uint16_t) (((uint16_t) coeff_array[BME680_H2_MSB_REG] << BME680_HUM_REG_SHIF
 1406              		.loc 1 766 0
 1407 00de 9DF81E20 		ldrb	r2, [sp, #30]	@ zero_extendqisi2
 765:D:\mcu\design-mpu\source\ejemplos\BME680\bme680.c **** 			| (coeff_array[BME680_H1_LSB_REG] & BME680_BIT_H1_DATA_MSK));
 1408              		.loc 1 765 0
 1409 00e2 02F00F01 		and	r1, r2, #15
 1410 00e6 41EA0011 		orr	r1, r1, r0, lsl #4
 1411 00ea 2181     		strh	r1, [r4, #8]	@ movhi
 767:D:\mcu\design-mpu\source\ejemplos\BME680\bme680.c **** 			| ((coeff_array[BME680_H2_LSB_REG]) >> BME680_HUM_REG_SHIFT_VAL));
 1412              		.loc 1 767 0
 1413 00ec 9DF81D10 		ldrb	r1, [sp, #29]	@ zero_extendqisi2
 1414 00f0 1209     		lsrs	r2, r2, #4
ARM GAS  C:\Users\adria\AppData\Local\Temp\ccQ3AXqi.s 			page 55


 1415 00f2 42EA0112 		orr	r2, r2, r1, lsl #4
 1416 00f6 6281     		strh	r2, [r4, #10]	@ movhi
 769:D:\mcu\design-mpu\source\ejemplos\BME680\bme680.c **** 		dev->calib.par_h4 = (int8_t) coeff_array[BME680_H4_REG];
 1417              		.loc 1 769 0
 1418 00f8 9DF92020 		ldrsb	r2, [sp, #32]
 1419 00fc 2273     		strb	r2, [r4, #12]
 770:D:\mcu\design-mpu\source\ejemplos\BME680\bme680.c **** 		dev->calib.par_h5 = (int8_t) coeff_array[BME680_H5_REG];
 1420              		.loc 1 770 0
 1421 00fe 9DF92120 		ldrsb	r2, [sp, #33]
 1422 0102 6273     		strb	r2, [r4, #13]
 771:D:\mcu\design-mpu\source\ejemplos\BME680\bme680.c **** 		dev->calib.par_h6 = (uint8_t) coeff_array[BME680_H6_REG];
 1423              		.loc 1 771 0
 1424 0104 9DF92220 		ldrsb	r2, [sp, #34]
 1425 0108 A273     		strb	r2, [r4, #14]
 772:D:\mcu\design-mpu\source\ejemplos\BME680\bme680.c **** 		dev->calib.par_h7 = (int8_t) coeff_array[BME680_H7_REG];
 1426              		.loc 1 772 0
 1427 010a 9DF82320 		ldrb	r2, [sp, #35]	@ zero_extendqisi2
 1428 010e E273     		strb	r2, [r4, #15]
 773:D:\mcu\design-mpu\source\ejemplos\BME680\bme680.c **** 
 1429              		.loc 1 773 0
 1430 0110 9DF92420 		ldrsb	r2, [sp, #36]
 1431 0114 2274     		strb	r2, [r4, #16]
 776:D:\mcu\design-mpu\source\ejemplos\BME680\bme680.c **** 		dev->calib.par_gh2 = (int16_t) (BME680_CONCAT_BYTES(coeff_array[BME680_GH2_MSB_REG],
 1432              		.loc 1 776 0
 1433 0116 9DF92920 		ldrsb	r2, [sp, #41]
 1434 011a 6274     		strb	r2, [r4, #17]
 777:D:\mcu\design-mpu\source\ejemplos\BME680\bme680.c **** 			coeff_array[BME680_GH2_LSB_REG]));
 1435              		.loc 1 777 0
 1436 011c 9DF82810 		ldrb	r1, [sp, #40]	@ zero_extendqisi2
 1437 0120 9DF82720 		ldrb	r2, [sp, #39]	@ zero_extendqisi2
 1438 0124 42EA0122 		orr	r2, r2, r1, lsl #8
 1439 0128 6282     		strh	r2, [r4, #18]	@ movhi
 779:D:\mcu\design-mpu\source\ejemplos\BME680\bme680.c **** 
 1440              		.loc 1 779 0
 1441 012a 9DF92A20 		ldrsb	r2, [sp, #42]
 1442 012e 2275     		strb	r2, [r4, #20]
 782:D:\mcu\design-mpu\source\ejemplos\BME680\bme680.c **** 			rslt = bme680_get_regs(BME680_ADDR_RES_HEAT_RANGE_ADDR, &temp_var, 1, dev);
 1443              		.loc 1 782 0
 1444 0130 1BBB     		cbnz	r3, .L85
 783:D:\mcu\design-mpu\source\ejemplos\BME680\bme680.c **** 
 1445              		.loc 1 783 0
 1446 0132 2346     		mov	r3, r4
 1447              	.LVL195:
 1448 0134 0122     		movs	r2, #1
 1449 0136 0DF10301 		add	r1, sp, #3
 1450 013a 0220     		movs	r0, #2
 1451 013c FFF7FEFF 		bl	bme680_get_regs
 1452              	.LVL196:
 785:D:\mcu\design-mpu\source\ejemplos\BME680\bme680.c **** 			if (rslt == BME680_OK) {
 1453              		.loc 1 785 0
 1454 0140 9DF80330 		ldrb	r3, [sp, #3]	@ zero_extendqisi2
 1455 0144 03F03003 		and	r3, r3, #48
 1456 0148 1B11     		asrs	r3, r3, #4
 1457 014a 84F83430 		strb	r3, [r4, #52]
 786:D:\mcu\design-mpu\source\ejemplos\BME680\bme680.c **** 				rslt = bme680_get_regs(BME680_ADDR_RES_HEAT_VAL_ADDR, &temp_var, 1, dev);
 1458              		.loc 1 786 0
 1459 014e 0346     		mov	r3, r0
ARM GAS  C:\Users\adria\AppData\Local\Temp\ccQ3AXqi.s 			page 56


 1460 0150 98B9     		cbnz	r0, .L85
 787:D:\mcu\design-mpu\source\ejemplos\BME680\bme680.c **** 
 1461              		.loc 1 787 0
 1462 0152 2346     		mov	r3, r4
 1463 0154 0122     		movs	r2, #1
 1464 0156 0DF10301 		add	r1, sp, #3
 1465 015a FFF7FEFF 		bl	bme680_get_regs
 1466              	.LVL197:
 789:D:\mcu\design-mpu\source\ejemplos\BME680\bme680.c **** 				if (rslt == BME680_OK)
 1467              		.loc 1 789 0
 1468 015e 9DF90330 		ldrsb	r3, [sp, #3]
 1469 0162 84F83530 		strb	r3, [r4, #53]
 790:D:\mcu\design-mpu\source\ejemplos\BME680\bme680.c **** 					rslt = bme680_get_regs(BME680_ADDR_RANGE_SW_ERR_ADDR, &temp_var, 1, dev);
 1470              		.loc 1 790 0
 1471 0166 0346     		mov	r3, r0
 1472 0168 38B9     		cbnz	r0, .L85
 791:D:\mcu\design-mpu\source\ejemplos\BME680\bme680.c **** 			}
 1473              		.loc 1 791 0
 1474 016a 2346     		mov	r3, r4
 1475 016c 0122     		movs	r2, #1
 1476 016e 0DF10301 		add	r1, sp, #3
 1477 0172 0420     		movs	r0, #4
 1478              	.LVL198:
 1479 0174 FFF7FEFF 		bl	bme680_get_regs
 1480              	.LVL199:
 1481 0178 0346     		mov	r3, r0
 1482              	.LVL200:
 1483              	.L85:
 794:D:\mcu\design-mpu\source\ejemplos\BME680\bme680.c **** 	}
 1484              		.loc 1 794 0
 1485 017a 9DF90320 		ldrsb	r2, [sp, #3]
 1486 017e 1211     		asrs	r2, r2, #4
 1487 0180 84F83620 		strb	r2, [r4, #54]
 1488              	.LVL201:
 1489              	.L83:
 798:D:\mcu\design-mpu\source\ejemplos\BME680\bme680.c **** 
 1490              		.loc 1 798 0
 1491 0184 1846     		mov	r0, r3
 1492 0186 0CB0     		add	sp, sp, #48
 1493              		.cfi_def_cfa_offset 8
 1494              		@ sp needed
 1495 0188 10BD     		pop	{r4, pc}
 1496              		.cfi_endproc
 1497              	.LFE74:
 1498              		.size	get_calib_data, .-get_calib_data
 1499 018a 00BF     		.section	.text.get_gas_config,"ax",%progbits
 1500              		.align	2
 1501              		.thumb
 1502              		.thumb_func
 1503              		.type	get_gas_config, %function
 1504              	get_gas_config:
 1505              	.LFB76:
 836:D:\mcu\design-mpu\source\ejemplos\BME680\bme680.c **** 	int8_t rslt;
 1506              		.loc 1 836 0
 1507              		.cfi_startproc
 1508              		@ args = 0, pretend = 0, frame = 8
 1509              		@ frame_needed = 0, uses_anonymous_args = 0
ARM GAS  C:\Users\adria\AppData\Local\Temp\ccQ3AXqi.s 			page 57


 1510              	.LVL202:
 1511 0000 10B5     		push	{r4, lr}
 1512              		.cfi_def_cfa_offset 8
 1513              		.cfi_offset 4, -8
 1514              		.cfi_offset 14, -4
 1515 0002 82B0     		sub	sp, sp, #8
 1516              		.cfi_def_cfa_offset 16
 1517 0004 0446     		mov	r4, r0
 1518              	.LVL203:
 841:D:\mcu\design-mpu\source\ejemplos\BME680\bme680.c **** 
 1519              		.loc 1 841 0
 1520 0006 0023     		movs	r3, #0
 1521 0008 8DF80730 		strb	r3, [sp, #7]
 844:D:\mcu\design-mpu\source\ejemplos\BME680\bme680.c **** 	if (rslt == BME680_OK) {
 1522              		.loc 1 844 0
 1523 000c FFF7FEFF 		bl	null_ptr_check
 1524              	.LVL204:
 845:D:\mcu\design-mpu\source\ejemplos\BME680\bme680.c **** 		if (BME680_SPI_INTF == dev->intf) {
 1525              		.loc 1 845 0
 1526 0010 0346     		mov	r3, r0
 1527 0012 00BB     		cbnz	r0, .L89
 846:D:\mcu\design-mpu\source\ejemplos\BME680\bme680.c **** 			/* Memory page switch the SPI address*/
 1528              		.loc 1 846 0
 1529 0014 A278     		ldrb	r2, [r4, #2]	@ zero_extendqisi2
 1530 0016 22B9     		cbnz	r2, .L90
 848:D:\mcu\design-mpu\source\ejemplos\BME680\bme680.c **** 		}
 1531              		.loc 1 848 0
 1532 0018 2146     		mov	r1, r4
 1533 001a 5A20     		movs	r0, #90
 1534              	.LVL205:
 1535 001c FFF7FEFF 		bl	set_mem_page
 1536              	.LVL206:
 1537 0020 0346     		mov	r3, r0
 1538              	.LVL207:
 1539              	.L90:
 851:D:\mcu\design-mpu\source\ejemplos\BME680\bme680.c **** 			rslt = bme680_get_regs(reg_addr1, &reg_data, 1, dev);
 1540              		.loc 1 851 0
 1541 0022 C3B9     		cbnz	r3, .L89
 852:D:\mcu\design-mpu\source\ejemplos\BME680\bme680.c **** 			if (rslt == BME680_OK) {
 1542              		.loc 1 852 0
 1543 0024 2346     		mov	r3, r4
 1544              	.LVL208:
 1545 0026 0122     		movs	r2, #1
 1546 0028 0DF10701 		add	r1, sp, #7
 1547 002c 5A20     		movs	r0, #90
 1548 002e FFF7FEFF 		bl	bme680_get_regs
 1549              	.LVL209:
 853:D:\mcu\design-mpu\source\ejemplos\BME680\bme680.c **** 				dev->gas_sett.heatr_temp = reg_data;
 1550              		.loc 1 853 0
 1551 0032 0346     		mov	r3, r0
 1552 0034 78B9     		cbnz	r0, .L89
 854:D:\mcu\design-mpu\source\ejemplos\BME680\bme680.c **** 				rslt = bme680_get_regs(reg_addr2, &reg_data, 1, dev);
 1553              		.loc 1 854 0
 1554 0036 02A9     		add	r1, sp, #8
 1555 0038 11F8013D 		ldrb	r3, [r1, #-1]!	@ zero_extendqisi2
 1556 003c A4F84030 		strh	r3, [r4, #64]	@ movhi
 855:D:\mcu\design-mpu\source\ejemplos\BME680\bme680.c **** 				if (rslt == BME680_OK) {
ARM GAS  C:\Users\adria\AppData\Local\Temp\ccQ3AXqi.s 			page 58


 1557              		.loc 1 855 0
 1558 0040 2346     		mov	r3, r4
 1559 0042 0122     		movs	r2, #1
 1560 0044 6420     		movs	r0, #100
 1561              	.LVL210:
 1562 0046 FFF7FEFF 		bl	bme680_get_regs
 1563              	.LVL211:
 856:D:\mcu\design-mpu\source\ejemplos\BME680\bme680.c **** 					/* Heating duration register value */
 1564              		.loc 1 856 0
 1565 004a 0346     		mov	r3, r0
 1566 004c 18B9     		cbnz	r0, .L89
 858:D:\mcu\design-mpu\source\ejemplos\BME680\bme680.c **** 				}
 1567              		.loc 1 858 0
 1568 004e 9DF80720 		ldrb	r2, [sp, #7]	@ zero_extendqisi2
 1569 0052 A4F84220 		strh	r2, [r4, #66]	@ movhi
 1570              	.LVL212:
 1571              	.L89:
 865:D:\mcu\design-mpu\source\ejemplos\BME680\bme680.c **** 
 1572              		.loc 1 865 0
 1573 0056 1846     		mov	r0, r3
 1574 0058 02B0     		add	sp, sp, #8
 1575              		.cfi_def_cfa_offset 8
 1576              		@ sp needed
 1577 005a 10BD     		pop	{r4, pc}
 1578              		.cfi_endproc
 1579              	.LFE76:
 1580              		.size	get_gas_config, .-get_gas_config
 1581              		.section	.text.read_field_data,"ax",%progbits
 1582              		.align	2
 1583              		.thumb
 1584              		.thumb_func
 1585              		.type	read_field_data, %function
 1586              	read_field_data:
 1587              	.LFB83:
1206:D:\mcu\design-mpu\source\ejemplos\BME680\bme680.c **** 	int8_t rslt;
 1588              		.loc 1 1206 0
 1589              		.cfi_startproc
 1590              		@ args = 0, pretend = 0, frame = 16
 1591              		@ frame_needed = 0, uses_anonymous_args = 0
 1592              	.LVL213:
 1593 0000 2DE9F04F 		push	{r4, r5, r6, r7, r8, r9, r10, fp, lr}
 1594              		.cfi_def_cfa_offset 36
 1595              		.cfi_offset 4, -36
 1596              		.cfi_offset 5, -32
 1597              		.cfi_offset 6, -28
 1598              		.cfi_offset 7, -24
 1599              		.cfi_offset 8, -20
 1600              		.cfi_offset 9, -16
 1601              		.cfi_offset 10, -12
 1602              		.cfi_offset 11, -8
 1603              		.cfi_offset 14, -4
 1604 0004 85B0     		sub	sp, sp, #20
 1605              		.cfi_def_cfa_offset 56
 1606 0006 0746     		mov	r7, r0
 1607 0008 8A46     		mov	r10, r1
1208:D:\mcu\design-mpu\source\ejemplos\BME680\bme680.c **** 	uint8_t gas_range;
 1608              		.loc 1 1208 0
ARM GAS  C:\Users\adria\AppData\Local\Temp\ccQ3AXqi.s 			page 59


 1609 000a 0023     		movs	r3, #0
 1610 000c 0093     		str	r3, [sp]
 1611 000e 0193     		str	r3, [sp, #4]
 1612 0010 0293     		str	r3, [sp, #8]
 1613 0012 CDF80B30 		str	r3, [sp, #11]	@ unaligned
 1614              	.LVL214:
1217:D:\mcu\design-mpu\source\ejemplos\BME680\bme680.c **** 	do {
 1615              		.loc 1 1217 0
 1616 0016 0846     		mov	r0, r1
 1617              	.LVL215:
 1618 0018 FFF7FEFF 		bl	null_ptr_check
 1619              	.LVL216:
 1620 001c 0646     		mov	r6, r0
 1621              	.LVL217:
1214:D:\mcu\design-mpu\source\ejemplos\BME680\bme680.c **** 
 1622              		.loc 1 1214 0
 1623 001e 0A24     		movs	r4, #10
 1624              	.LVL218:
 1625              	.L96:
1219:D:\mcu\design-mpu\source\ejemplos\BME680\bme680.c **** 			rslt = bme680_get_regs(((uint8_t) (BME680_FIELD0_ADDR)), buff, (uint16_t) BME680_FIELD_LENGTH,
 1626              		.loc 1 1219 0
 1627 0020 002E     		cmp	r6, #0
 1628 0022 59D1     		bne	.L93
1220:D:\mcu\design-mpu\source\ejemplos\BME680\bme680.c **** 				dev);
 1629              		.loc 1 1220 0
 1630 0024 5346     		mov	r3, r10
 1631 0026 0F22     		movs	r2, #15
 1632 0028 6946     		mov	r1, sp
 1633 002a 1D20     		movs	r0, #29
 1634 002c FFF7FEFF 		bl	bme680_get_regs
 1635              	.LVL219:
 1636 0030 0646     		mov	r6, r0
 1637              	.LVL220:
1223:D:\mcu\design-mpu\source\ejemplos\BME680\bme680.c **** 			data->gas_index = buff[0] & BME680_GAS_INDEX_MSK;
 1638              		.loc 1 1223 0
 1639 0032 9DF80030 		ldrb	r3, [sp]	@ zero_extendqisi2
 1640 0036 03F0800E 		and	lr, r3, #128
1224:D:\mcu\design-mpu\source\ejemplos\BME680\bme680.c **** 			data->meas_index = buff[1];
 1641              		.loc 1 1224 0
 1642 003a 03F00F03 		and	r3, r3, #15
 1643 003e 7B70     		strb	r3, [r7, #1]
1225:D:\mcu\design-mpu\source\ejemplos\BME680\bme680.c **** 
 1644              		.loc 1 1225 0
 1645 0040 9DF80130 		ldrb	r3, [sp, #1]	@ zero_extendqisi2
 1646 0044 BB70     		strb	r3, [r7, #2]
1228:D:\mcu\design-mpu\source\ejemplos\BME680\bme680.c **** 				| ((uint32_t) buff[4] / 16));
 1647              		.loc 1 1228 0
 1648 0046 9DF80250 		ldrb	r5, [sp, #2]	@ zero_extendqisi2
 1649 004a 9DF80330 		ldrb	r3, [sp, #3]	@ zero_extendqisi2
 1650 004e 1B01     		lsls	r3, r3, #4
 1651 0050 43EA0533 		orr	r3, r3, r5, lsl #12
1229:D:\mcu\design-mpu\source\ejemplos\BME680\bme680.c **** 			adc_temp = (uint32_t) (((uint32_t) buff[5] * 4096) | ((uint32_t) buff[6] * 16)
 1652              		.loc 1 1229 0
 1653 0054 9DF80450 		ldrb	r5, [sp, #4]	@ zero_extendqisi2
1228:D:\mcu\design-mpu\source\ejemplos\BME680\bme680.c **** 				| ((uint32_t) buff[4] / 16));
 1654              		.loc 1 1228 0
 1655 0058 43EA1515 		orr	r5, r3, r5, lsr #4
ARM GAS  C:\Users\adria\AppData\Local\Temp\ccQ3AXqi.s 			page 60


 1656              	.LVL221:
1230:D:\mcu\design-mpu\source\ejemplos\BME680\bme680.c **** 				| ((uint32_t) buff[7] / 16));
 1657              		.loc 1 1230 0
 1658 005c 9DF80500 		ldrb	r0, [sp, #5]	@ zero_extendqisi2
 1659 0060 9DF80610 		ldrb	r1, [sp, #6]	@ zero_extendqisi2
 1660 0064 0901     		lsls	r1, r1, #4
 1661 0066 41EA0031 		orr	r1, r1, r0, lsl #12
1231:D:\mcu\design-mpu\source\ejemplos\BME680\bme680.c **** 			adc_hum = (uint16_t) (((uint32_t) buff[8] * 256) | (uint32_t) buff[9]);
 1662              		.loc 1 1231 0
 1663 006a 9DF80700 		ldrb	r0, [sp, #7]	@ zero_extendqisi2
1230:D:\mcu\design-mpu\source\ejemplos\BME680\bme680.c **** 				| ((uint32_t) buff[7] / 16));
 1664              		.loc 1 1230 0
 1665 006e 41EA1010 		orr	r0, r1, r0, lsr #4
 1666              	.LVL222:
1232:D:\mcu\design-mpu\source\ejemplos\BME680\bme680.c **** 			adc_gas_res = (uint16_t) ((uint32_t) buff[13] * 4 | (((uint32_t) buff[14]) / 64));
 1667              		.loc 1 1232 0
 1668 0072 9DF80890 		ldrb	r9, [sp, #8]	@ zero_extendqisi2
 1669 0076 9DF80930 		ldrb	r3, [sp, #9]	@ zero_extendqisi2
 1670 007a 43EA0929 		orr	r9, r3, r9, lsl #8
 1671              	.LVL223:
1233:D:\mcu\design-mpu\source\ejemplos\BME680\bme680.c **** 			gas_range = buff[14] & BME680_GAS_RANGE_MSK;
 1672              		.loc 1 1233 0
 1673 007e 9DF80D80 		ldrb	r8, [sp, #13]	@ zero_extendqisi2
 1674 0082 9DF80E30 		ldrb	r3, [sp, #14]	@ zero_extendqisi2
 1675 0086 9A09     		lsrs	r2, r3, #6
 1676 0088 42EA8808 		orr	r8, r2, r8, lsl #2
 1677              	.LVL224:
1234:D:\mcu\design-mpu\source\ejemplos\BME680\bme680.c **** 
 1678              		.loc 1 1234 0
 1679 008c 03F00F0B 		and	fp, r3, #15
 1680              	.LVL225:
1236:D:\mcu\design-mpu\source\ejemplos\BME680\bme680.c **** 			data->status |= buff[14] & BME680_HEAT_STAB_MSK;
 1681              		.loc 1 1236 0
 1682 0090 03F02002 		and	r2, r3, #32
 1683 0094 4EEA0202 		orr	r2, lr, r2
 1684 0098 52B2     		sxtb	r2, r2
1237:D:\mcu\design-mpu\source\ejemplos\BME680\bme680.c **** 
 1685              		.loc 1 1237 0
 1686 009a 03F01003 		and	r3, r3, #16
 1687 009e 1343     		orrs	r3, r3, r2
 1688 00a0 3B70     		strb	r3, [r7]
1239:D:\mcu\design-mpu\source\ejemplos\BME680\bme680.c **** 				data->temperature = calc_temperature(adc_temp, dev);
 1689              		.loc 1 1239 0
 1690 00a2 002B     		cmp	r3, #0
 1691 00a4 14DA     		bge	.L94
1240:D:\mcu\design-mpu\source\ejemplos\BME680\bme680.c **** 				data->pressure = calc_pressure(adc_pres, dev);
 1692              		.loc 1 1240 0
 1693 00a6 5146     		mov	r1, r10
 1694 00a8 FFF7FEFF 		bl	calc_temperature
 1695              	.LVL226:
 1696 00ac B880     		strh	r0, [r7, #4]	@ movhi
1241:D:\mcu\design-mpu\source\ejemplos\BME680\bme680.c **** 				data->humidity = calc_humidity(adc_hum, dev);
 1697              		.loc 1 1241 0
 1698 00ae 5146     		mov	r1, r10
 1699 00b0 2846     		mov	r0, r5
 1700 00b2 FFF7FEFF 		bl	calc_pressure
 1701              	.LVL227:
ARM GAS  C:\Users\adria\AppData\Local\Temp\ccQ3AXqi.s 			page 61


 1702 00b6 B860     		str	r0, [r7, #8]
1242:D:\mcu\design-mpu\source\ejemplos\BME680\bme680.c **** 				data->gas_resistance = calc_gas_resistance(adc_gas_res, gas_range, dev);
 1703              		.loc 1 1242 0
 1704 00b8 5146     		mov	r1, r10
 1705 00ba 4846     		mov	r0, r9
 1706 00bc FFF7FEFF 		bl	calc_humidity
 1707              	.LVL228:
 1708 00c0 F860     		str	r0, [r7, #12]
1243:D:\mcu\design-mpu\source\ejemplos\BME680\bme680.c **** 				break;
 1709              		.loc 1 1243 0
 1710 00c2 5246     		mov	r2, r10
 1711 00c4 5946     		mov	r1, fp
 1712 00c6 4046     		mov	r0, r8
 1713 00c8 FFF7FEFF 		bl	calc_gas_resistance
 1714              	.LVL229:
 1715 00cc 3861     		str	r0, [r7, #16]
1244:D:\mcu\design-mpu\source\ejemplos\BME680\bme680.c **** 			}
 1716              		.loc 1 1244 0
 1717 00ce 07E0     		b	.L95
 1718              	.LVL230:
 1719              	.L94:
1247:D:\mcu\design-mpu\source\ejemplos\BME680\bme680.c **** 		}
 1720              		.loc 1 1247 0
 1721 00d0 DAF85030 		ldr	r3, [r10, #80]
 1722 00d4 0A20     		movs	r0, #10
 1723              	.LVL231:
 1724 00d6 9847     		blx	r3
 1725              	.LVL232:
 1726              	.L93:
1249:D:\mcu\design-mpu\source\ejemplos\BME680\bme680.c **** 	} while (tries);
 1727              		.loc 1 1249 0
 1728 00d8 631E     		subs	r3, r4, #1
 1729              	.LVL233:
1250:D:\mcu\design-mpu\source\ejemplos\BME680\bme680.c **** 
 1730              		.loc 1 1250 0
 1731 00da 13F0FF04 		ands	r4, r3, #255
 1732 00de 9FD1     		bne	.L96
 1733              	.LVL234:
 1734              	.L95:
1252:D:\mcu\design-mpu\source\ejemplos\BME680\bme680.c **** 		rslt = BME680_W_NO_NEW_DATA;
 1735              		.loc 1 1252 0
 1736 00e0 04B9     		cbnz	r4, .L97
1253:D:\mcu\design-mpu\source\ejemplos\BME680\bme680.c **** 
 1737              		.loc 1 1253 0
 1738 00e2 0226     		movs	r6, #2
 1739              	.LVL235:
 1740              	.L97:
1256:D:\mcu\design-mpu\source\ejemplos\BME680\bme680.c **** 
 1741              		.loc 1 1256 0
 1742 00e4 3046     		mov	r0, r6
 1743 00e6 05B0     		add	sp, sp, #20
 1744              		.cfi_def_cfa_offset 36
 1745              		@ sp needed
 1746 00e8 BDE8F08F 		pop	{r4, r5, r6, r7, r8, r9, r10, fp, pc}
 1747              		.cfi_endproc
 1748              	.LFE83:
 1749              		.size	read_field_data, .-read_field_data
ARM GAS  C:\Users\adria\AppData\Local\Temp\ccQ3AXqi.s 			page 62


 1750              		.section	.text.bme680_set_regs,"ax",%progbits
 1751              		.align	2
 1752              		.global	bme680_set_regs
 1753              		.thumb
 1754              		.thumb_func
 1755              		.type	bme680_set_regs, %function
 1756              	bme680_set_regs:
 1757              	.LFB65:
 337:D:\mcu\design-mpu\source\ejemplos\BME680\bme680.c **** 	int8_t rslt;
 1758              		.loc 1 337 0
 1759              		.cfi_startproc
 1760              		@ args = 0, pretend = 0, frame = 40
 1761              		@ frame_needed = 0, uses_anonymous_args = 0
 1762              	.LVL236:
 1763 0000 2DE9F043 		push	{r4, r5, r6, r7, r8, r9, lr}
 1764              		.cfi_def_cfa_offset 28
 1765              		.cfi_offset 4, -28
 1766              		.cfi_offset 5, -24
 1767              		.cfi_offset 6, -20
 1768              		.cfi_offset 7, -16
 1769              		.cfi_offset 8, -12
 1770              		.cfi_offset 9, -8
 1771              		.cfi_offset 14, -4
 1772 0004 8BB0     		sub	sp, sp, #44
 1773              		.cfi_def_cfa_offset 72
 1774 0006 0646     		mov	r6, r0
 1775 0008 8846     		mov	r8, r1
 1776 000a 1746     		mov	r7, r2
 1777 000c 1D46     		mov	r5, r3
 340:D:\mcu\design-mpu\source\ejemplos\BME680\bme680.c **** 	uint16_t index;
 1778              		.loc 1 340 0
 1779 000e 2822     		movs	r2, #40
 1780              	.LVL237:
 1781 0010 0021     		movs	r1, #0
 1782              	.LVL238:
 1783 0012 6846     		mov	r0, sp
 1784              	.LVL239:
 1785 0014 FFF7FEFF 		bl	memset
 1786              	.LVL240:
 344:D:\mcu\design-mpu\source\ejemplos\BME680\bme680.c **** 	if (rslt == BME680_OK) {
 1787              		.loc 1 344 0
 1788 0018 2846     		mov	r0, r5
 1789 001a FFF7FEFF 		bl	null_ptr_check
 1790              	.LVL241:
 345:D:\mcu\design-mpu\source\ejemplos\BME680\bme680.c **** 		if ((len > 0) && (len < BME680_TMP_BUFFER_LENGTH / 2)) {
 1791              		.loc 1 345 0
 1792 001e 8146     		mov	r9, r0
 1793 0020 0028     		cmp	r0, #0
 1794 0022 3DD1     		bne	.L101
 346:D:\mcu\design-mpu\source\ejemplos\BME680\bme680.c **** 			/* Interleave the 2 arrays */
 1795              		.loc 1 346 0
 1796 0024 7B1E     		subs	r3, r7, #1
 1797 0026 DBB2     		uxtb	r3, r3
 1798 0028 122B     		cmp	r3, #18
 1799 002a 23D9     		bls	.L106
 365:D:\mcu\design-mpu\source\ejemplos\BME680\bme680.c **** 		}
 1800              		.loc 1 365 0
ARM GAS  C:\Users\adria\AppData\Local\Temp\ccQ3AXqi.s 			page 63


 1801 002c 6FF00309 		mvn	r9, #3
 1802 0030 36E0     		b	.L101
 1803              	.LVL242:
 1804              	.L105:
 349:D:\mcu\design-mpu\source\ejemplos\BME680\bme680.c **** 					/* Set the memory page */
 1805              		.loc 1 349 0
 1806 0032 AB78     		ldrb	r3, [r5, #2]	@ zero_extendqisi2
 1807 0034 6BB9     		cbnz	r3, .L103
 351:D:\mcu\design-mpu\source\ejemplos\BME680\bme680.c **** 					tmp_buff[(2 * index)] = reg_addr[index] & BME680_SPI_WR_MSK;
 1808              		.loc 1 351 0
 1809 0036 2946     		mov	r1, r5
 1810 0038 305D     		ldrb	r0, [r6, r4]	@ zero_extendqisi2
 1811 003a FFF7FEFF 		bl	set_mem_page
 1812              	.LVL243:
 1813 003e 8146     		mov	r9, r0
 1814              	.LVL244:
 352:D:\mcu\design-mpu\source\ejemplos\BME680\bme680.c **** 				} else {
 1815              		.loc 1 352 0
 1816 0040 325D     		ldrb	r2, [r6, r4]	@ zero_extendqisi2
 1817 0042 02F07F02 		and	r2, r2, #127
 1818 0046 0AAB     		add	r3, sp, #40
 1819 0048 03EB4403 		add	r3, r3, r4, lsl #1
 1820 004c 03F8282C 		strb	r2, [r3, #-40]
 1821 0050 05E0     		b	.L104
 1822              	.L103:
 354:D:\mcu\design-mpu\source\ejemplos\BME680\bme680.c **** 				}
 1823              		.loc 1 354 0
 1824 0052 325D     		ldrb	r2, [r6, r4]	@ zero_extendqisi2
 1825 0054 0AAB     		add	r3, sp, #40
 1826 0056 03EB4403 		add	r3, r3, r4, lsl #1
 1827 005a 03F8282C 		strb	r2, [r3, #-40]
 1828              	.L104:
 356:D:\mcu\design-mpu\source\ejemplos\BME680\bme680.c **** 			}
 1829              		.loc 1 356 0 discriminator 2
 1830 005e 6300     		lsls	r3, r4, #1
 1831 0060 0133     		adds	r3, r3, #1
 1832 0062 18F80420 		ldrb	r2, [r8, r4]	@ zero_extendqisi2
 1833 0066 0AA9     		add	r1, sp, #40
 1834 0068 0B44     		add	r3, r3, r1
 1835 006a 03F8282C 		strb	r2, [r3, #-40]
 348:D:\mcu\design-mpu\source\ejemplos\BME680\bme680.c **** 				if (dev->intf == BME680_SPI_INTF) {
 1836              		.loc 1 348 0 discriminator 2
 1837 006e 0134     		adds	r4, r4, #1
 1838              	.LVL245:
 1839 0070 A4B2     		uxth	r4, r4
 1840              	.LVL246:
 1841 0072 00E0     		b	.L102
 1842              	.LVL247:
 1843              	.L106:
 1844 0074 0024     		movs	r4, #0
 1845              	.LVL248:
 1846              	.L102:
 348:D:\mcu\design-mpu\source\ejemplos\BME680\bme680.c **** 				if (dev->intf == BME680_SPI_INTF) {
 1847              		.loc 1 348 0 is_stmt 0 discriminator 1
 1848 0076 BBB2     		uxth	r3, r7
 1849 0078 9C42     		cmp	r4, r3
 1850 007a DAD3     		bcc	.L105
ARM GAS  C:\Users\adria\AppData\Local\Temp\ccQ3AXqi.s 			page 64


 359:D:\mcu\design-mpu\source\ejemplos\BME680\bme680.c **** 				dev->com_rslt = dev->write(dev->dev_id, tmp_buff[0], &tmp_buff[1], (2 * len) - 1);
 1851              		.loc 1 359 0 is_stmt 1
 1852 007c B9F1000F 		cmp	r9, #0
 1853 0080 0ED1     		bne	.L101
 360:D:\mcu\design-mpu\source\ejemplos\BME680\bme680.c **** 				if (dev->com_rslt != 0)
 1854              		.loc 1 360 0
 1855 0082 EC6C     		ldr	r4, [r5, #76]
 1856              	.LVL249:
 1857 0084 5B00     		lsls	r3, r3, #1
 1858 0086 013B     		subs	r3, r3, #1
 1859 0088 9BB2     		uxth	r3, r3
 1860 008a 0DF10102 		add	r2, sp, #1
 1861 008e 9DF80010 		ldrb	r1, [sp]	@ zero_extendqisi2
 1862 0092 6878     		ldrb	r0, [r5, #1]	@ zero_extendqisi2
 1863 0094 A047     		blx	r4
 1864              	.LVL250:
 1865 0096 85F85400 		strb	r0, [r5, #84]
 361:D:\mcu\design-mpu\source\ejemplos\BME680\bme680.c **** 					rslt = BME680_E_COM_FAIL;
 1866              		.loc 1 361 0
 1867 009a 08B1     		cbz	r0, .L101
 362:D:\mcu\design-mpu\source\ejemplos\BME680\bme680.c **** 			}
 1868              		.loc 1 362 0
 1869 009c 6FF00109 		mvn	r9, #1
 1870              	.LVL251:
 1871              	.L101:
 370:D:\mcu\design-mpu\source\ejemplos\BME680\bme680.c **** 
 1872              		.loc 1 370 0
 1873 00a0 4846     		mov	r0, r9
 1874 00a2 0BB0     		add	sp, sp, #44
 1875              		.cfi_def_cfa_offset 28
 1876              		@ sp needed
 1877 00a4 BDE8F083 		pop	{r4, r5, r6, r7, r8, r9, pc}
 1878              		.cfi_endproc
 1879              	.LFE65:
 1880              		.size	bme680_set_regs, .-bme680_set_regs
 1881              		.section	.text.set_gas_config,"ax",%progbits
 1882              		.align	2
 1883              		.thumb
 1884              		.thumb_func
 1885              		.type	set_gas_config, %function
 1886              	set_gas_config:
 1887              	.LFB75:
 804:D:\mcu\design-mpu\source\ejemplos\BME680\bme680.c **** 	int8_t rslt;
 1888              		.loc 1 804 0
 1889              		.cfi_startproc
 1890              		@ args = 0, pretend = 0, frame = 8
 1891              		@ frame_needed = 0, uses_anonymous_args = 0
 1892              	.LVL252:
 1893 0000 30B5     		push	{r4, r5, lr}
 1894              		.cfi_def_cfa_offset 12
 1895              		.cfi_offset 4, -12
 1896              		.cfi_offset 5, -8
 1897              		.cfi_offset 14, -4
 1898 0002 83B0     		sub	sp, sp, #12
 1899              		.cfi_def_cfa_offset 24
 1900 0004 0546     		mov	r5, r0
 808:D:\mcu\design-mpu\source\ejemplos\BME680\bme680.c **** 	if (rslt == BME680_OK) {
ARM GAS  C:\Users\adria\AppData\Local\Temp\ccQ3AXqi.s 			page 65


 1901              		.loc 1 808 0
 1902 0006 FFF7FEFF 		bl	null_ptr_check
 1903              	.LVL253:
 809:D:\mcu\design-mpu\source\ejemplos\BME680\bme680.c **** 
 1904              		.loc 1 809 0
 1905 000a 0446     		mov	r4, r0
 1906 000c 40BB     		cbnz	r0, .L110
 1907              	.LBB2:
 811:D:\mcu\design-mpu\source\ejemplos\BME680\bme680.c **** 		uint8_t reg_data[2] = {0};
 1908              		.loc 1 811 0
 1909 000e 0023     		movs	r3, #0
 1910 0010 ADF80030 		strh	r3, [sp]	@ movhi
 812:D:\mcu\design-mpu\source\ejemplos\BME680\bme680.c **** 
 1911              		.loc 1 812 0
 1912 0014 ADF80430 		strh	r3, [sp, #4]	@ movhi
 814:D:\mcu\design-mpu\source\ejemplos\BME680\bme680.c **** 			reg_addr[0] = BME680_RES_HEAT0_ADDR;
 1913              		.loc 1 814 0
 1914 0018 95F84430 		ldrb	r3, [r5, #68]	@ zero_extendqisi2
 1915 001c 012B     		cmp	r3, #1
 1916 001e 16D1     		bne	.L113
 815:D:\mcu\design-mpu\source\ejemplos\BME680\bme680.c **** 			reg_data[0] = calc_heater_res(dev->gas_sett.heatr_temp, dev);
 1917              		.loc 1 815 0
 1918 0020 5A23     		movs	r3, #90
 1919 0022 8DF80030 		strb	r3, [sp]
 816:D:\mcu\design-mpu\source\ejemplos\BME680\bme680.c **** 			reg_addr[1] = BME680_GAS_WAIT0_ADDR;
 1920              		.loc 1 816 0
 1921 0026 2946     		mov	r1, r5
 1922 0028 B5F84000 		ldrh	r0, [r5, #64]
 1923              	.LVL254:
 1924 002c FFF7FEFF 		bl	calc_heater_res
 1925              	.LVL255:
 1926 0030 8DF80400 		strb	r0, [sp, #4]
 817:D:\mcu\design-mpu\source\ejemplos\BME680\bme680.c **** 			reg_data[1] = calc_heater_dur(dev->gas_sett.heatr_dur);
 1927              		.loc 1 817 0
 1928 0034 6423     		movs	r3, #100
 1929 0036 8DF80130 		strb	r3, [sp, #1]
 818:D:\mcu\design-mpu\source\ejemplos\BME680\bme680.c **** 			dev->gas_sett.nb_conv = 0;
 1930              		.loc 1 818 0
 1931 003a B5F84200 		ldrh	r0, [r5, #66]
 1932 003e FFF7FEFF 		bl	calc_heater_dur
 1933              	.LVL256:
 1934 0042 8DF80500 		strb	r0, [sp, #5]
 819:D:\mcu\design-mpu\source\ejemplos\BME680\bme680.c **** 		} else {
 1935              		.loc 1 819 0
 1936 0046 0023     		movs	r3, #0
 1937 0048 85F83C30 		strb	r3, [r5, #60]
 1938 004c 00E0     		b	.L111
 1939              	.LVL257:
 1940              	.L113:
 821:D:\mcu\design-mpu\source\ejemplos\BME680\bme680.c **** 		}
 1941              		.loc 1 821 0
 1942 004e 0124     		movs	r4, #1
 1943              	.LVL258:
 1944              	.L111:
 823:D:\mcu\design-mpu\source\ejemplos\BME680\bme680.c **** 			rslt = bme680_set_regs(reg_addr, reg_data, 2, dev);
 1945              		.loc 1 823 0
 1946 0050 34B9     		cbnz	r4, .L110
ARM GAS  C:\Users\adria\AppData\Local\Temp\ccQ3AXqi.s 			page 66


 824:D:\mcu\design-mpu\source\ejemplos\BME680\bme680.c **** 	}
 1947              		.loc 1 824 0
 1948 0052 2B46     		mov	r3, r5
 1949 0054 0222     		movs	r2, #2
 1950 0056 01A9     		add	r1, sp, #4
 1951 0058 6846     		mov	r0, sp
 1952 005a FFF7FEFF 		bl	bme680_set_regs
 1953              	.LVL259:
 1954 005e 0446     		mov	r4, r0
 1955              	.LVL260:
 1956              	.L110:
 1957              	.LBE2:
 828:D:\mcu\design-mpu\source\ejemplos\BME680\bme680.c **** 
 1958              		.loc 1 828 0
 1959 0060 2046     		mov	r0, r4
 1960 0062 03B0     		add	sp, sp, #12
 1961              		.cfi_def_cfa_offset 12
 1962              		@ sp needed
 1963 0064 30BD     		pop	{r4, r5, pc}
 1964              		.cfi_endproc
 1965              	.LFE75:
 1966              		.size	set_gas_config, .-set_gas_config
 1967 0066 00BF     		.section	.text.bme680_soft_reset,"ax",%progbits
 1968              		.align	2
 1969              		.global	bme680_soft_reset
 1970              		.thumb
 1971              		.thumb_func
 1972              		.type	bme680_soft_reset, %function
 1973              	bme680_soft_reset:
 1974              	.LFB66:
 376:D:\mcu\design-mpu\source\ejemplos\BME680\bme680.c **** 	int8_t rslt;
 1975              		.loc 1 376 0
 1976              		.cfi_startproc
 1977              		@ args = 0, pretend = 0, frame = 8
 1978              		@ frame_needed = 0, uses_anonymous_args = 0
 1979              	.LVL261:
 1980 0000 30B5     		push	{r4, r5, lr}
 1981              		.cfi_def_cfa_offset 12
 1982              		.cfi_offset 4, -12
 1983              		.cfi_offset 5, -8
 1984              		.cfi_offset 14, -4
 1985 0002 83B0     		sub	sp, sp, #12
 1986              		.cfi_def_cfa_offset 24
 1987 0004 0546     		mov	r5, r0
 378:D:\mcu\design-mpu\source\ejemplos\BME680\bme680.c **** 	/* 0xb6 is the soft reset command */
 1988              		.loc 1 378 0
 1989 0006 E023     		movs	r3, #224
 1990 0008 8DF80730 		strb	r3, [sp, #7]
 380:D:\mcu\design-mpu\source\ejemplos\BME680\bme680.c **** 
 1991              		.loc 1 380 0
 1992 000c B623     		movs	r3, #182
 1993 000e 8DF80630 		strb	r3, [sp, #6]
 383:D:\mcu\design-mpu\source\ejemplos\BME680\bme680.c **** 	if (rslt == BME680_OK) {
 1994              		.loc 1 383 0
 1995 0012 FFF7FEFF 		bl	null_ptr_check
 1996              	.LVL262:
 384:D:\mcu\design-mpu\source\ejemplos\BME680\bme680.c **** 		if (dev->intf == BME680_SPI_INTF)
ARM GAS  C:\Users\adria\AppData\Local\Temp\ccQ3AXqi.s 			page 67


 1997              		.loc 1 384 0
 1998 0016 0446     		mov	r4, r0
 1999 0018 C8B9     		cbnz	r0, .L116
 385:D:\mcu\design-mpu\source\ejemplos\BME680\bme680.c **** 			rslt = get_mem_page(dev);
 2000              		.loc 1 385 0
 2001 001a AB78     		ldrb	r3, [r5, #2]	@ zero_extendqisi2
 2002 001c 1BB9     		cbnz	r3, .L117
 386:D:\mcu\design-mpu\source\ejemplos\BME680\bme680.c **** 
 2003              		.loc 1 386 0
 2004 001e 2846     		mov	r0, r5
 2005              	.LVL263:
 2006 0020 FFF7FEFF 		bl	get_mem_page
 2007              	.LVL264:
 2008 0024 0446     		mov	r4, r0
 2009              	.LVL265:
 2010              	.L117:
 389:D:\mcu\design-mpu\source\ejemplos\BME680\bme680.c **** 			rslt = bme680_set_regs(&reg_addr, &soft_rst_cmd, 1, dev);
 2011              		.loc 1 389 0
 2012 0026 94B9     		cbnz	r4, .L116
 390:D:\mcu\design-mpu\source\ejemplos\BME680\bme680.c **** 			/* Wait for 5ms */
 2013              		.loc 1 390 0
 2014 0028 2B46     		mov	r3, r5
 2015 002a 0122     		movs	r2, #1
 2016 002c 0DF10601 		add	r1, sp, #6
 2017 0030 0DF10700 		add	r0, sp, #7
 2018 0034 FFF7FEFF 		bl	bme680_set_regs
 2019              	.LVL266:
 2020 0038 0446     		mov	r4, r0
 2021              	.LVL267:
 392:D:\mcu\design-mpu\source\ejemplos\BME680\bme680.c **** 
 2022              		.loc 1 392 0
 2023 003a 2B6D     		ldr	r3, [r5, #80]
 2024 003c 0A20     		movs	r0, #10
 2025 003e 9847     		blx	r3
 2026              	.LVL268:
 394:D:\mcu\design-mpu\source\ejemplos\BME680\bme680.c **** 				/* After reset get the memory page */
 2027              		.loc 1 394 0
 2028 0040 2CB9     		cbnz	r4, .L116
 396:D:\mcu\design-mpu\source\ejemplos\BME680\bme680.c **** 					rslt = get_mem_page(dev);
 2029              		.loc 1 396 0
 2030 0042 AB78     		ldrb	r3, [r5, #2]	@ zero_extendqisi2
 2031 0044 1BB9     		cbnz	r3, .L116
 397:D:\mcu\design-mpu\source\ejemplos\BME680\bme680.c **** 			}
 2032              		.loc 1 397 0
 2033 0046 2846     		mov	r0, r5
 2034 0048 FFF7FEFF 		bl	get_mem_page
 2035              	.LVL269:
 2036 004c 0446     		mov	r4, r0
 2037              	.LVL270:
 2038              	.L116:
 403:D:\mcu\design-mpu\source\ejemplos\BME680\bme680.c **** 
 2039              		.loc 1 403 0
 2040 004e 2046     		mov	r0, r4
 2041 0050 03B0     		add	sp, sp, #12
 2042              		.cfi_def_cfa_offset 12
 2043              		@ sp needed
 2044 0052 30BD     		pop	{r4, r5, pc}
ARM GAS  C:\Users\adria\AppData\Local\Temp\ccQ3AXqi.s 			page 68


 2045              		.cfi_endproc
 2046              	.LFE66:
 2047              		.size	bme680_soft_reset, .-bme680_soft_reset
 2048              		.section	.text.bme680_init,"ax",%progbits
 2049              		.align	2
 2050              		.global	bme680_init
 2051              		.thumb
 2052              		.thumb_func
 2053              		.type	bme680_init, %function
 2054              	bme680_init:
 2055              	.LFB63:
 284:D:\mcu\design-mpu\source\ejemplos\BME680\bme680.c **** 	int8_t rslt;
 2056              		.loc 1 284 0
 2057              		.cfi_startproc
 2058              		@ args = 0, pretend = 0, frame = 0
 2059              		@ frame_needed = 0, uses_anonymous_args = 0
 2060              	.LVL271:
 2061 0000 10B5     		push	{r4, lr}
 2062              		.cfi_def_cfa_offset 8
 2063              		.cfi_offset 4, -8
 2064              		.cfi_offset 14, -4
 2065 0002 0446     		mov	r4, r0
 288:D:\mcu\design-mpu\source\ejemplos\BME680\bme680.c **** 	if (rslt == BME680_OK) {
 2066              		.loc 1 288 0
 2067 0004 FFF7FEFF 		bl	null_ptr_check
 2068              	.LVL272:
 289:D:\mcu\design-mpu\source\ejemplos\BME680\bme680.c **** 		/* Soft reset to restore it to default values*/
 2069              		.loc 1 289 0
 2070 0008 0346     		mov	r3, r0
 2071 000a B0B9     		cbnz	r0, .L120
 291:D:\mcu\design-mpu\source\ejemplos\BME680\bme680.c **** 		if (rslt == BME680_OK) {
 2072              		.loc 1 291 0
 2073 000c 2046     		mov	r0, r4
 2074              	.LVL273:
 2075 000e FFF7FEFF 		bl	bme680_soft_reset
 2076              	.LVL274:
 292:D:\mcu\design-mpu\source\ejemplos\BME680\bme680.c **** 			rslt = bme680_get_regs(BME680_CHIP_ID_ADDR, &dev->chip_id, 1, dev);
 2077              		.loc 1 292 0
 2078 0012 0346     		mov	r3, r0
 2079 0014 88B9     		cbnz	r0, .L120
 293:D:\mcu\design-mpu\source\ejemplos\BME680\bme680.c **** 			if (rslt == BME680_OK) {
 2080              		.loc 1 293 0
 2081 0016 2346     		mov	r3, r4
 2082 0018 0122     		movs	r2, #1
 2083 001a 2146     		mov	r1, r4
 2084 001c D020     		movs	r0, #208
 2085              	.LVL275:
 2086 001e FFF7FEFF 		bl	bme680_get_regs
 2087              	.LVL276:
 294:D:\mcu\design-mpu\source\ejemplos\BME680\bme680.c **** 				if (dev->chip_id == BME680_CHIP_ID) {
 2088              		.loc 1 294 0
 2089 0022 0346     		mov	r3, r0
 2090 0024 48B9     		cbnz	r0, .L120
 295:D:\mcu\design-mpu\source\ejemplos\BME680\bme680.c **** 					/* Get the Calibration data */
 2091              		.loc 1 295 0
 2092 0026 2378     		ldrb	r3, [r4]	@ zero_extendqisi2
 2093 0028 612B     		cmp	r3, #97
ARM GAS  C:\Users\adria\AppData\Local\Temp\ccQ3AXqi.s 			page 69


 2094 002a 04D1     		bne	.L121
 297:D:\mcu\design-mpu\source\ejemplos\BME680\bme680.c **** 				} else {
 2095              		.loc 1 297 0
 2096 002c 2046     		mov	r0, r4
 2097              	.LVL277:
 2098 002e FFF7FEFF 		bl	get_calib_data
 2099              	.LVL278:
 2100 0032 0346     		mov	r3, r0
 2101              	.LVL279:
 2102 0034 01E0     		b	.L120
 2103              	.LVL280:
 2104              	.L121:
 299:D:\mcu\design-mpu\source\ejemplos\BME680\bme680.c **** 				}
 2105              		.loc 1 299 0
 2106 0036 6FF00203 		mvn	r3, #2
 2107              	.LVL281:
 2108              	.L120:
 306:D:\mcu\design-mpu\source\ejemplos\BME680\bme680.c **** 
 2109              		.loc 1 306 0
 2110 003a 1846     		mov	r0, r3
 2111 003c 10BD     		pop	{r4, pc}
 2112              		.cfi_endproc
 2113              	.LFE63:
 2114              		.size	bme680_init, .-bme680_init
 2115 003e 00BF     		.section	.text.bme680_get_sensor_settings,"ax",%progbits
 2116              		.align	2
 2117              		.global	bme680_get_sensor_settings
 2118              		.thumb
 2119              		.thumb_func
 2120              		.type	bme680_get_sensor_settings, %function
 2121              	bme680_get_sensor_settings:
 2122              	.LFB68:
 534:D:\mcu\design-mpu\source\ejemplos\BME680\bme680.c **** 	int8_t rslt;
 2123              		.loc 1 534 0
 2124              		.cfi_startproc
 2125              		@ args = 0, pretend = 0, frame = 8
 2126              		@ frame_needed = 0, uses_anonymous_args = 0
 2127              	.LVL282:
 2128 0000 30B5     		push	{r4, r5, lr}
 2129              		.cfi_def_cfa_offset 12
 2130              		.cfi_offset 4, -12
 2131              		.cfi_offset 5, -8
 2132              		.cfi_offset 14, -4
 2133 0002 83B0     		sub	sp, sp, #12
 2134              		.cfi_def_cfa_offset 24
 2135 0004 0546     		mov	r5, r0
 2136 0006 0C46     		mov	r4, r1
 2137              	.LVL283:
 538:D:\mcu\design-mpu\source\ejemplos\BME680\bme680.c **** 
 2138              		.loc 1 538 0
 2139 0008 0023     		movs	r3, #0
 2140 000a 0093     		str	r3, [sp]
 2141 000c ADF80430 		strh	r3, [sp, #4]	@ movhi
 541:D:\mcu\design-mpu\source\ejemplos\BME680\bme680.c **** 	if (rslt == BME680_OK) {
 2142              		.loc 1 541 0
 2143 0010 0846     		mov	r0, r1
 2144              	.LVL284:
ARM GAS  C:\Users\adria\AppData\Local\Temp\ccQ3AXqi.s 			page 70


 2145 0012 FFF7FEFF 		bl	null_ptr_check
 2146              	.LVL285:
 542:D:\mcu\design-mpu\source\ejemplos\BME680\bme680.c **** 		rslt = bme680_get_regs(reg_addr, data_array, BME680_REG_BUFFER_LENGTH, dev);
 2147              		.loc 1 542 0
 2148 0016 0028     		cmp	r0, #0
 2149 0018 48D1     		bne	.L130
 543:D:\mcu\design-mpu\source\ejemplos\BME680\bme680.c **** 
 2150              		.loc 1 543 0
 2151 001a 2346     		mov	r3, r4
 2152 001c 0622     		movs	r2, #6
 2153 001e 6946     		mov	r1, sp
 2154 0020 7020     		movs	r0, #112
 2155              	.LVL286:
 2156 0022 FFF7FEFF 		bl	bme680_get_regs
 2157              	.LVL287:
 545:D:\mcu\design-mpu\source\ejemplos\BME680\bme680.c **** 			if (desired_settings & BME680_GAS_MEAS_SEL)
 2158              		.loc 1 545 0
 2159 0026 0246     		mov	r2, r0
 2160 0028 0028     		cmp	r0, #0
 2161 002a 41D1     		bne	.L124
 546:D:\mcu\design-mpu\source\ejemplos\BME680\bme680.c **** 				rslt = get_gas_config(dev);
 2162              		.loc 1 546 0
 2163 002c 05F00803 		and	r3, r5, #8
 2164 0030 9BB2     		uxth	r3, r3
 2165 0032 1BB1     		cbz	r3, .L125
 547:D:\mcu\design-mpu\source\ejemplos\BME680\bme680.c **** 
 2166              		.loc 1 547 0
 2167 0034 2046     		mov	r0, r4
 2168              	.LVL288:
 2169 0036 FFF7FEFF 		bl	get_gas_config
 2170              	.LVL289:
 2171 003a 0246     		mov	r2, r0
 2172              	.LVL290:
 2173              	.L125:
 550:D:\mcu\design-mpu\source\ejemplos\BME680\bme680.c **** 				dev->tph_sett.filter = BME680_GET_BITS(data_array[BME680_REG_FILTER_INDEX],
 2174              		.loc 1 550 0
 2175 003c 05F01003 		and	r3, r5, #16
 2176 0040 9BB2     		uxth	r3, r3
 2177 0042 2BB1     		cbz	r3, .L126
 551:D:\mcu\design-mpu\source\ejemplos\BME680\bme680.c **** 					BME680_FILTER);
 2178              		.loc 1 551 0
 2179 0044 9DF80530 		ldrb	r3, [sp, #5]	@ zero_extendqisi2
 2180 0048 C3F38203 		ubfx	r3, r3, #2, #3
 2181 004c 84F83B30 		strb	r3, [r4, #59]
 2182              	.L126:
 554:D:\mcu\design-mpu\source\ejemplos\BME680\bme680.c **** 				dev->tph_sett.os_temp = BME680_GET_BITS(data_array[BME680_REG_TEMP_INDEX], BME680_OST);
 2183              		.loc 1 554 0
 2184 0050 15F0030F 		tst	r5, #3
 2185 0054 08D0     		beq	.L127
 555:D:\mcu\design-mpu\source\ejemplos\BME680\bme680.c **** 				dev->tph_sett.os_pres = BME680_GET_BITS(data_array[BME680_REG_PRES_INDEX], BME680_OSP);
 2186              		.loc 1 555 0
 2187 0056 9DF80430 		ldrb	r3, [sp, #4]	@ zero_extendqisi2
 2188 005a 5909     		lsrs	r1, r3, #5
 2189 005c 84F83910 		strb	r1, [r4, #57]
 556:D:\mcu\design-mpu\source\ejemplos\BME680\bme680.c **** 			}
 2190              		.loc 1 556 0
 2191 0060 C3F38203 		ubfx	r3, r3, #2, #3
ARM GAS  C:\Users\adria\AppData\Local\Temp\ccQ3AXqi.s 			page 71


 2192 0064 84F83A30 		strb	r3, [r4, #58]
 2193              	.L127:
 559:D:\mcu\design-mpu\source\ejemplos\BME680\bme680.c **** 				dev->tph_sett.os_hum = BME680_GET_BITS_POS_0(data_array[BME680_REG_HUM_INDEX],
 2194              		.loc 1 559 0
 2195 0068 05F00403 		and	r3, r5, #4
 2196 006c 9BB2     		uxth	r3, r3
 2197 006e 2BB1     		cbz	r3, .L128
 560:D:\mcu\design-mpu\source\ejemplos\BME680\bme680.c **** 					BME680_OSH);
 2198              		.loc 1 560 0
 2199 0070 9DF80230 		ldrb	r3, [sp, #2]	@ zero_extendqisi2
 2200 0074 03F00703 		and	r3, r3, #7
 2201 0078 84F83830 		strb	r3, [r4, #56]
 2202              	.L128:
 564:D:\mcu\design-mpu\source\ejemplos\BME680\bme680.c **** 				dev->gas_sett.heatr_ctrl = BME680_GET_BITS_POS_0(data_array[BME680_REG_HCTRL_INDEX],
 2203              		.loc 1 564 0
 2204 007c 05F02003 		and	r3, r5, #32
 2205 0080 9BB2     		uxth	r3, r3
 2206 0082 2BB1     		cbz	r3, .L129
 565:D:\mcu\design-mpu\source\ejemplos\BME680\bme680.c **** 					BME680_HCTRL);
 2207              		.loc 1 565 0
 2208 0084 9DF80030 		ldrb	r3, [sp]	@ zero_extendqisi2
 2209 0088 03F00803 		and	r3, r3, #8
 2210 008c 84F83D30 		strb	r3, [r4, #61]
 2211              	.L129:
 568:D:\mcu\design-mpu\source\ejemplos\BME680\bme680.c **** 				dev->gas_sett.nb_conv = BME680_GET_BITS_POS_0(data_array[BME680_REG_NBCONV_INDEX],
 2212              		.loc 1 568 0
 2213 0090 15F0C00F 		tst	r5, #192
 2214 0094 0CD0     		beq	.L124
 569:D:\mcu\design-mpu\source\ejemplos\BME680\bme680.c **** 					BME680_NBCONV);
 2215              		.loc 1 569 0
 2216 0096 9DF80130 		ldrb	r3, [sp, #1]	@ zero_extendqisi2
 2217 009a 03F00F01 		and	r1, r3, #15
 2218 009e 84F83C10 		strb	r1, [r4, #60]
 571:D:\mcu\design-mpu\source\ejemplos\BME680\bme680.c **** 					BME680_RUN_GAS);
 2219              		.loc 1 571 0
 2220 00a2 C3F30013 		ubfx	r3, r3, #4, #1
 2221 00a6 84F83E30 		strb	r3, [r4, #62]
 2222 00aa 01E0     		b	.L124
 2223              	.LVL291:
 2224              	.L130:
 576:D:\mcu\design-mpu\source\ejemplos\BME680\bme680.c **** 	}
 2225              		.loc 1 576 0
 2226 00ac 4FF0FF32 		mov	r2, #-1
 2227              	.LVL292:
 2228              	.L124:
 580:D:\mcu\design-mpu\source\ejemplos\BME680\bme680.c **** 
 2229              		.loc 1 580 0
 2230 00b0 1046     		mov	r0, r2
 2231 00b2 03B0     		add	sp, sp, #12
 2232              		.cfi_def_cfa_offset 12
 2233              		@ sp needed
 2234 00b4 30BD     		pop	{r4, r5, pc}
 2235              		.cfi_endproc
 2236              	.LFE68:
 2237              		.size	bme680_get_sensor_settings, .-bme680_get_sensor_settings
 2238 00b6 00BF     		.section	.text.bme680_set_sensor_mode,"ax",%progbits
 2239              		.align	2
ARM GAS  C:\Users\adria\AppData\Local\Temp\ccQ3AXqi.s 			page 72


 2240              		.global	bme680_set_sensor_mode
 2241              		.thumb
 2242              		.thumb_func
 2243              		.type	bme680_set_sensor_mode, %function
 2244              	bme680_set_sensor_mode:
 2245              	.LFB69:
 586:D:\mcu\design-mpu\source\ejemplos\BME680\bme680.c **** 	int8_t rslt;
 2246              		.loc 1 586 0
 2247              		.cfi_startproc
 2248              		@ args = 0, pretend = 0, frame = 8
 2249              		@ frame_needed = 0, uses_anonymous_args = 0
 2250              	.LVL293:
 2251 0000 70B5     		push	{r4, r5, r6, lr}
 2252              		.cfi_def_cfa_offset 16
 2253              		.cfi_offset 4, -16
 2254              		.cfi_offset 5, -12
 2255              		.cfi_offset 6, -8
 2256              		.cfi_offset 14, -4
 2257 0002 82B0     		sub	sp, sp, #8
 2258              		.cfi_def_cfa_offset 24
 2259 0004 0546     		mov	r5, r0
 2260              	.LVL294:
 590:D:\mcu\design-mpu\source\ejemplos\BME680\bme680.c **** 
 2261              		.loc 1 590 0
 2262 0006 7423     		movs	r3, #116
 2263 0008 8DF80630 		strb	r3, [sp, #6]
 593:D:\mcu\design-mpu\source\ejemplos\BME680\bme680.c **** 	if (rslt == BME680_OK) {
 2264              		.loc 1 593 0
 2265 000c FFF7FEFF 		bl	null_ptr_check
 2266              	.LVL295:
 594:D:\mcu\design-mpu\source\ejemplos\BME680\bme680.c **** 		/* Call repeatedly until in sleep */
 2267              		.loc 1 594 0
 2268 0010 0646     		mov	r6, r0
 2269 0012 A8BB     		cbnz	r0, .L133
 2270 0014 0024     		movs	r4, #0
 2271              	.LVL296:
 2272              	.L135:
 597:D:\mcu\design-mpu\source\ejemplos\BME680\bme680.c **** 			if (rslt == BME680_OK) {
 2273              		.loc 1 597 0
 2274 0016 2B46     		mov	r3, r5
 2275 0018 0122     		movs	r2, #1
 2276 001a 0DF10701 		add	r1, sp, #7
 2277 001e 7420     		movs	r0, #116
 2278 0020 FFF7FEFF 		bl	bme680_get_regs
 2279              	.LVL297:
 598:D:\mcu\design-mpu\source\ejemplos\BME680\bme680.c **** 				/* Put to sleep before changing mode */
 2280              		.loc 1 598 0
 2281 0024 0646     		mov	r6, r0
 2282 0026 98B9     		cbnz	r0, .L134
 600:D:\mcu\design-mpu\source\ejemplos\BME680\bme680.c **** 
 2283              		.loc 1 600 0
 2284 0028 9DF80730 		ldrb	r3, [sp, #7]	@ zero_extendqisi2
 2285              	.LVL298:
 602:D:\mcu\design-mpu\source\ejemplos\BME680\bme680.c **** 					tmp_pow_mode = tmp_pow_mode & (~BME680_MODE_MSK); /* Set to sleep */
 2286              		.loc 1 602 0
 2287 002c 13F00304 		ands	r4, r3, #3
 2288 0030 0ED0     		beq	.L134
ARM GAS  C:\Users\adria\AppData\Local\Temp\ccQ3AXqi.s 			page 73


 603:D:\mcu\design-mpu\source\ejemplos\BME680\bme680.c **** 					rslt = bme680_set_regs(&reg_addr, &tmp_pow_mode, 1, dev);
 2289              		.loc 1 603 0
 2290 0032 23F00303 		bic	r3, r3, #3
 2291              	.LVL299:
 2292 0036 02A9     		add	r1, sp, #8
 2293 0038 01F8013D 		strb	r3, [r1, #-1]!
 2294              	.LVL300:
 604:D:\mcu\design-mpu\source\ejemplos\BME680\bme680.c **** 					dev->delay_ms(BME680_POLL_PERIOD_MS);
 2295              		.loc 1 604 0
 2296 003c 2B46     		mov	r3, r5
 2297 003e 0122     		movs	r2, #1
 2298 0040 0DF10600 		add	r0, sp, #6
 2299              	.LVL301:
 2300 0044 FFF7FEFF 		bl	bme680_set_regs
 2301              	.LVL302:
 2302 0048 0646     		mov	r6, r0
 2303              	.LVL303:
 605:D:\mcu\design-mpu\source\ejemplos\BME680\bme680.c **** 				}
 2304              		.loc 1 605 0
 2305 004a 2B6D     		ldr	r3, [r5, #80]
 2306 004c 0A20     		movs	r0, #10
 2307 004e 9847     		blx	r3
 2308              	.LVL304:
 2309              	.L134:
 608:D:\mcu\design-mpu\source\ejemplos\BME680\bme680.c **** 
 2310              		.loc 1 608 0
 2311 0050 002C     		cmp	r4, #0
 2312 0052 E0D1     		bne	.L135
 611:D:\mcu\design-mpu\source\ejemplos\BME680\bme680.c **** 			tmp_pow_mode = (tmp_pow_mode & ~BME680_MODE_MSK) | (dev->power_mode & BME680_MODE_MSK);
 2313              		.loc 1 611 0
 2314 0054 95F84430 		ldrb	r3, [r5, #68]	@ zero_extendqisi2
 2315 0058 93B1     		cbz	r3, .L133
 612:D:\mcu\design-mpu\source\ejemplos\BME680\bme680.c **** 			if (rslt == BME680_OK)
 2316              		.loc 1 612 0
 2317 005a 9DF80720 		ldrb	r2, [sp, #7]	@ zero_extendqisi2
 2318 005e 22F00302 		bic	r2, r2, #3
 2319 0062 03F00303 		and	r3, r3, #3
 2320 0066 1343     		orrs	r3, r3, r2
 2321 0068 8DF80730 		strb	r3, [sp, #7]
 613:D:\mcu\design-mpu\source\ejemplos\BME680\bme680.c **** 				rslt = bme680_set_regs(&reg_addr, &tmp_pow_mode, 1, dev);
 2322              		.loc 1 613 0
 2323 006c 46B9     		cbnz	r6, .L133
 614:D:\mcu\design-mpu\source\ejemplos\BME680\bme680.c **** 		}
 2324              		.loc 1 614 0
 2325 006e 2B46     		mov	r3, r5
 2326 0070 0122     		movs	r2, #1
 2327 0072 0DF10701 		add	r1, sp, #7
 2328 0076 0DF10600 		add	r0, sp, #6
 2329 007a FFF7FEFF 		bl	bme680_set_regs
 2330              	.LVL305:
 2331 007e 0646     		mov	r6, r0
 2332              	.LVL306:
 2333              	.L133:
 619:D:\mcu\design-mpu\source\ejemplos\BME680\bme680.c **** 
 2334              		.loc 1 619 0
 2335 0080 3046     		mov	r0, r6
 2336 0082 02B0     		add	sp, sp, #8
ARM GAS  C:\Users\adria\AppData\Local\Temp\ccQ3AXqi.s 			page 74


 2337              		.cfi_def_cfa_offset 16
 2338              		@ sp needed
 2339 0084 70BD     		pop	{r4, r5, r6, pc}
 2340              		.cfi_endproc
 2341              	.LFE69:
 2342              		.size	bme680_set_sensor_mode, .-bme680_set_sensor_mode
 2343 0086 00BF     		.section	.text.bme680_set_sensor_settings,"ax",%progbits
 2344              		.align	2
 2345              		.global	bme680_set_sensor_settings
 2346              		.thumb
 2347              		.thumb_func
 2348              		.type	bme680_set_sensor_settings, %function
 2349              	bme680_set_sensor_settings:
 2350              	.LFB67:
 410:D:\mcu\design-mpu\source\ejemplos\BME680\bme680.c **** 	int8_t rslt;
 2351              		.loc 1 410 0
 2352              		.cfi_startproc
 2353              		@ args = 0, pretend = 0, frame = 16
 2354              		@ frame_needed = 0, uses_anonymous_args = 0
 2355              	.LVL307:
 2356 0000 F0B5     		push	{r4, r5, r6, r7, lr}
 2357              		.cfi_def_cfa_offset 20
 2358              		.cfi_offset 4, -20
 2359              		.cfi_offset 5, -16
 2360              		.cfi_offset 6, -12
 2361              		.cfi_offset 7, -8
 2362              		.cfi_offset 14, -4
 2363 0002 85B0     		sub	sp, sp, #20
 2364              		.cfi_def_cfa_offset 40
 2365 0004 0546     		mov	r5, r0
 2366 0006 0C46     		mov	r4, r1
 413:D:\mcu\design-mpu\source\ejemplos\BME680\bme680.c **** 	uint8_t count = 0;
 2367              		.loc 1 413 0
 2368 0008 0023     		movs	r3, #0
 2369 000a 8DF80F30 		strb	r3, [sp, #15]
 2370              	.LVL308:
 415:D:\mcu\design-mpu\source\ejemplos\BME680\bme680.c **** 	uint8_t data_array[BME680_REG_BUFFER_LENGTH] = { 0 };
 2371              		.loc 1 415 0
 2372 000e 0293     		str	r3, [sp, #8]
 2373 0010 ADF80C30 		strh	r3, [sp, #12]	@ movhi
 416:D:\mcu\design-mpu\source\ejemplos\BME680\bme680.c **** 	uint8_t intended_power_mode = dev->power_mode; /* Save intended power mode */
 2374              		.loc 1 416 0
 2375 0014 0093     		str	r3, [sp]
 2376 0016 ADF80430 		strh	r3, [sp, #4]	@ movhi
 417:D:\mcu\design-mpu\source\ejemplos\BME680\bme680.c **** 
 2377              		.loc 1 417 0
 2378 001a 91F84470 		ldrb	r7, [r1, #68]	@ zero_extendqisi2
 2379              	.LVL309:
 420:D:\mcu\design-mpu\source\ejemplos\BME680\bme680.c **** 	if (rslt == BME680_OK) {
 2380              		.loc 1 420 0
 2381 001e 0846     		mov	r0, r1
 2382              	.LVL310:
 2383 0020 FFF7FEFF 		bl	null_ptr_check
 2384              	.LVL311:
 421:D:\mcu\design-mpu\source\ejemplos\BME680\bme680.c **** 		if (desired_settings & BME680_GAS_MEAS_SEL)
 2385              		.loc 1 421 0
 2386 0024 0346     		mov	r3, r0
ARM GAS  C:\Users\adria\AppData\Local\Temp\ccQ3AXqi.s 			page 75


 2387 0026 0028     		cmp	r0, #0
 2388 0028 40F01B81 		bne	.L138
 422:D:\mcu\design-mpu\source\ejemplos\BME680\bme680.c **** 			rslt = set_gas_config(dev);
 2389              		.loc 1 422 0
 2390 002c 05F00802 		and	r2, r5, #8
 2391 0030 92B2     		uxth	r2, r2
 2392 0032 1AB1     		cbz	r2, .L139
 423:D:\mcu\design-mpu\source\ejemplos\BME680\bme680.c **** 
 2393              		.loc 1 423 0
 2394 0034 2046     		mov	r0, r4
 2395              	.LVL312:
 2396 0036 FFF7FEFF 		bl	set_gas_config
 2397              	.LVL313:
 2398 003a 0346     		mov	r3, r0
 2399              	.LVL314:
 2400              	.L139:
 425:D:\mcu\design-mpu\source\ejemplos\BME680\bme680.c **** 		if (rslt == BME680_OK)
 2401              		.loc 1 425 0
 2402 003c 0022     		movs	r2, #0
 2403 003e 84F84420 		strb	r2, [r4, #68]
 426:D:\mcu\design-mpu\source\ejemplos\BME680\bme680.c **** 			rslt = bme680_set_sensor_mode(dev);
 2404              		.loc 1 426 0
 2405 0042 1BB9     		cbnz	r3, .L140
 427:D:\mcu\design-mpu\source\ejemplos\BME680\bme680.c **** 
 2406              		.loc 1 427 0
 2407 0044 2046     		mov	r0, r4
 2408 0046 FFF7FEFF 		bl	bme680_set_sensor_mode
 2409              	.LVL315:
 2410 004a 0346     		mov	r3, r0
 2411              	.LVL316:
 2412              	.L140:
 2413 004c 05F01006 		and	r6, r5, #16
 2414 0050 B6B2     		uxth	r6, r6
 430:D:\mcu\design-mpu\source\ejemplos\BME680\bme680.c **** 			rslt = boundary_check(&dev->tph_sett.filter, BME680_FILTER_SIZE_0, BME680_FILTER_SIZE_127, dev);
 2415              		.loc 1 430 0
 2416 0052 36B3     		cbz	r6, .L158
 431:D:\mcu\design-mpu\source\ejemplos\BME680\bme680.c **** 			reg_addr = BME680_CONF_ODR_FILT_ADDR;
 2417              		.loc 1 431 0
 2418 0054 2346     		mov	r3, r4
 2419              	.LVL317:
 2420 0056 0722     		movs	r2, #7
 2421 0058 0021     		movs	r1, #0
 2422 005a 04F13B00 		add	r0, r4, #59
 2423 005e FFF7FEFF 		bl	boundary_check
 2424              	.LVL318:
 434:D:\mcu\design-mpu\source\ejemplos\BME680\bme680.c **** 				rslt = bme680_get_regs(reg_addr, &data, 1, dev);
 2425              		.loc 1 434 0
 2426 0062 0346     		mov	r3, r0
 2427 0064 38B9     		cbnz	r0, .L142
 435:D:\mcu\design-mpu\source\ejemplos\BME680\bme680.c **** 
 2428              		.loc 1 435 0
 2429 0066 2346     		mov	r3, r4
 2430 0068 0122     		movs	r2, #1
 2431 006a 0DF10F01 		add	r1, sp, #15
 2432 006e 7520     		movs	r0, #117
 2433              	.LVL319:
 2434 0070 FFF7FEFF 		bl	bme680_get_regs
ARM GAS  C:\Users\adria\AppData\Local\Temp\ccQ3AXqi.s 			page 76


 2435              	.LVL320:
 2436 0074 0346     		mov	r3, r0
 2437              	.LVL321:
 2438              	.L142:
 437:D:\mcu\design-mpu\source\ejemplos\BME680\bme680.c **** 				data = BME680_SET_BITS(data, BME680_FILTER, dev->tph_sett.filter);
 2439              		.loc 1 437 0
 2440 0076 5EB1     		cbz	r6, .L143
 438:D:\mcu\design-mpu\source\ejemplos\BME680\bme680.c **** 
 2441              		.loc 1 438 0
 2442 0078 94F83B20 		ldrb	r2, [r4, #59]	@ zero_extendqisi2
 2443 007c 9200     		lsls	r2, r2, #2
 2444 007e 9DF80F10 		ldrb	r1, [sp, #15]	@ zero_extendqisi2
 2445 0082 21F01C01 		bic	r1, r1, #28
 2446 0086 02F01C02 		and	r2, r2, #28
 2447 008a 0A43     		orrs	r2, r2, r1
 2448 008c 8DF80F20 		strb	r2, [sp, #15]
 2449              	.L143:
 440:D:\mcu\design-mpu\source\ejemplos\BME680\bme680.c **** 			data_array[count] = data;
 2450              		.loc 1 440 0
 2451 0090 7522     		movs	r2, #117
 2452 0092 8DF80820 		strb	r2, [sp, #8]
 441:D:\mcu\design-mpu\source\ejemplos\BME680\bme680.c **** 			count++;
 2453              		.loc 1 441 0
 2454 0096 9DF80F20 		ldrb	r2, [sp, #15]	@ zero_extendqisi2
 2455 009a 8DF80020 		strb	r2, [sp]
 2456              	.LVL322:
 442:D:\mcu\design-mpu\source\ejemplos\BME680\bme680.c **** 		}
 2457              		.loc 1 442 0
 2458 009e 0126     		movs	r6, #1
 2459 00a0 00E0     		b	.L141
 2460              	.LVL323:
 2461              	.L158:
 414:D:\mcu\design-mpu\source\ejemplos\BME680\bme680.c **** 	uint8_t reg_array[BME680_REG_BUFFER_LENGTH] = { 0 };
 2462              		.loc 1 414 0
 2463 00a2 0026     		movs	r6, #0
 2464              	.LVL324:
 2465              	.L141:
 446:D:\mcu\design-mpu\source\ejemplos\BME680\bme680.c **** 			rslt = boundary_check(&dev->gas_sett.heatr_ctrl, BME680_ENABLE_HEATER,
 2466              		.loc 1 446 0
 2467 00a4 05F02002 		and	r2, r5, #32
 2468 00a8 92B2     		uxth	r2, r2
 2469 00aa 22B3     		cbz	r2, .L144
 447:D:\mcu\design-mpu\source\ejemplos\BME680\bme680.c **** 				BME680_DISABLE_HEATER, dev);
 2470              		.loc 1 447 0
 2471 00ac 2346     		mov	r3, r4
 2472              	.LVL325:
 2473 00ae 0822     		movs	r2, #8
 2474 00b0 0021     		movs	r1, #0
 2475 00b2 04F13D00 		add	r0, r4, #61
 2476 00b6 FFF7FEFF 		bl	boundary_check
 2477              	.LVL326:
 451:D:\mcu\design-mpu\source\ejemplos\BME680\bme680.c **** 				rslt = bme680_get_regs(reg_addr, &data, 1, dev);
 2478              		.loc 1 451 0
 2479 00ba 0346     		mov	r3, r0
 2480 00bc 38B9     		cbnz	r0, .L145
 452:D:\mcu\design-mpu\source\ejemplos\BME680\bme680.c **** 			data = BME680_SET_BITS_POS_0(data, BME680_HCTRL, dev->gas_sett.heatr_ctrl);
 2481              		.loc 1 452 0
ARM GAS  C:\Users\adria\AppData\Local\Temp\ccQ3AXqi.s 			page 77


 2482 00be 2346     		mov	r3, r4
 2483 00c0 0122     		movs	r2, #1
 2484 00c2 0DF10F01 		add	r1, sp, #15
 2485 00c6 7020     		movs	r0, #112
 2486              	.LVL327:
 2487 00c8 FFF7FEFF 		bl	bme680_get_regs
 2488              	.LVL328:
 2489 00cc 0346     		mov	r3, r0
 2490              	.LVL329:
 2491              	.L145:
 453:D:\mcu\design-mpu\source\ejemplos\BME680\bme680.c **** 
 2492              		.loc 1 453 0
 2493 00ce 94F83D20 		ldrb	r2, [r4, #61]	@ zero_extendqisi2
 2494 00d2 9DF80F10 		ldrb	r1, [sp, #15]	@ zero_extendqisi2
 2495 00d6 21F00801 		bic	r1, r1, #8
 2496 00da 02F00802 		and	r2, r2, #8
 2497 00de 0A43     		orrs	r2, r2, r1
 2498 00e0 8DF80F20 		strb	r2, [sp, #15]
 455:D:\mcu\design-mpu\source\ejemplos\BME680\bme680.c **** 			data_array[count] = data;
 2499              		.loc 1 455 0
 2500 00e4 04A9     		add	r1, sp, #16
 2501 00e6 3144     		add	r1, r1, r6
 2502 00e8 7020     		movs	r0, #112
 2503 00ea 01F8080C 		strb	r0, [r1, #-8]
 456:D:\mcu\design-mpu\source\ejemplos\BME680\bme680.c **** 			count++;
 2504              		.loc 1 456 0
 2505 00ee 01F8102C 		strb	r2, [r1, #-16]
 457:D:\mcu\design-mpu\source\ejemplos\BME680\bme680.c **** 		}
 2506              		.loc 1 457 0
 2507 00f2 0136     		adds	r6, r6, #1
 2508              	.LVL330:
 2509 00f4 F6B2     		uxtb	r6, r6
 2510              	.LVL331:
 2511              	.L144:
 461:D:\mcu\design-mpu\source\ejemplos\BME680\bme680.c **** 			rslt = boundary_check(&dev->tph_sett.os_temp, BME680_OS_NONE, BME680_OS_16X, dev);
 2512              		.loc 1 461 0
 2513 00f6 15F0030F 		tst	r5, #3
 2514 00fa 38D0     		beq	.L146
 462:D:\mcu\design-mpu\source\ejemplos\BME680\bme680.c **** 			reg_addr = BME680_CONF_T_P_MODE_ADDR;
 2515              		.loc 1 462 0
 2516 00fc 2346     		mov	r3, r4
 2517              	.LVL332:
 2518 00fe 0522     		movs	r2, #5
 2519 0100 0021     		movs	r1, #0
 2520 0102 04F13900 		add	r0, r4, #57
 2521 0106 FFF7FEFF 		bl	boundary_check
 2522              	.LVL333:
 465:D:\mcu\design-mpu\source\ejemplos\BME680\bme680.c **** 				rslt = bme680_get_regs(reg_addr, &data, 1, dev);
 2523              		.loc 1 465 0
 2524 010a 0346     		mov	r3, r0
 2525 010c 38B9     		cbnz	r0, .L147
 466:D:\mcu\design-mpu\source\ejemplos\BME680\bme680.c **** 
 2526              		.loc 1 466 0
 2527 010e 2346     		mov	r3, r4
 2528 0110 0122     		movs	r2, #1
 2529 0112 0DF10F01 		add	r1, sp, #15
 2530 0116 7420     		movs	r0, #116
ARM GAS  C:\Users\adria\AppData\Local\Temp\ccQ3AXqi.s 			page 78


 2531              	.LVL334:
 2532 0118 FFF7FEFF 		bl	bme680_get_regs
 2533              	.LVL335:
 2534 011c 0346     		mov	r3, r0
 2535              	.LVL336:
 2536              	.L147:
 468:D:\mcu\design-mpu\source\ejemplos\BME680\bme680.c **** 				data = BME680_SET_BITS(data, BME680_OST, dev->tph_sett.os_temp);
 2537              		.loc 1 468 0
 2538 011e 15F0010F 		tst	r5, #1
 2539 0122 09D0     		beq	.L148
 469:D:\mcu\design-mpu\source\ejemplos\BME680\bme680.c **** 
 2540              		.loc 1 469 0
 2541 0124 94F83910 		ldrb	r1, [r4, #57]	@ zero_extendqisi2
 2542 0128 9DF80F20 		ldrb	r2, [sp, #15]	@ zero_extendqisi2
 2543 012c 02F01F02 		and	r2, r2, #31
 2544 0130 42EA4112 		orr	r2, r2, r1, lsl #5
 2545 0134 8DF80F20 		strb	r2, [sp, #15]
 2546              	.L148:
 471:D:\mcu\design-mpu\source\ejemplos\BME680\bme680.c **** 				data = BME680_SET_BITS(data, BME680_OSP, dev->tph_sett.os_pres);
 2547              		.loc 1 471 0
 2548 0138 05F00202 		and	r2, r5, #2
 2549 013c 92B2     		uxth	r2, r2
 2550 013e 5AB1     		cbz	r2, .L149
 472:D:\mcu\design-mpu\source\ejemplos\BME680\bme680.c **** 
 2551              		.loc 1 472 0
 2552 0140 94F83A20 		ldrb	r2, [r4, #58]	@ zero_extendqisi2
 2553 0144 9200     		lsls	r2, r2, #2
 2554 0146 9DF80F10 		ldrb	r1, [sp, #15]	@ zero_extendqisi2
 2555 014a 21F01C01 		bic	r1, r1, #28
 2556 014e 02F01C02 		and	r2, r2, #28
 2557 0152 0A43     		orrs	r2, r2, r1
 2558 0154 8DF80F20 		strb	r2, [sp, #15]
 2559              	.L149:
 474:D:\mcu\design-mpu\source\ejemplos\BME680\bme680.c **** 			data_array[count] = data;
 2560              		.loc 1 474 0
 2561 0158 04AA     		add	r2, sp, #16
 2562 015a 3244     		add	r2, r2, r6
 2563 015c 7421     		movs	r1, #116
 2564 015e 02F8081C 		strb	r1, [r2, #-8]
 475:D:\mcu\design-mpu\source\ejemplos\BME680\bme680.c **** 			count++;
 2565              		.loc 1 475 0
 2566 0162 9DF80F10 		ldrb	r1, [sp, #15]	@ zero_extendqisi2
 2567 0166 02F8101C 		strb	r1, [r2, #-16]
 476:D:\mcu\design-mpu\source\ejemplos\BME680\bme680.c **** 		}
 2568              		.loc 1 476 0
 2569 016a 0136     		adds	r6, r6, #1
 2570              	.LVL337:
 2571 016c F6B2     		uxtb	r6, r6
 2572              	.LVL338:
 2573              	.L146:
 480:D:\mcu\design-mpu\source\ejemplos\BME680\bme680.c **** 			rslt = boundary_check(&dev->tph_sett.os_hum, BME680_OS_NONE, BME680_OS_16X, dev);
 2574              		.loc 1 480 0
 2575 016e 05F00402 		and	r2, r5, #4
 2576 0172 92B2     		uxth	r2, r2
 2577 0174 22B3     		cbz	r2, .L150
 481:D:\mcu\design-mpu\source\ejemplos\BME680\bme680.c **** 			reg_addr = BME680_CONF_OS_H_ADDR;
 2578              		.loc 1 481 0
ARM GAS  C:\Users\adria\AppData\Local\Temp\ccQ3AXqi.s 			page 79


 2579 0176 2346     		mov	r3, r4
 2580              	.LVL339:
 2581 0178 0522     		movs	r2, #5
 2582 017a 0021     		movs	r1, #0
 2583 017c 04F13800 		add	r0, r4, #56
 2584 0180 FFF7FEFF 		bl	boundary_check
 2585              	.LVL340:
 484:D:\mcu\design-mpu\source\ejemplos\BME680\bme680.c **** 				rslt = bme680_get_regs(reg_addr, &data, 1, dev);
 2586              		.loc 1 484 0
 2587 0184 0346     		mov	r3, r0
 2588 0186 38B9     		cbnz	r0, .L151
 485:D:\mcu\design-mpu\source\ejemplos\BME680\bme680.c **** 			data = BME680_SET_BITS_POS_0(data, BME680_OSH, dev->tph_sett.os_hum);
 2589              		.loc 1 485 0
 2590 0188 2346     		mov	r3, r4
 2591 018a 0122     		movs	r2, #1
 2592 018c 0DF10F01 		add	r1, sp, #15
 2593 0190 7220     		movs	r0, #114
 2594              	.LVL341:
 2595 0192 FFF7FEFF 		bl	bme680_get_regs
 2596              	.LVL342:
 2597 0196 0346     		mov	r3, r0
 2598              	.LVL343:
 2599              	.L151:
 486:D:\mcu\design-mpu\source\ejemplos\BME680\bme680.c **** 
 2600              		.loc 1 486 0
 2601 0198 94F83820 		ldrb	r2, [r4, #56]	@ zero_extendqisi2
 2602 019c 9DF80F10 		ldrb	r1, [sp, #15]	@ zero_extendqisi2
 2603 01a0 21F00701 		bic	r1, r1, #7
 2604 01a4 02F00702 		and	r2, r2, #7
 2605 01a8 0A43     		orrs	r2, r2, r1
 2606 01aa 8DF80F20 		strb	r2, [sp, #15]
 488:D:\mcu\design-mpu\source\ejemplos\BME680\bme680.c **** 			data_array[count] = data;
 2607              		.loc 1 488 0
 2608 01ae 04A9     		add	r1, sp, #16
 2609 01b0 3144     		add	r1, r1, r6
 2610 01b2 7220     		movs	r0, #114
 2611 01b4 01F8080C 		strb	r0, [r1, #-8]
 489:D:\mcu\design-mpu\source\ejemplos\BME680\bme680.c **** 			count++;
 2612              		.loc 1 489 0
 2613 01b8 01F8102C 		strb	r2, [r1, #-16]
 490:D:\mcu\design-mpu\source\ejemplos\BME680\bme680.c **** 		}
 2614              		.loc 1 490 0
 2615 01bc 0136     		adds	r6, r6, #1
 2616              	.LVL344:
 2617 01be F6B2     		uxtb	r6, r6
 2618              	.LVL345:
 2619              	.L150:
 494:D:\mcu\design-mpu\source\ejemplos\BME680\bme680.c **** 			rslt = boundary_check(&dev->gas_sett.run_gas, BME680_RUN_GAS_DISABLE,
 2620              		.loc 1 494 0
 2621 01c0 15F0C00F 		tst	r5, #192
 2622 01c4 43D0     		beq	.L152
 495:D:\mcu\design-mpu\source\ejemplos\BME680\bme680.c **** 				BME680_RUN_GAS_ENABLE, dev);
 2623              		.loc 1 495 0
 2624 01c6 2346     		mov	r3, r4
 2625              	.LVL346:
 2626 01c8 0122     		movs	r2, #1
 2627 01ca 0021     		movs	r1, #0
ARM GAS  C:\Users\adria\AppData\Local\Temp\ccQ3AXqi.s 			page 80


 2628 01cc 04F13E00 		add	r0, r4, #62
 2629 01d0 FFF7FEFF 		bl	boundary_check
 2630              	.LVL347:
 497:D:\mcu\design-mpu\source\ejemplos\BME680\bme680.c **** 				/* Validate boundary conditions */
 2631              		.loc 1 497 0
 2632 01d4 0346     		mov	r3, r0
 2633 01d6 38B9     		cbnz	r0, .L153
 499:D:\mcu\design-mpu\source\ejemplos\BME680\bme680.c **** 					BME680_NBCONV_MAX, dev);
 2634              		.loc 1 499 0
 2635 01d8 2346     		mov	r3, r4
 2636 01da 0A22     		movs	r2, #10
 2637 01dc 0021     		movs	r1, #0
 2638 01de 04F13C00 		add	r0, r4, #60
 2639              	.LVL348:
 2640 01e2 FFF7FEFF 		bl	boundary_check
 2641              	.LVL349:
 2642 01e6 0346     		mov	r3, r0
 2643              	.LVL350:
 2644              	.L153:
 505:D:\mcu\design-mpu\source\ejemplos\BME680\bme680.c **** 				rslt = bme680_get_regs(reg_addr, &data, 1, dev);
 2645              		.loc 1 505 0
 2646 01e8 3BB9     		cbnz	r3, .L154
 506:D:\mcu\design-mpu\source\ejemplos\BME680\bme680.c **** 
 2647              		.loc 1 506 0
 2648 01ea 2346     		mov	r3, r4
 2649              	.LVL351:
 2650 01ec 0122     		movs	r2, #1
 2651 01ee 0DF10F01 		add	r1, sp, #15
 2652 01f2 7120     		movs	r0, #113
 2653 01f4 FFF7FEFF 		bl	bme680_get_regs
 2654              	.LVL352:
 2655 01f8 0346     		mov	r3, r0
 2656              	.LVL353:
 2657              	.L154:
 508:D:\mcu\design-mpu\source\ejemplos\BME680\bme680.c **** 				data = BME680_SET_BITS(data, BME680_RUN_GAS, dev->gas_sett.run_gas);
 2658              		.loc 1 508 0
 2659 01fa 05F04002 		and	r2, r5, #64
 2660 01fe 92B2     		uxth	r2, r2
 2661 0200 5AB1     		cbz	r2, .L155
 509:D:\mcu\design-mpu\source\ejemplos\BME680\bme680.c **** 
 2662              		.loc 1 509 0
 2663 0202 94F83E20 		ldrb	r2, [r4, #62]	@ zero_extendqisi2
 2664 0206 1201     		lsls	r2, r2, #4
 2665 0208 9DF80F10 		ldrb	r1, [sp, #15]	@ zero_extendqisi2
 2666 020c 21F01001 		bic	r1, r1, #16
 2667 0210 02F01002 		and	r2, r2, #16
 2668 0214 0A43     		orrs	r2, r2, r1
 2669 0216 8DF80F20 		strb	r2, [sp, #15]
 2670              	.L155:
 511:D:\mcu\design-mpu\source\ejemplos\BME680\bme680.c **** 				data = BME680_SET_BITS_POS_0(data, BME680_NBCONV, dev->gas_sett.nb_conv);
 2671              		.loc 1 511 0
 2672 021a 05F08005 		and	r5, r5, #128
 2673 021e ADB2     		uxth	r5, r5
 2674 0220 55B1     		cbz	r5, .L156
 512:D:\mcu\design-mpu\source\ejemplos\BME680\bme680.c **** 
 2675              		.loc 1 512 0
 2676 0222 94F83C20 		ldrb	r2, [r4, #60]	@ zero_extendqisi2
ARM GAS  C:\Users\adria\AppData\Local\Temp\ccQ3AXqi.s 			page 81


 2677 0226 9DF80F10 		ldrb	r1, [sp, #15]	@ zero_extendqisi2
 2678 022a 21F00F01 		bic	r1, r1, #15
 2679 022e 02F00F02 		and	r2, r2, #15
 2680 0232 0A43     		orrs	r2, r2, r1
 2681 0234 8DF80F20 		strb	r2, [sp, #15]
 2682              	.L156:
 514:D:\mcu\design-mpu\source\ejemplos\BME680\bme680.c **** 			data_array[count] = data;
 2683              		.loc 1 514 0
 2684 0238 04AA     		add	r2, sp, #16
 2685 023a 3244     		add	r2, r2, r6
 2686 023c 7121     		movs	r1, #113
 2687 023e 02F8081C 		strb	r1, [r2, #-8]
 515:D:\mcu\design-mpu\source\ejemplos\BME680\bme680.c **** 			count++;
 2688              		.loc 1 515 0
 2689 0242 9DF80F10 		ldrb	r1, [sp, #15]	@ zero_extendqisi2
 2690 0246 02F8101C 		strb	r1, [r2, #-16]
 516:D:\mcu\design-mpu\source\ejemplos\BME680\bme680.c **** 		}
 2691              		.loc 1 516 0
 2692 024a 0136     		adds	r6, r6, #1
 2693              	.LVL354:
 2694 024c F6B2     		uxtb	r6, r6
 2695              	.LVL355:
 2696              	.L152:
 519:D:\mcu\design-mpu\source\ejemplos\BME680\bme680.c **** 			rslt = bme680_set_regs(reg_array, data_array, count, dev);
 2697              		.loc 1 519 0
 2698 024e 33B9     		cbnz	r3, .L157
 520:D:\mcu\design-mpu\source\ejemplos\BME680\bme680.c **** 
 2699              		.loc 1 520 0
 2700 0250 2346     		mov	r3, r4
 2701              	.LVL356:
 2702 0252 3246     		mov	r2, r6
 2703 0254 6946     		mov	r1, sp
 2704 0256 02A8     		add	r0, sp, #8
 2705 0258 FFF7FEFF 		bl	bme680_set_regs
 2706              	.LVL357:
 2707 025c 0346     		mov	r3, r0
 2708              	.LVL358:
 2709              	.L157:
 523:D:\mcu\design-mpu\source\ejemplos\BME680\bme680.c **** 	}
 2710              		.loc 1 523 0
 2711 025e 84F84470 		strb	r7, [r4, #68]
 2712              	.LVL359:
 2713              	.L138:
 527:D:\mcu\design-mpu\source\ejemplos\BME680\bme680.c **** 
 2714              		.loc 1 527 0
 2715 0262 1846     		mov	r0, r3
 2716 0264 05B0     		add	sp, sp, #20
 2717              		.cfi_def_cfa_offset 20
 2718              		@ sp needed
 2719 0266 F0BD     		pop	{r4, r5, r6, r7, pc}
 2720              		.cfi_endproc
 2721              	.LFE67:
 2722              		.size	bme680_set_sensor_settings, .-bme680_set_sensor_settings
 2723              		.section	.text.bme680_get_sensor_mode,"ax",%progbits
 2724              		.align	2
 2725              		.global	bme680_get_sensor_mode
 2726              		.thumb
ARM GAS  C:\Users\adria\AppData\Local\Temp\ccQ3AXqi.s 			page 82


 2727              		.thumb_func
 2728              		.type	bme680_get_sensor_mode, %function
 2729              	bme680_get_sensor_mode:
 2730              	.LFB70:
 625:D:\mcu\design-mpu\source\ejemplos\BME680\bme680.c **** 	int8_t rslt;
 2731              		.loc 1 625 0
 2732              		.cfi_startproc
 2733              		@ args = 0, pretend = 0, frame = 8
 2734              		@ frame_needed = 0, uses_anonymous_args = 0
 2735              	.LVL360:
 2736 0000 10B5     		push	{r4, lr}
 2737              		.cfi_def_cfa_offset 8
 2738              		.cfi_offset 4, -8
 2739              		.cfi_offset 14, -4
 2740 0002 82B0     		sub	sp, sp, #8
 2741              		.cfi_def_cfa_offset 16
 2742 0004 0446     		mov	r4, r0
 630:D:\mcu\design-mpu\source\ejemplos\BME680\bme680.c **** 	if (rslt == BME680_OK) {
 2743              		.loc 1 630 0
 2744 0006 FFF7FEFF 		bl	null_ptr_check
 2745              	.LVL361:
 631:D:\mcu\design-mpu\source\ejemplos\BME680\bme680.c **** 		rslt = bme680_get_regs(BME680_CONF_T_P_MODE_ADDR, &mode, 1, dev);
 2746              		.loc 1 631 0
 2747 000a 0346     		mov	r3, r0
 2748 000c 68B9     		cbnz	r0, .L161
 632:D:\mcu\design-mpu\source\ejemplos\BME680\bme680.c **** 		/* Masking the other register bit info*/
 2749              		.loc 1 632 0
 2750 000e 2346     		mov	r3, r4
 2751 0010 0122     		movs	r2, #1
 2752 0012 0DF10701 		add	r1, sp, #7
 2753 0016 7420     		movs	r0, #116
 2754              	.LVL362:
 2755 0018 FFF7FEFF 		bl	bme680_get_regs
 2756              	.LVL363:
 2757 001c 0346     		mov	r3, r0
 2758              	.LVL364:
 634:D:\mcu\design-mpu\source\ejemplos\BME680\bme680.c **** 	}
 2759              		.loc 1 634 0
 2760 001e 9DF80720 		ldrb	r2, [sp, #7]	@ zero_extendqisi2
 2761 0022 02F00302 		and	r2, r2, #3
 2762 0026 84F84420 		strb	r2, [r4, #68]
 2763              	.LVL365:
 2764              	.L161:
 638:D:\mcu\design-mpu\source\ejemplos\BME680\bme680.c **** 
 2765              		.loc 1 638 0
 2766 002a 1846     		mov	r0, r3
 2767 002c 02B0     		add	sp, sp, #8
 2768              		.cfi_def_cfa_offset 8
 2769              		@ sp needed
 2770 002e 10BD     		pop	{r4, pc}
 2771              		.cfi_endproc
 2772              	.LFE70:
 2773              		.size	bme680_get_sensor_mode, .-bme680_get_sensor_mode
 2774              		.section	.text.bme680_set_profile_dur,"ax",%progbits
 2775              		.align	2
 2776              		.global	bme680_set_profile_dur
 2777              		.thumb
ARM GAS  C:\Users\adria\AppData\Local\Temp\ccQ3AXqi.s 			page 83


 2778              		.thumb_func
 2779              		.type	bme680_set_profile_dur, %function
 2780              	bme680_set_profile_dur:
 2781              	.LFB71:
 644:D:\mcu\design-mpu\source\ejemplos\BME680\bme680.c **** 	uint32_t tph_dur; /* Calculate in us */
 2782              		.loc 1 644 0
 2783              		.cfi_startproc
 2784              		@ args = 0, pretend = 0, frame = 8
 2785              		@ frame_needed = 0, uses_anonymous_args = 0
 2786              		@ link register save eliminated.
 2787              	.LVL366:
 2788 0000 10B4     		push	{r4}
 2789              		.cfi_def_cfa_offset 4
 2790              		.cfi_offset 4, -4
 2791 0002 83B0     		sub	sp, sp, #12
 2792              		.cfi_def_cfa_offset 16
 2793 0004 0246     		mov	r2, r0
 647:D:\mcu\design-mpu\source\ejemplos\BME680\bme680.c **** 
 2794              		.loc 1 647 0
 2795 0006 154B     		ldr	r3, .L165
 2796 0008 53F8800F 		ldr	r0, [r3, #128]!	@ unaligned
 2797              	.LVL367:
 2798 000c 0090     		str	r0, [sp]	@ unaligned
 2799 000e 9B88     		ldrh	r3, [r3, #4]	@ unaligned
 2800 0010 ADF80430 		strh	r3, [sp, #4]	@ unaligned
 649:D:\mcu\design-mpu\source\ejemplos\BME680\bme680.c **** 	meas_cycles += os_to_meas_cycles[dev->tph_sett.os_pres];
 2801              		.loc 1 649 0
 2802 0014 91F83930 		ldrb	r3, [r1, #57]	@ zero_extendqisi2
 2803 0018 02A8     		add	r0, sp, #8
 2804 001a 0344     		add	r3, r3, r0
 2805 001c 13F8083C 		ldrb	r3, [r3, #-8]	@ zero_extendqisi2
 2806              	.LVL368:
 650:D:\mcu\design-mpu\source\ejemplos\BME680\bme680.c **** 	meas_cycles += os_to_meas_cycles[dev->tph_sett.os_hum];
 2807              		.loc 1 650 0
 2808 0020 91F83A00 		ldrb	r0, [r1, #58]	@ zero_extendqisi2
 2809 0024 02AC     		add	r4, sp, #8
 2810 0026 2044     		add	r0, r0, r4
 2811 0028 10F8080C 		ldrb	r0, [r0, #-8]	@ zero_extendqisi2
 2812 002c 0344     		add	r3, r3, r0
 2813              	.LVL369:
 651:D:\mcu\design-mpu\source\ejemplos\BME680\bme680.c **** 
 2814              		.loc 1 651 0
 2815 002e 91F83800 		ldrb	r0, [r1, #56]	@ zero_extendqisi2
 2816 0032 2044     		add	r0, r0, r4
 2817 0034 10F8080C 		ldrb	r0, [r0, #-8]	@ zero_extendqisi2
 2818 0038 0344     		add	r3, r3, r0
 2819              	.LVL370:
 657:D:\mcu\design-mpu\source\ejemplos\BME680\bme680.c **** 	tph_dur /= UINT32_C(1000); /* Convert to ms */
 2820              		.loc 1 657 0
 2821 003a 41F2B920 		movw	r0, #4793
 2822 003e 40F2AB74 		movw	r4, #1963
 2823 0042 04FB0300 		mla	r0, r4, r3, r0
 2824              	.LVL371:
 658:D:\mcu\design-mpu\source\ejemplos\BME680\bme680.c **** 
 2825              		.loc 1 658 0
 2826 0046 064B     		ldr	r3, .L165+4
 2827              	.LVL372:
ARM GAS  C:\Users\adria\AppData\Local\Temp\ccQ3AXqi.s 			page 84


 2828 0048 A3FB0030 		umull	r3, r0, r3, r0
 2829              	.LVL373:
 2830 004c 8009     		lsrs	r0, r0, #6
 2831              	.LVL374:
 660:D:\mcu\design-mpu\source\ejemplos\BME680\bme680.c **** 	/* The remaining time should be used for heating */
 2832              		.loc 1 660 0
 2833 004e 0130     		adds	r0, r0, #1
 2834              	.LVL375:
 662:D:\mcu\design-mpu\source\ejemplos\BME680\bme680.c **** }
 2835              		.loc 1 662 0
 2836 0050 101A     		subs	r0, r2, r0
 2837              	.LVL376:
 2838 0052 A1F84200 		strh	r0, [r1, #66]	@ movhi
 663:D:\mcu\design-mpu\source\ejemplos\BME680\bme680.c **** 
 2839              		.loc 1 663 0
 2840 0056 03B0     		add	sp, sp, #12
 2841              		.cfi_def_cfa_offset 4
 2842              		@ sp needed
 2843 0058 10BC     		pop	{r4}
 2844              		.cfi_restore 4
 2845              		.cfi_def_cfa_offset 0
 2846              	.LVL377:
 2847 005a 7047     		bx	lr
 2848              	.L166:
 2849              		.align	2
 2850              	.L165:
 2851 005c 00000000 		.word	.LANCHOR0
 2852 0060 D34D6210 		.word	274877907
 2853              		.cfi_endproc
 2854              	.LFE71:
 2855              		.size	bme680_set_profile_dur, .-bme680_set_profile_dur
 2856              		.section	.text.bme680_get_profile_dur,"ax",%progbits
 2857              		.align	2
 2858              		.global	bme680_get_profile_dur
 2859              		.thumb
 2860              		.thumb_func
 2861              		.type	bme680_get_profile_dur, %function
 2862              	bme680_get_profile_dur:
 2863              	.LFB72:
 669:D:\mcu\design-mpu\source\ejemplos\BME680\bme680.c **** 	uint32_t tph_dur; /* Calculate in us */
 2864              		.loc 1 669 0
 2865              		.cfi_startproc
 2866              		@ args = 0, pretend = 0, frame = 8
 2867              		@ frame_needed = 0, uses_anonymous_args = 0
 2868              		@ link register save eliminated.
 2869              	.LVL378:
 2870 0000 10B4     		push	{r4}
 2871              		.cfi_def_cfa_offset 4
 2872              		.cfi_offset 4, -4
 2873 0002 83B0     		sub	sp, sp, #12
 2874              		.cfi_def_cfa_offset 16
 2875 0004 0446     		mov	r4, r0
 672:D:\mcu\design-mpu\source\ejemplos\BME680\bme680.c **** 
 2876              		.loc 1 672 0
 2877 0006 184B     		ldr	r3, .L170
 2878 0008 53F8800F 		ldr	r0, [r3, #128]!	@ unaligned
 2879              	.LVL379:
ARM GAS  C:\Users\adria\AppData\Local\Temp\ccQ3AXqi.s 			page 85


 2880 000c 0090     		str	r0, [sp]	@ unaligned
 2881 000e 9B88     		ldrh	r3, [r3, #4]	@ unaligned
 2882 0010 ADF80430 		strh	r3, [sp, #4]	@ unaligned
 674:D:\mcu\design-mpu\source\ejemplos\BME680\bme680.c **** 	meas_cycles += os_to_meas_cycles[dev->tph_sett.os_pres];
 2883              		.loc 1 674 0
 2884 0014 91F83930 		ldrb	r3, [r1, #57]	@ zero_extendqisi2
 2885 0018 02AA     		add	r2, sp, #8
 2886 001a 1344     		add	r3, r3, r2
 2887 001c 13F8083C 		ldrb	r3, [r3, #-8]	@ zero_extendqisi2
 2888              	.LVL380:
 675:D:\mcu\design-mpu\source\ejemplos\BME680\bme680.c **** 	meas_cycles += os_to_meas_cycles[dev->tph_sett.os_hum];
 2889              		.loc 1 675 0
 2890 0020 91F83A20 		ldrb	r2, [r1, #58]	@ zero_extendqisi2
 2891 0024 02A8     		add	r0, sp, #8
 2892 0026 0244     		add	r2, r2, r0
 2893 0028 12F8082C 		ldrb	r2, [r2, #-8]	@ zero_extendqisi2
 2894 002c 1344     		add	r3, r3, r2
 2895              	.LVL381:
 676:D:\mcu\design-mpu\source\ejemplos\BME680\bme680.c **** 
 2896              		.loc 1 676 0
 2897 002e 91F83820 		ldrb	r2, [r1, #56]	@ zero_extendqisi2
 2898 0032 0244     		add	r2, r2, r0
 2899 0034 12F8082C 		ldrb	r2, [r2, #-8]	@ zero_extendqisi2
 2900 0038 1A44     		add	r2, r2, r3
 2901              	.LVL382:
 682:D:\mcu\design-mpu\source\ejemplos\BME680\bme680.c **** 	tph_dur /= UINT32_C(1000); /* Convert to ms */
 2902              		.loc 1 682 0
 2903 003a 41F2B923 		movw	r3, #4793
 2904 003e 40F2AB70 		movw	r0, #1963
 2905 0042 00FB0233 		mla	r3, r0, r2, r3
 2906              	.LVL383:
 683:D:\mcu\design-mpu\source\ejemplos\BME680\bme680.c **** 
 2907              		.loc 1 683 0
 2908 0046 094A     		ldr	r2, .L170+4
 2909              	.LVL384:
 2910 0048 A2FB0323 		umull	r2, r3, r2, r3
 2911              	.LVL385:
 2912 004c 9B09     		lsrs	r3, r3, #6
 2913              	.LVL386:
 685:D:\mcu\design-mpu\source\ejemplos\BME680\bme680.c **** 
 2914              		.loc 1 685 0
 2915 004e 0133     		adds	r3, r3, #1
 2916              	.LVL387:
 687:D:\mcu\design-mpu\source\ejemplos\BME680\bme680.c **** 
 2917              		.loc 1 687 0
 2918 0050 9BB2     		uxth	r3, r3
 2919              	.LVL388:
 2920 0052 2380     		strh	r3, [r4]	@ movhi
 2921              	.LVL389:
 690:D:\mcu\design-mpu\source\ejemplos\BME680\bme680.c **** 		/* The remaining time should be used for heating */
 2922              		.loc 1 690 0
 2923 0054 91F83E20 		ldrb	r2, [r1, #62]	@ zero_extendqisi2
 2924 0058 1AB1     		cbz	r2, .L167
 692:D:\mcu\design-mpu\source\ejemplos\BME680\bme680.c **** 	}
 2925              		.loc 1 692 0
 2926 005a B1F84220 		ldrh	r2, [r1, #66]
 2927 005e 1344     		add	r3, r3, r2
ARM GAS  C:\Users\adria\AppData\Local\Temp\ccQ3AXqi.s 			page 86


 2928 0060 2380     		strh	r3, [r4]	@ movhi
 2929              	.L167:
 694:D:\mcu\design-mpu\source\ejemplos\BME680\bme680.c **** 
 2930              		.loc 1 694 0
 2931 0062 03B0     		add	sp, sp, #12
 2932              		.cfi_def_cfa_offset 4
 2933              		@ sp needed
 2934 0064 10BC     		pop	{r4}
 2935              		.cfi_restore 4
 2936              		.cfi_def_cfa_offset 0
 2937              	.LVL390:
 2938 0066 7047     		bx	lr
 2939              	.L171:
 2940              		.align	2
 2941              	.L170:
 2942 0068 00000000 		.word	.LANCHOR0
 2943 006c D34D6210 		.word	274877907
 2944              		.cfi_endproc
 2945              	.LFE72:
 2946              		.size	bme680_get_profile_dur, .-bme680_get_profile_dur
 2947              		.section	.text.bme680_get_sensor_data,"ax",%progbits
 2948              		.align	2
 2949              		.global	bme680_get_sensor_data
 2950              		.thumb
 2951              		.thumb_func
 2952              		.type	bme680_get_sensor_data, %function
 2953              	bme680_get_sensor_data:
 2954              	.LFB73:
 702:D:\mcu\design-mpu\source\ejemplos\BME680\bme680.c **** 	int8_t rslt;
 2955              		.loc 1 702 0
 2956              		.cfi_startproc
 2957              		@ args = 0, pretend = 0, frame = 0
 2958              		@ frame_needed = 0, uses_anonymous_args = 0
 2959              	.LVL391:
 2960 0000 38B5     		push	{r3, r4, r5, lr}
 2961              		.cfi_def_cfa_offset 16
 2962              		.cfi_offset 3, -16
 2963              		.cfi_offset 4, -12
 2964              		.cfi_offset 5, -8
 2965              		.cfi_offset 14, -4
 2966 0002 0546     		mov	r5, r0
 2967 0004 0C46     		mov	r4, r1
 706:D:\mcu\design-mpu\source\ejemplos\BME680\bme680.c **** 	if (rslt == BME680_OK) {
 2968              		.loc 1 706 0
 2969 0006 0846     		mov	r0, r1
 2970              	.LVL392:
 2971 0008 FFF7FEFF 		bl	null_ptr_check
 2972              	.LVL393:
 707:D:\mcu\design-mpu\source\ejemplos\BME680\bme680.c **** 		/* Reading the sensor data in forced mode only */
 2973              		.loc 1 707 0
 2974 000c 0346     		mov	r3, r0
 2975 000e 80B9     		cbnz	r0, .L173
 709:D:\mcu\design-mpu\source\ejemplos\BME680\bme680.c **** 		if (rslt == BME680_OK) {
 2976              		.loc 1 709 0
 2977 0010 2146     		mov	r1, r4
 2978 0012 2846     		mov	r0, r5
 2979              	.LVL394:
ARM GAS  C:\Users\adria\AppData\Local\Temp\ccQ3AXqi.s 			page 87


 2980 0014 FFF7FEFF 		bl	read_field_data
 2981              	.LVL395:
 710:D:\mcu\design-mpu\source\ejemplos\BME680\bme680.c **** 			if (data->status & BME680_NEW_DATA_MSK)
 2982              		.loc 1 710 0
 2983 0018 0346     		mov	r3, r0
 2984 001a 50B9     		cbnz	r0, .L173
 711:D:\mcu\design-mpu\source\ejemplos\BME680\bme680.c **** 				dev->new_fields = 1;
 2985              		.loc 1 711 0
 2986 001c 95F90020 		ldrsb	r2, [r5]
 2987 0020 002A     		cmp	r2, #0
 2988 0022 03DA     		bge	.L174
 712:D:\mcu\design-mpu\source\ejemplos\BME680\bme680.c **** 			else
 2989              		.loc 1 712 0
 2990 0024 0122     		movs	r2, #1
 2991 0026 84F84520 		strb	r2, [r4, #69]
 2992 002a 02E0     		b	.L173
 2993              	.L174:
 714:D:\mcu\design-mpu\source\ejemplos\BME680\bme680.c **** 		}
 2994              		.loc 1 714 0
 2995 002c 0022     		movs	r2, #0
 2996 002e 84F84520 		strb	r2, [r4, #69]
 2997              	.L173:
 2998              	.LVL396:
 719:D:\mcu\design-mpu\source\ejemplos\BME680\bme680.c **** 
 2999              		.loc 1 719 0
 3000 0032 1846     		mov	r0, r3
 3001 0034 38BD     		pop	{r3, r4, r5, pc}
 3002              		.cfi_endproc
 3003              	.LFE73:
 3004              		.size	bme680_get_sensor_data, .-bme680_get_sensor_data
 3005 0036 00BF     		.section	.text.bme680_self_test,"ax",%progbits
 3006              		.align	2
 3007              		.global	bme680_self_test
 3008              		.thumb
 3009              		.thumb_func
 3010              		.type	bme680_self_test, %function
 3011              	bme680_self_test:
 3012              	.LFB88:
1381:D:\mcu\design-mpu\source\ejemplos\BME680\bme680.c **** 	int8_t rslt = BME680_OK;
 3013              		.loc 1 1381 0
 3014              		.cfi_startproc
 3015              		@ args = 0, pretend = 0, frame = 216
 3016              		@ frame_needed = 0, uses_anonymous_args = 0
 3017              	.LVL397:
 3018 0000 30B5     		push	{r4, r5, lr}
 3019              		.cfi_def_cfa_offset 12
 3020              		.cfi_offset 4, -12
 3021              		.cfi_offset 5, -8
 3022              		.cfi_offset 14, -4
 3023 0002 B7B0     		sub	sp, sp, #220
 3024              		.cfi_def_cfa_offset 232
 3025              	.LVL398:
1388:D:\mcu\design-mpu\source\ejemplos\BME680\bme680.c **** 	t_dev.amb_temp = 25;
 3026              		.loc 1 1388 0
 3027 0004 4378     		ldrb	r3, [r0, #1]	@ zero_extendqisi2
 3028 0006 8DF80930 		strb	r3, [sp, #9]
1389:D:\mcu\design-mpu\source\ejemplos\BME680\bme680.c **** 	t_dev.read = dev->read;
ARM GAS  C:\Users\adria\AppData\Local\Temp\ccQ3AXqi.s 			page 88


 3029              		.loc 1 1389 0
 3030 000a 1923     		movs	r3, #25
 3031 000c 8DF80C30 		strb	r3, [sp, #12]
1390:D:\mcu\design-mpu\source\ejemplos\BME680\bme680.c **** 	t_dev.write = dev->write;
 3032              		.loc 1 1390 0
 3033 0010 836C     		ldr	r3, [r0, #72]
 3034 0012 1493     		str	r3, [sp, #80]
1391:D:\mcu\design-mpu\source\ejemplos\BME680\bme680.c **** 	t_dev.intf = dev->intf;
 3035              		.loc 1 1391 0
 3036 0014 C36C     		ldr	r3, [r0, #76]
 3037 0016 1593     		str	r3, [sp, #84]
1392:D:\mcu\design-mpu\source\ejemplos\BME680\bme680.c **** 	t_dev.delay_ms = dev->delay_ms;
 3038              		.loc 1 1392 0
 3039 0018 8378     		ldrb	r3, [r0, #2]	@ zero_extendqisi2
 3040 001a 8DF80A30 		strb	r3, [sp, #10]
1393:D:\mcu\design-mpu\source\ejemplos\BME680\bme680.c **** 
 3041              		.loc 1 1393 0
 3042 001e 036D     		ldr	r3, [r0, #80]
 3043 0020 1693     		str	r3, [sp, #88]
1395:D:\mcu\design-mpu\source\ejemplos\BME680\bme680.c **** 
 3044              		.loc 1 1395 0
 3045 0022 02A8     		add	r0, sp, #8
 3046              	.LVL399:
 3047 0024 FFF7FEFF 		bl	bme680_init
 3048              	.LVL400:
1397:D:\mcu\design-mpu\source\ejemplos\BME680\bme680.c **** 		/* Select the power mode */
 3049              		.loc 1 1397 0
 3050 0028 0546     		mov	r5, r0
 3051 002a 0028     		cmp	r0, #0
 3052 002c 46D1     		bne	.L177
 3053              	.LBB3:
1400:D:\mcu\design-mpu\source\ejemplos\BME680\bme680.c **** 
 3054              		.loc 1 1400 0
 3055 002e 0123     		movs	r3, #1
 3056 0030 8DF84C30 		strb	r3, [sp, #76]
1405:D:\mcu\design-mpu\source\ejemplos\BME680\bme680.c **** 		t_dev.tph_sett.os_pres = BME680_OS_16X;
 3057              		.loc 1 1405 0
 3058 0034 8DF84030 		strb	r3, [sp, #64]
1406:D:\mcu\design-mpu\source\ejemplos\BME680\bme680.c **** 		t_dev.tph_sett.os_temp = BME680_OS_2X;
 3059              		.loc 1 1406 0
 3060 0038 0522     		movs	r2, #5
 3061 003a 8DF84220 		strb	r2, [sp, #66]
1407:D:\mcu\design-mpu\source\ejemplos\BME680\bme680.c **** 
 3062              		.loc 1 1407 0
 3063 003e 0222     		movs	r2, #2
 3064 0040 8DF84120 		strb	r2, [sp, #65]
1410:D:\mcu\design-mpu\source\ejemplos\BME680\bme680.c **** 		t_dev.gas_sett.heatr_dur = HEATR_DUR;
 3065              		.loc 1 1410 0
 3066 0044 8DF84630 		strb	r3, [sp, #70]
1411:D:\mcu\design-mpu\source\ejemplos\BME680\bme680.c **** 
 3067              		.loc 1 1411 0
 3068 0048 4FF4FA63 		mov	r3, #2000
 3069 004c ADF84A30 		strh	r3, [sp, #74]	@ movhi
 3070              	.LVL401:
1415:D:\mcu\design-mpu\source\ejemplos\BME680\bme680.c **** 		bme680_get_profile_dur(&profile_dur, &t_dev);
 3071              		.loc 1 1415 0
 3072 0050 0024     		movs	r4, #0
ARM GAS  C:\Users\adria\AppData\Local\Temp\ccQ3AXqi.s 			page 89


 3073 0052 ADF80640 		strh	r4, [sp, #6]	@ movhi
1416:D:\mcu\design-mpu\source\ejemplos\BME680\bme680.c **** 
 3074              		.loc 1 1416 0
 3075 0056 02A9     		add	r1, sp, #8
 3076 0058 0DF10600 		add	r0, sp, #6
 3077              	.LVL402:
 3078 005c FFF7FEFF 		bl	bme680_get_profile_dur
 3079              	.LVL403:
1419:D:\mcu\design-mpu\source\ejemplos\BME680\bme680.c **** 			if (rslt == BME680_OK) {
 3080              		.loc 1 1419 0
 3081 0060 23E0     		b	.L178
 3082              	.LVL404:
 3083              	.L183:
1420:D:\mcu\design-mpu\source\ejemplos\BME680\bme680.c **** 
 3084              		.loc 1 1420 0
 3085 0062 05BB     		cbnz	r5, .L179
1422:D:\mcu\design-mpu\source\ejemplos\BME680\bme680.c **** 					t_dev.gas_sett.heatr_temp = HIGH_TEMP; /* Higher temperature */
 3086              		.loc 1 1422 0
 3087 0064 14F0010F 		tst	r4, #1
 3088 0068 04D1     		bne	.L180
1423:D:\mcu\design-mpu\source\ejemplos\BME680\bme680.c **** 				else
 3089              		.loc 1 1423 0
 3090 006a 4FF4AF73 		mov	r3, #350
 3091 006e ADF84830 		strh	r3, [sp, #72]	@ movhi
 3092 0072 02E0     		b	.L181
 3093              	.L180:
1425:D:\mcu\design-mpu\source\ejemplos\BME680\bme680.c **** 
 3094              		.loc 1 1425 0
 3095 0074 9623     		movs	r3, #150
 3096 0076 ADF84830 		strh	r3, [sp, #72]	@ movhi
 3097              	.L181:
1427:D:\mcu\design-mpu\source\ejemplos\BME680\bme680.c **** 
 3098              		.loc 1 1427 0
 3099 007a 02A9     		add	r1, sp, #8
 3100 007c CF20     		movs	r0, #207
 3101 007e FFF7FEFF 		bl	bme680_set_sensor_settings
 3102              	.LVL405:
1429:D:\mcu\design-mpu\source\ejemplos\BME680\bme680.c **** 
 3103              		.loc 1 1429 0
 3104 0082 0546     		mov	r5, r0
 3105 0084 78B9     		cbnz	r0, .L179
1431:D:\mcu\design-mpu\source\ejemplos\BME680\bme680.c **** 
 3106              		.loc 1 1431 0
 3107 0086 02A8     		add	r0, sp, #8
 3108              	.LVL406:
 3109 0088 FFF7FEFF 		bl	bme680_set_sensor_mode
 3110              	.LVL407:
1433:D:\mcu\design-mpu\source\ejemplos\BME680\bme680.c **** 
 3111              		.loc 1 1433 0
 3112 008c BDF80600 		ldrh	r0, [sp, #6]
 3113 0090 169B     		ldr	r3, [sp, #88]
 3114 0092 9847     		blx	r3
 3115              	.LVL408:
1435:D:\mcu\design-mpu\source\ejemplos\BME680\bme680.c **** 				}
 3116              		.loc 1 1435 0
 3117 0094 04EB8403 		add	r3, r4, r4, lsl #2
 3118 0098 9800     		lsls	r0, r3, #2
ARM GAS  C:\Users\adria\AppData\Local\Temp\ccQ3AXqi.s 			page 90


 3119 009a 02A9     		add	r1, sp, #8
 3120 009c 18AB     		add	r3, sp, #96
 3121 009e 1844     		add	r0, r0, r3
 3122 00a0 FFF7FEFF 		bl	bme680_get_sensor_data
 3123              	.LVL409:
 3124 00a4 0546     		mov	r5, r0
 3125              	.LVL410:
 3126              	.L179:
1439:D:\mcu\design-mpu\source\ejemplos\BME680\bme680.c **** 		}
 3127              		.loc 1 1439 0
 3128 00a6 0134     		adds	r4, r4, #1
 3129              	.LVL411:
 3130 00a8 E4B2     		uxtb	r4, r4
 3131              	.LVL412:
 3132              	.L178:
1419:D:\mcu\design-mpu\source\ejemplos\BME680\bme680.c **** 			if (rslt == BME680_OK) {
 3133              		.loc 1 1419 0
 3134 00aa 0DB9     		cbnz	r5, .L182
1419:D:\mcu\design-mpu\source\ejemplos\BME680\bme680.c **** 			if (rslt == BME680_OK) {
 3135              		.loc 1 1419 0 is_stmt 0 discriminator 1
 3136 00ac 052C     		cmp	r4, #5
 3137 00ae D8D9     		bls	.L183
 3138              	.L182:
1442:D:\mcu\design-mpu\source\ejemplos\BME680\bme680.c **** 			rslt = analyze_sensor_data(data, N_MEAS);
 3139              		.loc 1 1442 0 is_stmt 1
 3140 00b0 25B9     		cbnz	r5, .L177
1443:D:\mcu\design-mpu\source\ejemplos\BME680\bme680.c **** 	}
 3141              		.loc 1 1443 0
 3142 00b2 0621     		movs	r1, #6
 3143 00b4 18A8     		add	r0, sp, #96
 3144 00b6 FFF7FEFF 		bl	analyze_sensor_data
 3145              	.LVL413:
 3146 00ba 0546     		mov	r5, r0
 3147              	.LVL414:
 3148              	.L177:
 3149              	.LBE3:
1447:D:\mcu\design-mpu\source\ejemplos\BME680\bme680.c **** 
 3150              		.loc 1 1447 0
 3151 00bc 2846     		mov	r0, r5
 3152 00be 37B0     		add	sp, sp, #220
 3153              		.cfi_def_cfa_offset 12
 3154              		@ sp needed
 3155 00c0 30BD     		pop	{r4, r5, pc}
 3156              		.cfi_endproc
 3157              	.LFE88:
 3158              		.size	bme680_self_test, .-bme680_self_test
 3159 00c2 00BF     		.section	.text.bme680_setup,"ax",%progbits
 3160              		.align	2
 3161              		.global	bme680_setup
 3162              		.thumb
 3163              		.thumb_func
 3164              		.type	bme680_setup, %function
 3165              	bme680_setup:
 3166              	.LFB93:
1564:D:\mcu\design-mpu\source\ejemplos\BME680\bme680.c **** 
1565:D:\mcu\design-mpu\source\ejemplos\BME680\bme680.c **** int8_t bme680_setup(struct bme680_dev *dev)
1566:D:\mcu\design-mpu\source\ejemplos\BME680\bme680.c **** {
ARM GAS  C:\Users\adria\AppData\Local\Temp\ccQ3AXqi.s 			page 91


 3167              		.loc 1 1566 0
 3168              		.cfi_startproc
 3169              		@ args = 0, pretend = 0, frame = 0
 3170              		@ frame_needed = 0, uses_anonymous_args = 0
 3171              	.LVL415:
 3172 0000 08B5     		push	{r3, lr}
 3173              		.cfi_def_cfa_offset 8
 3174              		.cfi_offset 3, -8
 3175              		.cfi_offset 14, -4
1567:D:\mcu\design-mpu\source\ejemplos\BME680\bme680.c ****     dev->dev_id = BME680_I2C_ADDR_PRIMARY;
 3176              		.loc 1 1567 0
 3177 0002 7622     		movs	r2, #118
 3178 0004 4270     		strb	r2, [r0, #1]
1568:D:\mcu\design-mpu\source\ejemplos\BME680\bme680.c ****     dev->intf = BME680_I2C_INTF;
 3179              		.loc 1 1568 0
 3180 0006 0122     		movs	r2, #1
 3181 0008 8270     		strb	r2, [r0, #2]
1569:D:\mcu\design-mpu\source\ejemplos\BME680\bme680.c ****     dev->read = user_i2c_read;
 3182              		.loc 1 1569 0
 3183 000a 054A     		ldr	r2, .L188
 3184 000c 8264     		str	r2, [r0, #72]
1570:D:\mcu\design-mpu\source\ejemplos\BME680\bme680.c ****     dev->write = user_i2c_write;
 3185              		.loc 1 1570 0
 3186 000e 054A     		ldr	r2, .L188+4
 3187 0010 C264     		str	r2, [r0, #76]
1571:D:\mcu\design-mpu\source\ejemplos\BME680\bme680.c ****     dev->delay_ms = user_delay_ms;
 3188              		.loc 1 1571 0
 3189 0012 054A     		ldr	r2, .L188+8
 3190 0014 0265     		str	r2, [r0, #80]
1572:D:\mcu\design-mpu\source\ejemplos\BME680\bme680.c ****     /* amb_temp can be set to 25 prior to configuring the gas sensor 
1573:D:\mcu\design-mpu\source\ejemplos\BME680\bme680.c ****      * or by performing a few temperature readings without operating the gas sensor.
1574:D:\mcu\design-mpu\source\ejemplos\BME680\bme680.c ****      */
1575:D:\mcu\design-mpu\source\ejemplos\BME680\bme680.c ****     dev->amb_temp = 25;
 3191              		.loc 1 1575 0
 3192 0016 1922     		movs	r2, #25
 3193 0018 0271     		strb	r2, [r0, #4]
 3194              	.LVL416:
1576:D:\mcu\design-mpu\source\ejemplos\BME680\bme680.c ****     
1577:D:\mcu\design-mpu\source\ejemplos\BME680\bme680.c ****     int8_t rslt = BME680_OK;
1578:D:\mcu\design-mpu\source\ejemplos\BME680\bme680.c ****     rslt = bme680_init(dev);
 3195              		.loc 1 1578 0
 3196 001a FFF7FEFF 		bl	bme680_init
 3197              	.LVL417:
1579:D:\mcu\design-mpu\source\ejemplos\BME680\bme680.c ****     
1580:D:\mcu\design-mpu\source\ejemplos\BME680\bme680.c ****     return rslt;
1581:D:\mcu\design-mpu\source\ejemplos\BME680\bme680.c **** }
 3198              		.loc 1 1581 0
 3199 001e 08BD     		pop	{r3, pc}
 3200              	.L189:
 3201              		.align	2
 3202              	.L188:
 3203 0020 00000000 		.word	user_i2c_read
 3204 0024 00000000 		.word	user_i2c_write
 3205 0028 00000000 		.word	user_delay_ms
 3206              		.cfi_endproc
 3207              	.LFE93:
 3208              		.size	bme680_setup, .-bme680_setup
ARM GAS  C:\Users\adria\AppData\Local\Temp\ccQ3AXqi.s 			page 92


 3209              		.section	.text.bme680_config,"ax",%progbits
 3210              		.align	2
 3211              		.global	bme680_config
 3212              		.thumb
 3213              		.thumb_func
 3214              		.type	bme680_config, %function
 3215              	bme680_config:
 3216              	.LFB94:
1582:D:\mcu\design-mpu\source\ejemplos\BME680\bme680.c **** 
1583:D:\mcu\design-mpu\source\ejemplos\BME680\bme680.c **** int8_t bme680_config(struct bme680_dev *dev)
1584:D:\mcu\design-mpu\source\ejemplos\BME680\bme680.c **** {
 3217              		.loc 1 1584 0
 3218              		.cfi_startproc
 3219              		@ args = 0, pretend = 0, frame = 0
 3220              		@ frame_needed = 0, uses_anonymous_args = 0
 3221              	.LVL418:
 3222 0000 10B5     		push	{r4, lr}
 3223              		.cfi_def_cfa_offset 8
 3224              		.cfi_offset 4, -8
 3225              		.cfi_offset 14, -4
 3226 0002 0446     		mov	r4, r0
1585:D:\mcu\design-mpu\source\ejemplos\BME680\bme680.c ****     uint8_t set_required_settings;
1586:D:\mcu\design-mpu\source\ejemplos\BME680\bme680.c ****     
1587:D:\mcu\design-mpu\source\ejemplos\BME680\bme680.c ****     /* Set the temperature, pressure and humidity settings */
1588:D:\mcu\design-mpu\source\ejemplos\BME680\bme680.c ****     dev->tph_sett.os_hum = BME680_OS_2X;
 3227              		.loc 1 1588 0
 3228 0004 0223     		movs	r3, #2
 3229 0006 80F83830 		strb	r3, [r0, #56]
1589:D:\mcu\design-mpu\source\ejemplos\BME680\bme680.c ****     dev->tph_sett.os_pres = BME680_OS_4X;
 3230              		.loc 1 1589 0
 3231 000a 0322     		movs	r2, #3
 3232 000c 80F83A20 		strb	r2, [r0, #58]
1590:D:\mcu\design-mpu\source\ejemplos\BME680\bme680.c ****     dev->tph_sett.os_temp = BME680_OS_8X;
 3233              		.loc 1 1590 0
 3234 0010 0422     		movs	r2, #4
 3235 0012 80F83920 		strb	r2, [r0, #57]
1591:D:\mcu\design-mpu\source\ejemplos\BME680\bme680.c ****     dev->tph_sett.filter = BME680_FILTER_SIZE_3;
 3236              		.loc 1 1591 0
 3237 0016 80F83B30 		strb	r3, [r0, #59]
1592:D:\mcu\design-mpu\source\ejemplos\BME680\bme680.c ****     
1593:D:\mcu\design-mpu\source\ejemplos\BME680\bme680.c ****     /* Set the remaining gas sensor settings and link the heating profile */
1594:D:\mcu\design-mpu\source\ejemplos\BME680\bme680.c ****     dev->gas_sett.run_gas = BME680_ENABLE_GAS_MEAS;
 3238              		.loc 1 1594 0
 3239 001a 0123     		movs	r3, #1
 3240 001c 80F83E30 		strb	r3, [r0, #62]
1595:D:\mcu\design-mpu\source\ejemplos\BME680\bme680.c ****     /* Create a ramp heat waveform in 3 steps */
1596:D:\mcu\design-mpu\source\ejemplos\BME680\bme680.c ****     dev->gas_sett.heatr_temp = 320; /* degree Celsius */
 3241              		.loc 1 1596 0
 3242 0020 4FF4A072 		mov	r2, #320
 3243 0024 A0F84020 		strh	r2, [r0, #64]	@ movhi
1597:D:\mcu\design-mpu\source\ejemplos\BME680\bme680.c ****     dev->gas_sett.heatr_dur = 150; /* milliseconds */
 3244              		.loc 1 1597 0
 3245 0028 9622     		movs	r2, #150
 3246 002a A0F84220 		strh	r2, [r0, #66]	@ movhi
1598:D:\mcu\design-mpu\source\ejemplos\BME680\bme680.c ****     
1599:D:\mcu\design-mpu\source\ejemplos\BME680\bme680.c ****     /* Select the power mode */
1600:D:\mcu\design-mpu\source\ejemplos\BME680\bme680.c ****     /* Must be set before writing the sensor configuration */
ARM GAS  C:\Users\adria\AppData\Local\Temp\ccQ3AXqi.s 			page 93


1601:D:\mcu\design-mpu\source\ejemplos\BME680\bme680.c ****     dev->power_mode = BME680_FORCED_MODE;
 3247              		.loc 1 1601 0
 3248 002e 80F84430 		strb	r3, [r0, #68]
 3249              	.LVL419:
1602:D:\mcu\design-mpu\source\ejemplos\BME680\bme680.c ****     
1603:D:\mcu\design-mpu\source\ejemplos\BME680\bme680.c ****     /* Set the required sensor settings needed */
1604:D:\mcu\design-mpu\source\ejemplos\BME680\bme680.c ****     set_required_settings = BME680_OST_SEL | BME680_OSP_SEL | BME680_OSH_SEL | BME680_FILTER_SEL 
1605:D:\mcu\design-mpu\source\ejemplos\BME680\bme680.c ****         | BME680_GAS_SENSOR_SEL;
1606:D:\mcu\design-mpu\source\ejemplos\BME680\bme680.c ****     
1607:D:\mcu\design-mpu\source\ejemplos\BME680\bme680.c ****     int8_t rslt = BME680_OK;
1608:D:\mcu\design-mpu\source\ejemplos\BME680\bme680.c **** 
1609:D:\mcu\design-mpu\source\ejemplos\BME680\bme680.c ****     /* Set the desired sensor configuration */
1610:D:\mcu\design-mpu\source\ejemplos\BME680\bme680.c ****     rslt = bme680_set_sensor_settings(set_required_settings,dev);
 3250              		.loc 1 1610 0
 3251 0032 0146     		mov	r1, r0
 3252 0034 DF20     		movs	r0, #223
 3253              	.LVL420:
 3254 0036 FFF7FEFF 		bl	bme680_set_sensor_settings
 3255              	.LVL421:
1611:D:\mcu\design-mpu\source\ejemplos\BME680\bme680.c **** 
1612:D:\mcu\design-mpu\source\ejemplos\BME680\bme680.c ****     /* Set the power mode */
1613:D:\mcu\design-mpu\source\ejemplos\BME680\bme680.c ****     rslt = bme680_set_sensor_mode(dev);
 3256              		.loc 1 1613 0
 3257 003a 2046     		mov	r0, r4
 3258 003c FFF7FEFF 		bl	bme680_set_sensor_mode
 3259              	.LVL422:
1614:D:\mcu\design-mpu\source\ejemplos\BME680\bme680.c ****     
1615:D:\mcu\design-mpu\source\ejemplos\BME680\bme680.c ****     return rslt;
1616:D:\mcu\design-mpu\source\ejemplos\BME680\bme680.c **** }
 3260              		.loc 1 1616 0
 3261 0040 10BD     		pop	{r4, pc}
 3262              		.cfi_endproc
 3263              	.LFE94:
 3264              		.size	bme680_config, .-bme680_config
 3265 0042 00BF     		.section	.text.bme680_readData,"ax",%progbits
 3266              		.align	2
 3267              		.global	bme680_readData
 3268              		.thumb
 3269              		.thumb_func
 3270              		.type	bme680_readData, %function
 3271              	bme680_readData:
 3272              	.LFB95:
1617:D:\mcu\design-mpu\source\ejemplos\BME680\bme680.c **** 
1618:D:\mcu\design-mpu\source\ejemplos\BME680\bme680.c **** sdata_bme680 bme680_readData(struct bme680_dev *dev)
1619:D:\mcu\design-mpu\source\ejemplos\BME680\bme680.c **** {
 3273              		.loc 1 1619 0
 3274              		.cfi_startproc
 3275              		@ args = 0, pretend = 0, frame = 24
 3276              		@ frame_needed = 0, uses_anonymous_args = 0
 3277              	.LVL423:
 3278 0000 70B5     		push	{r4, r5, r6, lr}
 3279              		.cfi_def_cfa_offset 16
 3280              		.cfi_offset 4, -16
 3281              		.cfi_offset 5, -12
 3282              		.cfi_offset 6, -8
 3283              		.cfi_offset 14, -4
 3284 0002 86B0     		sub	sp, sp, #24
ARM GAS  C:\Users\adria\AppData\Local\Temp\ccQ3AXqi.s 			page 94


 3285              		.cfi_def_cfa_offset 40
 3286 0004 0646     		mov	r6, r0
 3287 0006 0C46     		mov	r4, r1
1620:D:\mcu\design-mpu\source\ejemplos\BME680\bme680.c ****     uint16_t meas_period;
1621:D:\mcu\design-mpu\source\ejemplos\BME680\bme680.c ****     uint8_t rslt;
1622:D:\mcu\design-mpu\source\ejemplos\BME680\bme680.c ****     
1623:D:\mcu\design-mpu\source\ejemplos\BME680\bme680.c ****     bme680_get_profile_dur(&meas_period, dev);
 3288              		.loc 1 1623 0
 3289 0008 0DF11600 		add	r0, sp, #22
 3290              	.LVL424:
 3291 000c FFF7FEFF 		bl	bme680_get_profile_dur
 3292              	.LVL425:
1624:D:\mcu\design-mpu\source\ejemplos\BME680\bme680.c **** 
1625:D:\mcu\design-mpu\source\ejemplos\BME680\bme680.c ****     sdata_bme680 data;
1626:D:\mcu\design-mpu\source\ejemplos\BME680\bme680.c **** 
1627:D:\mcu\design-mpu\source\ejemplos\BME680\bme680.c ****     user_delay_ms(meas_period); /* Delay till the measurement is ready */
 3293              		.loc 1 1627 0
 3294 0010 BDF81600 		ldrh	r0, [sp, #22]
 3295 0014 FFF7FEFF 		bl	user_delay_ms
 3296              	.LVL426:
1628:D:\mcu\design-mpu\source\ejemplos\BME680\bme680.c **** 
1629:D:\mcu\design-mpu\source\ejemplos\BME680\bme680.c ****     rslt = bme680_get_sensor_data(&data, dev);
 3297              		.loc 1 1629 0
 3298 0018 2146     		mov	r1, r4
 3299 001a 6846     		mov	r0, sp
 3300 001c FFF7FEFF 		bl	bme680_get_sensor_data
 3301              	.LVL427:
1630:D:\mcu\design-mpu\source\ejemplos\BME680\bme680.c ****     
1631:D:\mcu\design-mpu\source\ejemplos\BME680\bme680.c ****     /* Trigger the next measurement if you would like to read data out continuously */
1632:D:\mcu\design-mpu\source\ejemplos\BME680\bme680.c ****     if (dev->power_mode == BME680_FORCED_MODE) {
 3302              		.loc 1 1632 0
 3303 0020 94F84430 		ldrb	r3, [r4, #68]	@ zero_extendqisi2
 3304 0024 012B     		cmp	r3, #1
 3305 0026 02D1     		bne	.L193
1633:D:\mcu\design-mpu\source\ejemplos\BME680\bme680.c ****         rslt = bme680_set_sensor_mode(dev);
 3306              		.loc 1 1633 0
 3307 0028 2046     		mov	r0, r4
 3308 002a FFF7FEFF 		bl	bme680_set_sensor_mode
 3309              	.LVL428:
 3310              	.L193:
1634:D:\mcu\design-mpu\source\ejemplos\BME680\bme680.c ****     }
1635:D:\mcu\design-mpu\source\ejemplos\BME680\bme680.c ****         
1636:D:\mcu\design-mpu\source\ejemplos\BME680\bme680.c ****     return data;
 3311              		.loc 1 1636 0
 3312 002e 3446     		mov	r4, r6
 3313              	.LVL429:
 3314 0030 6D46     		mov	r5, sp
 3315 0032 0FCD     		ldmia	r5!, {r0, r1, r2, r3}
 3316 0034 0FC4     		stmia	r4!, {r0, r1, r2, r3}
 3317 0036 2B68     		ldr	r3, [r5]
 3318 0038 2360     		str	r3, [r4]
1637:D:\mcu\design-mpu\source\ejemplos\BME680\bme680.c **** }
 3319              		.loc 1 1637 0
 3320 003a 3046     		mov	r0, r6
 3321 003c 06B0     		add	sp, sp, #24
 3322              		.cfi_def_cfa_offset 16
 3323              		@ sp needed
ARM GAS  C:\Users\adria\AppData\Local\Temp\ccQ3AXqi.s 			page 95


 3324 003e 70BD     		pop	{r4, r5, r6, pc}
 3325              		.cfi_endproc
 3326              	.LFE95:
 3327              		.size	bme680_readData, .-bme680_readData
 3328              		.section	.text.bme680_Start,"ax",%progbits
 3329              		.align	2
 3330              		.global	bme680_Start
 3331              		.thumb
 3332              		.thumb_func
 3333              		.type	bme680_Start, %function
 3334              	bme680_Start:
 3335              	.LFB96:
1638:D:\mcu\design-mpu\source\ejemplos\BME680\bme680.c **** 
1639:D:\mcu\design-mpu\source\ejemplos\BME680\bme680.c **** int8_t bme680_Start(struct bme680_dev *dev)
1640:D:\mcu\design-mpu\source\ejemplos\BME680\bme680.c **** {
 3336              		.loc 1 1640 0
 3337              		.cfi_startproc
 3338              		@ args = 0, pretend = 0, frame = 0
 3339              		@ frame_needed = 0, uses_anonymous_args = 0
 3340              	.LVL430:
 3341 0000 10B5     		push	{r4, lr}
 3342              		.cfi_def_cfa_offset 8
 3343              		.cfi_offset 4, -8
 3344              		.cfi_offset 14, -4
 3345 0002 0446     		mov	r4, r0
1641:D:\mcu\design-mpu\source\ejemplos\BME680\bme680.c ****     int8_t rslt;
1642:D:\mcu\design-mpu\source\ejemplos\BME680\bme680.c ****     
1643:D:\mcu\design-mpu\source\ejemplos\BME680\bme680.c ****     rslt = bme680_setup(dev);
 3346              		.loc 1 1643 0
 3347 0004 FFF7FEFF 		bl	bme680_setup
 3348              	.LVL431:
1644:D:\mcu\design-mpu\source\ejemplos\BME680\bme680.c ****     rslt = bme680_config(dev);
 3349              		.loc 1 1644 0
 3350 0008 2046     		mov	r0, r4
 3351 000a FFF7FEFF 		bl	bme680_config
 3352              	.LVL432:
1645:D:\mcu\design-mpu\source\ejemplos\BME680\bme680.c ****     
1646:D:\mcu\design-mpu\source\ejemplos\BME680\bme680.c ****     return rslt;
1647:D:\mcu\design-mpu\source\ejemplos\BME680\bme680.c **** }
 3353              		.loc 1 1647 0
 3354 000e 10BD     		pop	{r4, pc}
 3355              		.cfi_endproc
 3356              	.LFE96:
 3357              		.size	bme680_Start, .-bme680_Start
 3358              		.comm	sensor_bme680,88,4
 3359              		.section	.rodata
 3360              		.align	2
 3361              		.set	.LANCHOR0,. + 0
 3362              	.LC1:
 3363 0000 FFFFFF7F 		.word	2147483647
 3364 0004 FFFFFF7F 		.word	2147483647
 3365 0008 FFFFFF7F 		.word	2147483647
 3366 000c FFFFFF7F 		.word	2147483647
 3367 0010 FFFFFF7F 		.word	2147483647
 3368 0014 EA51B87E 		.word	2126008810
 3369 0018 FFFFFF7F 		.word	2147483647
 3370 001c 21DBF97E 		.word	2130303777
ARM GAS  C:\Users\adria\AppData\Local\Temp\ccQ3AXqi.s 			page 96


 3371 0020 FFFFFF7F 		.word	2147483647
 3372 0024 FFFFFF7F 		.word	2147483647
 3373 0028 C776BE7F 		.word	2143188679
 3374 002c F4285C7F 		.word	2136746228
 3375 0030 FFFFFF7F 		.word	2147483647
 3376 0034 EA51B87E 		.word	2126008810
 3377 0038 FFFFFF7F 		.word	2147483647
 3378 003c FFFFFF7F 		.word	2147483647
 3379              	.LC2:
 3380 0040 000024F4 		.word	-198967296
 3381 0044 0000127A 		.word	2048000000
 3382 0048 0000093D 		.word	1024000000
 3383 004c 0080841E 		.word	512000000
 3384 0050 FF583E0F 		.word	255744255
 3385 0054 548C9307 		.word	127110228
 3386 0058 0090D003 		.word	64000000
 3387 005c 1038EC01 		.word	32258064
 3388 0060 9062F400 		.word	16016016
 3389 0064 00127A00 		.word	8000000
 3390 0068 00093D00 		.word	4000000
 3391 006c 80841E00 		.word	2000000
 3392 0070 40420F00 		.word	1000000
 3393 0074 20A10700 		.word	500000
 3394 0078 90D00300 		.word	250000
 3395 007c 48E80100 		.word	125000
 3396              	.LC0:
 3397 0080 00       		.byte	0
 3398 0081 01       		.byte	1
 3399 0082 02       		.byte	2
 3400 0083 04       		.byte	4
 3401 0084 08       		.byte	8
 3402 0085 10       		.byte	16
 3403              		.text
 3404              	.Letext0:
 3405              		.file 2 "c:\\program files (x86)\\cypress\\psoc creator\\4.4\\psoc creator\\import\\gnu\\arm\\5.4.
 3406              		.file 3 "c:\\program files (x86)\\cypress\\psoc creator\\4.4\\psoc creator\\import\\gnu\\arm\\5.4.
 3407              		.file 4 "D:\\mcu\\design-mpu\\source\\ejemplos\\BME680\\bme680_defs.h"
 3408              		.file 5 "D:\\mcu\\design-mpu\\source\\ejemplos\\BME680\\bme680.h"
 3409              		.file 6 "Generated_Source\\PSoC5/core_cm3.h"
 3410              		.file 7 "Generated_Source\\PSoC5/CyLib.h"
 3411              		.file 8 "Generated_Source\\PSoC5/I2C.h"
 3412              		.section	.debug_info,"",%progbits
 3413              	.Ldebug_info0:
 3414 0000 681D0000 		.4byte	0x1d68
 3415 0004 0400     		.2byte	0x4
 3416 0006 00000000 		.4byte	.Ldebug_abbrev0
 3417 000a 04       		.byte	0x4
 3418 000b 01       		.uleb128 0x1
 3419 000c E2020000 		.4byte	.LASF201
 3420 0010 0C       		.byte	0xc
 3421 0011 8A050000 		.4byte	.LASF202
 3422 0015 58010000 		.4byte	.LASF203
 3423 0019 00000000 		.4byte	.Ldebug_ranges0+0
 3424 001d 00000000 		.4byte	0
 3425 0021 00000000 		.4byte	.Ldebug_line0
 3426 0025 02       		.uleb128 0x2
 3427 0026 08       		.byte	0x8
ARM GAS  C:\Users\adria\AppData\Local\Temp\ccQ3AXqi.s 			page 97


 3428 0027 07       		.byte	0x7
 3429 0028 6D020000 		.4byte	.LASF0
 3430 002c 02       		.uleb128 0x2
 3431 002d 04       		.byte	0x4
 3432 002e 07       		.byte	0x7
 3433 002f D1000000 		.4byte	.LASF1
 3434 0033 03       		.uleb128 0x3
 3435 0034 04       		.byte	0x4
 3436 0035 05       		.byte	0x5
 3437 0036 696E7400 		.ascii	"int\000"
 3438 003a 02       		.uleb128 0x2
 3439 003b 01       		.byte	0x1
 3440 003c 06       		.byte	0x6
 3441 003d 3F090000 		.4byte	.LASF2
 3442 0041 04       		.uleb128 0x4
 3443 0042 59060000 		.4byte	.LASF3
 3444 0046 02       		.byte	0x2
 3445 0047 1B       		.byte	0x1b
 3446 0048 3A000000 		.4byte	0x3a
 3447 004c 04       		.uleb128 0x4
 3448 004d E8070000 		.4byte	.LASF4
 3449 0051 02       		.byte	0x2
 3450 0052 1D       		.byte	0x1d
 3451 0053 57000000 		.4byte	0x57
 3452 0057 02       		.uleb128 0x2
 3453 0058 01       		.byte	0x1
 3454 0059 08       		.byte	0x8
 3455 005a 83080000 		.4byte	.LASF5
 3456 005e 04       		.uleb128 0x4
 3457 005f DD050000 		.4byte	.LASF6
 3458 0063 02       		.byte	0x2
 3459 0064 29       		.byte	0x29
 3460 0065 69000000 		.4byte	0x69
 3461 0069 02       		.uleb128 0x2
 3462 006a 02       		.byte	0x2
 3463 006b 05       		.byte	0x5
 3464 006c 01070000 		.4byte	.LASF7
 3465 0070 04       		.uleb128 0x4
 3466 0071 98020000 		.4byte	.LASF8
 3467 0075 02       		.byte	0x2
 3468 0076 2B       		.byte	0x2b
 3469 0077 7B000000 		.4byte	0x7b
 3470 007b 02       		.uleb128 0x2
 3471 007c 02       		.byte	0x2
 3472 007d 07       		.byte	0x7
 3473 007e 7D090000 		.4byte	.LASF9
 3474 0082 04       		.uleb128 0x4
 3475 0083 F2000000 		.4byte	.LASF10
 3476 0087 02       		.byte	0x2
 3477 0088 3F       		.byte	0x3f
 3478 0089 8D000000 		.4byte	0x8d
 3479 008d 02       		.uleb128 0x2
 3480 008e 04       		.byte	0x4
 3481 008f 05       		.byte	0x5
 3482 0090 28070000 		.4byte	.LASF11
 3483 0094 04       		.uleb128 0x4
 3484 0095 A6080000 		.4byte	.LASF12
ARM GAS  C:\Users\adria\AppData\Local\Temp\ccQ3AXqi.s 			page 98


 3485 0099 02       		.byte	0x2
 3486 009a 41       		.byte	0x41
 3487 009b 9F000000 		.4byte	0x9f
 3488 009f 02       		.uleb128 0x2
 3489 00a0 04       		.byte	0x4
 3490 00a1 07       		.byte	0x7
 3491 00a2 18080000 		.4byte	.LASF13
 3492 00a6 04       		.uleb128 0x4
 3493 00a7 8F060000 		.4byte	.LASF14
 3494 00ab 02       		.byte	0x2
 3495 00ac 59       		.byte	0x59
 3496 00ad B1000000 		.4byte	0xb1
 3497 00b1 02       		.uleb128 0x2
 3498 00b2 08       		.byte	0x8
 3499 00b3 05       		.byte	0x5
 3500 00b4 5E050000 		.4byte	.LASF15
 3501 00b8 04       		.uleb128 0x4
 3502 00b9 E5030000 		.4byte	.LASF16
 3503 00bd 02       		.byte	0x2
 3504 00be 5B       		.byte	0x5b
 3505 00bf 25000000 		.4byte	0x25
 3506 00c3 04       		.uleb128 0x4
 3507 00c4 0F020000 		.4byte	.LASF17
 3508 00c8 03       		.byte	0x3
 3509 00c9 14       		.byte	0x14
 3510 00ca 41000000 		.4byte	0x41
 3511 00ce 04       		.uleb128 0x4
 3512 00cf D4040000 		.4byte	.LASF18
 3513 00d3 03       		.byte	0x3
 3514 00d4 18       		.byte	0x18
 3515 00d5 4C000000 		.4byte	0x4c
 3516 00d9 04       		.uleb128 0x4
 3517 00da 4F020000 		.4byte	.LASF19
 3518 00de 03       		.byte	0x3
 3519 00df 20       		.byte	0x20
 3520 00e0 5E000000 		.4byte	0x5e
 3521 00e4 04       		.uleb128 0x4
 3522 00e5 A5060000 		.4byte	.LASF20
 3523 00e9 03       		.byte	0x3
 3524 00ea 24       		.byte	0x24
 3525 00eb 70000000 		.4byte	0x70
 3526 00ef 04       		.uleb128 0x4
 3527 00f0 3E080000 		.4byte	.LASF21
 3528 00f4 03       		.byte	0x3
 3529 00f5 2C       		.byte	0x2c
 3530 00f6 82000000 		.4byte	0x82
 3531 00fa 04       		.uleb128 0x4
 3532 00fb 06020000 		.4byte	.LASF22
 3533 00ff 03       		.byte	0x3
 3534 0100 30       		.byte	0x30
 3535 0101 94000000 		.4byte	0x94
 3536 0105 04       		.uleb128 0x4
 3537 0106 95030000 		.4byte	.LASF23
 3538 010a 03       		.byte	0x3
 3539 010b 38       		.byte	0x38
 3540 010c A6000000 		.4byte	0xa6
 3541 0110 04       		.uleb128 0x4
ARM GAS  C:\Users\adria\AppData\Local\Temp\ccQ3AXqi.s 			page 99


 3542 0111 6B070000 		.4byte	.LASF24
 3543 0115 03       		.byte	0x3
 3544 0116 3C       		.byte	0x3c
 3545 0117 B8000000 		.4byte	0xb8
 3546 011b 02       		.uleb128 0x2
 3547 011c 08       		.byte	0x8
 3548 011d 04       		.byte	0x4
 3549 011e 99060000 		.4byte	.LASF25
 3550 0122 05       		.uleb128 0x5
 3551 0123 2B050000 		.4byte	.LASF26
 3552 0127 04       		.byte	0x4
 3553 0128 6901     		.2byte	0x169
 3554 012a 2E010000 		.4byte	0x12e
 3555 012e 06       		.uleb128 0x6
 3556 012f 04       		.byte	0x4
 3557 0130 34010000 		.4byte	0x134
 3558 0134 07       		.uleb128 0x7
 3559 0135 C3000000 		.4byte	0xc3
 3560 0139 52010000 		.4byte	0x152
 3561 013d 08       		.uleb128 0x8
 3562 013e CE000000 		.4byte	0xce
 3563 0142 08       		.uleb128 0x8
 3564 0143 CE000000 		.4byte	0xce
 3565 0147 08       		.uleb128 0x8
 3566 0148 52010000 		.4byte	0x152
 3567 014c 08       		.uleb128 0x8
 3568 014d E4000000 		.4byte	0xe4
 3569 0151 00       		.byte	0
 3570 0152 06       		.uleb128 0x6
 3571 0153 04       		.byte	0x4
 3572 0154 CE000000 		.4byte	0xce
 3573 0158 05       		.uleb128 0x5
 3574 0159 A9070000 		.4byte	.LASF27
 3575 015d 04       		.byte	0x4
 3576 015e 6F01     		.2byte	0x16f
 3577 0160 64010000 		.4byte	0x164
 3578 0164 06       		.uleb128 0x6
 3579 0165 04       		.byte	0x4
 3580 0166 6A010000 		.4byte	0x16a
 3581 016a 09       		.uleb128 0x9
 3582 016b 75010000 		.4byte	0x175
 3583 016f 08       		.uleb128 0x8
 3584 0170 FA000000 		.4byte	0xfa
 3585 0174 00       		.byte	0
 3586 0175 0A       		.uleb128 0xa
 3587 0176 B4040000 		.4byte	.LASF204
 3588 017a 01       		.byte	0x1
 3589 017b 57000000 		.4byte	0x57
 3590 017f 04       		.byte	0x4
 3591 0180 7501     		.2byte	0x175
 3592 0182 93010000 		.4byte	0x193
 3593 0186 0B       		.uleb128 0xb
 3594 0187 2F010000 		.4byte	.LASF28
 3595 018b 00       		.byte	0
 3596 018c 0B       		.uleb128 0xb
 3597 018d B5010000 		.4byte	.LASF29
 3598 0191 01       		.byte	0x1
ARM GAS  C:\Users\adria\AppData\Local\Temp\ccQ3AXqi.s 			page 100


 3599 0192 00       		.byte	0
 3600 0193 0C       		.uleb128 0xc
 3601 0194 2D090000 		.4byte	.LASF37
 3602 0198 14       		.byte	0x14
 3603 0199 04       		.byte	0x4
 3604 019a 8001     		.2byte	0x180
 3605 019c FC010000 		.4byte	0x1fc
 3606 01a0 0D       		.uleb128 0xd
 3607 01a1 EA040000 		.4byte	.LASF30
 3608 01a5 04       		.byte	0x4
 3609 01a6 8201     		.2byte	0x182
 3610 01a8 CE000000 		.4byte	0xce
 3611 01ac 00       		.byte	0
 3612 01ad 0D       		.uleb128 0xd
 3613 01ae 9F070000 		.4byte	.LASF31
 3614 01b2 04       		.byte	0x4
 3615 01b3 8401     		.2byte	0x184
 3616 01b5 CE000000 		.4byte	0xce
 3617 01b9 01       		.byte	0x1
 3618 01ba 0D       		.uleb128 0xd
 3619 01bb 84020000 		.4byte	.LASF32
 3620 01bf 04       		.byte	0x4
 3621 01c0 8601     		.2byte	0x186
 3622 01c2 CE000000 		.4byte	0xce
 3623 01c6 02       		.byte	0x2
 3624 01c7 0D       		.uleb128 0xd
 3625 01c8 67000000 		.4byte	.LASF33
 3626 01cc 04       		.byte	0x4
 3627 01cd 8A01     		.2byte	0x18a
 3628 01cf D9000000 		.4byte	0xd9
 3629 01d3 04       		.byte	0x4
 3630 01d4 0D       		.uleb128 0xd
 3631 01d5 78000000 		.4byte	.LASF34
 3632 01d9 04       		.byte	0x4
 3633 01da 8C01     		.2byte	0x18c
 3634 01dc FA000000 		.4byte	0xfa
 3635 01e0 08       		.byte	0x8
 3636 01e1 0D       		.uleb128 0xd
 3637 01e2 EA090000 		.4byte	.LASF35
 3638 01e6 04       		.byte	0x4
 3639 01e7 8E01     		.2byte	0x18e
 3640 01e9 FA000000 		.4byte	0xfa
 3641 01ed 0C       		.byte	0xc
 3642 01ee 0D       		.uleb128 0xd
 3643 01ef 8D000000 		.4byte	.LASF36
 3644 01f3 04       		.byte	0x4
 3645 01f4 9001     		.2byte	0x190
 3646 01f6 FA000000 		.4byte	0xfa
 3647 01fa 10       		.byte	0x10
 3648 01fb 00       		.byte	0
 3649 01fc 0C       		.uleb128 0xc
 3650 01fd 30060000 		.4byte	.LASF38
 3651 0201 30       		.byte	0x30
 3652 0202 04       		.byte	0x4
 3653 0203 A201     		.2byte	0x1a2
 3654 0205 69030000 		.4byte	0x369
 3655 0209 0D       		.uleb128 0xd
ARM GAS  C:\Users\adria\AppData\Local\Temp\ccQ3AXqi.s 			page 101


 3656 020a 7C080000 		.4byte	.LASF39
 3657 020e 04       		.byte	0x4
 3658 020f A401     		.2byte	0x1a4
 3659 0211 E4000000 		.4byte	0xe4
 3660 0215 00       		.byte	0
 3661 0216 0D       		.uleb128 0xd
 3662 0217 BA020000 		.4byte	.LASF40
 3663 021b 04       		.byte	0x4
 3664 021c A601     		.2byte	0x1a6
 3665 021e E4000000 		.4byte	0xe4
 3666 0222 02       		.byte	0x2
 3667 0223 0D       		.uleb128 0xd
 3668 0224 91080000 		.4byte	.LASF41
 3669 0228 04       		.byte	0x4
 3670 0229 A801     		.2byte	0x1a8
 3671 022b C3000000 		.4byte	0xc3
 3672 022f 04       		.byte	0x4
 3673 0230 0D       		.uleb128 0xd
 3674 0231 98080000 		.4byte	.LASF42
 3675 0235 04       		.byte	0x4
 3676 0236 AA01     		.2byte	0x1aa
 3677 0238 C3000000 		.4byte	0xc3
 3678 023c 05       		.byte	0x5
 3679 023d 0D       		.uleb128 0xd
 3680 023e 9F080000 		.4byte	.LASF43
 3681 0242 04       		.byte	0x4
 3682 0243 AC01     		.2byte	0x1ac
 3683 0245 C3000000 		.4byte	0xc3
 3684 0249 06       		.byte	0x6
 3685 024a 0D       		.uleb128 0xd
 3686 024b C9020000 		.4byte	.LASF44
 3687 024f 04       		.byte	0x4
 3688 0250 AE01     		.2byte	0x1ae
 3689 0252 CE000000 		.4byte	0xce
 3690 0256 07       		.byte	0x7
 3691 0257 0D       		.uleb128 0xd
 3692 0258 B1080000 		.4byte	.LASF45
 3693 025c 04       		.byte	0x4
 3694 025d B001     		.2byte	0x1b0
 3695 025f C3000000 		.4byte	0xc3
 3696 0263 08       		.byte	0x8
 3697 0264 0D       		.uleb128 0xd
 3698 0265 72050000 		.4byte	.LASF46
 3699 0269 04       		.byte	0x4
 3700 026a B201     		.2byte	0x1b2
 3701 026c C3000000 		.4byte	0xc3
 3702 0270 09       		.byte	0x9
 3703 0271 0D       		.uleb128 0xd
 3704 0272 7A050000 		.4byte	.LASF47
 3705 0276 04       		.byte	0x4
 3706 0277 B401     		.2byte	0x1b4
 3707 0279 D9000000 		.4byte	0xd9
 3708 027d 0A       		.byte	0xa
 3709 027e 0D       		.uleb128 0xd
 3710 027f 82050000 		.4byte	.LASF48
 3711 0283 04       		.byte	0x4
 3712 0284 B601     		.2byte	0x1b6
ARM GAS  C:\Users\adria\AppData\Local\Temp\ccQ3AXqi.s 			page 102


 3713 0286 C3000000 		.4byte	0xc3
 3714 028a 0C       		.byte	0xc
 3715 028b 0D       		.uleb128 0xd
 3716 028c 81060000 		.4byte	.LASF49
 3717 0290 04       		.byte	0x4
 3718 0291 B801     		.2byte	0x1b8
 3719 0293 E4000000 		.4byte	0xe4
 3720 0297 0E       		.byte	0xe
 3721 0298 0D       		.uleb128 0xd
 3722 0299 88060000 		.4byte	.LASF50
 3723 029d 04       		.byte	0x4
 3724 029e BA01     		.2byte	0x1ba
 3725 02a0 D9000000 		.4byte	0xd9
 3726 02a4 10       		.byte	0x10
 3727 02a5 0D       		.uleb128 0xd
 3728 02a6 C9080000 		.4byte	.LASF51
 3729 02aa 04       		.byte	0x4
 3730 02ab BC01     		.2byte	0x1bc
 3731 02ad C3000000 		.4byte	0xc3
 3732 02b1 12       		.byte	0x12
 3733 02b2 0D       		.uleb128 0xd
 3734 02b3 C9030000 		.4byte	.LASF52
 3735 02b7 04       		.byte	0x4
 3736 02b8 BE01     		.2byte	0x1be
 3737 02ba E4000000 		.4byte	0xe4
 3738 02be 14       		.byte	0x14
 3739 02bf 0D       		.uleb128 0xd
 3740 02c0 D0030000 		.4byte	.LASF53
 3741 02c4 04       		.byte	0x4
 3742 02c5 C001     		.2byte	0x1c0
 3743 02c7 D9000000 		.4byte	0xd9
 3744 02cb 16       		.byte	0x16
 3745 02cc 0D       		.uleb128 0xd
 3746 02cd D7030000 		.4byte	.LASF54
 3747 02d1 04       		.byte	0x4
 3748 02d2 C201     		.2byte	0x1c2
 3749 02d4 C3000000 		.4byte	0xc3
 3750 02d8 18       		.byte	0x18
 3751 02d9 0D       		.uleb128 0xd
 3752 02da DE030000 		.4byte	.LASF55
 3753 02de 04       		.byte	0x4
 3754 02df C401     		.2byte	0x1c4
 3755 02e1 D9000000 		.4byte	0xd9
 3756 02e5 1A       		.byte	0x1a
 3757 02e6 0D       		.uleb128 0xd
 3758 02e7 9D030000 		.4byte	.LASF56
 3759 02eb 04       		.byte	0x4
 3760 02ec C601     		.2byte	0x1c6
 3761 02ee D9000000 		.4byte	0xd9
 3762 02f2 1C       		.byte	0x1c
 3763 02f3 0D       		.uleb128 0xd
 3764 02f4 F0030000 		.4byte	.LASF57
 3765 02f8 04       		.byte	0x4
 3766 02f9 C801     		.2byte	0x1c8
 3767 02fb C3000000 		.4byte	0xc3
 3768 02ff 1E       		.byte	0x1e
 3769 0300 0D       		.uleb128 0xd
ARM GAS  C:\Users\adria\AppData\Local\Temp\ccQ3AXqi.s 			page 103


 3770 0301 F7030000 		.4byte	.LASF58
 3771 0305 04       		.byte	0x4
 3772 0306 CA01     		.2byte	0x1ca
 3773 0308 C3000000 		.4byte	0xc3
 3774 030c 1F       		.byte	0x1f
 3775 030d 0D       		.uleb128 0xd
 3776 030e FE030000 		.4byte	.LASF59
 3777 0312 04       		.byte	0x4
 3778 0313 CC01     		.2byte	0x1cc
 3779 0315 D9000000 		.4byte	0xd9
 3780 0319 20       		.byte	0x20
 3781 031a 0D       		.uleb128 0xd
 3782 031b 05040000 		.4byte	.LASF60
 3783 031f 04       		.byte	0x4
 3784 0320 CE01     		.2byte	0x1ce
 3785 0322 D9000000 		.4byte	0xd9
 3786 0326 22       		.byte	0x22
 3787 0327 0D       		.uleb128 0xd
 3788 0328 0F050000 		.4byte	.LASF61
 3789 032c 04       		.byte	0x4
 3790 032d D001     		.2byte	0x1d0
 3791 032f CE000000 		.4byte	0xce
 3792 0333 24       		.byte	0x24
 3793 0334 0D       		.uleb128 0xd
 3794 0335 17050000 		.4byte	.LASF62
 3795 0339 04       		.byte	0x4
 3796 033a D401     		.2byte	0x1d4
 3797 033c EF000000 		.4byte	0xef
 3798 0340 28       		.byte	0x28
 3799 0341 0D       		.uleb128 0xd
 3800 0342 F3090000 		.4byte	.LASF63
 3801 0346 04       		.byte	0x4
 3802 0347 DA01     		.2byte	0x1da
 3803 0349 CE000000 		.4byte	0xce
 3804 034d 2C       		.byte	0x2c
 3805 034e 0D       		.uleb128 0xd
 3806 034f 62060000 		.4byte	.LASF64
 3807 0353 04       		.byte	0x4
 3808 0354 DC01     		.2byte	0x1dc
 3809 0356 C3000000 		.4byte	0xc3
 3810 035a 2D       		.byte	0x2d
 3811 035b 0D       		.uleb128 0xd
 3812 035c 33020000 		.4byte	.LASF65
 3813 0360 04       		.byte	0x4
 3814 0361 DE01     		.2byte	0x1de
 3815 0363 C3000000 		.4byte	0xc3
 3816 0367 2E       		.byte	0x2e
 3817 0368 00       		.byte	0
 3818 0369 0C       		.uleb128 0xc
 3819 036a 8F070000 		.4byte	.LASF66
 3820 036e 04       		.byte	0x4
 3821 036f 04       		.byte	0x4
 3822 0370 E501     		.2byte	0x1e5
 3823 0372 AB030000 		.4byte	0x3ab
 3824 0376 0D       		.uleb128 0xd
 3825 0377 C0040000 		.4byte	.LASF67
 3826 037b 04       		.byte	0x4
ARM GAS  C:\Users\adria\AppData\Local\Temp\ccQ3AXqi.s 			page 104


 3827 037c E701     		.2byte	0x1e7
 3828 037e CE000000 		.4byte	0xce
 3829 0382 00       		.byte	0
 3830 0383 0D       		.uleb128 0xd
 3831 0384 27010000 		.4byte	.LASF68
 3832 0388 04       		.byte	0x4
 3833 0389 E901     		.2byte	0x1e9
 3834 038b CE000000 		.4byte	0xce
 3835 038f 01       		.byte	0x1
 3836 0390 0D       		.uleb128 0xd
 3837 0391 07050000 		.4byte	.LASF69
 3838 0395 04       		.byte	0x4
 3839 0396 EB01     		.2byte	0x1eb
 3840 0398 CE000000 		.4byte	0xce
 3841 039c 02       		.byte	0x2
 3842 039d 0D       		.uleb128 0xd
 3843 039e 64070000 		.4byte	.LASF70
 3844 03a2 04       		.byte	0x4
 3845 03a3 ED01     		.2byte	0x1ed
 3846 03a5 CE000000 		.4byte	0xce
 3847 03a9 03       		.byte	0x3
 3848 03aa 00       		.byte	0
 3849 03ab 0C       		.uleb128 0xc
 3850 03ac 7D030000 		.4byte	.LASF71
 3851 03b0 08       		.byte	0x8
 3852 03b1 04       		.byte	0x4
 3853 03b2 F401     		.2byte	0x1f4
 3854 03b4 FA030000 		.4byte	0x3fa
 3855 03b8 0D       		.uleb128 0xd
 3856 03b9 3D050000 		.4byte	.LASF72
 3857 03bd 04       		.byte	0x4
 3858 03be F601     		.2byte	0x1f6
 3859 03c0 CE000000 		.4byte	0xce
 3860 03c4 00       		.byte	0
 3861 03c5 0D       		.uleb128 0xd
 3862 03c6 60040000 		.4byte	.LASF73
 3863 03ca 04       		.byte	0x4
 3864 03cb F801     		.2byte	0x1f8
 3865 03cd CE000000 		.4byte	0xce
 3866 03d1 01       		.byte	0x1
 3867 03d2 0D       		.uleb128 0xd
 3868 03d3 E0060000 		.4byte	.LASF74
 3869 03d7 04       		.byte	0x4
 3870 03d8 FA01     		.2byte	0x1fa
 3871 03da CE000000 		.4byte	0xce
 3872 03de 02       		.byte	0x2
 3873 03df 0D       		.uleb128 0xd
 3874 03e0 AA090000 		.4byte	.LASF75
 3875 03e4 04       		.byte	0x4
 3876 03e5 FC01     		.2byte	0x1fc
 3877 03e7 E4000000 		.4byte	0xe4
 3878 03eb 04       		.byte	0x4
 3879 03ec 0D       		.uleb128 0xd
 3880 03ed 39040000 		.4byte	.LASF76
 3881 03f1 04       		.byte	0x4
 3882 03f2 FE01     		.2byte	0x1fe
 3883 03f4 E4000000 		.4byte	0xe4
ARM GAS  C:\Users\adria\AppData\Local\Temp\ccQ3AXqi.s 			page 105


 3884 03f8 06       		.byte	0x6
 3885 03f9 00       		.byte	0
 3886 03fa 0C       		.uleb128 0xc
 3887 03fb 5C000000 		.4byte	.LASF77
 3888 03ff 58       		.byte	0x58
 3889 0400 04       		.byte	0x4
 3890 0401 0402     		.2byte	0x204
 3891 0403 CB040000 		.4byte	0x4cb
 3892 0407 0D       		.uleb128 0xd
 3893 0408 8D030000 		.4byte	.LASF78
 3894 040c 04       		.byte	0x4
 3895 040d 0602     		.2byte	0x206
 3896 040f CE000000 		.4byte	0xce
 3897 0413 00       		.byte	0
 3898 0414 0D       		.uleb128 0xd
 3899 0415 E2080000 		.4byte	.LASF79
 3900 0419 04       		.byte	0x4
 3901 041a 0802     		.2byte	0x208
 3902 041c CE000000 		.4byte	0xce
 3903 0420 01       		.byte	0x1
 3904 0421 0D       		.uleb128 0xd
 3905 0422 51050000 		.4byte	.LASF80
 3906 0426 04       		.byte	0x4
 3907 0427 0A02     		.2byte	0x20a
 3908 0429 75010000 		.4byte	0x175
 3909 042d 02       		.byte	0x2
 3910 042e 0D       		.uleb128 0xd
 3911 042f CF010000 		.4byte	.LASF81
 3912 0433 04       		.byte	0x4
 3913 0434 0C02     		.2byte	0x20c
 3914 0436 CE000000 		.4byte	0xce
 3915 043a 03       		.byte	0x3
 3916 043b 0D       		.uleb128 0xd
 3917 043c F2080000 		.4byte	.LASF82
 3918 0440 04       		.byte	0x4
 3919 0441 0E02     		.2byte	0x20e
 3920 0443 C3000000 		.4byte	0xc3
 3921 0447 04       		.byte	0x4
 3922 0448 0D       		.uleb128 0xd
 3923 0449 57020000 		.4byte	.LASF83
 3924 044d 04       		.byte	0x4
 3925 044e 1002     		.2byte	0x210
 3926 0450 FC010000 		.4byte	0x1fc
 3927 0454 08       		.byte	0x8
 3928 0455 0D       		.uleb128 0xd
 3929 0456 00000000 		.4byte	.LASF84
 3930 045a 04       		.byte	0x4
 3931 045b 1202     		.2byte	0x212
 3932 045d 69030000 		.4byte	0x369
 3933 0461 38       		.byte	0x38
 3934 0462 0D       		.uleb128 0xd
 3935 0463 27060000 		.4byte	.LASF85
 3936 0467 04       		.byte	0x4
 3937 0468 1402     		.2byte	0x214
 3938 046a AB030000 		.4byte	0x3ab
 3939 046e 3C       		.byte	0x3c
 3940 046f 0D       		.uleb128 0xd
ARM GAS  C:\Users\adria\AppData\Local\Temp\ccQ3AXqi.s 			page 106


 3941 0470 B4060000 		.4byte	.LASF86
 3942 0474 04       		.byte	0x4
 3943 0475 1602     		.2byte	0x216
 3944 0477 CE000000 		.4byte	0xce
 3945 047b 44       		.byte	0x44
 3946 047c 0D       		.uleb128 0xd
 3947 047d 6B040000 		.4byte	.LASF87
 3948 0481 04       		.byte	0x4
 3949 0482 1802     		.2byte	0x218
 3950 0484 CE000000 		.4byte	0xce
 3951 0488 45       		.byte	0x45
 3952 0489 0D       		.uleb128 0xd
 3953 048a D7060000 		.4byte	.LASF88
 3954 048e 04       		.byte	0x4
 3955 048f 1A02     		.2byte	0x21a
 3956 0491 CE000000 		.4byte	0xce
 3957 0495 46       		.byte	0x46
 3958 0496 0D       		.uleb128 0xd
 3959 0497 F2070000 		.4byte	.LASF89
 3960 049b 04       		.byte	0x4
 3961 049c 1C02     		.2byte	0x21c
 3962 049e 22010000 		.4byte	0x122
 3963 04a2 48       		.byte	0x48
 3964 04a3 0D       		.uleb128 0xd
 3965 04a4 6C050000 		.4byte	.LASF90
 3966 04a8 04       		.byte	0x4
 3967 04a9 1E02     		.2byte	0x21e
 3968 04ab 22010000 		.4byte	0x122
 3969 04af 4C       		.byte	0x4c
 3970 04b0 0D       		.uleb128 0xd
 3971 04b1 0C040000 		.4byte	.LASF91
 3972 04b5 04       		.byte	0x4
 3973 04b6 2002     		.2byte	0x220
 3974 04b8 58010000 		.4byte	0x158
 3975 04bc 50       		.byte	0x50
 3976 04bd 0D       		.uleb128 0xd
 3977 04be 5D080000 		.4byte	.LASF92
 3978 04c2 04       		.byte	0x4
 3979 04c3 2202     		.2byte	0x222
 3980 04c5 C3000000 		.4byte	0xc3
 3981 04c9 54       		.byte	0x54
 3982 04ca 00       		.byte	0
 3983 04cb 04       		.uleb128 0x4
 3984 04cc 76040000 		.4byte	.LASF93
 3985 04d0 05       		.byte	0x5
 3986 04d1 3C       		.byte	0x3c
 3987 04d2 93010000 		.4byte	0x193
 3988 04d6 02       		.uleb128 0x2
 3989 04d7 04       		.byte	0x4
 3990 04d8 04       		.byte	0x4
 3991 04d9 2D020000 		.4byte	.LASF94
 3992 04dd 02       		.uleb128 0x2
 3993 04de 08       		.byte	0x8
 3994 04df 04       		.byte	0x4
 3995 04e0 C3090000 		.4byte	.LASF95
 3996 04e4 02       		.uleb128 0x2
 3997 04e5 01       		.byte	0x1
ARM GAS  C:\Users\adria\AppData\Local\Temp\ccQ3AXqi.s 			page 107


 3998 04e6 08       		.byte	0x8
 3999 04e7 83040000 		.4byte	.LASF96
 4000 04eb 02       		.uleb128 0x2
 4001 04ec 04       		.byte	0x4
 4002 04ed 07       		.byte	0x7
 4003 04ee 0F080000 		.4byte	.LASF97
 4004 04f2 0E       		.uleb128 0xe
 4005 04f3 B8080000 		.4byte	.LASF102
 4006 04f7 01       		.byte	0x1
 4007 04f8 6803     		.2byte	0x368
 4008 04fa D9000000 		.4byte	0xd9
 4009 04fe 00000000 		.4byte	.LFB77
 4010 0502 70000000 		.4byte	.LFE77-.LFB77
 4011 0506 01       		.uleb128 0x1
 4012 0507 9C       		.byte	0x9c
 4013 0508 67050000 		.4byte	0x567
 4014 050c 0F       		.uleb128 0xf
 4015 050d F7070000 		.4byte	.LASF98
 4016 0511 01       		.byte	0x1
 4017 0512 6803     		.2byte	0x368
 4018 0514 FA000000 		.4byte	0xfa
 4019 0518 00000000 		.4byte	.LLST0
 4020 051c 10       		.uleb128 0x10
 4021 051d 64657600 		.ascii	"dev\000"
 4022 0521 01       		.byte	0x1
 4023 0522 6803     		.2byte	0x368
 4024 0524 67050000 		.4byte	0x567
 4025 0528 01       		.uleb128 0x1
 4026 0529 51       		.byte	0x51
 4027 052a 11       		.uleb128 0x11
 4028 052b F0050000 		.4byte	.LASF99
 4029 052f 01       		.byte	0x1
 4030 0530 6A03     		.2byte	0x36a
 4031 0532 05010000 		.4byte	0x105
 4032 0536 21000000 		.4byte	.LLST1
 4033 053a 12       		.uleb128 0x12
 4034 053b F5050000 		.4byte	.LASF105
 4035 053f 01       		.byte	0x1
 4036 0540 6B03     		.2byte	0x36b
 4037 0542 05010000 		.4byte	0x105
 4038 0546 11       		.uleb128 0x11
 4039 0547 FA050000 		.4byte	.LASF100
 4040 054b 01       		.byte	0x1
 4041 054c 6C03     		.2byte	0x36c
 4042 054e 05010000 		.4byte	0x105
 4043 0552 39000000 		.4byte	.LLST2
 4044 0556 11       		.uleb128 0x11
 4045 0557 CA090000 		.4byte	.LASF101
 4046 055b 01       		.byte	0x1
 4047 055c 6D03     		.2byte	0x36d
 4048 055e D9000000 		.4byte	0xd9
 4049 0562 51000000 		.4byte	.LLST3
 4050 0566 00       		.byte	0
 4051 0567 06       		.uleb128 0x6
 4052 0568 04       		.byte	0x4
 4053 0569 FA030000 		.4byte	0x3fa
 4054 056d 0E       		.uleb128 0xe
ARM GAS  C:\Users\adria\AppData\Local\Temp\ccQ3AXqi.s 			page 108


 4055 056e B5090000 		.4byte	.LASF103
 4056 0572 01       		.byte	0x1
 4057 0573 7C03     		.2byte	0x37c
 4058 0575 FA000000 		.4byte	0xfa
 4059 0579 00000000 		.4byte	.LFB78
 4060 057d C4000000 		.4byte	.LFE78-.LFB78
 4061 0581 01       		.uleb128 0x1
 4062 0582 9C       		.byte	0x9c
 4063 0583 E6050000 		.4byte	0x5e6
 4064 0587 0F       		.uleb128 0xf
 4065 0588 CE060000 		.4byte	.LASF104
 4066 058c 01       		.byte	0x1
 4067 058d 7C03     		.2byte	0x37c
 4068 058f FA000000 		.4byte	0xfa
 4069 0593 85000000 		.4byte	.LLST4
 4070 0597 10       		.uleb128 0x10
 4071 0598 64657600 		.ascii	"dev\000"
 4072 059c 01       		.byte	0x1
 4073 059d 7C03     		.2byte	0x37c
 4074 059f E6050000 		.4byte	0x5e6
 4075 05a3 01       		.uleb128 0x1
 4076 05a4 51       		.byte	0x51
 4077 05a5 11       		.uleb128 0x11
 4078 05a6 F0050000 		.4byte	.LASF99
 4079 05aa 01       		.byte	0x1
 4080 05ab 7E03     		.2byte	0x37e
 4081 05ad EF000000 		.4byte	0xef
 4082 05b1 A6000000 		.4byte	.LLST5
 4083 05b5 11       		.uleb128 0x11
 4084 05b6 F5050000 		.4byte	.LASF105
 4085 05ba 01       		.byte	0x1
 4086 05bb 7F03     		.2byte	0x37f
 4087 05bd EF000000 		.4byte	0xef
 4088 05c1 B5010000 		.4byte	.LLST6
 4089 05c5 11       		.uleb128 0x11
 4090 05c6 FA050000 		.4byte	.LASF100
 4091 05ca 01       		.byte	0x1
 4092 05cb 8003     		.2byte	0x380
 4093 05cd EF000000 		.4byte	0xef
 4094 05d1 4D020000 		.4byte	.LLST7
 4095 05d5 11       		.uleb128 0x11
 4096 05d6 4B090000 		.4byte	.LASF106
 4097 05da 01       		.byte	0x1
 4098 05db 8103     		.2byte	0x381
 4099 05dd EF000000 		.4byte	0xef
 4100 05e1 A5020000 		.4byte	.LLST8
 4101 05e5 00       		.byte	0
 4102 05e6 06       		.uleb128 0x6
 4103 05e7 04       		.byte	0x4
 4104 05e8 EC050000 		.4byte	0x5ec
 4105 05ec 13       		.uleb128 0x13
 4106 05ed FA030000 		.4byte	0x3fa
 4107 05f1 0E       		.uleb128 0xe
 4108 05f2 2B040000 		.4byte	.LASF107
 4109 05f6 01       		.byte	0x1
 4110 05f7 A503     		.2byte	0x3a5
 4111 05f9 FA000000 		.4byte	0xfa
ARM GAS  C:\Users\adria\AppData\Local\Temp\ccQ3AXqi.s 			page 109


 4112 05fd 00000000 		.4byte	.LFB79
 4113 0601 C4000000 		.4byte	.LFE79-.LFB79
 4114 0605 01       		.uleb128 0x1
 4115 0606 9C       		.byte	0x9c
 4116 0607 AA060000 		.4byte	0x6aa
 4117 060b 0F       		.uleb128 0xf
 4118 060c C1020000 		.4byte	.LASF108
 4119 0610 01       		.byte	0x1
 4120 0611 A503     		.2byte	0x3a5
 4121 0613 E4000000 		.4byte	0xe4
 4122 0617 06030000 		.4byte	.LLST9
 4123 061b 10       		.uleb128 0x10
 4124 061c 64657600 		.ascii	"dev\000"
 4125 0620 01       		.byte	0x1
 4126 0621 A503     		.2byte	0x3a5
 4127 0623 E6050000 		.4byte	0x5e6
 4128 0627 01       		.uleb128 0x1
 4129 0628 51       		.byte	0x51
 4130 0629 11       		.uleb128 0x11
 4131 062a F0050000 		.4byte	.LASF99
 4132 062e 01       		.byte	0x1
 4133 062f A703     		.2byte	0x3a7
 4134 0631 EF000000 		.4byte	0xef
 4135 0635 27030000 		.4byte	.LLST10
 4136 0639 11       		.uleb128 0x11
 4137 063a F5050000 		.4byte	.LASF105
 4138 063e 01       		.byte	0x1
 4139 063f A803     		.2byte	0x3a8
 4140 0641 EF000000 		.4byte	0xef
 4141 0645 3A030000 		.4byte	.LLST11
 4142 0649 11       		.uleb128 0x11
 4143 064a FA050000 		.4byte	.LASF100
 4144 064e 01       		.byte	0x1
 4145 064f A903     		.2byte	0x3a9
 4146 0651 EF000000 		.4byte	0xef
 4147 0655 11050000 		.4byte	.LLST12
 4148 0659 11       		.uleb128 0x11
 4149 065a FF050000 		.4byte	.LASF109
 4150 065e 01       		.byte	0x1
 4151 065f AA03     		.2byte	0x3aa
 4152 0661 EF000000 		.4byte	0xef
 4153 0665 24050000 		.4byte	.LLST13
 4154 0669 11       		.uleb128 0x11
 4155 066a 04060000 		.4byte	.LASF110
 4156 066e 01       		.byte	0x1
 4157 066f AB03     		.2byte	0x3ab
 4158 0671 EF000000 		.4byte	0xef
 4159 0675 F8050000 		.4byte	.LLST14
 4160 0679 11       		.uleb128 0x11
 4161 067a 09060000 		.4byte	.LASF111
 4162 067e 01       		.byte	0x1
 4163 067f AC03     		.2byte	0x3ac
 4164 0681 EF000000 		.4byte	0xef
 4165 0685 0B060000 		.4byte	.LLST15
 4166 0689 11       		.uleb128 0x11
 4167 068a 21020000 		.4byte	.LASF112
 4168 068e 01       		.byte	0x1
ARM GAS  C:\Users\adria\AppData\Local\Temp\ccQ3AXqi.s 			page 110


 4169 068f AD03     		.2byte	0x3ad
 4170 0691 EF000000 		.4byte	0xef
 4171 0695 22060000 		.4byte	.LLST16
 4172 0699 11       		.uleb128 0x11
 4173 069a 020A0000 		.4byte	.LASF113
 4174 069e 01       		.byte	0x1
 4175 069f AE03     		.2byte	0x3ae
 4176 06a1 EF000000 		.4byte	0xef
 4177 06a5 4A060000 		.4byte	.LLST17
 4178 06a9 00       		.byte	0
 4179 06aa 14       		.uleb128 0x14
 4180 06ab DE000000 		.4byte	.LASF114
 4181 06af 01       		.byte	0x1
 4182 06b0 C903     		.2byte	0x3c9
 4183 06b2 FA000000 		.4byte	0xfa
 4184 06b6 00000000 		.4byte	.LFB80
 4185 06ba AC000000 		.4byte	.LFE80-.LFB80
 4186 06be 01       		.uleb128 0x1
 4187 06bf 9C       		.byte	0x9c
 4188 06c0 53070000 		.4byte	0x753
 4189 06c4 0F       		.uleb128 0xf
 4190 06c5 81000000 		.4byte	.LASF115
 4191 06c9 01       		.byte	0x1
 4192 06ca C903     		.2byte	0x3c9
 4193 06cc E4000000 		.4byte	0xe4
 4194 06d0 68060000 		.4byte	.LLST18
 4195 06d4 0F       		.uleb128 0xf
 4196 06d5 C5010000 		.4byte	.LASF116
 4197 06d9 01       		.byte	0x1
 4198 06da C903     		.2byte	0x3c9
 4199 06dc CE000000 		.4byte	0xce
 4200 06e0 89060000 		.4byte	.LLST19
 4201 06e4 15       		.uleb128 0x15
 4202 06e5 64657600 		.ascii	"dev\000"
 4203 06e9 01       		.byte	0x1
 4204 06ea C903     		.2byte	0x3c9
 4205 06ec E6050000 		.4byte	0x5e6
 4206 06f0 AA060000 		.4byte	.LLST20
 4207 06f4 11       		.uleb128 0x11
 4208 06f5 F0050000 		.4byte	.LASF99
 4209 06f9 01       		.byte	0x1
 4210 06fa CB03     		.2byte	0x3cb
 4211 06fc 05010000 		.4byte	0x105
 4212 0700 D6060000 		.4byte	.LLST21
 4213 0704 11       		.uleb128 0x11
 4214 0705 F5050000 		.4byte	.LASF105
 4215 0709 01       		.byte	0x1
 4216 070a CC03     		.2byte	0x3cc
 4217 070c 10010000 		.4byte	0x110
 4218 0710 EE060000 		.4byte	.LLST22
 4219 0714 11       		.uleb128 0x11
 4220 0715 FA050000 		.4byte	.LASF100
 4221 0719 01       		.byte	0x1
 4222 071a CD03     		.2byte	0x3cd
 4223 071c 05010000 		.4byte	0x105
 4224 0720 06070000 		.4byte	.LLST23
 4225 0724 16       		.uleb128 0x16
ARM GAS  C:\Users\adria\AppData\Local\Temp\ccQ3AXqi.s 			page 111


 4226 0725 57070000 		.4byte	.LASF117
 4227 0729 01       		.byte	0x1
 4228 072a CE03     		.2byte	0x3ce
 4229 072c FA000000 		.4byte	0xfa
 4230 0730 01       		.uleb128 0x1
 4231 0731 50       		.byte	0x50
 4232 0732 16       		.uleb128 0x16
 4233 0733 90090000 		.4byte	.LASF118
 4234 0737 01       		.byte	0x1
 4235 0738 D003     		.2byte	0x3d0
 4236 073a 53070000 		.4byte	0x753
 4237 073e 03       		.uleb128 0x3
 4238 073f 91       		.byte	0x91
 4239 0740 A87F     		.sleb128 -88
 4240 0742 16       		.uleb128 0x16
 4241 0743 9D090000 		.4byte	.LASF119
 4242 0747 01       		.byte	0x1
 4243 0748 D503     		.2byte	0x3d5
 4244 074a 53070000 		.4byte	0x753
 4245 074e 03       		.uleb128 0x3
 4246 074f 91       		.byte	0x91
 4247 0750 E87E     		.sleb128 -152
 4248 0752 00       		.byte	0
 4249 0753 17       		.uleb128 0x17
 4250 0754 FA000000 		.4byte	0xfa
 4251 0758 63070000 		.4byte	0x763
 4252 075c 18       		.uleb128 0x18
 4253 075d EB040000 		.4byte	0x4eb
 4254 0761 0F       		.byte	0xf
 4255 0762 00       		.byte	0
 4256 0763 0E       		.uleb128 0xe
 4257 0764 CA070000 		.4byte	.LASF120
 4258 0768 01       		.byte	0x1
 4259 0769 E603     		.2byte	0x3e6
 4260 076b CE000000 		.4byte	0xce
 4261 076f 00000000 		.4byte	.LFB81
 4262 0773 B0000000 		.4byte	.LFE81-.LFB81
 4263 0777 01       		.uleb128 0x1
 4264 0778 9C       		.byte	0x9c
 4265 0779 0C080000 		.4byte	0x80c
 4266 077d 0F       		.uleb128 0xf
 4267 077e 73000000 		.4byte	.LASF121
 4268 0782 01       		.byte	0x1
 4269 0783 E603     		.2byte	0x3e6
 4270 0785 E4000000 		.4byte	0xe4
 4271 0789 1E070000 		.4byte	.LLST24
 4272 078d 15       		.uleb128 0x15
 4273 078e 64657600 		.ascii	"dev\000"
 4274 0792 01       		.byte	0x1
 4275 0793 E603     		.2byte	0x3e6
 4276 0795 E6050000 		.4byte	0x5e6
 4277 0799 3C070000 		.4byte	.LLST25
 4278 079d 16       		.uleb128 0x16
 4279 079e 0A090000 		.4byte	.LASF122
 4280 07a2 01       		.byte	0x1
 4281 07a3 E803     		.2byte	0x3e8
 4282 07a5 CE000000 		.4byte	0xce
ARM GAS  C:\Users\adria\AppData\Local\Temp\ccQ3AXqi.s 			page 112


 4283 07a9 01       		.uleb128 0x1
 4284 07aa 50       		.byte	0x50
 4285 07ab 11       		.uleb128 0x11
 4286 07ac F0050000 		.4byte	.LASF99
 4287 07b0 01       		.byte	0x1
 4288 07b1 E903     		.2byte	0x3e9
 4289 07b3 EF000000 		.4byte	0xef
 4290 07b7 5D070000 		.4byte	.LLST26
 4291 07bb 11       		.uleb128 0x11
 4292 07bc F5050000 		.4byte	.LASF105
 4293 07c0 01       		.byte	0x1
 4294 07c1 EA03     		.2byte	0x3ea
 4295 07c3 EF000000 		.4byte	0xef
 4296 07c7 C3070000 		.4byte	.LLST27
 4297 07cb 11       		.uleb128 0x11
 4298 07cc FA050000 		.4byte	.LASF100
 4299 07d0 01       		.byte	0x1
 4300 07d1 EB03     		.2byte	0x3eb
 4301 07d3 EF000000 		.4byte	0xef
 4302 07d7 E6070000 		.4byte	.LLST28
 4303 07db 11       		.uleb128 0x11
 4304 07dc FF050000 		.4byte	.LASF109
 4305 07e0 01       		.byte	0x1
 4306 07e1 EC03     		.2byte	0x3ec
 4307 07e3 EF000000 		.4byte	0xef
 4308 07e7 F9070000 		.4byte	.LLST29
 4309 07eb 11       		.uleb128 0x11
 4310 07ec 04060000 		.4byte	.LASF110
 4311 07f0 01       		.byte	0x1
 4312 07f1 ED03     		.2byte	0x3ed
 4313 07f3 EF000000 		.4byte	0xef
 4314 07f7 26080000 		.4byte	.LLST30
 4315 07fb 11       		.uleb128 0x11
 4316 07fc 80070000 		.4byte	.LASF123
 4317 0800 01       		.byte	0x1
 4318 0801 EE03     		.2byte	0x3ee
 4319 0803 EF000000 		.4byte	0xef
 4320 0807 58080000 		.4byte	.LLST31
 4321 080b 00       		.byte	0
 4322 080c 0E       		.uleb128 0xe
 4323 080d 5D020000 		.4byte	.LASF124
 4324 0811 01       		.byte	0x1
 4325 0812 A004     		.2byte	0x4a0
 4326 0814 CE000000 		.4byte	0xce
 4327 0818 00000000 		.4byte	.LFB82
 4328 081c 24000000 		.4byte	.LFE82-.LFB82
 4329 0820 01       		.uleb128 0x1
 4330 0821 9C       		.byte	0x9c
 4331 0822 57080000 		.4byte	0x857
 4332 0826 15       		.uleb128 0x15
 4333 0827 64757200 		.ascii	"dur\000"
 4334 082b 01       		.byte	0x1
 4335 082c A004     		.2byte	0x4a0
 4336 082e E4000000 		.4byte	0xe4
 4337 0832 AE080000 		.4byte	.LLST32
 4338 0836 11       		.uleb128 0x11
 4339 0837 D4090000 		.4byte	.LASF125
ARM GAS  C:\Users\adria\AppData\Local\Temp\ccQ3AXqi.s 			page 113


 4340 083b 01       		.byte	0x1
 4341 083c A204     		.2byte	0x4a2
 4342 083e CE000000 		.4byte	0xce
 4343 0842 E5080000 		.4byte	.LLST33
 4344 0846 11       		.uleb128 0x11
 4345 0847 A4030000 		.4byte	.LASF126
 4346 084b 01       		.byte	0x1
 4347 084c A304     		.2byte	0x4a3
 4348 084e CE000000 		.4byte	0xce
 4349 0852 1B090000 		.4byte	.LLST34
 4350 0856 00       		.byte	0
 4351 0857 0E       		.uleb128 0xe
 4352 0858 CE050000 		.4byte	.LASF127
 4353 085c 01       		.byte	0x1
 4354 085d 2A05     		.2byte	0x52a
 4355 085f C3000000 		.4byte	0xc3
 4356 0863 00000000 		.4byte	.LFB86
 4357 0867 3E000000 		.4byte	.LFE86-.LFB86
 4358 086b 01       		.uleb128 0x1
 4359 086c 9C       		.byte	0x9c
 4360 086d C0080000 		.4byte	0x8c0
 4361 0871 0F       		.uleb128 0xf
 4362 0872 DC020000 		.4byte	.LASF128
 4363 0876 01       		.byte	0x1
 4364 0877 2A05     		.2byte	0x52a
 4365 0879 52010000 		.4byte	0x152
 4366 087d 39090000 		.4byte	.LLST35
 4367 0881 15       		.uleb128 0x15
 4368 0882 6D696E00 		.ascii	"min\000"
 4369 0886 01       		.byte	0x1
 4370 0887 2A05     		.2byte	0x52a
 4371 0889 CE000000 		.4byte	0xce
 4372 088d 89090000 		.4byte	.LLST36
 4373 0891 15       		.uleb128 0x15
 4374 0892 6D617800 		.ascii	"max\000"
 4375 0896 01       		.byte	0x1
 4376 0897 2A05     		.2byte	0x52a
 4377 0899 CE000000 		.4byte	0xce
 4378 089d CF090000 		.4byte	.LLST37
 4379 08a1 10       		.uleb128 0x10
 4380 08a2 64657600 		.ascii	"dev\000"
 4381 08a6 01       		.byte	0x1
 4382 08a7 2A05     		.2byte	0x52a
 4383 08a9 67050000 		.4byte	0x567
 4384 08ad 01       		.uleb128 0x1
 4385 08ae 53       		.byte	0x53
 4386 08af 11       		.uleb128 0x11
 4387 08b0 31070000 		.4byte	.LASF129
 4388 08b4 01       		.byte	0x1
 4389 08b5 2C05     		.2byte	0x52c
 4390 08b7 C3000000 		.4byte	0xc3
 4391 08bb 150A0000 		.4byte	.LLST38
 4392 08bf 00       		.byte	0
 4393 08c0 0E       		.uleb128 0xe
 4394 08c1 F8040000 		.4byte	.LASF130
 4395 08c5 01       		.byte	0x1
 4396 08c6 4605     		.2byte	0x546
ARM GAS  C:\Users\adria\AppData\Local\Temp\ccQ3AXqi.s 			page 114


 4397 08c8 C3000000 		.4byte	0xc3
 4398 08cc 00000000 		.4byte	.LFB87
 4399 08d0 2A000000 		.4byte	.LFE87-.LFB87
 4400 08d4 01       		.uleb128 0x1
 4401 08d5 9C       		.byte	0x9c
 4402 08d6 F9080000 		.4byte	0x8f9
 4403 08da 15       		.uleb128 0x15
 4404 08db 64657600 		.ascii	"dev\000"
 4405 08df 01       		.byte	0x1
 4406 08e0 4605     		.2byte	0x546
 4407 08e2 E6050000 		.4byte	0x5e6
 4408 08e6 4B0A0000 		.4byte	.LLST39
 4409 08ea 16       		.uleb128 0x16
 4410 08eb 31070000 		.4byte	.LASF129
 4411 08ef 01       		.byte	0x1
 4412 08f0 4805     		.2byte	0x548
 4413 08f2 C3000000 		.4byte	0xc3
 4414 08f6 01       		.uleb128 0x1
 4415 08f7 50       		.byte	0x50
 4416 08f8 00       		.byte	0
 4417 08f9 0E       		.uleb128 0xe
 4418 08fa 1E050000 		.4byte	.LASF131
 4419 08fe 01       		.byte	0x1
 4420 08ff ED04     		.2byte	0x4ed
 4421 0901 C3000000 		.4byte	0xc3
 4422 0905 00000000 		.4byte	.LFB84
 4423 0909 70000000 		.4byte	.LFE84-.LFB84
 4424 090d 01       		.uleb128 0x1
 4425 090e 9C       		.byte	0x9c
 4426 090f AF090000 		.4byte	0x9af
 4427 0913 0F       		.uleb128 0xf
 4428 0914 1F070000 		.4byte	.LASF132
 4429 0918 01       		.byte	0x1
 4430 0919 ED04     		.2byte	0x4ed
 4431 091b CE000000 		.4byte	0xce
 4432 091f D00A0000 		.4byte	.LLST40
 4433 0923 15       		.uleb128 0x15
 4434 0924 64657600 		.ascii	"dev\000"
 4435 0928 01       		.byte	0x1
 4436 0929 ED04     		.2byte	0x4ed
 4437 092b 67050000 		.4byte	0x567
 4438 092f F10A0000 		.4byte	.LLST41
 4439 0933 11       		.uleb128 0x11
 4440 0934 31070000 		.4byte	.LASF129
 4441 0938 01       		.byte	0x1
 4442 0939 EF04     		.2byte	0x4ef
 4443 093b C3000000 		.4byte	0xc3
 4444 093f 0F0B0000 		.4byte	.LLST42
 4445 0943 19       		.uleb128 0x19
 4446 0944 72656700 		.ascii	"reg\000"
 4447 0948 01       		.byte	0x1
 4448 0949 F004     		.2byte	0x4f0
 4449 094b CE000000 		.4byte	0xce
 4450 094f 02       		.uleb128 0x2
 4451 0950 91       		.byte	0x91
 4452 0951 6F       		.sleb128 -17
 4453 0952 11       		.uleb128 0x11
ARM GAS  C:\Users\adria\AppData\Local\Temp\ccQ3AXqi.s 			page 115


 4454 0953 CF010000 		.4byte	.LASF81
 4455 0957 01       		.byte	0x1
 4456 0958 F104     		.2byte	0x4f1
 4457 095a CE000000 		.4byte	0xce
 4458 095e 2D0B0000 		.4byte	.LLST43
 4459 0962 1A       		.uleb128 0x1a
 4460 0963 0E000000 		.4byte	.LVL117
 4461 0967 C0080000 		.4byte	0x8c0
 4462 096b 76090000 		.4byte	0x976
 4463 096f 1B       		.uleb128 0x1b
 4464 0970 01       		.uleb128 0x1
 4465 0971 50       		.byte	0x50
 4466 0972 02       		.uleb128 0x2
 4467 0973 74       		.byte	0x74
 4468 0974 00       		.sleb128 0
 4469 0975 00       		.byte	0
 4470 0976 1C       		.uleb128 0x1c
 4471 0977 34000000 		.4byte	.LVL121
 4472 097b 02       		.uleb128 0x2
 4473 097c 76       		.byte	0x76
 4474 097d 00       		.sleb128 0
 4475 097e 94090000 		.4byte	0x994
 4476 0982 1B       		.uleb128 0x1b
 4477 0983 01       		.uleb128 0x1
 4478 0984 51       		.byte	0x51
 4479 0985 02       		.uleb128 0x2
 4480 0986 09       		.byte	0x9
 4481 0987 F3       		.byte	0xf3
 4482 0988 1B       		.uleb128 0x1b
 4483 0989 01       		.uleb128 0x1
 4484 098a 52       		.byte	0x52
 4485 098b 02       		.uleb128 0x2
 4486 098c 91       		.byte	0x91
 4487 098d 6F       		.sleb128 -17
 4488 098e 1B       		.uleb128 0x1b
 4489 098f 01       		.uleb128 0x1
 4490 0990 53       		.byte	0x53
 4491 0991 01       		.uleb128 0x1
 4492 0992 31       		.byte	0x31
 4493 0993 00       		.byte	0
 4494 0994 1D       		.uleb128 0x1d
 4495 0995 60000000 		.4byte	.LVL123
 4496 0999 02       		.uleb128 0x2
 4497 099a 76       		.byte	0x76
 4498 099b 00       		.sleb128 0
 4499 099c 1B       		.uleb128 0x1b
 4500 099d 01       		.uleb128 0x1
 4501 099e 51       		.byte	0x51
 4502 099f 02       		.uleb128 0x2
 4503 09a0 08       		.byte	0x8
 4504 09a1 73       		.byte	0x73
 4505 09a2 1B       		.uleb128 0x1b
 4506 09a3 01       		.uleb128 0x1
 4507 09a4 52       		.byte	0x52
 4508 09a5 02       		.uleb128 0x2
 4509 09a6 91       		.byte	0x91
 4510 09a7 6F       		.sleb128 -17
ARM GAS  C:\Users\adria\AppData\Local\Temp\ccQ3AXqi.s 			page 116


 4511 09a8 1B       		.uleb128 0x1b
 4512 09a9 01       		.uleb128 0x1
 4513 09aa 53       		.byte	0x53
 4514 09ab 01       		.uleb128 0x1
 4515 09ac 31       		.byte	0x31
 4516 09ad 00       		.byte	0
 4517 09ae 00       		.byte	0
 4518 09af 0E       		.uleb128 0xe
 4519 09b0 70030000 		.4byte	.LASF133
 4520 09b4 01       		.byte	0x1
 4521 09b5 1405     		.2byte	0x514
 4522 09b7 C3000000 		.4byte	0xc3
 4523 09bb 00000000 		.4byte	.LFB85
 4524 09bf 38000000 		.4byte	.LFE85-.LFB85
 4525 09c3 01       		.uleb128 0x1
 4526 09c4 9C       		.byte	0x9c
 4527 09c5 270A0000 		.4byte	0xa27
 4528 09c9 15       		.uleb128 0x15
 4529 09ca 64657600 		.ascii	"dev\000"
 4530 09ce 01       		.byte	0x1
 4531 09cf 1405     		.2byte	0x514
 4532 09d1 67050000 		.4byte	0x567
 4533 09d5 4C0B0000 		.4byte	.LLST44
 4534 09d9 11       		.uleb128 0x11
 4535 09da 31070000 		.4byte	.LASF129
 4536 09de 01       		.byte	0x1
 4537 09df 1605     		.2byte	0x516
 4538 09e1 C3000000 		.4byte	0xc3
 4539 09e5 6A0B0000 		.4byte	.LLST45
 4540 09e9 19       		.uleb128 0x19
 4541 09ea 72656700 		.ascii	"reg\000"
 4542 09ee 01       		.byte	0x1
 4543 09ef 1705     		.2byte	0x517
 4544 09f1 CE000000 		.4byte	0xce
 4545 09f5 02       		.uleb128 0x2
 4546 09f6 91       		.byte	0x91
 4547 09f7 6F       		.sleb128 -17
 4548 09f8 1A       		.uleb128 0x1a
 4549 09f9 0A000000 		.4byte	.LVL126
 4550 09fd C0080000 		.4byte	0x8c0
 4551 0a01 0C0A0000 		.4byte	0xa0c
 4552 0a05 1B       		.uleb128 0x1b
 4553 0a06 01       		.uleb128 0x1
 4554 0a07 50       		.byte	0x50
 4555 0a08 02       		.uleb128 0x2
 4556 0a09 74       		.byte	0x74
 4557 0a0a 00       		.sleb128 0
 4558 0a0b 00       		.byte	0
 4559 0a0c 1D       		.uleb128 0x1d
 4560 0a0d 1C000000 		.4byte	.LVL128
 4561 0a11 02       		.uleb128 0x2
 4562 0a12 76       		.byte	0x76
 4563 0a13 00       		.sleb128 0
 4564 0a14 1B       		.uleb128 0x1b
 4565 0a15 01       		.uleb128 0x1
 4566 0a16 51       		.byte	0x51
 4567 0a17 02       		.uleb128 0x2
ARM GAS  C:\Users\adria\AppData\Local\Temp\ccQ3AXqi.s 			page 117


 4568 0a18 09       		.byte	0x9
 4569 0a19 F3       		.byte	0xf3
 4570 0a1a 1B       		.uleb128 0x1b
 4571 0a1b 01       		.uleb128 0x1
 4572 0a1c 52       		.byte	0x52
 4573 0a1d 02       		.uleb128 0x2
 4574 0a1e 91       		.byte	0x91
 4575 0a1f 6F       		.sleb128 -17
 4576 0a20 1B       		.uleb128 0x1b
 4577 0a21 01       		.uleb128 0x1
 4578 0a22 53       		.byte	0x53
 4579 0a23 01       		.uleb128 0x1
 4580 0a24 31       		.byte	0x31
 4581 0a25 00       		.byte	0
 4582 0a26 00       		.byte	0
 4583 0a27 0E       		.uleb128 0xe
 4584 0a28 0B070000 		.4byte	.LASF134
 4585 0a2c 01       		.byte	0x1
 4586 0a2d AC05     		.2byte	0x5ac
 4587 0a2f C3000000 		.4byte	0xc3
 4588 0a33 00000000 		.4byte	.LFB89
 4589 0a37 88000000 		.4byte	.LFE89-.LFB89
 4590 0a3b 01       		.uleb128 0x1
 4591 0a3c 9C       		.byte	0x9c
 4592 0a3d 9E0A0000 		.4byte	0xa9e
 4593 0a41 0F       		.uleb128 0xf
 4594 0a42 CF040000 		.4byte	.LASF135
 4595 0a46 01       		.byte	0x1
 4596 0a47 AC05     		.2byte	0x5ac
 4597 0a49 9E0A0000 		.4byte	0xa9e
 4598 0a4d 880B0000 		.4byte	.LLST46
 4599 0a51 1E       		.uleb128 0x1e
 4600 0a52 F1040000 		.4byte	.LASF136
 4601 0a56 01       		.byte	0x1
 4602 0a57 AC05     		.2byte	0x5ac
 4603 0a59 CE000000 		.4byte	0xce
 4604 0a5d 01       		.uleb128 0x1
 4605 0a5e 51       		.byte	0x51
 4606 0a5f 11       		.uleb128 0x11
 4607 0a60 31070000 		.4byte	.LASF129
 4608 0a64 01       		.byte	0x1
 4609 0a65 AE05     		.2byte	0x5ae
 4610 0a67 C3000000 		.4byte	0xc3
 4611 0a6b C20B0000 		.4byte	.LLST47
 4612 0a6f 11       		.uleb128 0x11
 4613 0a70 B8030000 		.4byte	.LASF137
 4614 0a74 01       		.byte	0x1
 4615 0a75 AF05     		.2byte	0x5af
 4616 0a77 CE000000 		.4byte	0xce
 4617 0a7b E10B0000 		.4byte	.LLST48
 4618 0a7f 1F       		.uleb128 0x1f
 4619 0a80 6900     		.ascii	"i\000"
 4620 0a82 01       		.byte	0x1
 4621 0a83 AF05     		.2byte	0x5af
 4622 0a85 CE000000 		.4byte	0xce
 4623 0a89 2C0C0000 		.4byte	.LLST49
 4624 0a8d 11       		.uleb128 0x11
ARM GAS  C:\Users\adria\AppData\Local\Temp\ccQ3AXqi.s 			page 118


 4625 0a8e F8060000 		.4byte	.LASF138
 4626 0a92 01       		.byte	0x1
 4627 0a93 B005     		.2byte	0x5b0
 4628 0a95 FA000000 		.4byte	0xfa
 4629 0a99 550C0000 		.4byte	.LLST50
 4630 0a9d 00       		.byte	0
 4631 0a9e 06       		.uleb128 0x6
 4632 0a9f 04       		.byte	0x4
 4633 0aa0 93010000 		.4byte	0x193
 4634 0aa4 20       		.uleb128 0x20
 4635 0aa5 FC000000 		.4byte	.LASF205
 4636 0aa9 01       		.byte	0x1
 4637 0aaa CB05     		.2byte	0x5cb
 4638 0aac 00000000 		.4byte	.LFB90
 4639 0ab0 08000000 		.4byte	.LFE90-.LFB90
 4640 0ab4 01       		.uleb128 0x1
 4641 0ab5 9C       		.byte	0x9c
 4642 0ab6 DC0A0000 		.4byte	0xadc
 4643 0aba 0F       		.uleb128 0xf
 4644 0abb 38000000 		.4byte	.LASF139
 4645 0abf 01       		.byte	0x1
 4646 0ac0 CB05     		.2byte	0x5cb
 4647 0ac2 FA000000 		.4byte	0xfa
 4648 0ac6 8B0C0000 		.4byte	.LLST51
 4649 0aca 21       		.uleb128 0x21
 4650 0acb 06000000 		.4byte	.LVL154
 4651 0acf 201D0000 		.4byte	0x1d20
 4652 0ad3 1B       		.uleb128 0x1b
 4653 0ad4 01       		.uleb128 0x1
 4654 0ad5 50       		.byte	0x50
 4655 0ad6 03       		.uleb128 0x3
 4656 0ad7 F3       		.byte	0xf3
 4657 0ad8 01       		.uleb128 0x1
 4658 0ad9 50       		.byte	0x50
 4659 0ada 00       		.byte	0
 4660 0adb 00       		.byte	0
 4661 0adc 0E       		.uleb128 0xe
 4662 0add DB090000 		.4byte	.LASF140
 4663 0ae1 01       		.byte	0x1
 4664 0ae2 FA05     		.2byte	0x5fa
 4665 0ae4 C3000000 		.4byte	0xc3
 4666 0ae8 00000000 		.4byte	.LFB92
 4667 0aec 30000000 		.4byte	.LFE92-.LFB92
 4668 0af0 01       		.uleb128 0x1
 4669 0af1 9C       		.byte	0x9c
 4670 0af2 8E0B0000 		.4byte	0xb8e
 4671 0af6 0F       		.uleb128 0xf
 4672 0af7 E2080000 		.4byte	.LASF79
 4673 0afb 01       		.byte	0x1
 4674 0afc FA05     		.2byte	0x5fa
 4675 0afe CE000000 		.4byte	0xce
 4676 0b02 AC0C0000 		.4byte	.LLST52
 4677 0b06 0F       		.uleb128 0xf
 4678 0b07 1F070000 		.4byte	.LASF132
 4679 0b0b 01       		.byte	0x1
 4680 0b0c FA05     		.2byte	0x5fa
 4681 0b0e CE000000 		.4byte	0xce
ARM GAS  C:\Users\adria\AppData\Local\Temp\ccQ3AXqi.s 			page 119


 4682 0b12 CD0C0000 		.4byte	.LLST53
 4683 0b16 0F       		.uleb128 0xf
 4684 0b17 8F020000 		.4byte	.LASF141
 4685 0b1b 01       		.byte	0x1
 4686 0b1c FA05     		.2byte	0x5fa
 4687 0b1e 52010000 		.4byte	0x152
 4688 0b22 EE0C0000 		.4byte	.LLST54
 4689 0b26 15       		.uleb128 0x15
 4690 0b27 6C656E00 		.ascii	"len\000"
 4691 0b2b 01       		.byte	0x1
 4692 0b2c FA05     		.2byte	0x5fa
 4693 0b2e E4000000 		.4byte	0xe4
 4694 0b32 240D0000 		.4byte	.LLST55
 4695 0b36 11       		.uleb128 0x11
 4696 0b37 31070000 		.4byte	.LASF129
 4697 0b3b 01       		.byte	0x1
 4698 0b3c FC05     		.2byte	0x5fc
 4699 0b3e C3000000 		.4byte	0xc3
 4700 0b42 450D0000 		.4byte	.LLST56
 4701 0b46 1F       		.uleb128 0x1f
 4702 0b47 6900     		.ascii	"i\000"
 4703 0b49 01       		.byte	0x1
 4704 0b4a FD05     		.2byte	0x5fd
 4705 0b4c E4000000 		.4byte	0xe4
 4706 0b50 640D0000 		.4byte	.LLST57
 4707 0b54 1A       		.uleb128 0x1a
 4708 0b55 0E000000 		.4byte	.LVL158
 4709 0b59 2B1D0000 		.4byte	0x1d2b
 4710 0b5d 670B0000 		.4byte	0xb67
 4711 0b61 1B       		.uleb128 0x1b
 4712 0b62 01       		.uleb128 0x1
 4713 0b63 51       		.byte	0x51
 4714 0b64 01       		.uleb128 0x1
 4715 0b65 30       		.byte	0x30
 4716 0b66 00       		.byte	0
 4717 0b67 1A       		.uleb128 0x1a
 4718 0b68 14000000 		.4byte	.LVL159
 4719 0b6c 361D0000 		.4byte	0x1d36
 4720 0b70 7B0B0000 		.4byte	0xb7b
 4721 0b74 1B       		.uleb128 0x1b
 4722 0b75 01       		.uleb128 0x1
 4723 0b76 50       		.byte	0x50
 4724 0b77 02       		.uleb128 0x2
 4725 0b78 74       		.byte	0x74
 4726 0b79 00       		.sleb128 0
 4727 0b7a 00       		.byte	0
 4728 0b7b 22       		.uleb128 0x22
 4729 0b7c 20000000 		.4byte	.LVL162
 4730 0b80 361D0000 		.4byte	0x1d36
 4731 0b84 22       		.uleb128 0x22
 4732 0b85 2C000000 		.4byte	.LVL165
 4733 0b89 411D0000 		.4byte	0x1d41
 4734 0b8d 00       		.byte	0
 4735 0b8e 0E       		.uleb128 0xe
 4736 0b8f DC040000 		.4byte	.LASF142
 4737 0b93 01       		.byte	0x1
 4738 0b94 D405     		.2byte	0x5d4
ARM GAS  C:\Users\adria\AppData\Local\Temp\ccQ3AXqi.s 			page 120


 4739 0b96 C3000000 		.4byte	0xc3
 4740 0b9a 00000000 		.4byte	.LFB91
 4741 0b9e 44000000 		.4byte	.LFE91-.LFB91
 4742 0ba2 01       		.uleb128 0x1
 4743 0ba3 9C       		.byte	0x9c
 4744 0ba4 7C0C0000 		.4byte	0xc7c
 4745 0ba8 0F       		.uleb128 0xf
 4746 0ba9 E2080000 		.4byte	.LASF79
 4747 0bad 01       		.byte	0x1
 4748 0bae D405     		.2byte	0x5d4
 4749 0bb0 CE000000 		.4byte	0xce
 4750 0bb4 8E0D0000 		.4byte	.LLST58
 4751 0bb8 0F       		.uleb128 0xf
 4752 0bb9 1F070000 		.4byte	.LASF132
 4753 0bbd 01       		.byte	0x1
 4754 0bbe D405     		.2byte	0x5d4
 4755 0bc0 CE000000 		.4byte	0xce
 4756 0bc4 AF0D0000 		.4byte	.LLST59
 4757 0bc8 0F       		.uleb128 0xf
 4758 0bc9 8F020000 		.4byte	.LASF141
 4759 0bcd 01       		.byte	0x1
 4760 0bce D405     		.2byte	0x5d4
 4761 0bd0 52010000 		.4byte	0x152
 4762 0bd4 D00D0000 		.4byte	.LLST60
 4763 0bd8 15       		.uleb128 0x15
 4764 0bd9 6C656E00 		.ascii	"len\000"
 4765 0bdd 01       		.byte	0x1
 4766 0bde D405     		.2byte	0x5d4
 4767 0be0 E4000000 		.4byte	0xe4
 4768 0be4 EE0D0000 		.4byte	.LLST61
 4769 0be8 11       		.uleb128 0x11
 4770 0be9 31070000 		.4byte	.LASF129
 4771 0bed 01       		.byte	0x1
 4772 0bee D605     		.2byte	0x5d6
 4773 0bf0 C3000000 		.4byte	0xc3
 4774 0bf4 0F0E0000 		.4byte	.LLST62
 4775 0bf8 1F       		.uleb128 0x1f
 4776 0bf9 6900     		.ascii	"i\000"
 4777 0bfb 01       		.byte	0x1
 4778 0bfc D705     		.2byte	0x5d7
 4779 0bfe E4000000 		.4byte	0xe4
 4780 0c02 2E0E0000 		.4byte	.LLST63
 4781 0c06 1A       		.uleb128 0x1a
 4782 0c07 10000000 		.4byte	.LVL169
 4783 0c0b 2B1D0000 		.4byte	0x1d2b
 4784 0c0f 1F0C0000 		.4byte	0xc1f
 4785 0c13 1B       		.uleb128 0x1b
 4786 0c14 01       		.uleb128 0x1
 4787 0c15 50       		.byte	0x50
 4788 0c16 02       		.uleb128 0x2
 4789 0c17 74       		.byte	0x74
 4790 0c18 00       		.sleb128 0
 4791 0c19 1B       		.uleb128 0x1b
 4792 0c1a 01       		.uleb128 0x1
 4793 0c1b 51       		.byte	0x51
 4794 0c1c 01       		.uleb128 0x1
 4795 0c1d 30       		.byte	0x30
ARM GAS  C:\Users\adria\AppData\Local\Temp\ccQ3AXqi.s 			page 121


 4796 0c1e 00       		.byte	0
 4797 0c1f 1A       		.uleb128 0x1a
 4798 0c20 16000000 		.4byte	.LVL170
 4799 0c24 361D0000 		.4byte	0x1d36
 4800 0c28 330C0000 		.4byte	0xc33
 4801 0c2c 1B       		.uleb128 0x1b
 4802 0c2d 01       		.uleb128 0x1
 4803 0c2e 50       		.byte	0x50
 4804 0c2f 02       		.uleb128 0x2
 4805 0c30 77       		.byte	0x77
 4806 0c31 00       		.sleb128 0
 4807 0c32 00       		.byte	0
 4808 0c33 1A       		.uleb128 0x1a
 4809 0c34 1E000000 		.4byte	.LVL171
 4810 0c38 4C1D0000 		.4byte	0x1d4c
 4811 0c3c 4C0C0000 		.4byte	0xc4c
 4812 0c40 1B       		.uleb128 0x1b
 4813 0c41 01       		.uleb128 0x1
 4814 0c42 50       		.byte	0x50
 4815 0c43 02       		.uleb128 0x2
 4816 0c44 74       		.byte	0x74
 4817 0c45 00       		.sleb128 0
 4818 0c46 1B       		.uleb128 0x1b
 4819 0c47 01       		.uleb128 0x1
 4820 0c48 51       		.byte	0x51
 4821 0c49 01       		.uleb128 0x1
 4822 0c4a 31       		.byte	0x31
 4823 0c4b 00       		.byte	0
 4824 0c4c 1A       		.uleb128 0x1a
 4825 0c4d 28000000 		.4byte	.LVL173
 4826 0c51 571D0000 		.4byte	0x1d57
 4827 0c55 5F0C0000 		.4byte	0xc5f
 4828 0c59 1B       		.uleb128 0x1b
 4829 0c5a 01       		.uleb128 0x1
 4830 0c5b 50       		.byte	0x50
 4831 0c5c 01       		.uleb128 0x1
 4832 0c5d 31       		.byte	0x31
 4833 0c5e 00       		.byte	0
 4834 0c5f 1A       		.uleb128 0x1a
 4835 0c60 3A000000 		.4byte	.LVL176
 4836 0c64 571D0000 		.4byte	0x1d57
 4837 0c68 720C0000 		.4byte	0xc72
 4838 0c6c 1B       		.uleb128 0x1b
 4839 0c6d 01       		.uleb128 0x1
 4840 0c6e 50       		.byte	0x50
 4841 0c6f 01       		.uleb128 0x1
 4842 0c70 30       		.byte	0x30
 4843 0c71 00       		.byte	0
 4844 0c72 22       		.uleb128 0x22
 4845 0c73 40000000 		.4byte	.LVL177
 4846 0c77 411D0000 		.4byte	0x1d41
 4847 0c7b 00       		.byte	0
 4848 0c7c 23       		.uleb128 0x23
 4849 0c7d E8060000 		.4byte	.LASF156
 4850 0c81 01       		.byte	0x1
 4851 0c82 3701     		.2byte	0x137
 4852 0c84 C3000000 		.4byte	0xc3
ARM GAS  C:\Users\adria\AppData\Local\Temp\ccQ3AXqi.s 			page 122


 4853 0c88 00000000 		.4byte	.LFB64
 4854 0c8c 46000000 		.4byte	.LFE64-.LFB64
 4855 0c90 01       		.uleb128 0x1
 4856 0c91 9C       		.byte	0x9c
 4857 0c92 300D0000 		.4byte	0xd30
 4858 0c96 0F       		.uleb128 0xf
 4859 0c97 1F070000 		.4byte	.LASF132
 4860 0c9b 01       		.byte	0x1
 4861 0c9c 3701     		.2byte	0x137
 4862 0c9e CE000000 		.4byte	0xce
 4863 0ca2 580E0000 		.4byte	.LLST64
 4864 0ca6 0F       		.uleb128 0xf
 4865 0ca7 8F020000 		.4byte	.LASF141
 4866 0cab 01       		.byte	0x1
 4867 0cac 3701     		.2byte	0x137
 4868 0cae 52010000 		.4byte	0x152
 4869 0cb2 840E0000 		.4byte	.LLST65
 4870 0cb6 15       		.uleb128 0x15
 4871 0cb7 6C656E00 		.ascii	"len\000"
 4872 0cbb 01       		.byte	0x1
 4873 0cbc 3701     		.2byte	0x137
 4874 0cbe E4000000 		.4byte	0xe4
 4875 0cc2 A20E0000 		.4byte	.LLST66
 4876 0cc6 15       		.uleb128 0x15
 4877 0cc7 64657600 		.ascii	"dev\000"
 4878 0ccb 01       		.byte	0x1
 4879 0ccc 3701     		.2byte	0x137
 4880 0cce 67050000 		.4byte	0x567
 4881 0cd2 C30E0000 		.4byte	.LLST67
 4882 0cd6 11       		.uleb128 0x11
 4883 0cd7 31070000 		.4byte	.LASF129
 4884 0cdb 01       		.byte	0x1
 4885 0cdc 3901     		.2byte	0x139
 4886 0cde C3000000 		.4byte	0xc3
 4887 0ce2 E10E0000 		.4byte	.LLST68
 4888 0ce6 1A       		.uleb128 0x1a
 4889 0ce7 12000000 		.4byte	.LVL180
 4890 0ceb C0080000 		.4byte	0x8c0
 4891 0cef FA0C0000 		.4byte	0xcfa
 4892 0cf3 1B       		.uleb128 0x1b
 4893 0cf4 01       		.uleb128 0x1
 4894 0cf5 50       		.byte	0x50
 4895 0cf6 02       		.uleb128 0x2
 4896 0cf7 74       		.byte	0x74
 4897 0cf8 00       		.sleb128 0
 4898 0cf9 00       		.byte	0
 4899 0cfa 1A       		.uleb128 0x1a
 4900 0cfb 22000000 		.4byte	.LVL182
 4901 0cff F9080000 		.4byte	0x8f9
 4902 0d03 140D0000 		.4byte	0xd14
 4903 0d07 1B       		.uleb128 0x1b
 4904 0d08 01       		.uleb128 0x1
 4905 0d09 50       		.byte	0x50
 4906 0d0a 02       		.uleb128 0x2
 4907 0d0b 76       		.byte	0x76
 4908 0d0c 00       		.sleb128 0
 4909 0d0d 1B       		.uleb128 0x1b
ARM GAS  C:\Users\adria\AppData\Local\Temp\ccQ3AXqi.s 			page 123


 4910 0d0e 01       		.uleb128 0x1
 4911 0d0f 51       		.byte	0x51
 4912 0d10 02       		.uleb128 0x2
 4913 0d11 74       		.byte	0x74
 4914 0d12 00       		.sleb128 0
 4915 0d13 00       		.byte	0
 4916 0d14 1D       		.uleb128 0x1d
 4917 0d15 36000000 		.4byte	.LVL184
 4918 0d19 02       		.uleb128 0x2
 4919 0d1a 77       		.byte	0x77
 4920 0d1b 00       		.sleb128 0
 4921 0d1c 1B       		.uleb128 0x1b
 4922 0d1d 01       		.uleb128 0x1
 4923 0d1e 51       		.byte	0x51
 4924 0d1f 02       		.uleb128 0x2
 4925 0d20 76       		.byte	0x76
 4926 0d21 00       		.sleb128 0
 4927 0d22 1B       		.uleb128 0x1b
 4928 0d23 01       		.uleb128 0x1
 4929 0d24 52       		.byte	0x52
 4930 0d25 02       		.uleb128 0x2
 4931 0d26 78       		.byte	0x78
 4932 0d27 00       		.sleb128 0
 4933 0d28 1B       		.uleb128 0x1b
 4934 0d29 01       		.uleb128 0x1
 4935 0d2a 53       		.byte	0x53
 4936 0d2b 02       		.uleb128 0x2
 4937 0d2c 79       		.byte	0x79
 4938 0d2d 00       		.sleb128 0
 4939 0d2e 00       		.byte	0
 4940 0d2f 00       		.byte	0
 4941 0d30 0E       		.uleb128 0xe
 4942 0d31 FB080000 		.4byte	.LASF143
 4943 0d35 01       		.byte	0x1
 4944 0d36 D402     		.2byte	0x2d4
 4945 0d38 C3000000 		.4byte	0xc3
 4946 0d3c 00000000 		.4byte	.LFB74
 4947 0d40 8A010000 		.4byte	.LFE74-.LFB74
 4948 0d44 01       		.uleb128 0x1
 4949 0d45 9C       		.byte	0x9c
 4950 0d46 690E0000 		.4byte	0xe69
 4951 0d4a 15       		.uleb128 0x15
 4952 0d4b 64657600 		.ascii	"dev\000"
 4953 0d4f 01       		.byte	0x1
 4954 0d50 D402     		.2byte	0x2d4
 4955 0d52 67050000 		.4byte	0x567
 4956 0d56 0A0F0000 		.4byte	.LLST69
 4957 0d5a 11       		.uleb128 0x11
 4958 0d5b 31070000 		.4byte	.LASF129
 4959 0d5f 01       		.byte	0x1
 4960 0d60 D602     		.2byte	0x2d6
 4961 0d62 C3000000 		.4byte	0xc3
 4962 0d66 280F0000 		.4byte	.LLST70
 4963 0d6a 16       		.uleb128 0x16
 4964 0d6b 3F000000 		.4byte	.LASF144
 4965 0d6f 01       		.byte	0x1
 4966 0d70 D702     		.2byte	0x2d7
ARM GAS  C:\Users\adria\AppData\Local\Temp\ccQ3AXqi.s 			page 124


 4967 0d72 690E0000 		.4byte	0xe69
 4968 0d76 02       		.uleb128 0x2
 4969 0d77 91       		.byte	0x91
 4970 0d78 4C       		.sleb128 -52
 4971 0d79 16       		.uleb128 0x16
 4972 0d7a 59090000 		.4byte	.LASF145
 4973 0d7e 01       		.byte	0x1
 4974 0d7f D802     		.2byte	0x2d8
 4975 0d81 CE000000 		.4byte	0xce
 4976 0d85 02       		.uleb128 0x2
 4977 0d86 91       		.byte	0x91
 4978 0d87 4B       		.sleb128 -53
 4979 0d88 1A       		.uleb128 0x1a
 4980 0d89 10000000 		.4byte	.LVL188
 4981 0d8d 621D0000 		.4byte	0x1d62
 4982 0d91 A70D0000 		.4byte	0xda7
 4983 0d95 1B       		.uleb128 0x1b
 4984 0d96 01       		.uleb128 0x1
 4985 0d97 50       		.byte	0x50
 4986 0d98 02       		.uleb128 0x2
 4987 0d99 91       		.byte	0x91
 4988 0d9a 4C       		.sleb128 -52
 4989 0d9b 1B       		.uleb128 0x1b
 4990 0d9c 01       		.uleb128 0x1
 4991 0d9d 51       		.byte	0x51
 4992 0d9e 01       		.uleb128 0x1
 4993 0d9f 30       		.byte	0x30
 4994 0da0 1B       		.uleb128 0x1b
 4995 0da1 01       		.uleb128 0x1
 4996 0da2 52       		.byte	0x52
 4997 0da3 02       		.uleb128 0x2
 4998 0da4 08       		.byte	0x8
 4999 0da5 29       		.byte	0x29
 5000 0da6 00       		.byte	0
 5001 0da7 1A       		.uleb128 0x1a
 5002 0da8 1C000000 		.4byte	.LVL189
 5003 0dac C0080000 		.4byte	0x8c0
 5004 0db0 BB0D0000 		.4byte	0xdbb
 5005 0db4 1B       		.uleb128 0x1b
 5006 0db5 01       		.uleb128 0x1
 5007 0db6 50       		.byte	0x50
 5008 0db7 02       		.uleb128 0x2
 5009 0db8 74       		.byte	0x74
 5010 0db9 00       		.sleb128 0
 5011 0dba 00       		.byte	0
 5012 0dbb 1A       		.uleb128 0x1a
 5013 0dbc 30000000 		.4byte	.LVL191
 5014 0dc0 7C0C0000 		.4byte	0xc7c
 5015 0dc4 E00D0000 		.4byte	0xde0
 5016 0dc8 1B       		.uleb128 0x1b
 5017 0dc9 01       		.uleb128 0x1
 5018 0dca 50       		.byte	0x50
 5019 0dcb 02       		.uleb128 0x2
 5020 0dcc 09       		.byte	0x9
 5021 0dcd 89       		.byte	0x89
 5022 0dce 1B       		.uleb128 0x1b
 5023 0dcf 01       		.uleb128 0x1
ARM GAS  C:\Users\adria\AppData\Local\Temp\ccQ3AXqi.s 			page 125


 5024 0dd0 51       		.byte	0x51
 5025 0dd1 02       		.uleb128 0x2
 5026 0dd2 91       		.byte	0x91
 5027 0dd3 4C       		.sleb128 -52
 5028 0dd4 1B       		.uleb128 0x1b
 5029 0dd5 01       		.uleb128 0x1
 5030 0dd6 52       		.byte	0x52
 5031 0dd7 01       		.uleb128 0x1
 5032 0dd8 49       		.byte	0x49
 5033 0dd9 1B       		.uleb128 0x1b
 5034 0dda 01       		.uleb128 0x1
 5035 0ddb 53       		.byte	0x53
 5036 0ddc 02       		.uleb128 0x2
 5037 0ddd 74       		.byte	0x74
 5038 0dde 00       		.sleb128 0
 5039 0ddf 00       		.byte	0
 5040 0de0 1A       		.uleb128 0x1a
 5041 0de1 42000000 		.4byte	.LVL193
 5042 0de5 7C0C0000 		.4byte	0xc7c
 5043 0de9 050E0000 		.4byte	0xe05
 5044 0ded 1B       		.uleb128 0x1b
 5045 0dee 01       		.uleb128 0x1
 5046 0def 50       		.byte	0x50
 5047 0df0 02       		.uleb128 0x2
 5048 0df1 09       		.byte	0x9
 5049 0df2 E1       		.byte	0xe1
 5050 0df3 1B       		.uleb128 0x1b
 5051 0df4 01       		.uleb128 0x1
 5052 0df5 51       		.byte	0x51
 5053 0df6 02       		.uleb128 0x2
 5054 0df7 91       		.byte	0x91
 5055 0df8 65       		.sleb128 -27
 5056 0df9 1B       		.uleb128 0x1b
 5057 0dfa 01       		.uleb128 0x1
 5058 0dfb 52       		.byte	0x52
 5059 0dfc 01       		.uleb128 0x1
 5060 0dfd 40       		.byte	0x40
 5061 0dfe 1B       		.uleb128 0x1b
 5062 0dff 01       		.uleb128 0x1
 5063 0e00 53       		.byte	0x53
 5064 0e01 02       		.uleb128 0x2
 5065 0e02 74       		.byte	0x74
 5066 0e03 00       		.sleb128 0
 5067 0e04 00       		.byte	0
 5068 0e05 1A       		.uleb128 0x1a
 5069 0e06 40010000 		.4byte	.LVL196
 5070 0e0a 7C0C0000 		.4byte	0xc7c
 5071 0e0e 290E0000 		.4byte	0xe29
 5072 0e12 1B       		.uleb128 0x1b
 5073 0e13 01       		.uleb128 0x1
 5074 0e14 50       		.byte	0x50
 5075 0e15 01       		.uleb128 0x1
 5076 0e16 32       		.byte	0x32
 5077 0e17 1B       		.uleb128 0x1b
 5078 0e18 01       		.uleb128 0x1
 5079 0e19 51       		.byte	0x51
 5080 0e1a 02       		.uleb128 0x2
ARM GAS  C:\Users\adria\AppData\Local\Temp\ccQ3AXqi.s 			page 126


 5081 0e1b 91       		.byte	0x91
 5082 0e1c 4B       		.sleb128 -53
 5083 0e1d 1B       		.uleb128 0x1b
 5084 0e1e 01       		.uleb128 0x1
 5085 0e1f 52       		.byte	0x52
 5086 0e20 01       		.uleb128 0x1
 5087 0e21 31       		.byte	0x31
 5088 0e22 1B       		.uleb128 0x1b
 5089 0e23 01       		.uleb128 0x1
 5090 0e24 53       		.byte	0x53
 5091 0e25 02       		.uleb128 0x2
 5092 0e26 74       		.byte	0x74
 5093 0e27 00       		.sleb128 0
 5094 0e28 00       		.byte	0
 5095 0e29 1A       		.uleb128 0x1a
 5096 0e2a 5E010000 		.4byte	.LVL197
 5097 0e2e 7C0C0000 		.4byte	0xc7c
 5098 0e32 480E0000 		.4byte	0xe48
 5099 0e36 1B       		.uleb128 0x1b
 5100 0e37 01       		.uleb128 0x1
 5101 0e38 51       		.byte	0x51
 5102 0e39 02       		.uleb128 0x2
 5103 0e3a 91       		.byte	0x91
 5104 0e3b 4B       		.sleb128 -53
 5105 0e3c 1B       		.uleb128 0x1b
 5106 0e3d 01       		.uleb128 0x1
 5107 0e3e 52       		.byte	0x52
 5108 0e3f 01       		.uleb128 0x1
 5109 0e40 31       		.byte	0x31
 5110 0e41 1B       		.uleb128 0x1b
 5111 0e42 01       		.uleb128 0x1
 5112 0e43 53       		.byte	0x53
 5113 0e44 02       		.uleb128 0x2
 5114 0e45 74       		.byte	0x74
 5115 0e46 00       		.sleb128 0
 5116 0e47 00       		.byte	0
 5117 0e48 21       		.uleb128 0x21
 5118 0e49 78010000 		.4byte	.LVL199
 5119 0e4d 7C0C0000 		.4byte	0xc7c
 5120 0e51 1B       		.uleb128 0x1b
 5121 0e52 01       		.uleb128 0x1
 5122 0e53 50       		.byte	0x50
 5123 0e54 01       		.uleb128 0x1
 5124 0e55 34       		.byte	0x34
 5125 0e56 1B       		.uleb128 0x1b
 5126 0e57 01       		.uleb128 0x1
 5127 0e58 51       		.byte	0x51
 5128 0e59 02       		.uleb128 0x2
 5129 0e5a 91       		.byte	0x91
 5130 0e5b 4B       		.sleb128 -53
 5131 0e5c 1B       		.uleb128 0x1b
 5132 0e5d 01       		.uleb128 0x1
 5133 0e5e 52       		.byte	0x52
 5134 0e5f 01       		.uleb128 0x1
 5135 0e60 31       		.byte	0x31
 5136 0e61 1B       		.uleb128 0x1b
 5137 0e62 01       		.uleb128 0x1
ARM GAS  C:\Users\adria\AppData\Local\Temp\ccQ3AXqi.s 			page 127


 5138 0e63 53       		.byte	0x53
 5139 0e64 02       		.uleb128 0x2
 5140 0e65 74       		.byte	0x74
 5141 0e66 00       		.sleb128 0
 5142 0e67 00       		.byte	0
 5143 0e68 00       		.byte	0
 5144 0e69 17       		.uleb128 0x17
 5145 0e6a CE000000 		.4byte	0xce
 5146 0e6e 790E0000 		.4byte	0xe79
 5147 0e72 18       		.uleb128 0x18
 5148 0e73 EB040000 		.4byte	0x4eb
 5149 0e77 28       		.byte	0x28
 5150 0e78 00       		.byte	0
 5151 0e79 0E       		.uleb128 0xe
 5152 0e7a 00080000 		.4byte	.LASF146
 5153 0e7e 01       		.byte	0x1
 5154 0e7f 4303     		.2byte	0x343
 5155 0e81 C3000000 		.4byte	0xc3
 5156 0e85 00000000 		.4byte	.LFB76
 5157 0e89 5C000000 		.4byte	.LFE76-.LFB76
 5158 0e8d 01       		.uleb128 0x1
 5159 0e8e 9C       		.byte	0x9c
 5160 0e8f 510F0000 		.4byte	0xf51
 5161 0e93 15       		.uleb128 0x15
 5162 0e94 64657600 		.ascii	"dev\000"
 5163 0e98 01       		.byte	0x1
 5164 0e99 4303     		.2byte	0x343
 5165 0e9b 67050000 		.4byte	0x567
 5166 0e9f 720F0000 		.4byte	.LLST71
 5167 0ea3 11       		.uleb128 0x11
 5168 0ea4 31070000 		.4byte	.LASF129
 5169 0ea8 01       		.byte	0x1
 5170 0ea9 4503     		.2byte	0x345
 5171 0eab C3000000 		.4byte	0xc3
 5172 0eaf 900F0000 		.4byte	.LLST72
 5173 0eb3 24       		.uleb128 0x24
 5174 0eb4 8D040000 		.4byte	.LASF147
 5175 0eb8 01       		.byte	0x1
 5176 0eb9 4703     		.2byte	0x347
 5177 0ebb CE000000 		.4byte	0xce
 5178 0ebf 5A       		.byte	0x5a
 5179 0ec0 24       		.uleb128 0x24
 5180 0ec1 97040000 		.4byte	.LASF148
 5181 0ec5 01       		.byte	0x1
 5182 0ec6 4803     		.2byte	0x348
 5183 0ec8 CE000000 		.4byte	0xce
 5184 0ecc 64       		.byte	0x64
 5185 0ecd 16       		.uleb128 0x16
 5186 0ece 8F020000 		.4byte	.LASF141
 5187 0ed2 01       		.byte	0x1
 5188 0ed3 4903     		.2byte	0x349
 5189 0ed5 CE000000 		.4byte	0xce
 5190 0ed9 02       		.uleb128 0x2
 5191 0eda 91       		.byte	0x91
 5192 0edb 77       		.sleb128 -9
 5193 0edc 1A       		.uleb128 0x1a
 5194 0edd 10000000 		.4byte	.LVL204
ARM GAS  C:\Users\adria\AppData\Local\Temp\ccQ3AXqi.s 			page 128


 5195 0ee1 C0080000 		.4byte	0x8c0
 5196 0ee5 F00E0000 		.4byte	0xef0
 5197 0ee9 1B       		.uleb128 0x1b
 5198 0eea 01       		.uleb128 0x1
 5199 0eeb 50       		.byte	0x50
 5200 0eec 02       		.uleb128 0x2
 5201 0eed 74       		.byte	0x74
 5202 0eee 00       		.sleb128 0
 5203 0eef 00       		.byte	0
 5204 0ef0 1A       		.uleb128 0x1a
 5205 0ef1 20000000 		.4byte	.LVL206
 5206 0ef5 F9080000 		.4byte	0x8f9
 5207 0ef9 0A0F0000 		.4byte	0xf0a
 5208 0efd 1B       		.uleb128 0x1b
 5209 0efe 01       		.uleb128 0x1
 5210 0eff 50       		.byte	0x50
 5211 0f00 02       		.uleb128 0x2
 5212 0f01 08       		.byte	0x8
 5213 0f02 5A       		.byte	0x5a
 5214 0f03 1B       		.uleb128 0x1b
 5215 0f04 01       		.uleb128 0x1
 5216 0f05 51       		.byte	0x51
 5217 0f06 02       		.uleb128 0x2
 5218 0f07 74       		.byte	0x74
 5219 0f08 00       		.sleb128 0
 5220 0f09 00       		.byte	0
 5221 0f0a 1A       		.uleb128 0x1a
 5222 0f0b 32000000 		.4byte	.LVL209
 5223 0f0f 7C0C0000 		.4byte	0xc7c
 5224 0f13 2F0F0000 		.4byte	0xf2f
 5225 0f17 1B       		.uleb128 0x1b
 5226 0f18 01       		.uleb128 0x1
 5227 0f19 50       		.byte	0x50
 5228 0f1a 02       		.uleb128 0x2
 5229 0f1b 08       		.byte	0x8
 5230 0f1c 5A       		.byte	0x5a
 5231 0f1d 1B       		.uleb128 0x1b
 5232 0f1e 01       		.uleb128 0x1
 5233 0f1f 51       		.byte	0x51
 5234 0f20 02       		.uleb128 0x2
 5235 0f21 91       		.byte	0x91
 5236 0f22 77       		.sleb128 -9
 5237 0f23 1B       		.uleb128 0x1b
 5238 0f24 01       		.uleb128 0x1
 5239 0f25 52       		.byte	0x52
 5240 0f26 01       		.uleb128 0x1
 5241 0f27 31       		.byte	0x31
 5242 0f28 1B       		.uleb128 0x1b
 5243 0f29 01       		.uleb128 0x1
 5244 0f2a 53       		.byte	0x53
 5245 0f2b 02       		.uleb128 0x2
 5246 0f2c 74       		.byte	0x74
 5247 0f2d 00       		.sleb128 0
 5248 0f2e 00       		.byte	0
 5249 0f2f 21       		.uleb128 0x21
 5250 0f30 4A000000 		.4byte	.LVL211
 5251 0f34 7C0C0000 		.4byte	0xc7c
ARM GAS  C:\Users\adria\AppData\Local\Temp\ccQ3AXqi.s 			page 129


 5252 0f38 1B       		.uleb128 0x1b
 5253 0f39 01       		.uleb128 0x1
 5254 0f3a 50       		.byte	0x50
 5255 0f3b 02       		.uleb128 0x2
 5256 0f3c 08       		.byte	0x8
 5257 0f3d 64       		.byte	0x64
 5258 0f3e 1B       		.uleb128 0x1b
 5259 0f3f 01       		.uleb128 0x1
 5260 0f40 51       		.byte	0x51
 5261 0f41 02       		.uleb128 0x2
 5262 0f42 91       		.byte	0x91
 5263 0f43 77       		.sleb128 -9
 5264 0f44 1B       		.uleb128 0x1b
 5265 0f45 01       		.uleb128 0x1
 5266 0f46 52       		.byte	0x52
 5267 0f47 01       		.uleb128 0x1
 5268 0f48 31       		.byte	0x31
 5269 0f49 1B       		.uleb128 0x1b
 5270 0f4a 01       		.uleb128 0x1
 5271 0f4b 53       		.byte	0x53
 5272 0f4c 02       		.uleb128 0x2
 5273 0f4d 74       		.byte	0x74
 5274 0f4e 00       		.sleb128 0
 5275 0f4f 00       		.byte	0
 5276 0f50 00       		.byte	0
 5277 0f51 0E       		.uleb128 0xe
 5278 0f52 17060000 		.4byte	.LASF149
 5279 0f56 01       		.byte	0x1
 5280 0f57 B504     		.2byte	0x4b5
 5281 0f59 C3000000 		.4byte	0xc3
 5282 0f5d 00000000 		.4byte	.LFB83
 5283 0f61 EC000000 		.4byte	.LFE83-.LFB83
 5284 0f65 01       		.uleb128 0x1
 5285 0f66 9C       		.byte	0x9c
 5286 0f67 B4100000 		.4byte	0x10b4
 5287 0f6b 0F       		.uleb128 0xf
 5288 0f6c CF040000 		.4byte	.LASF135
 5289 0f70 01       		.byte	0x1
 5290 0f71 B504     		.2byte	0x4b5
 5291 0f73 9E0A0000 		.4byte	0xa9e
 5292 0f77 CF0F0000 		.4byte	.LLST73
 5293 0f7b 15       		.uleb128 0x15
 5294 0f7c 64657600 		.ascii	"dev\000"
 5295 0f80 01       		.byte	0x1
 5296 0f81 B504     		.2byte	0x4b5
 5297 0f83 67050000 		.4byte	0x567
 5298 0f87 ED0F0000 		.4byte	.LLST74
 5299 0f8b 16       		.uleb128 0x16
 5300 0f8c 31070000 		.4byte	.LASF129
 5301 0f90 01       		.byte	0x1
 5302 0f91 B704     		.2byte	0x4b7
 5303 0f93 C3000000 		.4byte	0xc3
 5304 0f97 01       		.uleb128 0x1
 5305 0f98 56       		.byte	0x56
 5306 0f99 16       		.uleb128 0x16
 5307 0f9a 88040000 		.4byte	.LASF150
 5308 0f9e 01       		.byte	0x1
ARM GAS  C:\Users\adria\AppData\Local\Temp\ccQ3AXqi.s 			page 130


 5309 0f9f B804     		.2byte	0x4b8
 5310 0fa1 B4100000 		.4byte	0x10b4
 5311 0fa5 02       		.uleb128 0x2
 5312 0fa6 91       		.byte	0x91
 5313 0fa7 48       		.sleb128 -56
 5314 0fa8 11       		.uleb128 0x11
 5315 0fa9 C5010000 		.4byte	.LASF116
 5316 0fad 01       		.byte	0x1
 5317 0fae B904     		.2byte	0x4b9
 5318 0fb0 CE000000 		.4byte	0xce
 5319 0fb4 0B100000 		.4byte	.LLST75
 5320 0fb8 11       		.uleb128 0x11
 5321 0fb9 0E060000 		.4byte	.LASF151
 5322 0fbd 01       		.byte	0x1
 5323 0fbe BA04     		.2byte	0x4ba
 5324 0fc0 FA000000 		.4byte	0xfa
 5325 0fc4 1E100000 		.4byte	.LLST76
 5326 0fc8 11       		.uleb128 0x11
 5327 0fc9 E9080000 		.4byte	.LASF152
 5328 0fcd 01       		.byte	0x1
 5329 0fce BB04     		.2byte	0x4bb
 5330 0fd0 FA000000 		.4byte	0xfa
 5331 0fd4 3C100000 		.4byte	.LLST77
 5332 0fd8 11       		.uleb128 0x11
 5333 0fd9 56050000 		.4byte	.LASF153
 5334 0fdd 01       		.byte	0x1
 5335 0fde BC04     		.2byte	0x4bc
 5336 0fe0 E4000000 		.4byte	0xe4
 5337 0fe4 4F100000 		.4byte	.LLST78
 5338 0fe8 11       		.uleb128 0x11
 5339 0fe9 45050000 		.4byte	.LASF154
 5340 0fed 01       		.byte	0x1
 5341 0fee BD04     		.2byte	0x4bd
 5342 0ff0 E4000000 		.4byte	0xe4
 5343 0ff4 62100000 		.4byte	.LLST79
 5344 0ff8 11       		.uleb128 0x11
 5345 0ff9 DC080000 		.4byte	.LASF155
 5346 0ffd 01       		.byte	0x1
 5347 0ffe BE04     		.2byte	0x4be
 5348 1000 CE000000 		.4byte	0xce
 5349 1004 75100000 		.4byte	.LLST80
 5350 1008 1A       		.uleb128 0x1a
 5351 1009 1C000000 		.4byte	.LVL216
 5352 100d C0080000 		.4byte	0x8c0
 5353 1011 1C100000 		.4byte	0x101c
 5354 1015 1B       		.uleb128 0x1b
 5355 1016 01       		.uleb128 0x1
 5356 1017 50       		.byte	0x50
 5357 1018 02       		.uleb128 0x2
 5358 1019 7A       		.byte	0x7a
 5359 101a 00       		.sleb128 0
 5360 101b 00       		.byte	0
 5361 101c 1A       		.uleb128 0x1a
 5362 101d 30000000 		.4byte	.LVL219
 5363 1021 7C0C0000 		.4byte	0xc7c
 5364 1025 40100000 		.4byte	0x1040
 5365 1029 1B       		.uleb128 0x1b
ARM GAS  C:\Users\adria\AppData\Local\Temp\ccQ3AXqi.s 			page 131


 5366 102a 01       		.uleb128 0x1
 5367 102b 50       		.byte	0x50
 5368 102c 01       		.uleb128 0x1
 5369 102d 4D       		.byte	0x4d
 5370 102e 1B       		.uleb128 0x1b
 5371 102f 01       		.uleb128 0x1
 5372 1030 51       		.byte	0x51
 5373 1031 02       		.uleb128 0x2
 5374 1032 7D       		.byte	0x7d
 5375 1033 00       		.sleb128 0
 5376 1034 1B       		.uleb128 0x1b
 5377 1035 01       		.uleb128 0x1
 5378 1036 52       		.byte	0x52
 5379 1037 01       		.uleb128 0x1
 5380 1038 3F       		.byte	0x3f
 5381 1039 1B       		.uleb128 0x1b
 5382 103a 01       		.uleb128 0x1
 5383 103b 53       		.byte	0x53
 5384 103c 02       		.uleb128 0x2
 5385 103d 7A       		.byte	0x7a
 5386 103e 00       		.sleb128 0
 5387 103f 00       		.byte	0
 5388 1040 1A       		.uleb128 0x1a
 5389 1041 AC000000 		.4byte	.LVL226
 5390 1045 F2040000 		.4byte	0x4f2
 5391 1049 54100000 		.4byte	0x1054
 5392 104d 1B       		.uleb128 0x1b
 5393 104e 01       		.uleb128 0x1
 5394 104f 51       		.byte	0x51
 5395 1050 02       		.uleb128 0x2
 5396 1051 7A       		.byte	0x7a
 5397 1052 00       		.sleb128 0
 5398 1053 00       		.byte	0
 5399 1054 1A       		.uleb128 0x1a
 5400 1055 B6000000 		.4byte	.LVL227
 5401 1059 6D050000 		.4byte	0x56d
 5402 105d 6E100000 		.4byte	0x106e
 5403 1061 1B       		.uleb128 0x1b
 5404 1062 01       		.uleb128 0x1
 5405 1063 50       		.byte	0x50
 5406 1064 02       		.uleb128 0x2
 5407 1065 75       		.byte	0x75
 5408 1066 00       		.sleb128 0
 5409 1067 1B       		.uleb128 0x1b
 5410 1068 01       		.uleb128 0x1
 5411 1069 51       		.byte	0x51
 5412 106a 02       		.uleb128 0x2
 5413 106b 7A       		.byte	0x7a
 5414 106c 00       		.sleb128 0
 5415 106d 00       		.byte	0
 5416 106e 1A       		.uleb128 0x1a
 5417 106f C0000000 		.4byte	.LVL228
 5418 1073 F1050000 		.4byte	0x5f1
 5419 1077 88100000 		.4byte	0x1088
 5420 107b 1B       		.uleb128 0x1b
 5421 107c 01       		.uleb128 0x1
 5422 107d 50       		.byte	0x50
ARM GAS  C:\Users\adria\AppData\Local\Temp\ccQ3AXqi.s 			page 132


 5423 107e 02       		.uleb128 0x2
 5424 107f 79       		.byte	0x79
 5425 1080 00       		.sleb128 0
 5426 1081 1B       		.uleb128 0x1b
 5427 1082 01       		.uleb128 0x1
 5428 1083 51       		.byte	0x51
 5429 1084 02       		.uleb128 0x2
 5430 1085 7A       		.byte	0x7a
 5431 1086 00       		.sleb128 0
 5432 1087 00       		.byte	0
 5433 1088 1A       		.uleb128 0x1a
 5434 1089 CC000000 		.4byte	.LVL229
 5435 108d AA060000 		.4byte	0x6aa
 5436 1091 A8100000 		.4byte	0x10a8
 5437 1095 1B       		.uleb128 0x1b
 5438 1096 01       		.uleb128 0x1
 5439 1097 50       		.byte	0x50
 5440 1098 02       		.uleb128 0x2
 5441 1099 78       		.byte	0x78
 5442 109a 00       		.sleb128 0
 5443 109b 1B       		.uleb128 0x1b
 5444 109c 01       		.uleb128 0x1
 5445 109d 51       		.byte	0x51
 5446 109e 02       		.uleb128 0x2
 5447 109f 7B       		.byte	0x7b
 5448 10a0 00       		.sleb128 0
 5449 10a1 1B       		.uleb128 0x1b
 5450 10a2 01       		.uleb128 0x1
 5451 10a3 52       		.byte	0x52
 5452 10a4 02       		.uleb128 0x2
 5453 10a5 7A       		.byte	0x7a
 5454 10a6 00       		.sleb128 0
 5455 10a7 00       		.byte	0
 5456 10a8 25       		.uleb128 0x25
 5457 10a9 D8000000 		.4byte	.LVL232
 5458 10ad 1B       		.uleb128 0x1b
 5459 10ae 01       		.uleb128 0x1
 5460 10af 50       		.byte	0x50
 5461 10b0 01       		.uleb128 0x1
 5462 10b1 3A       		.byte	0x3a
 5463 10b2 00       		.byte	0
 5464 10b3 00       		.byte	0
 5465 10b4 17       		.uleb128 0x17
 5466 10b5 CE000000 		.4byte	0xce
 5467 10b9 C4100000 		.4byte	0x10c4
 5468 10bd 18       		.uleb128 0x18
 5469 10be EB040000 		.4byte	0x4eb
 5470 10c2 0E       		.byte	0xe
 5471 10c3 00       		.byte	0
 5472 10c4 23       		.uleb128 0x23
 5473 10c5 AA000000 		.4byte	.LASF157
 5474 10c9 01       		.byte	0x1
 5475 10ca 5001     		.2byte	0x150
 5476 10cc C3000000 		.4byte	0xc3
 5477 10d0 00000000 		.4byte	.LFB65
 5478 10d4 A8000000 		.4byte	.LFE65-.LFB65
 5479 10d8 01       		.uleb128 0x1
ARM GAS  C:\Users\adria\AppData\Local\Temp\ccQ3AXqi.s 			page 133


 5480 10d9 9C       		.byte	0x9c
 5481 10da B4110000 		.4byte	0x11b4
 5482 10de 0F       		.uleb128 0xf
 5483 10df 1F070000 		.4byte	.LASF132
 5484 10e3 01       		.byte	0x1
 5485 10e4 5001     		.2byte	0x150
 5486 10e6 B4110000 		.4byte	0x11b4
 5487 10ea AA100000 		.4byte	.LLST81
 5488 10ee 0F       		.uleb128 0xf
 5489 10ef 8F020000 		.4byte	.LASF141
 5490 10f3 01       		.byte	0x1
 5491 10f4 5001     		.2byte	0x150
 5492 10f6 B4110000 		.4byte	0x11b4
 5493 10fa C8100000 		.4byte	.LLST82
 5494 10fe 15       		.uleb128 0x15
 5495 10ff 6C656E00 		.ascii	"len\000"
 5496 1103 01       		.byte	0x1
 5497 1104 5001     		.2byte	0x150
 5498 1106 CE000000 		.4byte	0xce
 5499 110a E6100000 		.4byte	.LLST83
 5500 110e 15       		.uleb128 0x15
 5501 110f 64657600 		.ascii	"dev\000"
 5502 1113 01       		.byte	0x1
 5503 1114 5001     		.2byte	0x150
 5504 1116 67050000 		.4byte	0x567
 5505 111a 07110000 		.4byte	.LLST84
 5506 111e 11       		.uleb128 0x11
 5507 111f 31070000 		.4byte	.LASF129
 5508 1123 01       		.byte	0x1
 5509 1124 5201     		.2byte	0x152
 5510 1126 C3000000 		.4byte	0xc3
 5511 112a 25110000 		.4byte	.LLST85
 5512 112e 16       		.uleb128 0x16
 5513 112f 66080000 		.4byte	.LASF158
 5514 1133 01       		.byte	0x1
 5515 1134 5401     		.2byte	0x154
 5516 1136 BF110000 		.4byte	0x11bf
 5517 113a 03       		.uleb128 0x3
 5518 113b 91       		.byte	0x91
 5519 113c B87F     		.sleb128 -72
 5520 113e 11       		.uleb128 0x11
 5521 113f 40020000 		.4byte	.LASF159
 5522 1143 01       		.byte	0x1
 5523 1144 5501     		.2byte	0x155
 5524 1146 E4000000 		.4byte	0xe4
 5525 114a 59110000 		.4byte	.LLST86
 5526 114e 1A       		.uleb128 0x1a
 5527 114f 18000000 		.4byte	.LVL240
 5528 1153 621D0000 		.4byte	0x1d62
 5529 1157 6D110000 		.4byte	0x116d
 5530 115b 1B       		.uleb128 0x1b
 5531 115c 01       		.uleb128 0x1
 5532 115d 50       		.byte	0x50
 5533 115e 02       		.uleb128 0x2
 5534 115f 7D       		.byte	0x7d
 5535 1160 00       		.sleb128 0
 5536 1161 1B       		.uleb128 0x1b
ARM GAS  C:\Users\adria\AppData\Local\Temp\ccQ3AXqi.s 			page 134


 5537 1162 01       		.uleb128 0x1
 5538 1163 51       		.byte	0x51
 5539 1164 01       		.uleb128 0x1
 5540 1165 30       		.byte	0x30
 5541 1166 1B       		.uleb128 0x1b
 5542 1167 01       		.uleb128 0x1
 5543 1168 52       		.byte	0x52
 5544 1169 02       		.uleb128 0x2
 5545 116a 08       		.byte	0x8
 5546 116b 28       		.byte	0x28
 5547 116c 00       		.byte	0
 5548 116d 1A       		.uleb128 0x1a
 5549 116e 1E000000 		.4byte	.LVL241
 5550 1172 C0080000 		.4byte	0x8c0
 5551 1176 81110000 		.4byte	0x1181
 5552 117a 1B       		.uleb128 0x1b
 5553 117b 01       		.uleb128 0x1
 5554 117c 50       		.byte	0x50
 5555 117d 02       		.uleb128 0x2
 5556 117e 75       		.byte	0x75
 5557 117f 00       		.sleb128 0
 5558 1180 00       		.byte	0
 5559 1181 1A       		.uleb128 0x1a
 5560 1182 3E000000 		.4byte	.LVL243
 5561 1186 F9080000 		.4byte	0x8f9
 5562 118a 95110000 		.4byte	0x1195
 5563 118e 1B       		.uleb128 0x1b
 5564 118f 01       		.uleb128 0x1
 5565 1190 51       		.byte	0x51
 5566 1191 02       		.uleb128 0x2
 5567 1192 75       		.byte	0x75
 5568 1193 00       		.sleb128 0
 5569 1194 00       		.byte	0
 5570 1195 1D       		.uleb128 0x1d
 5571 1196 96000000 		.4byte	.LVL250
 5572 119a 02       		.uleb128 0x2
 5573 119b 74       		.byte	0x74
 5574 119c 00       		.sleb128 0
 5575 119d 1B       		.uleb128 0x1b
 5576 119e 01       		.uleb128 0x1
 5577 119f 52       		.byte	0x52
 5578 11a0 03       		.uleb128 0x3
 5579 11a1 91       		.byte	0x91
 5580 11a2 B97F     		.sleb128 -71
 5581 11a4 1B       		.uleb128 0x1b
 5582 11a5 01       		.uleb128 0x1
 5583 11a6 53       		.byte	0x53
 5584 11a7 0A       		.uleb128 0xa
 5585 11a8 77       		.byte	0x77
 5586 11a9 00       		.sleb128 0
 5587 11aa 0A       		.byte	0xa
 5588 11ab FFFF     		.2byte	0xffff
 5589 11ad 1A       		.byte	0x1a
 5590 11ae 31       		.byte	0x31
 5591 11af 24       		.byte	0x24
 5592 11b0 31       		.byte	0x31
 5593 11b1 1C       		.byte	0x1c
ARM GAS  C:\Users\adria\AppData\Local\Temp\ccQ3AXqi.s 			page 135


 5594 11b2 00       		.byte	0
 5595 11b3 00       		.byte	0
 5596 11b4 06       		.uleb128 0x6
 5597 11b5 04       		.byte	0x4
 5598 11b6 BA110000 		.4byte	0x11ba
 5599 11ba 13       		.uleb128 0x13
 5600 11bb CE000000 		.4byte	0xce
 5601 11bf 17       		.uleb128 0x17
 5602 11c0 CE000000 		.4byte	0xce
 5603 11c4 CF110000 		.4byte	0x11cf
 5604 11c8 18       		.uleb128 0x18
 5605 11c9 EB040000 		.4byte	0x4eb
 5606 11cd 27       		.byte	0x27
 5607 11ce 00       		.byte	0
 5608 11cf 0E       		.uleb128 0xe
 5609 11d0 BF060000 		.4byte	.LASF160
 5610 11d4 01       		.byte	0x1
 5611 11d5 2303     		.2byte	0x323
 5612 11d7 C3000000 		.4byte	0xc3
 5613 11db 00000000 		.4byte	.LFB75
 5614 11df 66000000 		.4byte	.LFE75-.LFB75
 5615 11e3 01       		.uleb128 0x1
 5616 11e4 9C       		.byte	0x9c
 5617 11e5 84120000 		.4byte	0x1284
 5618 11e9 15       		.uleb128 0x15
 5619 11ea 64657600 		.ascii	"dev\000"
 5620 11ee 01       		.byte	0x1
 5621 11ef 2303     		.2byte	0x323
 5622 11f1 67050000 		.4byte	0x567
 5623 11f5 82110000 		.4byte	.LLST87
 5624 11f9 11       		.uleb128 0x11
 5625 11fa 31070000 		.4byte	.LASF129
 5626 11fe 01       		.byte	0x1
 5627 11ff 2503     		.2byte	0x325
 5628 1201 C3000000 		.4byte	0xc3
 5629 1205 A0110000 		.4byte	.LLST88
 5630 1209 26       		.uleb128 0x26
 5631 120a 0E000000 		.4byte	.LBB2
 5632 120e 52000000 		.4byte	.LBE2-.LBB2
 5633 1212 73120000 		.4byte	0x1273
 5634 1216 16       		.uleb128 0x16
 5635 1217 1F070000 		.4byte	.LASF132
 5636 121b 01       		.byte	0x1
 5637 121c 2B03     		.2byte	0x32b
 5638 121e 84120000 		.4byte	0x1284
 5639 1222 02       		.uleb128 0x2
 5640 1223 91       		.byte	0x91
 5641 1224 68       		.sleb128 -24
 5642 1225 16       		.uleb128 0x16
 5643 1226 8F020000 		.4byte	.LASF141
 5644 122a 01       		.byte	0x1
 5645 122b 2C03     		.2byte	0x32c
 5646 122d 84120000 		.4byte	0x1284
 5647 1231 02       		.uleb128 0x2
 5648 1232 91       		.byte	0x91
 5649 1233 6C       		.sleb128 -20
 5650 1234 1A       		.uleb128 0x1a
ARM GAS  C:\Users\adria\AppData\Local\Temp\ccQ3AXqi.s 			page 136


 5651 1235 30000000 		.4byte	.LVL255
 5652 1239 63070000 		.4byte	0x763
 5653 123d 48120000 		.4byte	0x1248
 5654 1241 1B       		.uleb128 0x1b
 5655 1242 01       		.uleb128 0x1
 5656 1243 51       		.byte	0x51
 5657 1244 02       		.uleb128 0x2
 5658 1245 75       		.byte	0x75
 5659 1246 00       		.sleb128 0
 5660 1247 00       		.byte	0
 5661 1248 22       		.uleb128 0x22
 5662 1249 42000000 		.4byte	.LVL256
 5663 124d 0C080000 		.4byte	0x80c
 5664 1251 21       		.uleb128 0x21
 5665 1252 5E000000 		.4byte	.LVL259
 5666 1256 C4100000 		.4byte	0x10c4
 5667 125a 1B       		.uleb128 0x1b
 5668 125b 01       		.uleb128 0x1
 5669 125c 50       		.byte	0x50
 5670 125d 02       		.uleb128 0x2
 5671 125e 7D       		.byte	0x7d
 5672 125f 00       		.sleb128 0
 5673 1260 1B       		.uleb128 0x1b
 5674 1261 01       		.uleb128 0x1
 5675 1262 51       		.byte	0x51
 5676 1263 02       		.uleb128 0x2
 5677 1264 91       		.byte	0x91
 5678 1265 6C       		.sleb128 -20
 5679 1266 1B       		.uleb128 0x1b
 5680 1267 01       		.uleb128 0x1
 5681 1268 52       		.byte	0x52
 5682 1269 01       		.uleb128 0x1
 5683 126a 32       		.byte	0x32
 5684 126b 1B       		.uleb128 0x1b
 5685 126c 01       		.uleb128 0x1
 5686 126d 53       		.byte	0x53
 5687 126e 02       		.uleb128 0x2
 5688 126f 75       		.byte	0x75
 5689 1270 00       		.sleb128 0
 5690 1271 00       		.byte	0
 5691 1272 00       		.byte	0
 5692 1273 21       		.uleb128 0x21
 5693 1274 0A000000 		.4byte	.LVL253
 5694 1278 C0080000 		.4byte	0x8c0
 5695 127c 1B       		.uleb128 0x1b
 5696 127d 01       		.uleb128 0x1
 5697 127e 50       		.byte	0x50
 5698 127f 02       		.uleb128 0x2
 5699 1280 75       		.byte	0x75
 5700 1281 00       		.sleb128 0
 5701 1282 00       		.byte	0
 5702 1283 00       		.byte	0
 5703 1284 17       		.uleb128 0x17
 5704 1285 CE000000 		.4byte	0xce
 5705 1289 94120000 		.4byte	0x1294
 5706 128d 18       		.uleb128 0x18
 5707 128e EB040000 		.4byte	0x4eb
ARM GAS  C:\Users\adria\AppData\Local\Temp\ccQ3AXqi.s 			page 137


 5708 1292 01       		.byte	0x1
 5709 1293 00       		.byte	0
 5710 1294 23       		.uleb128 0x23
 5711 1295 6F060000 		.4byte	.LASF161
 5712 1299 01       		.byte	0x1
 5713 129a 7701     		.2byte	0x177
 5714 129c C3000000 		.4byte	0xc3
 5715 12a0 00000000 		.4byte	.LFB66
 5716 12a4 54000000 		.4byte	.LFE66-.LFB66
 5717 12a8 01       		.uleb128 0x1
 5718 12a9 9C       		.byte	0x9c
 5719 12aa 59130000 		.4byte	0x1359
 5720 12ae 15       		.uleb128 0x15
 5721 12af 64657600 		.ascii	"dev\000"
 5722 12b3 01       		.byte	0x1
 5723 12b4 7701     		.2byte	0x177
 5724 12b6 67050000 		.4byte	0x567
 5725 12ba C9110000 		.4byte	.LLST89
 5726 12be 11       		.uleb128 0x11
 5727 12bf 31070000 		.4byte	.LASF129
 5728 12c3 01       		.byte	0x1
 5729 12c4 7901     		.2byte	0x179
 5730 12c6 C3000000 		.4byte	0xc3
 5731 12ca E7110000 		.4byte	.LLST90
 5732 12ce 16       		.uleb128 0x16
 5733 12cf 1F070000 		.4byte	.LASF132
 5734 12d3 01       		.byte	0x1
 5735 12d4 7A01     		.2byte	0x17a
 5736 12d6 CE000000 		.4byte	0xce
 5737 12da 02       		.uleb128 0x2
 5738 12db 91       		.byte	0x91
 5739 12dc 6F       		.sleb128 -17
 5740 12dd 16       		.uleb128 0x16
 5741 12de AB030000 		.4byte	.LASF162
 5742 12e2 01       		.byte	0x1
 5743 12e3 7C01     		.2byte	0x17c
 5744 12e5 CE000000 		.4byte	0xce
 5745 12e9 02       		.uleb128 0x2
 5746 12ea 91       		.byte	0x91
 5747 12eb 6E       		.sleb128 -18
 5748 12ec 1A       		.uleb128 0x1a
 5749 12ed 16000000 		.4byte	.LVL262
 5750 12f1 C0080000 		.4byte	0x8c0
 5751 12f5 00130000 		.4byte	0x1300
 5752 12f9 1B       		.uleb128 0x1b
 5753 12fa 01       		.uleb128 0x1
 5754 12fb 50       		.byte	0x50
 5755 12fc 02       		.uleb128 0x2
 5756 12fd 75       		.byte	0x75
 5757 12fe 00       		.sleb128 0
 5758 12ff 00       		.byte	0
 5759 1300 1A       		.uleb128 0x1a
 5760 1301 24000000 		.4byte	.LVL264
 5761 1305 AF090000 		.4byte	0x9af
 5762 1309 14130000 		.4byte	0x1314
 5763 130d 1B       		.uleb128 0x1b
 5764 130e 01       		.uleb128 0x1
ARM GAS  C:\Users\adria\AppData\Local\Temp\ccQ3AXqi.s 			page 138


 5765 130f 50       		.byte	0x50
 5766 1310 02       		.uleb128 0x2
 5767 1311 75       		.byte	0x75
 5768 1312 00       		.sleb128 0
 5769 1313 00       		.byte	0
 5770 1314 1A       		.uleb128 0x1a
 5771 1315 38000000 		.4byte	.LVL266
 5772 1319 C4100000 		.4byte	0x10c4
 5773 131d 39130000 		.4byte	0x1339
 5774 1321 1B       		.uleb128 0x1b
 5775 1322 01       		.uleb128 0x1
 5776 1323 50       		.byte	0x50
 5777 1324 02       		.uleb128 0x2
 5778 1325 91       		.byte	0x91
 5779 1326 6F       		.sleb128 -17
 5780 1327 1B       		.uleb128 0x1b
 5781 1328 01       		.uleb128 0x1
 5782 1329 51       		.byte	0x51
 5783 132a 02       		.uleb128 0x2
 5784 132b 91       		.byte	0x91
 5785 132c 6E       		.sleb128 -18
 5786 132d 1B       		.uleb128 0x1b
 5787 132e 01       		.uleb128 0x1
 5788 132f 52       		.byte	0x52
 5789 1330 01       		.uleb128 0x1
 5790 1331 31       		.byte	0x31
 5791 1332 1B       		.uleb128 0x1b
 5792 1333 01       		.uleb128 0x1
 5793 1334 53       		.byte	0x53
 5794 1335 02       		.uleb128 0x2
 5795 1336 75       		.byte	0x75
 5796 1337 00       		.sleb128 0
 5797 1338 00       		.byte	0
 5798 1339 27       		.uleb128 0x27
 5799 133a 40000000 		.4byte	.LVL268
 5800 133e 48130000 		.4byte	0x1348
 5801 1342 1B       		.uleb128 0x1b
 5802 1343 01       		.uleb128 0x1
 5803 1344 50       		.byte	0x50
 5804 1345 01       		.uleb128 0x1
 5805 1346 3A       		.byte	0x3a
 5806 1347 00       		.byte	0
 5807 1348 21       		.uleb128 0x21
 5808 1349 4C000000 		.4byte	.LVL269
 5809 134d AF090000 		.4byte	0x9af
 5810 1351 1B       		.uleb128 0x1b
 5811 1352 01       		.uleb128 0x1
 5812 1353 50       		.byte	0x50
 5813 1354 02       		.uleb128 0x2
 5814 1355 75       		.byte	0x75
 5815 1356 00       		.sleb128 0
 5816 1357 00       		.byte	0
 5817 1358 00       		.byte	0
 5818 1359 23       		.uleb128 0x23
 5819 135a 74070000 		.4byte	.LASF163
 5820 135e 01       		.byte	0x1
 5821 135f 1B01     		.2byte	0x11b
ARM GAS  C:\Users\adria\AppData\Local\Temp\ccQ3AXqi.s 			page 139


 5822 1361 C3000000 		.4byte	0xc3
 5823 1365 00000000 		.4byte	.LFB63
 5824 1369 3E000000 		.4byte	.LFE63-.LFB63
 5825 136d 01       		.uleb128 0x1
 5826 136e 9C       		.byte	0x9c
 5827 136f F1130000 		.4byte	0x13f1
 5828 1373 15       		.uleb128 0x15
 5829 1374 64657600 		.ascii	"dev\000"
 5830 1378 01       		.byte	0x1
 5831 1379 1B01     		.2byte	0x11b
 5832 137b 67050000 		.4byte	0x567
 5833 137f 05120000 		.4byte	.LLST91
 5834 1383 11       		.uleb128 0x11
 5835 1384 31070000 		.4byte	.LASF129
 5836 1388 01       		.byte	0x1
 5837 1389 1D01     		.2byte	0x11d
 5838 138b C3000000 		.4byte	0xc3
 5839 138f 23120000 		.4byte	.LLST92
 5840 1393 1A       		.uleb128 0x1a
 5841 1394 08000000 		.4byte	.LVL272
 5842 1398 C0080000 		.4byte	0x8c0
 5843 139c A7130000 		.4byte	0x13a7
 5844 13a0 1B       		.uleb128 0x1b
 5845 13a1 01       		.uleb128 0x1
 5846 13a2 50       		.byte	0x50
 5847 13a3 02       		.uleb128 0x2
 5848 13a4 74       		.byte	0x74
 5849 13a5 00       		.sleb128 0
 5850 13a6 00       		.byte	0
 5851 13a7 1A       		.uleb128 0x1a
 5852 13a8 12000000 		.4byte	.LVL274
 5853 13ac 94120000 		.4byte	0x1294
 5854 13b0 BB130000 		.4byte	0x13bb
 5855 13b4 1B       		.uleb128 0x1b
 5856 13b5 01       		.uleb128 0x1
 5857 13b6 50       		.byte	0x50
 5858 13b7 02       		.uleb128 0x2
 5859 13b8 74       		.byte	0x74
 5860 13b9 00       		.sleb128 0
 5861 13ba 00       		.byte	0
 5862 13bb 1A       		.uleb128 0x1a
 5863 13bc 22000000 		.4byte	.LVL276
 5864 13c0 7C0C0000 		.4byte	0xc7c
 5865 13c4 E0130000 		.4byte	0x13e0
 5866 13c8 1B       		.uleb128 0x1b
 5867 13c9 01       		.uleb128 0x1
 5868 13ca 50       		.byte	0x50
 5869 13cb 02       		.uleb128 0x2
 5870 13cc 09       		.byte	0x9
 5871 13cd D0       		.byte	0xd0
 5872 13ce 1B       		.uleb128 0x1b
 5873 13cf 01       		.uleb128 0x1
 5874 13d0 51       		.byte	0x51
 5875 13d1 02       		.uleb128 0x2
 5876 13d2 74       		.byte	0x74
 5877 13d3 00       		.sleb128 0
 5878 13d4 1B       		.uleb128 0x1b
ARM GAS  C:\Users\adria\AppData\Local\Temp\ccQ3AXqi.s 			page 140


 5879 13d5 01       		.uleb128 0x1
 5880 13d6 52       		.byte	0x52
 5881 13d7 01       		.uleb128 0x1
 5882 13d8 31       		.byte	0x31
 5883 13d9 1B       		.uleb128 0x1b
 5884 13da 01       		.uleb128 0x1
 5885 13db 53       		.byte	0x53
 5886 13dc 02       		.uleb128 0x2
 5887 13dd 74       		.byte	0x74
 5888 13de 00       		.sleb128 0
 5889 13df 00       		.byte	0
 5890 13e0 21       		.uleb128 0x21
 5891 13e1 32000000 		.4byte	.LVL278
 5892 13e5 300D0000 		.4byte	0xd30
 5893 13e9 1B       		.uleb128 0x1b
 5894 13ea 01       		.uleb128 0x1
 5895 13eb 50       		.byte	0x50
 5896 13ec 02       		.uleb128 0x2
 5897 13ed 74       		.byte	0x74
 5898 13ee 00       		.sleb128 0
 5899 13ef 00       		.byte	0
 5900 13f0 00       		.byte	0
 5901 13f1 23       		.uleb128 0x23
 5902 13f2 EB010000 		.4byte	.LASF164
 5903 13f6 01       		.byte	0x1
 5904 13f7 1502     		.2byte	0x215
 5905 13f9 C3000000 		.4byte	0xc3
 5906 13fd 00000000 		.4byte	.LFB68
 5907 1401 B6000000 		.4byte	.LFE68-.LFB68
 5908 1405 01       		.uleb128 0x1
 5909 1406 9C       		.byte	0x9c
 5910 1407 A1140000 		.4byte	0x14a1
 5911 140b 0F       		.uleb128 0xf
 5912 140c A4010000 		.4byte	.LASF165
 5913 1410 01       		.byte	0x1
 5914 1411 1502     		.2byte	0x215
 5915 1413 E4000000 		.4byte	0xe4
 5916 1417 6D120000 		.4byte	.LLST93
 5917 141b 15       		.uleb128 0x15
 5918 141c 64657600 		.ascii	"dev\000"
 5919 1420 01       		.byte	0x1
 5920 1421 1502     		.2byte	0x215
 5921 1423 67050000 		.4byte	0x567
 5922 1427 8E120000 		.4byte	.LLST94
 5923 142b 11       		.uleb128 0x11
 5924 142c 31070000 		.4byte	.LASF129
 5925 1430 01       		.byte	0x1
 5926 1431 1702     		.2byte	0x217
 5927 1433 C3000000 		.4byte	0xc3
 5928 1437 AC120000 		.4byte	.LLST95
 5929 143b 24       		.uleb128 0x24
 5930 143c 1F070000 		.4byte	.LASF132
 5931 1440 01       		.byte	0x1
 5932 1441 1902     		.2byte	0x219
 5933 1443 CE000000 		.4byte	0xce
 5934 1447 70       		.byte	0x70
 5935 1448 16       		.uleb128 0x16
ARM GAS  C:\Users\adria\AppData\Local\Temp\ccQ3AXqi.s 			page 141


 5936 1449 16020000 		.4byte	.LASF166
 5937 144d 01       		.byte	0x1
 5938 144e 1A02     		.2byte	0x21a
 5939 1450 A1140000 		.4byte	0x14a1
 5940 1454 02       		.uleb128 0x2
 5941 1455 91       		.byte	0x91
 5942 1456 68       		.sleb128 -24
 5943 1457 1A       		.uleb128 0x1a
 5944 1458 16000000 		.4byte	.LVL285
 5945 145c C0080000 		.4byte	0x8c0
 5946 1460 6B140000 		.4byte	0x146b
 5947 1464 1B       		.uleb128 0x1b
 5948 1465 01       		.uleb128 0x1
 5949 1466 50       		.byte	0x50
 5950 1467 02       		.uleb128 0x2
 5951 1468 74       		.byte	0x74
 5952 1469 00       		.sleb128 0
 5953 146a 00       		.byte	0
 5954 146b 1A       		.uleb128 0x1a
 5955 146c 26000000 		.4byte	.LVL287
 5956 1470 7C0C0000 		.4byte	0xc7c
 5957 1474 90140000 		.4byte	0x1490
 5958 1478 1B       		.uleb128 0x1b
 5959 1479 01       		.uleb128 0x1
 5960 147a 50       		.byte	0x50
 5961 147b 02       		.uleb128 0x2
 5962 147c 08       		.byte	0x8
 5963 147d 70       		.byte	0x70
 5964 147e 1B       		.uleb128 0x1b
 5965 147f 01       		.uleb128 0x1
 5966 1480 51       		.byte	0x51
 5967 1481 02       		.uleb128 0x2
 5968 1482 7D       		.byte	0x7d
 5969 1483 00       		.sleb128 0
 5970 1484 1B       		.uleb128 0x1b
 5971 1485 01       		.uleb128 0x1
 5972 1486 52       		.byte	0x52
 5973 1487 01       		.uleb128 0x1
 5974 1488 36       		.byte	0x36
 5975 1489 1B       		.uleb128 0x1b
 5976 148a 01       		.uleb128 0x1
 5977 148b 53       		.byte	0x53
 5978 148c 02       		.uleb128 0x2
 5979 148d 74       		.byte	0x74
 5980 148e 00       		.sleb128 0
 5981 148f 00       		.byte	0
 5982 1490 21       		.uleb128 0x21
 5983 1491 3A000000 		.4byte	.LVL289
 5984 1495 790E0000 		.4byte	0xe79
 5985 1499 1B       		.uleb128 0x1b
 5986 149a 01       		.uleb128 0x1
 5987 149b 50       		.byte	0x50
 5988 149c 02       		.uleb128 0x2
 5989 149d 74       		.byte	0x74
 5990 149e 00       		.sleb128 0
 5991 149f 00       		.byte	0
 5992 14a0 00       		.byte	0
ARM GAS  C:\Users\adria\AppData\Local\Temp\ccQ3AXqi.s 			page 142


 5993 14a1 17       		.uleb128 0x17
 5994 14a2 CE000000 		.4byte	0xce
 5995 14a6 B1140000 		.4byte	0x14b1
 5996 14aa 18       		.uleb128 0x18
 5997 14ab EB040000 		.4byte	0x4eb
 5998 14af 05       		.byte	0x5
 5999 14b0 00       		.byte	0
 6000 14b1 23       		.uleb128 0x23
 6001 14b2 42060000 		.4byte	.LASF167
 6002 14b6 01       		.byte	0x1
 6003 14b7 4902     		.2byte	0x249
 6004 14b9 C3000000 		.4byte	0xc3
 6005 14bd 00000000 		.4byte	.LFB69
 6006 14c1 86000000 		.4byte	.LFE69-.LFB69
 6007 14c5 01       		.uleb128 0x1
 6008 14c6 9C       		.byte	0x9c
 6009 14c7 A8150000 		.4byte	0x15a8
 6010 14cb 15       		.uleb128 0x15
 6011 14cc 64657600 		.ascii	"dev\000"
 6012 14d0 01       		.byte	0x1
 6013 14d1 4902     		.2byte	0x249
 6014 14d3 67050000 		.4byte	0x567
 6015 14d7 EB120000 		.4byte	.LLST96
 6016 14db 11       		.uleb128 0x11
 6017 14dc 31070000 		.4byte	.LASF129
 6018 14e0 01       		.byte	0x1
 6019 14e1 4B02     		.2byte	0x24b
 6020 14e3 C3000000 		.4byte	0xc3
 6021 14e7 09130000 		.4byte	.LLST97
 6022 14eb 16       		.uleb128 0x16
 6023 14ec 20090000 		.4byte	.LASF168
 6024 14f0 01       		.byte	0x1
 6025 14f1 4C02     		.2byte	0x24c
 6026 14f3 CE000000 		.4byte	0xce
 6027 14f7 02       		.uleb128 0x2
 6028 14f8 91       		.byte	0x91
 6029 14f9 6F       		.sleb128 -17
 6030 14fa 11       		.uleb128 0x11
 6031 14fb E7050000 		.4byte	.LASF169
 6032 14ff 01       		.byte	0x1
 6033 1500 4D02     		.2byte	0x24d
 6034 1502 CE000000 		.4byte	0xce
 6035 1506 32130000 		.4byte	.LLST98
 6036 150a 16       		.uleb128 0x16
 6037 150b 1F070000 		.4byte	.LASF132
 6038 150f 01       		.byte	0x1
 6039 1510 4E02     		.2byte	0x24e
 6040 1512 CE000000 		.4byte	0xce
 6041 1516 02       		.uleb128 0x2
 6042 1517 91       		.byte	0x91
 6043 1518 6E       		.sleb128 -18
 6044 1519 1A       		.uleb128 0x1a
 6045 151a 10000000 		.4byte	.LVL295
 6046 151e C0080000 		.4byte	0x8c0
 6047 1522 2D150000 		.4byte	0x152d
 6048 1526 1B       		.uleb128 0x1b
 6049 1527 01       		.uleb128 0x1
ARM GAS  C:\Users\adria\AppData\Local\Temp\ccQ3AXqi.s 			page 143


 6050 1528 50       		.byte	0x50
 6051 1529 02       		.uleb128 0x2
 6052 152a 75       		.byte	0x75
 6053 152b 00       		.sleb128 0
 6054 152c 00       		.byte	0
 6055 152d 1A       		.uleb128 0x1a
 6056 152e 24000000 		.4byte	.LVL297
 6057 1532 7C0C0000 		.4byte	0xc7c
 6058 1536 52150000 		.4byte	0x1552
 6059 153a 1B       		.uleb128 0x1b
 6060 153b 01       		.uleb128 0x1
 6061 153c 50       		.byte	0x50
 6062 153d 02       		.uleb128 0x2
 6063 153e 08       		.byte	0x8
 6064 153f 74       		.byte	0x74
 6065 1540 1B       		.uleb128 0x1b
 6066 1541 01       		.uleb128 0x1
 6067 1542 51       		.byte	0x51
 6068 1543 02       		.uleb128 0x2
 6069 1544 91       		.byte	0x91
 6070 1545 6F       		.sleb128 -17
 6071 1546 1B       		.uleb128 0x1b
 6072 1547 01       		.uleb128 0x1
 6073 1548 52       		.byte	0x52
 6074 1549 01       		.uleb128 0x1
 6075 154a 31       		.byte	0x31
 6076 154b 1B       		.uleb128 0x1b
 6077 154c 01       		.uleb128 0x1
 6078 154d 53       		.byte	0x53
 6079 154e 02       		.uleb128 0x2
 6080 154f 75       		.byte	0x75
 6081 1550 00       		.sleb128 0
 6082 1551 00       		.byte	0
 6083 1552 1A       		.uleb128 0x1a
 6084 1553 48000000 		.4byte	.LVL302
 6085 1557 C4100000 		.4byte	0x10c4
 6086 155b 77150000 		.4byte	0x1577
 6087 155f 1B       		.uleb128 0x1b
 6088 1560 01       		.uleb128 0x1
 6089 1561 50       		.byte	0x50
 6090 1562 02       		.uleb128 0x2
 6091 1563 91       		.byte	0x91
 6092 1564 6E       		.sleb128 -18
 6093 1565 1B       		.uleb128 0x1b
 6094 1566 01       		.uleb128 0x1
 6095 1567 51       		.byte	0x51
 6096 1568 02       		.uleb128 0x2
 6097 1569 91       		.byte	0x91
 6098 156a 6F       		.sleb128 -17
 6099 156b 1B       		.uleb128 0x1b
 6100 156c 01       		.uleb128 0x1
 6101 156d 52       		.byte	0x52
 6102 156e 01       		.uleb128 0x1
 6103 156f 31       		.byte	0x31
 6104 1570 1B       		.uleb128 0x1b
 6105 1571 01       		.uleb128 0x1
 6106 1572 53       		.byte	0x53
ARM GAS  C:\Users\adria\AppData\Local\Temp\ccQ3AXqi.s 			page 144


 6107 1573 02       		.uleb128 0x2
 6108 1574 75       		.byte	0x75
 6109 1575 00       		.sleb128 0
 6110 1576 00       		.byte	0
 6111 1577 27       		.uleb128 0x27
 6112 1578 50000000 		.4byte	.LVL304
 6113 157c 86150000 		.4byte	0x1586
 6114 1580 1B       		.uleb128 0x1b
 6115 1581 01       		.uleb128 0x1
 6116 1582 50       		.byte	0x50
 6117 1583 01       		.uleb128 0x1
 6118 1584 3A       		.byte	0x3a
 6119 1585 00       		.byte	0
 6120 1586 21       		.uleb128 0x21
 6121 1587 7E000000 		.4byte	.LVL305
 6122 158b C4100000 		.4byte	0x10c4
 6123 158f 1B       		.uleb128 0x1b
 6124 1590 01       		.uleb128 0x1
 6125 1591 50       		.byte	0x50
 6126 1592 02       		.uleb128 0x2
 6127 1593 91       		.byte	0x91
 6128 1594 6E       		.sleb128 -18
 6129 1595 1B       		.uleb128 0x1b
 6130 1596 01       		.uleb128 0x1
 6131 1597 51       		.byte	0x51
 6132 1598 02       		.uleb128 0x2
 6133 1599 91       		.byte	0x91
 6134 159a 6F       		.sleb128 -17
 6135 159b 1B       		.uleb128 0x1b
 6136 159c 01       		.uleb128 0x1
 6137 159d 52       		.byte	0x52
 6138 159e 01       		.uleb128 0x1
 6139 159f 31       		.byte	0x31
 6140 15a0 1B       		.uleb128 0x1b
 6141 15a1 01       		.uleb128 0x1
 6142 15a2 53       		.byte	0x53
 6143 15a3 02       		.uleb128 0x2
 6144 15a4 75       		.byte	0x75
 6145 15a5 00       		.sleb128 0
 6146 15a6 00       		.byte	0
 6147 15a7 00       		.byte	0
 6148 15a8 23       		.uleb128 0x23
 6149 15a9 62090000 		.4byte	.LASF170
 6150 15ad 01       		.byte	0x1
 6151 15ae 9901     		.2byte	0x199
 6152 15b0 C3000000 		.4byte	0xc3
 6153 15b4 00000000 		.4byte	.LFB67
 6154 15b8 68020000 		.4byte	.LFE67-.LFB67
 6155 15bc 01       		.uleb128 0x1
 6156 15bd 9C       		.byte	0x9c
 6157 15be 3D180000 		.4byte	0x183d
 6158 15c2 0F       		.uleb128 0xf
 6159 15c3 A4010000 		.4byte	.LASF165
 6160 15c7 01       		.byte	0x1
 6161 15c8 9901     		.2byte	0x199
 6162 15ca E4000000 		.4byte	0xe4
 6163 15ce 7C130000 		.4byte	.LLST99
ARM GAS  C:\Users\adria\AppData\Local\Temp\ccQ3AXqi.s 			page 145


 6164 15d2 15       		.uleb128 0x15
 6165 15d3 64657600 		.ascii	"dev\000"
 6166 15d7 01       		.byte	0x1
 6167 15d8 9901     		.2byte	0x199
 6168 15da 67050000 		.4byte	0x567
 6169 15de 9D130000 		.4byte	.LLST100
 6170 15e2 11       		.uleb128 0x11
 6171 15e3 31070000 		.4byte	.LASF129
 6172 15e7 01       		.byte	0x1
 6173 15e8 9B01     		.2byte	0x19b
 6174 15ea C3000000 		.4byte	0xc3
 6175 15ee BB130000 		.4byte	.LLST101
 6176 15f2 11       		.uleb128 0x11
 6177 15f3 1F070000 		.4byte	.LASF132
 6178 15f7 01       		.byte	0x1
 6179 15f8 9C01     		.2byte	0x19c
 6180 15fa CE000000 		.4byte	0xce
 6181 15fe 68140000 		.4byte	.LLST102
 6182 1602 16       		.uleb128 0x16
 6183 1603 CF040000 		.4byte	.LASF135
 6184 1607 01       		.byte	0x1
 6185 1608 9D01     		.2byte	0x19d
 6186 160a CE000000 		.4byte	0xce
 6187 160e 02       		.uleb128 0x2
 6188 160f 91       		.byte	0x91
 6189 1610 67       		.sleb128 -25
 6190 1611 11       		.uleb128 0x11
 6191 1612 5A040000 		.4byte	.LASF171
 6192 1616 01       		.byte	0x1
 6193 1617 9E01     		.2byte	0x19e
 6194 1619 CE000000 		.4byte	0xce
 6195 161d B1140000 		.4byte	.LLST103
 6196 1621 16       		.uleb128 0x16
 6197 1622 09000000 		.4byte	.LASF172
 6198 1626 01       		.byte	0x1
 6199 1627 9F01     		.2byte	0x19f
 6200 1629 A1140000 		.4byte	0x14a1
 6201 162d 02       		.uleb128 0x2
 6202 162e 91       		.byte	0x91
 6203 162f 60       		.sleb128 -32
 6204 1630 16       		.uleb128 0x16
 6205 1631 16020000 		.4byte	.LASF166
 6206 1635 01       		.byte	0x1
 6207 1636 A001     		.2byte	0x1a0
 6208 1638 A1140000 		.4byte	0x14a1
 6209 163c 02       		.uleb128 0x2
 6210 163d 91       		.byte	0x91
 6211 163e 58       		.sleb128 -40
 6212 163f 16       		.uleb128 0x16
 6213 1640 43070000 		.4byte	.LASF173
 6214 1644 01       		.byte	0x1
 6215 1645 A101     		.2byte	0x1a1
 6216 1647 CE000000 		.4byte	0xce
 6217 164b 01       		.uleb128 0x1
 6218 164c 57       		.byte	0x57
 6219 164d 1A       		.uleb128 0x1a
 6220 164e 24000000 		.4byte	.LVL311
ARM GAS  C:\Users\adria\AppData\Local\Temp\ccQ3AXqi.s 			page 146


 6221 1652 C0080000 		.4byte	0x8c0
 6222 1656 61160000 		.4byte	0x1661
 6223 165a 1B       		.uleb128 0x1b
 6224 165b 01       		.uleb128 0x1
 6225 165c 50       		.byte	0x50
 6226 165d 02       		.uleb128 0x2
 6227 165e 74       		.byte	0x74
 6228 165f 00       		.sleb128 0
 6229 1660 00       		.byte	0
 6230 1661 1A       		.uleb128 0x1a
 6231 1662 3A000000 		.4byte	.LVL313
 6232 1666 CF110000 		.4byte	0x11cf
 6233 166a 75160000 		.4byte	0x1675
 6234 166e 1B       		.uleb128 0x1b
 6235 166f 01       		.uleb128 0x1
 6236 1670 50       		.byte	0x50
 6237 1671 02       		.uleb128 0x2
 6238 1672 74       		.byte	0x74
 6239 1673 00       		.sleb128 0
 6240 1674 00       		.byte	0
 6241 1675 1A       		.uleb128 0x1a
 6242 1676 4A000000 		.4byte	.LVL315
 6243 167a B1140000 		.4byte	0x14b1
 6244 167e 89160000 		.4byte	0x1689
 6245 1682 1B       		.uleb128 0x1b
 6246 1683 01       		.uleb128 0x1
 6247 1684 50       		.byte	0x50
 6248 1685 02       		.uleb128 0x2
 6249 1686 74       		.byte	0x74
 6250 1687 00       		.sleb128 0
 6251 1688 00       		.byte	0
 6252 1689 1A       		.uleb128 0x1a
 6253 168a 62000000 		.4byte	.LVL318
 6254 168e 57080000 		.4byte	0x857
 6255 1692 AD160000 		.4byte	0x16ad
 6256 1696 1B       		.uleb128 0x1b
 6257 1697 01       		.uleb128 0x1
 6258 1698 50       		.byte	0x50
 6259 1699 02       		.uleb128 0x2
 6260 169a 74       		.byte	0x74
 6261 169b 3B       		.sleb128 59
 6262 169c 1B       		.uleb128 0x1b
 6263 169d 01       		.uleb128 0x1
 6264 169e 51       		.byte	0x51
 6265 169f 01       		.uleb128 0x1
 6266 16a0 30       		.byte	0x30
 6267 16a1 1B       		.uleb128 0x1b
 6268 16a2 01       		.uleb128 0x1
 6269 16a3 52       		.byte	0x52
 6270 16a4 01       		.uleb128 0x1
 6271 16a5 37       		.byte	0x37
 6272 16a6 1B       		.uleb128 0x1b
 6273 16a7 01       		.uleb128 0x1
 6274 16a8 53       		.byte	0x53
 6275 16a9 02       		.uleb128 0x2
 6276 16aa 74       		.byte	0x74
 6277 16ab 00       		.sleb128 0
ARM GAS  C:\Users\adria\AppData\Local\Temp\ccQ3AXqi.s 			page 147


 6278 16ac 00       		.byte	0
 6279 16ad 1A       		.uleb128 0x1a
 6280 16ae 74000000 		.4byte	.LVL320
 6281 16b2 7C0C0000 		.4byte	0xc7c
 6282 16b6 D2160000 		.4byte	0x16d2
 6283 16ba 1B       		.uleb128 0x1b
 6284 16bb 01       		.uleb128 0x1
 6285 16bc 50       		.byte	0x50
 6286 16bd 02       		.uleb128 0x2
 6287 16be 08       		.byte	0x8
 6288 16bf 75       		.byte	0x75
 6289 16c0 1B       		.uleb128 0x1b
 6290 16c1 01       		.uleb128 0x1
 6291 16c2 51       		.byte	0x51
 6292 16c3 02       		.uleb128 0x2
 6293 16c4 91       		.byte	0x91
 6294 16c5 67       		.sleb128 -25
 6295 16c6 1B       		.uleb128 0x1b
 6296 16c7 01       		.uleb128 0x1
 6297 16c8 52       		.byte	0x52
 6298 16c9 01       		.uleb128 0x1
 6299 16ca 31       		.byte	0x31
 6300 16cb 1B       		.uleb128 0x1b
 6301 16cc 01       		.uleb128 0x1
 6302 16cd 53       		.byte	0x53
 6303 16ce 02       		.uleb128 0x2
 6304 16cf 74       		.byte	0x74
 6305 16d0 00       		.sleb128 0
 6306 16d1 00       		.byte	0
 6307 16d2 1A       		.uleb128 0x1a
 6308 16d3 BA000000 		.4byte	.LVL326
 6309 16d7 57080000 		.4byte	0x857
 6310 16db F6160000 		.4byte	0x16f6
 6311 16df 1B       		.uleb128 0x1b
 6312 16e0 01       		.uleb128 0x1
 6313 16e1 50       		.byte	0x50
 6314 16e2 02       		.uleb128 0x2
 6315 16e3 74       		.byte	0x74
 6316 16e4 3D       		.sleb128 61
 6317 16e5 1B       		.uleb128 0x1b
 6318 16e6 01       		.uleb128 0x1
 6319 16e7 51       		.byte	0x51
 6320 16e8 01       		.uleb128 0x1
 6321 16e9 30       		.byte	0x30
 6322 16ea 1B       		.uleb128 0x1b
 6323 16eb 01       		.uleb128 0x1
 6324 16ec 52       		.byte	0x52
 6325 16ed 01       		.uleb128 0x1
 6326 16ee 38       		.byte	0x38
 6327 16ef 1B       		.uleb128 0x1b
 6328 16f0 01       		.uleb128 0x1
 6329 16f1 53       		.byte	0x53
 6330 16f2 02       		.uleb128 0x2
 6331 16f3 74       		.byte	0x74
 6332 16f4 00       		.sleb128 0
 6333 16f5 00       		.byte	0
 6334 16f6 1A       		.uleb128 0x1a
ARM GAS  C:\Users\adria\AppData\Local\Temp\ccQ3AXqi.s 			page 148


 6335 16f7 CC000000 		.4byte	.LVL328
 6336 16fb 7C0C0000 		.4byte	0xc7c
 6337 16ff 1B170000 		.4byte	0x171b
 6338 1703 1B       		.uleb128 0x1b
 6339 1704 01       		.uleb128 0x1
 6340 1705 50       		.byte	0x50
 6341 1706 02       		.uleb128 0x2
 6342 1707 08       		.byte	0x8
 6343 1708 70       		.byte	0x70
 6344 1709 1B       		.uleb128 0x1b
 6345 170a 01       		.uleb128 0x1
 6346 170b 51       		.byte	0x51
 6347 170c 02       		.uleb128 0x2
 6348 170d 91       		.byte	0x91
 6349 170e 67       		.sleb128 -25
 6350 170f 1B       		.uleb128 0x1b
 6351 1710 01       		.uleb128 0x1
 6352 1711 52       		.byte	0x52
 6353 1712 01       		.uleb128 0x1
 6354 1713 31       		.byte	0x31
 6355 1714 1B       		.uleb128 0x1b
 6356 1715 01       		.uleb128 0x1
 6357 1716 53       		.byte	0x53
 6358 1717 02       		.uleb128 0x2
 6359 1718 74       		.byte	0x74
 6360 1719 00       		.sleb128 0
 6361 171a 00       		.byte	0
 6362 171b 1A       		.uleb128 0x1a
 6363 171c 0A010000 		.4byte	.LVL333
 6364 1720 57080000 		.4byte	0x857
 6365 1724 3F170000 		.4byte	0x173f
 6366 1728 1B       		.uleb128 0x1b
 6367 1729 01       		.uleb128 0x1
 6368 172a 50       		.byte	0x50
 6369 172b 02       		.uleb128 0x2
 6370 172c 74       		.byte	0x74
 6371 172d 39       		.sleb128 57
 6372 172e 1B       		.uleb128 0x1b
 6373 172f 01       		.uleb128 0x1
 6374 1730 51       		.byte	0x51
 6375 1731 01       		.uleb128 0x1
 6376 1732 30       		.byte	0x30
 6377 1733 1B       		.uleb128 0x1b
 6378 1734 01       		.uleb128 0x1
 6379 1735 52       		.byte	0x52
 6380 1736 01       		.uleb128 0x1
 6381 1737 35       		.byte	0x35
 6382 1738 1B       		.uleb128 0x1b
 6383 1739 01       		.uleb128 0x1
 6384 173a 53       		.byte	0x53
 6385 173b 02       		.uleb128 0x2
 6386 173c 74       		.byte	0x74
 6387 173d 00       		.sleb128 0
 6388 173e 00       		.byte	0
 6389 173f 1A       		.uleb128 0x1a
 6390 1740 1C010000 		.4byte	.LVL335
 6391 1744 7C0C0000 		.4byte	0xc7c
ARM GAS  C:\Users\adria\AppData\Local\Temp\ccQ3AXqi.s 			page 149


 6392 1748 64170000 		.4byte	0x1764
 6393 174c 1B       		.uleb128 0x1b
 6394 174d 01       		.uleb128 0x1
 6395 174e 50       		.byte	0x50
 6396 174f 02       		.uleb128 0x2
 6397 1750 08       		.byte	0x8
 6398 1751 74       		.byte	0x74
 6399 1752 1B       		.uleb128 0x1b
 6400 1753 01       		.uleb128 0x1
 6401 1754 51       		.byte	0x51
 6402 1755 02       		.uleb128 0x2
 6403 1756 91       		.byte	0x91
 6404 1757 67       		.sleb128 -25
 6405 1758 1B       		.uleb128 0x1b
 6406 1759 01       		.uleb128 0x1
 6407 175a 52       		.byte	0x52
 6408 175b 01       		.uleb128 0x1
 6409 175c 31       		.byte	0x31
 6410 175d 1B       		.uleb128 0x1b
 6411 175e 01       		.uleb128 0x1
 6412 175f 53       		.byte	0x53
 6413 1760 02       		.uleb128 0x2
 6414 1761 74       		.byte	0x74
 6415 1762 00       		.sleb128 0
 6416 1763 00       		.byte	0
 6417 1764 1A       		.uleb128 0x1a
 6418 1765 84010000 		.4byte	.LVL340
 6419 1769 57080000 		.4byte	0x857
 6420 176d 88170000 		.4byte	0x1788
 6421 1771 1B       		.uleb128 0x1b
 6422 1772 01       		.uleb128 0x1
 6423 1773 50       		.byte	0x50
 6424 1774 02       		.uleb128 0x2
 6425 1775 74       		.byte	0x74
 6426 1776 38       		.sleb128 56
 6427 1777 1B       		.uleb128 0x1b
 6428 1778 01       		.uleb128 0x1
 6429 1779 51       		.byte	0x51
 6430 177a 01       		.uleb128 0x1
 6431 177b 30       		.byte	0x30
 6432 177c 1B       		.uleb128 0x1b
 6433 177d 01       		.uleb128 0x1
 6434 177e 52       		.byte	0x52
 6435 177f 01       		.uleb128 0x1
 6436 1780 35       		.byte	0x35
 6437 1781 1B       		.uleb128 0x1b
 6438 1782 01       		.uleb128 0x1
 6439 1783 53       		.byte	0x53
 6440 1784 02       		.uleb128 0x2
 6441 1785 74       		.byte	0x74
 6442 1786 00       		.sleb128 0
 6443 1787 00       		.byte	0
 6444 1788 1A       		.uleb128 0x1a
 6445 1789 96010000 		.4byte	.LVL342
 6446 178d 7C0C0000 		.4byte	0xc7c
 6447 1791 AD170000 		.4byte	0x17ad
 6448 1795 1B       		.uleb128 0x1b
ARM GAS  C:\Users\adria\AppData\Local\Temp\ccQ3AXqi.s 			page 150


 6449 1796 01       		.uleb128 0x1
 6450 1797 50       		.byte	0x50
 6451 1798 02       		.uleb128 0x2
 6452 1799 08       		.byte	0x8
 6453 179a 72       		.byte	0x72
 6454 179b 1B       		.uleb128 0x1b
 6455 179c 01       		.uleb128 0x1
 6456 179d 51       		.byte	0x51
 6457 179e 02       		.uleb128 0x2
 6458 179f 91       		.byte	0x91
 6459 17a0 67       		.sleb128 -25
 6460 17a1 1B       		.uleb128 0x1b
 6461 17a2 01       		.uleb128 0x1
 6462 17a3 52       		.byte	0x52
 6463 17a4 01       		.uleb128 0x1
 6464 17a5 31       		.byte	0x31
 6465 17a6 1B       		.uleb128 0x1b
 6466 17a7 01       		.uleb128 0x1
 6467 17a8 53       		.byte	0x53
 6468 17a9 02       		.uleb128 0x2
 6469 17aa 74       		.byte	0x74
 6470 17ab 00       		.sleb128 0
 6471 17ac 00       		.byte	0
 6472 17ad 1A       		.uleb128 0x1a
 6473 17ae D4010000 		.4byte	.LVL347
 6474 17b2 57080000 		.4byte	0x857
 6475 17b6 D1170000 		.4byte	0x17d1
 6476 17ba 1B       		.uleb128 0x1b
 6477 17bb 01       		.uleb128 0x1
 6478 17bc 50       		.byte	0x50
 6479 17bd 02       		.uleb128 0x2
 6480 17be 74       		.byte	0x74
 6481 17bf 3E       		.sleb128 62
 6482 17c0 1B       		.uleb128 0x1b
 6483 17c1 01       		.uleb128 0x1
 6484 17c2 51       		.byte	0x51
 6485 17c3 01       		.uleb128 0x1
 6486 17c4 30       		.byte	0x30
 6487 17c5 1B       		.uleb128 0x1b
 6488 17c6 01       		.uleb128 0x1
 6489 17c7 52       		.byte	0x52
 6490 17c8 01       		.uleb128 0x1
 6491 17c9 31       		.byte	0x31
 6492 17ca 1B       		.uleb128 0x1b
 6493 17cb 01       		.uleb128 0x1
 6494 17cc 53       		.byte	0x53
 6495 17cd 02       		.uleb128 0x2
 6496 17ce 74       		.byte	0x74
 6497 17cf 00       		.sleb128 0
 6498 17d0 00       		.byte	0
 6499 17d1 1A       		.uleb128 0x1a
 6500 17d2 E6010000 		.4byte	.LVL349
 6501 17d6 57080000 		.4byte	0x857
 6502 17da F5170000 		.4byte	0x17f5
 6503 17de 1B       		.uleb128 0x1b
 6504 17df 01       		.uleb128 0x1
 6505 17e0 50       		.byte	0x50
ARM GAS  C:\Users\adria\AppData\Local\Temp\ccQ3AXqi.s 			page 151


 6506 17e1 02       		.uleb128 0x2
 6507 17e2 74       		.byte	0x74
 6508 17e3 3C       		.sleb128 60
 6509 17e4 1B       		.uleb128 0x1b
 6510 17e5 01       		.uleb128 0x1
 6511 17e6 51       		.byte	0x51
 6512 17e7 01       		.uleb128 0x1
 6513 17e8 30       		.byte	0x30
 6514 17e9 1B       		.uleb128 0x1b
 6515 17ea 01       		.uleb128 0x1
 6516 17eb 52       		.byte	0x52
 6517 17ec 01       		.uleb128 0x1
 6518 17ed 3A       		.byte	0x3a
 6519 17ee 1B       		.uleb128 0x1b
 6520 17ef 01       		.uleb128 0x1
 6521 17f0 53       		.byte	0x53
 6522 17f1 02       		.uleb128 0x2
 6523 17f2 74       		.byte	0x74
 6524 17f3 00       		.sleb128 0
 6525 17f4 00       		.byte	0
 6526 17f5 1A       		.uleb128 0x1a
 6527 17f6 F8010000 		.4byte	.LVL352
 6528 17fa 7C0C0000 		.4byte	0xc7c
 6529 17fe 1A180000 		.4byte	0x181a
 6530 1802 1B       		.uleb128 0x1b
 6531 1803 01       		.uleb128 0x1
 6532 1804 50       		.byte	0x50
 6533 1805 02       		.uleb128 0x2
 6534 1806 08       		.byte	0x8
 6535 1807 71       		.byte	0x71
 6536 1808 1B       		.uleb128 0x1b
 6537 1809 01       		.uleb128 0x1
 6538 180a 51       		.byte	0x51
 6539 180b 02       		.uleb128 0x2
 6540 180c 91       		.byte	0x91
 6541 180d 67       		.sleb128 -25
 6542 180e 1B       		.uleb128 0x1b
 6543 180f 01       		.uleb128 0x1
 6544 1810 52       		.byte	0x52
 6545 1811 01       		.uleb128 0x1
 6546 1812 31       		.byte	0x31
 6547 1813 1B       		.uleb128 0x1b
 6548 1814 01       		.uleb128 0x1
 6549 1815 53       		.byte	0x53
 6550 1816 02       		.uleb128 0x2
 6551 1817 74       		.byte	0x74
 6552 1818 00       		.sleb128 0
 6553 1819 00       		.byte	0
 6554 181a 21       		.uleb128 0x21
 6555 181b 5C020000 		.4byte	.LVL357
 6556 181f C4100000 		.4byte	0x10c4
 6557 1823 1B       		.uleb128 0x1b
 6558 1824 01       		.uleb128 0x1
 6559 1825 50       		.byte	0x50
 6560 1826 02       		.uleb128 0x2
 6561 1827 91       		.byte	0x91
 6562 1828 60       		.sleb128 -32
ARM GAS  C:\Users\adria\AppData\Local\Temp\ccQ3AXqi.s 			page 152


 6563 1829 1B       		.uleb128 0x1b
 6564 182a 01       		.uleb128 0x1
 6565 182b 51       		.byte	0x51
 6566 182c 02       		.uleb128 0x2
 6567 182d 7D       		.byte	0x7d
 6568 182e 00       		.sleb128 0
 6569 182f 1B       		.uleb128 0x1b
 6570 1830 01       		.uleb128 0x1
 6571 1831 52       		.byte	0x52
 6572 1832 02       		.uleb128 0x2
 6573 1833 76       		.byte	0x76
 6574 1834 00       		.sleb128 0
 6575 1835 1B       		.uleb128 0x1b
 6576 1836 01       		.uleb128 0x1
 6577 1837 53       		.byte	0x53
 6578 1838 02       		.uleb128 0x2
 6579 1839 74       		.byte	0x74
 6580 183a 00       		.sleb128 0
 6581 183b 00       		.byte	0
 6582 183c 00       		.byte	0
 6583 183d 23       		.uleb128 0x23
 6584 183e A3020000 		.4byte	.LASF174
 6585 1842 01       		.byte	0x1
 6586 1843 7002     		.2byte	0x270
 6587 1845 C3000000 		.4byte	0xc3
 6588 1849 00000000 		.4byte	.LFB70
 6589 184d 30000000 		.4byte	.LFE70-.LFB70
 6590 1851 01       		.uleb128 0x1
 6591 1852 9C       		.byte	0x9c
 6592 1853 BC180000 		.4byte	0x18bc
 6593 1857 15       		.uleb128 0x15
 6594 1858 64657600 		.ascii	"dev\000"
 6595 185c 01       		.byte	0x1
 6596 185d 7002     		.2byte	0x270
 6597 185f 67050000 		.4byte	0x567
 6598 1863 14150000 		.4byte	.LLST104
 6599 1867 11       		.uleb128 0x11
 6600 1868 31070000 		.4byte	.LASF129
 6601 186c 01       		.byte	0x1
 6602 186d 7202     		.2byte	0x272
 6603 186f C3000000 		.4byte	0xc3
 6604 1873 32150000 		.4byte	.LLST105
 6605 1877 16       		.uleb128 0x16
 6606 1878 53010000 		.4byte	.LASF175
 6607 187c 01       		.byte	0x1
 6608 187d 7302     		.2byte	0x273
 6609 187f CE000000 		.4byte	0xce
 6610 1883 02       		.uleb128 0x2
 6611 1884 91       		.byte	0x91
 6612 1885 77       		.sleb128 -9
 6613 1886 1A       		.uleb128 0x1a
 6614 1887 0A000000 		.4byte	.LVL361
 6615 188b C0080000 		.4byte	0x8c0
 6616 188f 9A180000 		.4byte	0x189a
 6617 1893 1B       		.uleb128 0x1b
 6618 1894 01       		.uleb128 0x1
 6619 1895 50       		.byte	0x50
ARM GAS  C:\Users\adria\AppData\Local\Temp\ccQ3AXqi.s 			page 153


 6620 1896 02       		.uleb128 0x2
 6621 1897 74       		.byte	0x74
 6622 1898 00       		.sleb128 0
 6623 1899 00       		.byte	0
 6624 189a 21       		.uleb128 0x21
 6625 189b 1C000000 		.4byte	.LVL363
 6626 189f 7C0C0000 		.4byte	0xc7c
 6627 18a3 1B       		.uleb128 0x1b
 6628 18a4 01       		.uleb128 0x1
 6629 18a5 50       		.byte	0x50
 6630 18a6 02       		.uleb128 0x2
 6631 18a7 08       		.byte	0x8
 6632 18a8 74       		.byte	0x74
 6633 18a9 1B       		.uleb128 0x1b
 6634 18aa 01       		.uleb128 0x1
 6635 18ab 51       		.byte	0x51
 6636 18ac 02       		.uleb128 0x2
 6637 18ad 91       		.byte	0x91
 6638 18ae 77       		.sleb128 -9
 6639 18af 1B       		.uleb128 0x1b
 6640 18b0 01       		.uleb128 0x1
 6641 18b1 52       		.byte	0x52
 6642 18b2 01       		.uleb128 0x1
 6643 18b3 31       		.byte	0x31
 6644 18b4 1B       		.uleb128 0x1b
 6645 18b5 01       		.uleb128 0x1
 6646 18b6 53       		.byte	0x53
 6647 18b7 02       		.uleb128 0x2
 6648 18b8 74       		.byte	0x74
 6649 18b9 00       		.sleb128 0
 6650 18ba 00       		.byte	0
 6651 18bb 00       		.byte	0
 6652 18bc 28       		.uleb128 0x28
 6653 18bd 43040000 		.4byte	.LASF180
 6654 18c1 01       		.byte	0x1
 6655 18c2 8302     		.2byte	0x283
 6656 18c4 00000000 		.4byte	.LFB71
 6657 18c8 64000000 		.4byte	.LFE71-.LFB71
 6658 18cc 01       		.uleb128 0x1
 6659 18cd 9C       		.byte	0x9c
 6660 18ce 20190000 		.4byte	0x1920
 6661 18d2 0F       		.uleb128 0xf
 6662 18d3 46020000 		.4byte	.LASF176
 6663 18d7 01       		.byte	0x1
 6664 18d8 8302     		.2byte	0x283
 6665 18da E4000000 		.4byte	0xe4
 6666 18de 50150000 		.4byte	.LLST106
 6667 18e2 10       		.uleb128 0x10
 6668 18e3 64657600 		.ascii	"dev\000"
 6669 18e7 01       		.byte	0x1
 6670 18e8 8302     		.2byte	0x283
 6671 18ea 67050000 		.4byte	0x567
 6672 18ee 01       		.uleb128 0x1
 6673 18ef 51       		.byte	0x51
 6674 18f0 11       		.uleb128 0x11
 6675 18f1 30000000 		.4byte	.LASF177
 6676 18f5 01       		.byte	0x1
ARM GAS  C:\Users\adria\AppData\Local\Temp\ccQ3AXqi.s 			page 154


 6677 18f6 8502     		.2byte	0x285
 6678 18f8 FA000000 		.4byte	0xfa
 6679 18fc 71150000 		.4byte	.LLST107
 6680 1900 11       		.uleb128 0x11
 6681 1901 14090000 		.4byte	.LASF178
 6682 1905 01       		.byte	0x1
 6683 1906 8602     		.2byte	0x286
 6684 1908 FA000000 		.4byte	0xfa
 6685 190c A4160000 		.4byte	.LLST108
 6686 1910 16       		.uleb128 0x16
 6687 1911 BC050000 		.4byte	.LASF179
 6688 1915 01       		.byte	0x1
 6689 1916 8702     		.2byte	0x287
 6690 1918 A1140000 		.4byte	0x14a1
 6691 191c 02       		.uleb128 0x2
 6692 191d 91       		.byte	0x91
 6693 191e 70       		.sleb128 -16
 6694 191f 00       		.byte	0
 6695 1920 28       		.uleb128 0x28
 6696 1921 BA000000 		.4byte	.LASF181
 6697 1925 01       		.byte	0x1
 6698 1926 9C02     		.2byte	0x29c
 6699 1928 00000000 		.4byte	.LFB72
 6700 192c 70000000 		.4byte	.LFE72-.LFB72
 6701 1930 01       		.uleb128 0x1
 6702 1931 9C       		.byte	0x9c
 6703 1932 84190000 		.4byte	0x1984
 6704 1936 0F       		.uleb128 0xf
 6705 1937 46020000 		.4byte	.LASF176
 6706 193b 01       		.byte	0x1
 6707 193c 9C02     		.2byte	0x29c
 6708 193e 84190000 		.4byte	0x1984
 6709 1942 37170000 		.4byte	.LLST109
 6710 1946 10       		.uleb128 0x10
 6711 1947 64657600 		.ascii	"dev\000"
 6712 194b 01       		.byte	0x1
 6713 194c 9C02     		.2byte	0x29c
 6714 194e E6050000 		.4byte	0x5e6
 6715 1952 01       		.uleb128 0x1
 6716 1953 51       		.byte	0x51
 6717 1954 11       		.uleb128 0x11
 6718 1955 30000000 		.4byte	.LASF177
 6719 1959 01       		.byte	0x1
 6720 195a 9E02     		.2byte	0x29e
 6721 195c FA000000 		.4byte	0xfa
 6722 1960 63170000 		.4byte	.LLST110
 6723 1964 11       		.uleb128 0x11
 6724 1965 14090000 		.4byte	.LASF178
 6725 1969 01       		.byte	0x1
 6726 196a 9F02     		.2byte	0x29f
 6727 196c FA000000 		.4byte	0xfa
 6728 1970 38180000 		.4byte	.LLST111
 6729 1974 16       		.uleb128 0x16
 6730 1975 BC050000 		.4byte	.LASF179
 6731 1979 01       		.byte	0x1
 6732 197a A002     		.2byte	0x2a0
 6733 197c A1140000 		.4byte	0x14a1
ARM GAS  C:\Users\adria\AppData\Local\Temp\ccQ3AXqi.s 			page 155


 6734 1980 02       		.uleb128 0x2
 6735 1981 91       		.byte	0x91
 6736 1982 70       		.sleb128 -16
 6737 1983 00       		.byte	0
 6738 1984 06       		.uleb128 0x6
 6739 1985 04       		.byte	0x4
 6740 1986 E4000000 		.4byte	0xe4
 6741 198a 23       		.uleb128 0x23
 6742 198b 46080000 		.4byte	.LASF182
 6743 198f 01       		.byte	0x1
 6744 1990 BD02     		.2byte	0x2bd
 6745 1992 C3000000 		.4byte	0xc3
 6746 1996 00000000 		.4byte	.LFB73
 6747 199a 36000000 		.4byte	.LFE73-.LFB73
 6748 199e 01       		.uleb128 0x1
 6749 199f 9C       		.byte	0x9c
 6750 19a0 FF190000 		.4byte	0x19ff
 6751 19a4 0F       		.uleb128 0xf
 6752 19a5 CF040000 		.4byte	.LASF135
 6753 19a9 01       		.byte	0x1
 6754 19aa BD02     		.2byte	0x2bd
 6755 19ac 9E0A0000 		.4byte	0xa9e
 6756 19b0 96180000 		.4byte	.LLST112
 6757 19b4 15       		.uleb128 0x15
 6758 19b5 64657600 		.ascii	"dev\000"
 6759 19b9 01       		.byte	0x1
 6760 19ba BD02     		.2byte	0x2bd
 6761 19bc 67050000 		.4byte	0x567
 6762 19c0 B4180000 		.4byte	.LLST113
 6763 19c4 11       		.uleb128 0x11
 6764 19c5 31070000 		.4byte	.LASF129
 6765 19c9 01       		.byte	0x1
 6766 19ca BF02     		.2byte	0x2bf
 6767 19cc C3000000 		.4byte	0xc3
 6768 19d0 D2180000 		.4byte	.LLST114
 6769 19d4 1A       		.uleb128 0x1a
 6770 19d5 0C000000 		.4byte	.LVL393
 6771 19d9 C0080000 		.4byte	0x8c0
 6772 19dd E8190000 		.4byte	0x19e8
 6773 19e1 1B       		.uleb128 0x1b
 6774 19e2 01       		.uleb128 0x1
 6775 19e3 50       		.byte	0x50
 6776 19e4 02       		.uleb128 0x2
 6777 19e5 74       		.byte	0x74
 6778 19e6 00       		.sleb128 0
 6779 19e7 00       		.byte	0
 6780 19e8 21       		.uleb128 0x21
 6781 19e9 18000000 		.4byte	.LVL395
 6782 19ed 510F0000 		.4byte	0xf51
 6783 19f1 1B       		.uleb128 0x1b
 6784 19f2 01       		.uleb128 0x1
 6785 19f3 50       		.byte	0x50
 6786 19f4 02       		.uleb128 0x2
 6787 19f5 75       		.byte	0x75
 6788 19f6 00       		.sleb128 0
 6789 19f7 1B       		.uleb128 0x1b
 6790 19f8 01       		.uleb128 0x1
ARM GAS  C:\Users\adria\AppData\Local\Temp\ccQ3AXqi.s 			page 156


 6791 19f9 51       		.byte	0x51
 6792 19fa 02       		.uleb128 0x2
 6793 19fb 74       		.byte	0x74
 6794 19fc 00       		.sleb128 0
 6795 19fd 00       		.byte	0
 6796 19fe 00       		.byte	0
 6797 19ff 29       		.uleb128 0x29
 6798 1a00 4B000000 		.4byte	.LASF183
 6799 1a04 01       		.byte	0x1
 6800 1a05 6405     		.2byte	0x564
 6801 1a07 C3000000 		.4byte	0xc3
 6802 1a0b 00000000 		.4byte	.LFB88
 6803 1a0f C2000000 		.4byte	.LFE88-.LFB88
 6804 1a13 01       		.uleb128 0x1
 6805 1a14 9C       		.byte	0x9c
 6806 1a15 311B0000 		.4byte	0x1b31
 6807 1a19 15       		.uleb128 0x15
 6808 1a1a 64657600 		.ascii	"dev\000"
 6809 1a1e 01       		.byte	0x1
 6810 1a1f 6405     		.2byte	0x564
 6811 1a21 67050000 		.4byte	0x567
 6812 1a25 FB180000 		.4byte	.LLST115
 6813 1a29 11       		.uleb128 0x11
 6814 1a2a 31070000 		.4byte	.LASF129
 6815 1a2e 01       		.byte	0x1
 6816 1a2f 6605     		.2byte	0x566
 6817 1a31 C3000000 		.4byte	0xc3
 6818 1a35 1C190000 		.4byte	.LLST116
 6819 1a39 16       		.uleb128 0x16
 6820 1a3a CF040000 		.4byte	.LASF135
 6821 1a3e 01       		.byte	0x1
 6822 1a3f 6705     		.2byte	0x567
 6823 1a41 311B0000 		.4byte	0x1b31
 6824 1a45 03       		.uleb128 0x3
 6825 1a46 91       		.byte	0x91
 6826 1a47 F87E     		.sleb128 -136
 6827 1a49 16       		.uleb128 0x16
 6828 1a4a AE060000 		.4byte	.LASF184
 6829 1a4e 01       		.byte	0x1
 6830 1a4f 6905     		.2byte	0x569
 6831 1a51 FA030000 		.4byte	0x3fa
 6832 1a55 03       		.uleb128 0x3
 6833 1a56 91       		.byte	0x91
 6834 1a57 A07E     		.sleb128 -224
 6835 1a59 26       		.uleb128 0x26
 6836 1a5a 2E000000 		.4byte	.LBB3
 6837 1a5e 8E000000 		.4byte	.LBE3-.LBB3
 6838 1a62 1F1B0000 		.4byte	0x1b1f
 6839 1a66 11       		.uleb128 0x11
 6840 1a67 36070000 		.4byte	.LASF185
 6841 1a6b 01       		.byte	0x1
 6842 1a6c 7A05     		.2byte	0x57a
 6843 1a6e E4000000 		.4byte	0xe4
 6844 1a72 5C190000 		.4byte	.LLST117
 6845 1a76 16       		.uleb128 0x16
 6846 1a77 D0020000 		.4byte	.LASF186
 6847 1a7b 01       		.byte	0x1
ARM GAS  C:\Users\adria\AppData\Local\Temp\ccQ3AXqi.s 			page 157


 6848 1a7c 8705     		.2byte	0x587
 6849 1a7e E4000000 		.4byte	0xe4
 6850 1a82 03       		.uleb128 0x3
 6851 1a83 91       		.byte	0x91
 6852 1a84 9E7E     		.sleb128 -226
 6853 1a86 1F       		.uleb128 0x1f
 6854 1a87 6900     		.ascii	"i\000"
 6855 1a89 01       		.byte	0x1
 6856 1a8a 8A05     		.2byte	0x58a
 6857 1a8c CE000000 		.4byte	0xce
 6858 1a90 71190000 		.4byte	.LLST118
 6859 1a94 1A       		.uleb128 0x1a
 6860 1a95 60000000 		.4byte	.LVL403
 6861 1a99 20190000 		.4byte	0x1920
 6862 1a9d B01A0000 		.4byte	0x1ab0
 6863 1aa1 1B       		.uleb128 0x1b
 6864 1aa2 01       		.uleb128 0x1
 6865 1aa3 50       		.byte	0x50
 6866 1aa4 03       		.uleb128 0x3
 6867 1aa5 91       		.byte	0x91
 6868 1aa6 9E7E     		.sleb128 -226
 6869 1aa8 1B       		.uleb128 0x1b
 6870 1aa9 01       		.uleb128 0x1
 6871 1aaa 51       		.byte	0x51
 6872 1aab 03       		.uleb128 0x3
 6873 1aac 91       		.byte	0x91
 6874 1aad A07E     		.sleb128 -224
 6875 1aaf 00       		.byte	0
 6876 1ab0 1A       		.uleb128 0x1a
 6877 1ab1 82000000 		.4byte	.LVL405
 6878 1ab5 A8150000 		.4byte	0x15a8
 6879 1ab9 CB1A0000 		.4byte	0x1acb
 6880 1abd 1B       		.uleb128 0x1b
 6881 1abe 01       		.uleb128 0x1
 6882 1abf 50       		.byte	0x50
 6883 1ac0 02       		.uleb128 0x2
 6884 1ac1 08       		.byte	0x8
 6885 1ac2 CF       		.byte	0xcf
 6886 1ac3 1B       		.uleb128 0x1b
 6887 1ac4 01       		.uleb128 0x1
 6888 1ac5 51       		.byte	0x51
 6889 1ac6 03       		.uleb128 0x3
 6890 1ac7 91       		.byte	0x91
 6891 1ac8 A07E     		.sleb128 -224
 6892 1aca 00       		.byte	0
 6893 1acb 1A       		.uleb128 0x1a
 6894 1acc 8C000000 		.4byte	.LVL407
 6895 1ad0 B1140000 		.4byte	0x14b1
 6896 1ad4 E01A0000 		.4byte	0x1ae0
 6897 1ad8 1B       		.uleb128 0x1b
 6898 1ad9 01       		.uleb128 0x1
 6899 1ada 50       		.byte	0x50
 6900 1adb 03       		.uleb128 0x3
 6901 1adc 91       		.byte	0x91
 6902 1add A07E     		.sleb128 -224
 6903 1adf 00       		.byte	0
 6904 1ae0 1A       		.uleb128 0x1a
ARM GAS  C:\Users\adria\AppData\Local\Temp\ccQ3AXqi.s 			page 158


 6905 1ae1 A4000000 		.4byte	.LVL409
 6906 1ae5 8A190000 		.4byte	0x198a
 6907 1ae9 081B0000 		.4byte	0x1b08
 6908 1aed 1B       		.uleb128 0x1b
 6909 1aee 01       		.uleb128 0x1
 6910 1aef 50       		.byte	0x50
 6911 1af0 0F       		.uleb128 0xf
 6912 1af1 74       		.byte	0x74
 6913 1af2 00       		.sleb128 0
 6914 1af3 32       		.byte	0x32
 6915 1af4 24       		.byte	0x24
 6916 1af5 74       		.byte	0x74
 6917 1af6 00       		.sleb128 0
 6918 1af7 22       		.byte	0x22
 6919 1af8 32       		.byte	0x32
 6920 1af9 24       		.byte	0x24
 6921 1afa 91       		.byte	0x91
 6922 1afb 00       		.sleb128 0
 6923 1afc 22       		.byte	0x22
 6924 1afd 08       		.byte	0x8
 6925 1afe 88       		.byte	0x88
 6926 1aff 1C       		.byte	0x1c
 6927 1b00 1B       		.uleb128 0x1b
 6928 1b01 01       		.uleb128 0x1
 6929 1b02 51       		.byte	0x51
 6930 1b03 03       		.uleb128 0x3
 6931 1b04 91       		.byte	0x91
 6932 1b05 A07E     		.sleb128 -224
 6933 1b07 00       		.byte	0
 6934 1b08 21       		.uleb128 0x21
 6935 1b09 BA000000 		.4byte	.LVL413
 6936 1b0d 270A0000 		.4byte	0xa27
 6937 1b11 1B       		.uleb128 0x1b
 6938 1b12 01       		.uleb128 0x1
 6939 1b13 50       		.byte	0x50
 6940 1b14 03       		.uleb128 0x3
 6941 1b15 91       		.byte	0x91
 6942 1b16 F87E     		.sleb128 -136
 6943 1b18 1B       		.uleb128 0x1b
 6944 1b19 01       		.uleb128 0x1
 6945 1b1a 51       		.byte	0x51
 6946 1b1b 01       		.uleb128 0x1
 6947 1b1c 36       		.byte	0x36
 6948 1b1d 00       		.byte	0
 6949 1b1e 00       		.byte	0
 6950 1b1f 21       		.uleb128 0x21
 6951 1b20 28000000 		.4byte	.LVL400
 6952 1b24 59130000 		.4byte	0x1359
 6953 1b28 1B       		.uleb128 0x1b
 6954 1b29 01       		.uleb128 0x1
 6955 1b2a 50       		.byte	0x50
 6956 1b2b 03       		.uleb128 0x3
 6957 1b2c 91       		.byte	0x91
 6958 1b2d A07E     		.sleb128 -224
 6959 1b2f 00       		.byte	0
 6960 1b30 00       		.byte	0
 6961 1b31 17       		.uleb128 0x17
ARM GAS  C:\Users\adria\AppData\Local\Temp\ccQ3AXqi.s 			page 159


 6962 1b32 93010000 		.4byte	0x193
 6963 1b36 411B0000 		.4byte	0x1b41
 6964 1b3a 18       		.uleb128 0x18
 6965 1b3b EB040000 		.4byte	0x4eb
 6966 1b3f 05       		.byte	0x5
 6967 1b40 00       		.byte	0
 6968 1b41 23       		.uleb128 0x23
 6969 1b42 BD070000 		.4byte	.LASF187
 6970 1b46 01       		.byte	0x1
 6971 1b47 1D06     		.2byte	0x61d
 6972 1b49 C3000000 		.4byte	0xc3
 6973 1b4d 00000000 		.4byte	.LFB93
 6974 1b51 2C000000 		.4byte	.LFE93-.LFB93
 6975 1b55 01       		.uleb128 0x1
 6976 1b56 9C       		.byte	0x9c
 6977 1b57 8D1B0000 		.4byte	0x1b8d
 6978 1b5b 15       		.uleb128 0x15
 6979 1b5c 64657600 		.ascii	"dev\000"
 6980 1b60 01       		.byte	0x1
 6981 1b61 1D06     		.2byte	0x61d
 6982 1b63 67050000 		.4byte	0x567
 6983 1b67 9B190000 		.4byte	.LLST119
 6984 1b6b 11       		.uleb128 0x11
 6985 1b6c 31070000 		.4byte	.LASF129
 6986 1b70 01       		.byte	0x1
 6987 1b71 2906     		.2byte	0x629
 6988 1b73 C3000000 		.4byte	0xc3
 6989 1b77 BC190000 		.4byte	.LLST120
 6990 1b7b 21       		.uleb128 0x21
 6991 1b7c 1E000000 		.4byte	.LVL417
 6992 1b80 59130000 		.4byte	0x1359
 6993 1b84 1B       		.uleb128 0x1b
 6994 1b85 01       		.uleb128 0x1
 6995 1b86 50       		.byte	0x50
 6996 1b87 03       		.uleb128 0x3
 6997 1b88 F3       		.byte	0xf3
 6998 1b89 01       		.uleb128 0x1
 6999 1b8a 50       		.byte	0x50
 7000 1b8b 00       		.byte	0
 7001 1b8c 00       		.byte	0
 7002 1b8d 23       		.uleb128 0x23
 7003 1b8e 9C000000 		.4byte	.LASF188
 7004 1b92 01       		.byte	0x1
 7005 1b93 2F06     		.2byte	0x62f
 7006 1b95 C3000000 		.4byte	0xc3
 7007 1b99 00000000 		.4byte	.LFB94
 7008 1b9d 42000000 		.4byte	.LFE94-.LFB94
 7009 1ba1 01       		.uleb128 0x1
 7010 1ba2 9C       		.byte	0x9c
 7011 1ba3 FF1B0000 		.4byte	0x1bff
 7012 1ba7 15       		.uleb128 0x15
 7013 1ba8 64657600 		.ascii	"dev\000"
 7014 1bac 01       		.byte	0x1
 7015 1bad 2F06     		.2byte	0x62f
 7016 1baf 67050000 		.4byte	0x567
 7017 1bb3 DB190000 		.4byte	.LLST121
 7018 1bb7 2A       		.uleb128 0x2a
ARM GAS  C:\Users\adria\AppData\Local\Temp\ccQ3AXqi.s 			page 160


 7019 1bb8 11010000 		.4byte	.LASF189
 7020 1bbc 01       		.byte	0x1
 7021 1bbd 3106     		.2byte	0x631
 7022 1bbf CE000000 		.4byte	0xce
 7023 1bc3 5F       		.sleb128 -33
 7024 1bc4 11       		.uleb128 0x11
 7025 1bc5 31070000 		.4byte	.LASF129
 7026 1bc9 01       		.byte	0x1
 7027 1bca 4706     		.2byte	0x647
 7028 1bcc C3000000 		.4byte	0xc3
 7029 1bd0 041A0000 		.4byte	.LLST122
 7030 1bd4 1A       		.uleb128 0x1a
 7031 1bd5 3A000000 		.4byte	.LVL421
 7032 1bd9 A8150000 		.4byte	0x15a8
 7033 1bdd EE1B0000 		.4byte	0x1bee
 7034 1be1 1B       		.uleb128 0x1b
 7035 1be2 01       		.uleb128 0x1
 7036 1be3 50       		.byte	0x50
 7037 1be4 02       		.uleb128 0x2
 7038 1be5 08       		.byte	0x8
 7039 1be6 DF       		.byte	0xdf
 7040 1be7 1B       		.uleb128 0x1b
 7041 1be8 01       		.uleb128 0x1
 7042 1be9 51       		.byte	0x51
 7043 1bea 02       		.uleb128 0x2
 7044 1beb 74       		.byte	0x74
 7045 1bec 00       		.sleb128 0
 7046 1bed 00       		.byte	0
 7047 1bee 21       		.uleb128 0x21
 7048 1bef 40000000 		.4byte	.LVL422
 7049 1bf3 B1140000 		.4byte	0x14b1
 7050 1bf7 1B       		.uleb128 0x1b
 7051 1bf8 01       		.uleb128 0x1
 7052 1bf9 50       		.byte	0x50
 7053 1bfa 02       		.uleb128 0x2
 7054 1bfb 74       		.byte	0x74
 7055 1bfc 00       		.sleb128 0
 7056 1bfd 00       		.byte	0
 7057 1bfe 00       		.byte	0
 7058 1bff 23       		.uleb128 0x23
 7059 1c00 13000000 		.4byte	.LASF190
 7060 1c04 01       		.byte	0x1
 7061 1c05 5206     		.2byte	0x652
 7062 1c07 CB040000 		.4byte	0x4cb
 7063 1c0b 00000000 		.4byte	.LFB95
 7064 1c0f 40000000 		.4byte	.LFE95-.LFB95
 7065 1c13 01       		.uleb128 0x1
 7066 1c14 9C       		.byte	0x9c
 7067 1c15 A11C0000 		.4byte	0x1ca1
 7068 1c19 15       		.uleb128 0x15
 7069 1c1a 64657600 		.ascii	"dev\000"
 7070 1c1e 01       		.byte	0x1
 7071 1c1f 5206     		.2byte	0x652
 7072 1c21 67050000 		.4byte	0x567
 7073 1c25 231A0000 		.4byte	.LLST123
 7074 1c29 16       		.uleb128 0x16
 7075 1c2a D0080000 		.4byte	.LASF191
ARM GAS  C:\Users\adria\AppData\Local\Temp\ccQ3AXqi.s 			page 161


 7076 1c2e 01       		.byte	0x1
 7077 1c2f 5406     		.2byte	0x654
 7078 1c31 E4000000 		.4byte	0xe4
 7079 1c35 02       		.uleb128 0x2
 7080 1c36 91       		.byte	0x91
 7081 1c37 6E       		.sleb128 -18
 7082 1c38 12       		.uleb128 0x12
 7083 1c39 31070000 		.4byte	.LASF129
 7084 1c3d 01       		.byte	0x1
 7085 1c3e 5506     		.2byte	0x655
 7086 1c40 CE000000 		.4byte	0xce
 7087 1c44 16       		.uleb128 0x16
 7088 1c45 CF040000 		.4byte	.LASF135
 7089 1c49 01       		.byte	0x1
 7090 1c4a 5906     		.2byte	0x659
 7091 1c4c CB040000 		.4byte	0x4cb
 7092 1c50 02       		.uleb128 0x2
 7093 1c51 91       		.byte	0x91
 7094 1c52 58       		.sleb128 -40
 7095 1c53 1A       		.uleb128 0x1a
 7096 1c54 10000000 		.4byte	.LVL425
 7097 1c58 20190000 		.4byte	0x1920
 7098 1c5c 6D1C0000 		.4byte	0x1c6d
 7099 1c60 1B       		.uleb128 0x1b
 7100 1c61 01       		.uleb128 0x1
 7101 1c62 50       		.byte	0x50
 7102 1c63 02       		.uleb128 0x2
 7103 1c64 91       		.byte	0x91
 7104 1c65 6E       		.sleb128 -18
 7105 1c66 1B       		.uleb128 0x1b
 7106 1c67 01       		.uleb128 0x1
 7107 1c68 51       		.byte	0x51
 7108 1c69 02       		.uleb128 0x2
 7109 1c6a 74       		.byte	0x74
 7110 1c6b 00       		.sleb128 0
 7111 1c6c 00       		.byte	0
 7112 1c6d 22       		.uleb128 0x22
 7113 1c6e 18000000 		.4byte	.LVL426
 7114 1c72 A40A0000 		.4byte	0xaa4
 7115 1c76 1A       		.uleb128 0x1a
 7116 1c77 20000000 		.4byte	.LVL427
 7117 1c7b 8A190000 		.4byte	0x198a
 7118 1c7f 901C0000 		.4byte	0x1c90
 7119 1c83 1B       		.uleb128 0x1b
 7120 1c84 01       		.uleb128 0x1
 7121 1c85 50       		.byte	0x50
 7122 1c86 02       		.uleb128 0x2
 7123 1c87 7D       		.byte	0x7d
 7124 1c88 00       		.sleb128 0
 7125 1c89 1B       		.uleb128 0x1b
 7126 1c8a 01       		.uleb128 0x1
 7127 1c8b 51       		.byte	0x51
 7128 1c8c 02       		.uleb128 0x2
 7129 1c8d 74       		.byte	0x74
 7130 1c8e 00       		.sleb128 0
 7131 1c8f 00       		.byte	0
 7132 1c90 21       		.uleb128 0x21
ARM GAS  C:\Users\adria\AppData\Local\Temp\ccQ3AXqi.s 			page 162


 7133 1c91 2E000000 		.4byte	.LVL428
 7134 1c95 B1140000 		.4byte	0x14b1
 7135 1c99 1B       		.uleb128 0x1b
 7136 1c9a 01       		.uleb128 0x1
 7137 1c9b 50       		.byte	0x50
 7138 1c9c 02       		.uleb128 0x2
 7139 1c9d 74       		.byte	0x74
 7140 1c9e 00       		.sleb128 0
 7141 1c9f 00       		.byte	0
 7142 1ca0 00       		.byte	0
 7143 1ca1 23       		.uleb128 0x23
 7144 1ca2 6F080000 		.4byte	.LASF192
 7145 1ca6 01       		.byte	0x1
 7146 1ca7 6706     		.2byte	0x667
 7147 1ca9 C3000000 		.4byte	0xc3
 7148 1cad 00000000 		.4byte	.LFB96
 7149 1cb1 10000000 		.4byte	.LFE96-.LFB96
 7150 1cb5 01       		.uleb128 0x1
 7151 1cb6 9C       		.byte	0x9c
 7152 1cb7 FE1C0000 		.4byte	0x1cfe
 7153 1cbb 15       		.uleb128 0x15
 7154 1cbc 64657600 		.ascii	"dev\000"
 7155 1cc0 01       		.byte	0x1
 7156 1cc1 6706     		.2byte	0x667
 7157 1cc3 67050000 		.4byte	0x567
 7158 1cc7 4F1A0000 		.4byte	.LLST124
 7159 1ccb 16       		.uleb128 0x16
 7160 1ccc 31070000 		.4byte	.LASF129
 7161 1cd0 01       		.byte	0x1
 7162 1cd1 6906     		.2byte	0x669
 7163 1cd3 C3000000 		.4byte	0xc3
 7164 1cd7 01       		.uleb128 0x1
 7165 1cd8 50       		.byte	0x50
 7166 1cd9 1A       		.uleb128 0x1a
 7167 1cda 08000000 		.4byte	.LVL431
 7168 1cde 411B0000 		.4byte	0x1b41
 7169 1ce2 ED1C0000 		.4byte	0x1ced
 7170 1ce6 1B       		.uleb128 0x1b
 7171 1ce7 01       		.uleb128 0x1
 7172 1ce8 50       		.byte	0x50
 7173 1ce9 02       		.uleb128 0x2
 7174 1cea 74       		.byte	0x74
 7175 1ceb 00       		.sleb128 0
 7176 1cec 00       		.byte	0
 7177 1ced 21       		.uleb128 0x21
 7178 1cee 0E000000 		.4byte	.LVL432
 7179 1cf2 8D1B0000 		.4byte	0x1b8d
 7180 1cf6 1B       		.uleb128 0x1b
 7181 1cf7 01       		.uleb128 0x1
 7182 1cf8 50       		.byte	0x50
 7183 1cf9 02       		.uleb128 0x2
 7184 1cfa 74       		.byte	0x74
 7185 1cfb 00       		.sleb128 0
 7186 1cfc 00       		.byte	0
 7187 1cfd 00       		.byte	0
 7188 1cfe 2B       		.uleb128 0x2b
 7189 1cff DA070000 		.4byte	.LASF193
ARM GAS  C:\Users\adria\AppData\Local\Temp\ccQ3AXqi.s 			page 163


 7190 1d03 05       		.byte	0x5
 7191 1d04 3B       		.byte	0x3b
 7192 1d05 FA030000 		.4byte	0x3fa
 7193 1d09 05       		.uleb128 0x5
 7194 1d0a 03       		.byte	0x3
 7195 1d0b 00000000 		.4byte	sensor_bme680
 7196 1d0f 2C       		.uleb128 0x2c
 7197 1d10 23000000 		.4byte	.LASF194
 7198 1d14 06       		.byte	0x6
 7199 1d15 1207     		.2byte	0x712
 7200 1d17 1B1D0000 		.4byte	0x1d1b
 7201 1d1b 2D       		.uleb128 0x2d
 7202 1d1c EF000000 		.4byte	0xef
 7203 1d20 2E       		.uleb128 0x2e
 7204 1d21 C7040000 		.4byte	.LASF195
 7205 1d25 C7040000 		.4byte	.LASF195
 7206 1d29 07       		.byte	0x7
 7207 1d2a 76       		.byte	0x76
 7208 1d2b 2E       		.uleb128 0x2e
 7209 1d2c 2A080000 		.4byte	.LASF196
 7210 1d30 2A080000 		.4byte	.LASF196
 7211 1d34 08       		.byte	0x8
 7212 1d35 B1       		.byte	0xb1
 7213 1d36 2E       		.uleb128 0x2e
 7214 1d37 3F010000 		.4byte	.LASF197
 7215 1d3b 3F010000 		.4byte	.LASF197
 7216 1d3f 08       		.byte	0x8
 7217 1d40 B6       		.byte	0xb6
 7218 1d41 2E       		.uleb128 0x2e
 7219 1d42 D8010000 		.4byte	.LASF198
 7220 1d46 D8010000 		.4byte	.LASF198
 7221 1d4a 08       		.byte	0x8
 7222 1d4b B5       		.byte	0xb5
 7223 1d4c 2E       		.uleb128 0x2e
 7224 1d4d 15040000 		.4byte	.LASF199
 7225 1d51 15040000 		.4byte	.LASF199
 7226 1d55 08       		.byte	0x8
 7227 1d56 B3       		.byte	0xb3
 7228 1d57 2E       		.uleb128 0x2e
 7229 1d58 A1040000 		.4byte	.LASF200
 7230 1d5c A1040000 		.4byte	.LASF200
 7231 1d60 08       		.byte	0x8
 7232 1d61 B7       		.byte	0xb7
 7233 1d62 2F       		.uleb128 0x2f
 7234 1d63 0A010000 		.4byte	.LASF206
 7235 1d67 0A010000 		.4byte	.LASF206
 7236 1d6b 00       		.byte	0
 7237              		.section	.debug_abbrev,"",%progbits
 7238              	.Ldebug_abbrev0:
 7239 0000 01       		.uleb128 0x1
 7240 0001 11       		.uleb128 0x11
 7241 0002 01       		.byte	0x1
 7242 0003 25       		.uleb128 0x25
 7243 0004 0E       		.uleb128 0xe
 7244 0005 13       		.uleb128 0x13
 7245 0006 0B       		.uleb128 0xb
 7246 0007 03       		.uleb128 0x3
ARM GAS  C:\Users\adria\AppData\Local\Temp\ccQ3AXqi.s 			page 164


 7247 0008 0E       		.uleb128 0xe
 7248 0009 1B       		.uleb128 0x1b
 7249 000a 0E       		.uleb128 0xe
 7250 000b 55       		.uleb128 0x55
 7251 000c 17       		.uleb128 0x17
 7252 000d 11       		.uleb128 0x11
 7253 000e 01       		.uleb128 0x1
 7254 000f 10       		.uleb128 0x10
 7255 0010 17       		.uleb128 0x17
 7256 0011 00       		.byte	0
 7257 0012 00       		.byte	0
 7258 0013 02       		.uleb128 0x2
 7259 0014 24       		.uleb128 0x24
 7260 0015 00       		.byte	0
 7261 0016 0B       		.uleb128 0xb
 7262 0017 0B       		.uleb128 0xb
 7263 0018 3E       		.uleb128 0x3e
 7264 0019 0B       		.uleb128 0xb
 7265 001a 03       		.uleb128 0x3
 7266 001b 0E       		.uleb128 0xe
 7267 001c 00       		.byte	0
 7268 001d 00       		.byte	0
 7269 001e 03       		.uleb128 0x3
 7270 001f 24       		.uleb128 0x24
 7271 0020 00       		.byte	0
 7272 0021 0B       		.uleb128 0xb
 7273 0022 0B       		.uleb128 0xb
 7274 0023 3E       		.uleb128 0x3e
 7275 0024 0B       		.uleb128 0xb
 7276 0025 03       		.uleb128 0x3
 7277 0026 08       		.uleb128 0x8
 7278 0027 00       		.byte	0
 7279 0028 00       		.byte	0
 7280 0029 04       		.uleb128 0x4
 7281 002a 16       		.uleb128 0x16
 7282 002b 00       		.byte	0
 7283 002c 03       		.uleb128 0x3
 7284 002d 0E       		.uleb128 0xe
 7285 002e 3A       		.uleb128 0x3a
 7286 002f 0B       		.uleb128 0xb
 7287 0030 3B       		.uleb128 0x3b
 7288 0031 0B       		.uleb128 0xb
 7289 0032 49       		.uleb128 0x49
 7290 0033 13       		.uleb128 0x13
 7291 0034 00       		.byte	0
 7292 0035 00       		.byte	0
 7293 0036 05       		.uleb128 0x5
 7294 0037 16       		.uleb128 0x16
 7295 0038 00       		.byte	0
 7296 0039 03       		.uleb128 0x3
 7297 003a 0E       		.uleb128 0xe
 7298 003b 3A       		.uleb128 0x3a
 7299 003c 0B       		.uleb128 0xb
 7300 003d 3B       		.uleb128 0x3b
 7301 003e 05       		.uleb128 0x5
 7302 003f 49       		.uleb128 0x49
 7303 0040 13       		.uleb128 0x13
ARM GAS  C:\Users\adria\AppData\Local\Temp\ccQ3AXqi.s 			page 165


 7304 0041 00       		.byte	0
 7305 0042 00       		.byte	0
 7306 0043 06       		.uleb128 0x6
 7307 0044 0F       		.uleb128 0xf
 7308 0045 00       		.byte	0
 7309 0046 0B       		.uleb128 0xb
 7310 0047 0B       		.uleb128 0xb
 7311 0048 49       		.uleb128 0x49
 7312 0049 13       		.uleb128 0x13
 7313 004a 00       		.byte	0
 7314 004b 00       		.byte	0
 7315 004c 07       		.uleb128 0x7
 7316 004d 15       		.uleb128 0x15
 7317 004e 01       		.byte	0x1
 7318 004f 27       		.uleb128 0x27
 7319 0050 19       		.uleb128 0x19
 7320 0051 49       		.uleb128 0x49
 7321 0052 13       		.uleb128 0x13
 7322 0053 01       		.uleb128 0x1
 7323 0054 13       		.uleb128 0x13
 7324 0055 00       		.byte	0
 7325 0056 00       		.byte	0
 7326 0057 08       		.uleb128 0x8
 7327 0058 05       		.uleb128 0x5
 7328 0059 00       		.byte	0
 7329 005a 49       		.uleb128 0x49
 7330 005b 13       		.uleb128 0x13
 7331 005c 00       		.byte	0
 7332 005d 00       		.byte	0
 7333 005e 09       		.uleb128 0x9
 7334 005f 15       		.uleb128 0x15
 7335 0060 01       		.byte	0x1
 7336 0061 27       		.uleb128 0x27
 7337 0062 19       		.uleb128 0x19
 7338 0063 01       		.uleb128 0x1
 7339 0064 13       		.uleb128 0x13
 7340 0065 00       		.byte	0
 7341 0066 00       		.byte	0
 7342 0067 0A       		.uleb128 0xa
 7343 0068 04       		.uleb128 0x4
 7344 0069 01       		.byte	0x1
 7345 006a 03       		.uleb128 0x3
 7346 006b 0E       		.uleb128 0xe
 7347 006c 0B       		.uleb128 0xb
 7348 006d 0B       		.uleb128 0xb
 7349 006e 49       		.uleb128 0x49
 7350 006f 13       		.uleb128 0x13
 7351 0070 3A       		.uleb128 0x3a
 7352 0071 0B       		.uleb128 0xb
 7353 0072 3B       		.uleb128 0x3b
 7354 0073 05       		.uleb128 0x5
 7355 0074 01       		.uleb128 0x1
 7356 0075 13       		.uleb128 0x13
 7357 0076 00       		.byte	0
 7358 0077 00       		.byte	0
 7359 0078 0B       		.uleb128 0xb
 7360 0079 28       		.uleb128 0x28
ARM GAS  C:\Users\adria\AppData\Local\Temp\ccQ3AXqi.s 			page 166


 7361 007a 00       		.byte	0
 7362 007b 03       		.uleb128 0x3
 7363 007c 0E       		.uleb128 0xe
 7364 007d 1C       		.uleb128 0x1c
 7365 007e 0B       		.uleb128 0xb
 7366 007f 00       		.byte	0
 7367 0080 00       		.byte	0
 7368 0081 0C       		.uleb128 0xc
 7369 0082 13       		.uleb128 0x13
 7370 0083 01       		.byte	0x1
 7371 0084 03       		.uleb128 0x3
 7372 0085 0E       		.uleb128 0xe
 7373 0086 0B       		.uleb128 0xb
 7374 0087 0B       		.uleb128 0xb
 7375 0088 3A       		.uleb128 0x3a
 7376 0089 0B       		.uleb128 0xb
 7377 008a 3B       		.uleb128 0x3b
 7378 008b 05       		.uleb128 0x5
 7379 008c 01       		.uleb128 0x1
 7380 008d 13       		.uleb128 0x13
 7381 008e 00       		.byte	0
 7382 008f 00       		.byte	0
 7383 0090 0D       		.uleb128 0xd
 7384 0091 0D       		.uleb128 0xd
 7385 0092 00       		.byte	0
 7386 0093 03       		.uleb128 0x3
 7387 0094 0E       		.uleb128 0xe
 7388 0095 3A       		.uleb128 0x3a
 7389 0096 0B       		.uleb128 0xb
 7390 0097 3B       		.uleb128 0x3b
 7391 0098 05       		.uleb128 0x5
 7392 0099 49       		.uleb128 0x49
 7393 009a 13       		.uleb128 0x13
 7394 009b 38       		.uleb128 0x38
 7395 009c 0B       		.uleb128 0xb
 7396 009d 00       		.byte	0
 7397 009e 00       		.byte	0
 7398 009f 0E       		.uleb128 0xe
 7399 00a0 2E       		.uleb128 0x2e
 7400 00a1 01       		.byte	0x1
 7401 00a2 03       		.uleb128 0x3
 7402 00a3 0E       		.uleb128 0xe
 7403 00a4 3A       		.uleb128 0x3a
 7404 00a5 0B       		.uleb128 0xb
 7405 00a6 3B       		.uleb128 0x3b
 7406 00a7 05       		.uleb128 0x5
 7407 00a8 27       		.uleb128 0x27
 7408 00a9 19       		.uleb128 0x19
 7409 00aa 49       		.uleb128 0x49
 7410 00ab 13       		.uleb128 0x13
 7411 00ac 11       		.uleb128 0x11
 7412 00ad 01       		.uleb128 0x1
 7413 00ae 12       		.uleb128 0x12
 7414 00af 06       		.uleb128 0x6
 7415 00b0 40       		.uleb128 0x40
 7416 00b1 18       		.uleb128 0x18
 7417 00b2 9742     		.uleb128 0x2117
ARM GAS  C:\Users\adria\AppData\Local\Temp\ccQ3AXqi.s 			page 167


 7418 00b4 19       		.uleb128 0x19
 7419 00b5 01       		.uleb128 0x1
 7420 00b6 13       		.uleb128 0x13
 7421 00b7 00       		.byte	0
 7422 00b8 00       		.byte	0
 7423 00b9 0F       		.uleb128 0xf
 7424 00ba 05       		.uleb128 0x5
 7425 00bb 00       		.byte	0
 7426 00bc 03       		.uleb128 0x3
 7427 00bd 0E       		.uleb128 0xe
 7428 00be 3A       		.uleb128 0x3a
 7429 00bf 0B       		.uleb128 0xb
 7430 00c0 3B       		.uleb128 0x3b
 7431 00c1 05       		.uleb128 0x5
 7432 00c2 49       		.uleb128 0x49
 7433 00c3 13       		.uleb128 0x13
 7434 00c4 02       		.uleb128 0x2
 7435 00c5 17       		.uleb128 0x17
 7436 00c6 00       		.byte	0
 7437 00c7 00       		.byte	0
 7438 00c8 10       		.uleb128 0x10
 7439 00c9 05       		.uleb128 0x5
 7440 00ca 00       		.byte	0
 7441 00cb 03       		.uleb128 0x3
 7442 00cc 08       		.uleb128 0x8
 7443 00cd 3A       		.uleb128 0x3a
 7444 00ce 0B       		.uleb128 0xb
 7445 00cf 3B       		.uleb128 0x3b
 7446 00d0 05       		.uleb128 0x5
 7447 00d1 49       		.uleb128 0x49
 7448 00d2 13       		.uleb128 0x13
 7449 00d3 02       		.uleb128 0x2
 7450 00d4 18       		.uleb128 0x18
 7451 00d5 00       		.byte	0
 7452 00d6 00       		.byte	0
 7453 00d7 11       		.uleb128 0x11
 7454 00d8 34       		.uleb128 0x34
 7455 00d9 00       		.byte	0
 7456 00da 03       		.uleb128 0x3
 7457 00db 0E       		.uleb128 0xe
 7458 00dc 3A       		.uleb128 0x3a
 7459 00dd 0B       		.uleb128 0xb
 7460 00de 3B       		.uleb128 0x3b
 7461 00df 05       		.uleb128 0x5
 7462 00e0 49       		.uleb128 0x49
 7463 00e1 13       		.uleb128 0x13
 7464 00e2 02       		.uleb128 0x2
 7465 00e3 17       		.uleb128 0x17
 7466 00e4 00       		.byte	0
 7467 00e5 00       		.byte	0
 7468 00e6 12       		.uleb128 0x12
 7469 00e7 34       		.uleb128 0x34
 7470 00e8 00       		.byte	0
 7471 00e9 03       		.uleb128 0x3
 7472 00ea 0E       		.uleb128 0xe
 7473 00eb 3A       		.uleb128 0x3a
 7474 00ec 0B       		.uleb128 0xb
ARM GAS  C:\Users\adria\AppData\Local\Temp\ccQ3AXqi.s 			page 168


 7475 00ed 3B       		.uleb128 0x3b
 7476 00ee 05       		.uleb128 0x5
 7477 00ef 49       		.uleb128 0x49
 7478 00f0 13       		.uleb128 0x13
 7479 00f1 00       		.byte	0
 7480 00f2 00       		.byte	0
 7481 00f3 13       		.uleb128 0x13
 7482 00f4 26       		.uleb128 0x26
 7483 00f5 00       		.byte	0
 7484 00f6 49       		.uleb128 0x49
 7485 00f7 13       		.uleb128 0x13
 7486 00f8 00       		.byte	0
 7487 00f9 00       		.byte	0
 7488 00fa 14       		.uleb128 0x14
 7489 00fb 2E       		.uleb128 0x2e
 7490 00fc 01       		.byte	0x1
 7491 00fd 03       		.uleb128 0x3
 7492 00fe 0E       		.uleb128 0xe
 7493 00ff 3A       		.uleb128 0x3a
 7494 0100 0B       		.uleb128 0xb
 7495 0101 3B       		.uleb128 0x3b
 7496 0102 05       		.uleb128 0x5
 7497 0103 27       		.uleb128 0x27
 7498 0104 19       		.uleb128 0x19
 7499 0105 49       		.uleb128 0x49
 7500 0106 13       		.uleb128 0x13
 7501 0107 11       		.uleb128 0x11
 7502 0108 01       		.uleb128 0x1
 7503 0109 12       		.uleb128 0x12
 7504 010a 06       		.uleb128 0x6
 7505 010b 40       		.uleb128 0x40
 7506 010c 18       		.uleb128 0x18
 7507 010d 9642     		.uleb128 0x2116
 7508 010f 19       		.uleb128 0x19
 7509 0110 01       		.uleb128 0x1
 7510 0111 13       		.uleb128 0x13
 7511 0112 00       		.byte	0
 7512 0113 00       		.byte	0
 7513 0114 15       		.uleb128 0x15
 7514 0115 05       		.uleb128 0x5
 7515 0116 00       		.byte	0
 7516 0117 03       		.uleb128 0x3
 7517 0118 08       		.uleb128 0x8
 7518 0119 3A       		.uleb128 0x3a
 7519 011a 0B       		.uleb128 0xb
 7520 011b 3B       		.uleb128 0x3b
 7521 011c 05       		.uleb128 0x5
 7522 011d 49       		.uleb128 0x49
 7523 011e 13       		.uleb128 0x13
 7524 011f 02       		.uleb128 0x2
 7525 0120 17       		.uleb128 0x17
 7526 0121 00       		.byte	0
 7527 0122 00       		.byte	0
 7528 0123 16       		.uleb128 0x16
 7529 0124 34       		.uleb128 0x34
 7530 0125 00       		.byte	0
 7531 0126 03       		.uleb128 0x3
ARM GAS  C:\Users\adria\AppData\Local\Temp\ccQ3AXqi.s 			page 169


 7532 0127 0E       		.uleb128 0xe
 7533 0128 3A       		.uleb128 0x3a
 7534 0129 0B       		.uleb128 0xb
 7535 012a 3B       		.uleb128 0x3b
 7536 012b 05       		.uleb128 0x5
 7537 012c 49       		.uleb128 0x49
 7538 012d 13       		.uleb128 0x13
 7539 012e 02       		.uleb128 0x2
 7540 012f 18       		.uleb128 0x18
 7541 0130 00       		.byte	0
 7542 0131 00       		.byte	0
 7543 0132 17       		.uleb128 0x17
 7544 0133 01       		.uleb128 0x1
 7545 0134 01       		.byte	0x1
 7546 0135 49       		.uleb128 0x49
 7547 0136 13       		.uleb128 0x13
 7548 0137 01       		.uleb128 0x1
 7549 0138 13       		.uleb128 0x13
 7550 0139 00       		.byte	0
 7551 013a 00       		.byte	0
 7552 013b 18       		.uleb128 0x18
 7553 013c 21       		.uleb128 0x21
 7554 013d 00       		.byte	0
 7555 013e 49       		.uleb128 0x49
 7556 013f 13       		.uleb128 0x13
 7557 0140 2F       		.uleb128 0x2f
 7558 0141 0B       		.uleb128 0xb
 7559 0142 00       		.byte	0
 7560 0143 00       		.byte	0
 7561 0144 19       		.uleb128 0x19
 7562 0145 34       		.uleb128 0x34
 7563 0146 00       		.byte	0
 7564 0147 03       		.uleb128 0x3
 7565 0148 08       		.uleb128 0x8
 7566 0149 3A       		.uleb128 0x3a
 7567 014a 0B       		.uleb128 0xb
 7568 014b 3B       		.uleb128 0x3b
 7569 014c 05       		.uleb128 0x5
 7570 014d 49       		.uleb128 0x49
 7571 014e 13       		.uleb128 0x13
 7572 014f 02       		.uleb128 0x2
 7573 0150 18       		.uleb128 0x18
 7574 0151 00       		.byte	0
 7575 0152 00       		.byte	0
 7576 0153 1A       		.uleb128 0x1a
 7577 0154 898201   		.uleb128 0x4109
 7578 0157 01       		.byte	0x1
 7579 0158 11       		.uleb128 0x11
 7580 0159 01       		.uleb128 0x1
 7581 015a 31       		.uleb128 0x31
 7582 015b 13       		.uleb128 0x13
 7583 015c 01       		.uleb128 0x1
 7584 015d 13       		.uleb128 0x13
 7585 015e 00       		.byte	0
 7586 015f 00       		.byte	0
 7587 0160 1B       		.uleb128 0x1b
 7588 0161 8A8201   		.uleb128 0x410a
ARM GAS  C:\Users\adria\AppData\Local\Temp\ccQ3AXqi.s 			page 170


 7589 0164 00       		.byte	0
 7590 0165 02       		.uleb128 0x2
 7591 0166 18       		.uleb128 0x18
 7592 0167 9142     		.uleb128 0x2111
 7593 0169 18       		.uleb128 0x18
 7594 016a 00       		.byte	0
 7595 016b 00       		.byte	0
 7596 016c 1C       		.uleb128 0x1c
 7597 016d 898201   		.uleb128 0x4109
 7598 0170 01       		.byte	0x1
 7599 0171 11       		.uleb128 0x11
 7600 0172 01       		.uleb128 0x1
 7601 0173 9342     		.uleb128 0x2113
 7602 0175 18       		.uleb128 0x18
 7603 0176 01       		.uleb128 0x1
 7604 0177 13       		.uleb128 0x13
 7605 0178 00       		.byte	0
 7606 0179 00       		.byte	0
 7607 017a 1D       		.uleb128 0x1d
 7608 017b 898201   		.uleb128 0x4109
 7609 017e 01       		.byte	0x1
 7610 017f 11       		.uleb128 0x11
 7611 0180 01       		.uleb128 0x1
 7612 0181 9342     		.uleb128 0x2113
 7613 0183 18       		.uleb128 0x18
 7614 0184 00       		.byte	0
 7615 0185 00       		.byte	0
 7616 0186 1E       		.uleb128 0x1e
 7617 0187 05       		.uleb128 0x5
 7618 0188 00       		.byte	0
 7619 0189 03       		.uleb128 0x3
 7620 018a 0E       		.uleb128 0xe
 7621 018b 3A       		.uleb128 0x3a
 7622 018c 0B       		.uleb128 0xb
 7623 018d 3B       		.uleb128 0x3b
 7624 018e 05       		.uleb128 0x5
 7625 018f 49       		.uleb128 0x49
 7626 0190 13       		.uleb128 0x13
 7627 0191 02       		.uleb128 0x2
 7628 0192 18       		.uleb128 0x18
 7629 0193 00       		.byte	0
 7630 0194 00       		.byte	0
 7631 0195 1F       		.uleb128 0x1f
 7632 0196 34       		.uleb128 0x34
 7633 0197 00       		.byte	0
 7634 0198 03       		.uleb128 0x3
 7635 0199 08       		.uleb128 0x8
 7636 019a 3A       		.uleb128 0x3a
 7637 019b 0B       		.uleb128 0xb
 7638 019c 3B       		.uleb128 0x3b
 7639 019d 05       		.uleb128 0x5
 7640 019e 49       		.uleb128 0x49
 7641 019f 13       		.uleb128 0x13
 7642 01a0 02       		.uleb128 0x2
 7643 01a1 17       		.uleb128 0x17
 7644 01a2 00       		.byte	0
 7645 01a3 00       		.byte	0
ARM GAS  C:\Users\adria\AppData\Local\Temp\ccQ3AXqi.s 			page 171


 7646 01a4 20       		.uleb128 0x20
 7647 01a5 2E       		.uleb128 0x2e
 7648 01a6 01       		.byte	0x1
 7649 01a7 03       		.uleb128 0x3
 7650 01a8 0E       		.uleb128 0xe
 7651 01a9 3A       		.uleb128 0x3a
 7652 01aa 0B       		.uleb128 0xb
 7653 01ab 3B       		.uleb128 0x3b
 7654 01ac 05       		.uleb128 0x5
 7655 01ad 27       		.uleb128 0x27
 7656 01ae 19       		.uleb128 0x19
 7657 01af 11       		.uleb128 0x11
 7658 01b0 01       		.uleb128 0x1
 7659 01b1 12       		.uleb128 0x12
 7660 01b2 06       		.uleb128 0x6
 7661 01b3 40       		.uleb128 0x40
 7662 01b4 18       		.uleb128 0x18
 7663 01b5 9742     		.uleb128 0x2117
 7664 01b7 19       		.uleb128 0x19
 7665 01b8 01       		.uleb128 0x1
 7666 01b9 13       		.uleb128 0x13
 7667 01ba 00       		.byte	0
 7668 01bb 00       		.byte	0
 7669 01bc 21       		.uleb128 0x21
 7670 01bd 898201   		.uleb128 0x4109
 7671 01c0 01       		.byte	0x1
 7672 01c1 11       		.uleb128 0x11
 7673 01c2 01       		.uleb128 0x1
 7674 01c3 31       		.uleb128 0x31
 7675 01c4 13       		.uleb128 0x13
 7676 01c5 00       		.byte	0
 7677 01c6 00       		.byte	0
 7678 01c7 22       		.uleb128 0x22
 7679 01c8 898201   		.uleb128 0x4109
 7680 01cb 00       		.byte	0
 7681 01cc 11       		.uleb128 0x11
 7682 01cd 01       		.uleb128 0x1
 7683 01ce 31       		.uleb128 0x31
 7684 01cf 13       		.uleb128 0x13
 7685 01d0 00       		.byte	0
 7686 01d1 00       		.byte	0
 7687 01d2 23       		.uleb128 0x23
 7688 01d3 2E       		.uleb128 0x2e
 7689 01d4 01       		.byte	0x1
 7690 01d5 3F       		.uleb128 0x3f
 7691 01d6 19       		.uleb128 0x19
 7692 01d7 03       		.uleb128 0x3
 7693 01d8 0E       		.uleb128 0xe
 7694 01d9 3A       		.uleb128 0x3a
 7695 01da 0B       		.uleb128 0xb
 7696 01db 3B       		.uleb128 0x3b
 7697 01dc 05       		.uleb128 0x5
 7698 01dd 27       		.uleb128 0x27
 7699 01de 19       		.uleb128 0x19
 7700 01df 49       		.uleb128 0x49
 7701 01e0 13       		.uleb128 0x13
 7702 01e1 11       		.uleb128 0x11
ARM GAS  C:\Users\adria\AppData\Local\Temp\ccQ3AXqi.s 			page 172


 7703 01e2 01       		.uleb128 0x1
 7704 01e3 12       		.uleb128 0x12
 7705 01e4 06       		.uleb128 0x6
 7706 01e5 40       		.uleb128 0x40
 7707 01e6 18       		.uleb128 0x18
 7708 01e7 9742     		.uleb128 0x2117
 7709 01e9 19       		.uleb128 0x19
 7710 01ea 01       		.uleb128 0x1
 7711 01eb 13       		.uleb128 0x13
 7712 01ec 00       		.byte	0
 7713 01ed 00       		.byte	0
 7714 01ee 24       		.uleb128 0x24
 7715 01ef 34       		.uleb128 0x34
 7716 01f0 00       		.byte	0
 7717 01f1 03       		.uleb128 0x3
 7718 01f2 0E       		.uleb128 0xe
 7719 01f3 3A       		.uleb128 0x3a
 7720 01f4 0B       		.uleb128 0xb
 7721 01f5 3B       		.uleb128 0x3b
 7722 01f6 05       		.uleb128 0x5
 7723 01f7 49       		.uleb128 0x49
 7724 01f8 13       		.uleb128 0x13
 7725 01f9 1C       		.uleb128 0x1c
 7726 01fa 0B       		.uleb128 0xb
 7727 01fb 00       		.byte	0
 7728 01fc 00       		.byte	0
 7729 01fd 25       		.uleb128 0x25
 7730 01fe 898201   		.uleb128 0x4109
 7731 0201 01       		.byte	0x1
 7732 0202 11       		.uleb128 0x11
 7733 0203 01       		.uleb128 0x1
 7734 0204 00       		.byte	0
 7735 0205 00       		.byte	0
 7736 0206 26       		.uleb128 0x26
 7737 0207 0B       		.uleb128 0xb
 7738 0208 01       		.byte	0x1
 7739 0209 11       		.uleb128 0x11
 7740 020a 01       		.uleb128 0x1
 7741 020b 12       		.uleb128 0x12
 7742 020c 06       		.uleb128 0x6
 7743 020d 01       		.uleb128 0x1
 7744 020e 13       		.uleb128 0x13
 7745 020f 00       		.byte	0
 7746 0210 00       		.byte	0
 7747 0211 27       		.uleb128 0x27
 7748 0212 898201   		.uleb128 0x4109
 7749 0215 01       		.byte	0x1
 7750 0216 11       		.uleb128 0x11
 7751 0217 01       		.uleb128 0x1
 7752 0218 01       		.uleb128 0x1
 7753 0219 13       		.uleb128 0x13
 7754 021a 00       		.byte	0
 7755 021b 00       		.byte	0
 7756 021c 28       		.uleb128 0x28
 7757 021d 2E       		.uleb128 0x2e
 7758 021e 01       		.byte	0x1
 7759 021f 3F       		.uleb128 0x3f
ARM GAS  C:\Users\adria\AppData\Local\Temp\ccQ3AXqi.s 			page 173


 7760 0220 19       		.uleb128 0x19
 7761 0221 03       		.uleb128 0x3
 7762 0222 0E       		.uleb128 0xe
 7763 0223 3A       		.uleb128 0x3a
 7764 0224 0B       		.uleb128 0xb
 7765 0225 3B       		.uleb128 0x3b
 7766 0226 05       		.uleb128 0x5
 7767 0227 27       		.uleb128 0x27
 7768 0228 19       		.uleb128 0x19
 7769 0229 11       		.uleb128 0x11
 7770 022a 01       		.uleb128 0x1
 7771 022b 12       		.uleb128 0x12
 7772 022c 06       		.uleb128 0x6
 7773 022d 40       		.uleb128 0x40
 7774 022e 18       		.uleb128 0x18
 7775 022f 9742     		.uleb128 0x2117
 7776 0231 19       		.uleb128 0x19
 7777 0232 01       		.uleb128 0x1
 7778 0233 13       		.uleb128 0x13
 7779 0234 00       		.byte	0
 7780 0235 00       		.byte	0
 7781 0236 29       		.uleb128 0x29
 7782 0237 2E       		.uleb128 0x2e
 7783 0238 01       		.byte	0x1
 7784 0239 3F       		.uleb128 0x3f
 7785 023a 19       		.uleb128 0x19
 7786 023b 03       		.uleb128 0x3
 7787 023c 0E       		.uleb128 0xe
 7788 023d 3A       		.uleb128 0x3a
 7789 023e 0B       		.uleb128 0xb
 7790 023f 3B       		.uleb128 0x3b
 7791 0240 05       		.uleb128 0x5
 7792 0241 27       		.uleb128 0x27
 7793 0242 19       		.uleb128 0x19
 7794 0243 49       		.uleb128 0x49
 7795 0244 13       		.uleb128 0x13
 7796 0245 11       		.uleb128 0x11
 7797 0246 01       		.uleb128 0x1
 7798 0247 12       		.uleb128 0x12
 7799 0248 06       		.uleb128 0x6
 7800 0249 40       		.uleb128 0x40
 7801 024a 18       		.uleb128 0x18
 7802 024b 9642     		.uleb128 0x2116
 7803 024d 19       		.uleb128 0x19
 7804 024e 01       		.uleb128 0x1
 7805 024f 13       		.uleb128 0x13
 7806 0250 00       		.byte	0
 7807 0251 00       		.byte	0
 7808 0252 2A       		.uleb128 0x2a
 7809 0253 34       		.uleb128 0x34
 7810 0254 00       		.byte	0
 7811 0255 03       		.uleb128 0x3
 7812 0256 0E       		.uleb128 0xe
 7813 0257 3A       		.uleb128 0x3a
 7814 0258 0B       		.uleb128 0xb
 7815 0259 3B       		.uleb128 0x3b
 7816 025a 05       		.uleb128 0x5
ARM GAS  C:\Users\adria\AppData\Local\Temp\ccQ3AXqi.s 			page 174


 7817 025b 49       		.uleb128 0x49
 7818 025c 13       		.uleb128 0x13
 7819 025d 1C       		.uleb128 0x1c
 7820 025e 0D       		.uleb128 0xd
 7821 025f 00       		.byte	0
 7822 0260 00       		.byte	0
 7823 0261 2B       		.uleb128 0x2b
 7824 0262 34       		.uleb128 0x34
 7825 0263 00       		.byte	0
 7826 0264 03       		.uleb128 0x3
 7827 0265 0E       		.uleb128 0xe
 7828 0266 3A       		.uleb128 0x3a
 7829 0267 0B       		.uleb128 0xb
 7830 0268 3B       		.uleb128 0x3b
 7831 0269 0B       		.uleb128 0xb
 7832 026a 49       		.uleb128 0x49
 7833 026b 13       		.uleb128 0x13
 7834 026c 3F       		.uleb128 0x3f
 7835 026d 19       		.uleb128 0x19
 7836 026e 02       		.uleb128 0x2
 7837 026f 18       		.uleb128 0x18
 7838 0270 00       		.byte	0
 7839 0271 00       		.byte	0
 7840 0272 2C       		.uleb128 0x2c
 7841 0273 34       		.uleb128 0x34
 7842 0274 00       		.byte	0
 7843 0275 03       		.uleb128 0x3
 7844 0276 0E       		.uleb128 0xe
 7845 0277 3A       		.uleb128 0x3a
 7846 0278 0B       		.uleb128 0xb
 7847 0279 3B       		.uleb128 0x3b
 7848 027a 05       		.uleb128 0x5
 7849 027b 49       		.uleb128 0x49
 7850 027c 13       		.uleb128 0x13
 7851 027d 3F       		.uleb128 0x3f
 7852 027e 19       		.uleb128 0x19
 7853 027f 3C       		.uleb128 0x3c
 7854 0280 19       		.uleb128 0x19
 7855 0281 00       		.byte	0
 7856 0282 00       		.byte	0
 7857 0283 2D       		.uleb128 0x2d
 7858 0284 35       		.uleb128 0x35
 7859 0285 00       		.byte	0
 7860 0286 49       		.uleb128 0x49
 7861 0287 13       		.uleb128 0x13
 7862 0288 00       		.byte	0
 7863 0289 00       		.byte	0
 7864 028a 2E       		.uleb128 0x2e
 7865 028b 2E       		.uleb128 0x2e
 7866 028c 00       		.byte	0
 7867 028d 3F       		.uleb128 0x3f
 7868 028e 19       		.uleb128 0x19
 7869 028f 3C       		.uleb128 0x3c
 7870 0290 19       		.uleb128 0x19
 7871 0291 6E       		.uleb128 0x6e
 7872 0292 0E       		.uleb128 0xe
 7873 0293 03       		.uleb128 0x3
ARM GAS  C:\Users\adria\AppData\Local\Temp\ccQ3AXqi.s 			page 175


 7874 0294 0E       		.uleb128 0xe
 7875 0295 3A       		.uleb128 0x3a
 7876 0296 0B       		.uleb128 0xb
 7877 0297 3B       		.uleb128 0x3b
 7878 0298 0B       		.uleb128 0xb
 7879 0299 00       		.byte	0
 7880 029a 00       		.byte	0
 7881 029b 2F       		.uleb128 0x2f
 7882 029c 2E       		.uleb128 0x2e
 7883 029d 00       		.byte	0
 7884 029e 3F       		.uleb128 0x3f
 7885 029f 19       		.uleb128 0x19
 7886 02a0 3C       		.uleb128 0x3c
 7887 02a1 19       		.uleb128 0x19
 7888 02a2 6E       		.uleb128 0x6e
 7889 02a3 0E       		.uleb128 0xe
 7890 02a4 03       		.uleb128 0x3
 7891 02a5 0E       		.uleb128 0xe
 7892 02a6 00       		.byte	0
 7893 02a7 00       		.byte	0
 7894 02a8 00       		.byte	0
 7895              		.section	.debug_loc,"",%progbits
 7896              	.Ldebug_loc0:
 7897              	.LLST0:
 7898 0000 00000000 		.4byte	.LVL0
 7899 0004 0A000000 		.4byte	.LVL1
 7900 0008 0100     		.2byte	0x1
 7901 000a 50       		.byte	0x50
 7902 000b 0A000000 		.4byte	.LVL1
 7903 000f 70000000 		.4byte	.LFE77
 7904 0013 0400     		.2byte	0x4
 7905 0015 F3       		.byte	0xf3
 7906 0016 01       		.uleb128 0x1
 7907 0017 50       		.byte	0x50
 7908 0018 9F       		.byte	0x9f
 7909 0019 00000000 		.4byte	0
 7910 001d 00000000 		.4byte	0
 7911              	.LLST1:
 7912 0021 0E000000 		.4byte	.LVL2
 7913 0025 2E000000 		.4byte	.LVL4
 7914 0029 0600     		.2byte	0x6
 7915 002b 52       		.byte	0x52
 7916 002c 93       		.byte	0x93
 7917 002d 04       		.uleb128 0x4
 7918 002e 53       		.byte	0x53
 7919 002f 93       		.byte	0x93
 7920 0030 04       		.uleb128 0x4
 7921 0031 00000000 		.4byte	0
 7922 0035 00000000 		.4byte	0
 7923              	.LLST2:
 7924 0039 42000000 		.4byte	.LVL6
 7925 003d 4E000000 		.4byte	.LVL7
 7926 0041 0600     		.2byte	0x6
 7927 0043 54       		.byte	0x54
 7928 0044 93       		.byte	0x93
 7929 0045 04       		.uleb128 0x4
 7930 0046 52       		.byte	0x52
ARM GAS  C:\Users\adria\AppData\Local\Temp\ccQ3AXqi.s 			page 176


 7931 0047 93       		.byte	0x93
 7932 0048 04       		.uleb128 0x4
 7933 0049 00000000 		.4byte	0
 7934 004d 00000000 		.4byte	0
 7935              	.LLST3:
 7936 0051 68000000 		.4byte	.LVL10
 7937 0055 6C000000 		.4byte	.LVL11
 7938 0059 0900     		.2byte	0x9
 7939 005b 70       		.byte	0x70
 7940 005c 00       		.sleb128 0
 7941 005d 09       		.byte	0x9
 7942 005e EC       		.byte	0xec
 7943 005f 24       		.byte	0x24
 7944 0060 09       		.byte	0x9
 7945 0061 F4       		.byte	0xf4
 7946 0062 26       		.byte	0x26
 7947 0063 9F       		.byte	0x9f
 7948 0064 6C000000 		.4byte	.LVL11
 7949 0068 70000000 		.4byte	.LFE77
 7950 006c 0F00     		.2byte	0xf
 7951 006e 71       		.byte	0x71
 7952 006f 30       		.sleb128 48
 7953 0070 06       		.byte	0x6
 7954 0071 35       		.byte	0x35
 7955 0072 1E       		.byte	0x1e
 7956 0073 23       		.byte	0x23
 7957 0074 8001     		.uleb128 0x80
 7958 0076 09       		.byte	0x9
 7959 0077 EC       		.byte	0xec
 7960 0078 24       		.byte	0x24
 7961 0079 09       		.byte	0x9
 7962 007a F4       		.byte	0xf4
 7963 007b 26       		.byte	0x26
 7964 007c 9F       		.byte	0x9f
 7965 007d 00000000 		.4byte	0
 7966 0081 00000000 		.4byte	0
 7967              	.LLST4:
 7968 0085 00000000 		.4byte	.LVL13
 7969 0089 5E000000 		.4byte	.LVL24
 7970 008d 0100     		.2byte	0x1
 7971 008f 50       		.byte	0x50
 7972 0090 5E000000 		.4byte	.LVL24
 7973 0094 C4000000 		.4byte	.LFE78
 7974 0098 0400     		.2byte	0x4
 7975 009a F3       		.byte	0xf3
 7976 009b 01       		.uleb128 0x1
 7977 009c 50       		.byte	0x50
 7978 009d 9F       		.byte	0x9f
 7979 009e 00000000 		.4byte	0
 7980 00a2 00000000 		.4byte	0
 7981              	.LLST5:
 7982 00a6 0A000000 		.4byte	.LVL14
 7983 00aa 46000000 		.4byte	.LVL18
 7984 00ae 0100     		.2byte	0x1
 7985 00b0 54       		.byte	0x54
 7986 00b1 46000000 		.4byte	.LVL18
 7987 00b5 4C000000 		.4byte	.LVL19
ARM GAS  C:\Users\adria\AppData\Local\Temp\ccQ3AXqi.s 			page 177


 7988 00b9 0A00     		.2byte	0xa
 7989 00bb 71       		.byte	0x71
 7990 00bc 30       		.sleb128 48
 7991 00bd 06       		.byte	0x6
 7992 00be 31       		.byte	0x31
 7993 00bf 26       		.byte	0x26
 7994 00c0 0A       		.byte	0xa
 7995 00c1 00FA     		.2byte	0xfa00
 7996 00c3 1C       		.byte	0x1c
 7997 00c4 9F       		.byte	0x9f
 7998 00c5 4C000000 		.4byte	.LVL19
 7999 00c9 52000000 		.4byte	.LVL21
 8000 00cd 0100     		.2byte	0x1
 8001 00cf 52       		.byte	0x52
 8002 00d0 52000000 		.4byte	.LVL21
 8003 00d4 58000000 		.4byte	.LVL22
 8004 00d8 0500     		.2byte	0x5
 8005 00da 72       		.byte	0x72
 8006 00db 80807E   		.sleb128 -32768
 8007 00de 9F       		.byte	0x9f
 8008 00df 58000000 		.4byte	.LVL22
 8009 00e3 5A000000 		.4byte	.LVL23
 8010 00e7 3800     		.2byte	0x38
 8011 00e9 71       		.byte	0x71
 8012 00ea 20       		.sleb128 32
 8013 00eb 94       		.byte	0x94
 8014 00ec 01       		.byte	0x1
 8015 00ed 48       		.byte	0x48
 8016 00ee 24       		.byte	0x24
 8017 00ef 48       		.byte	0x48
 8018 00f0 26       		.byte	0x26
 8019 00f1 35       		.byte	0x35
 8020 00f2 24       		.byte	0x24
 8021 00f3 71       		.byte	0x71
 8022 00f4 30       		.sleb128 48
 8023 00f5 06       		.byte	0x6
 8024 00f6 31       		.byte	0x31
 8025 00f7 26       		.byte	0x26
 8026 00f8 0A       		.byte	0xa
 8027 00f9 00FA     		.2byte	0xfa00
 8028 00fb 1C       		.byte	0x1c
 8029 00fc 32       		.byte	0x32
 8030 00fd 26       		.byte	0x26
 8031 00fe 71       		.byte	0x71
 8032 00ff 30       		.sleb128 48
 8033 0100 06       		.byte	0x6
 8034 0101 31       		.byte	0x31
 8035 0102 26       		.byte	0x26
 8036 0103 0A       		.byte	0xa
 8037 0104 00FA     		.2byte	0xfa00
 8038 0106 1C       		.byte	0x1c
 8039 0107 32       		.byte	0x32
 8040 0108 26       		.byte	0x26
 8041 0109 1E       		.byte	0x1e
 8042 010a 3D       		.byte	0x3d
 8043 010b 26       		.byte	0x26
 8044 010c 1E       		.byte	0x1e
ARM GAS  C:\Users\adria\AppData\Local\Temp\ccQ3AXqi.s 			page 178


 8045 010d 33       		.byte	0x33
 8046 010e 26       		.byte	0x26
 8047 010f 71       		.byte	0x71
 8048 0110 30       		.sleb128 48
 8049 0111 06       		.byte	0x6
 8050 0112 31       		.byte	0x31
 8051 0113 26       		.byte	0x26
 8052 0114 0A       		.byte	0xa
 8053 0115 00FA     		.2byte	0xfa00
 8054 0117 1C       		.byte	0x1c
 8055 0118 75       		.byte	0x75
 8056 0119 00       		.sleb128 0
 8057 011a 1E       		.byte	0x1e
 8058 011b 31       		.byte	0x31
 8059 011c 26       		.byte	0x26
 8060 011d 22       		.byte	0x22
 8061 011e 42       		.byte	0x42
 8062 011f 26       		.byte	0x26
 8063 0120 9F       		.byte	0x9f
 8064 0121 5A000000 		.4byte	.LVL23
 8065 0125 82000000 		.4byte	.LVL31
 8066 0129 0100     		.2byte	0x1
 8067 012b 52       		.byte	0x52
 8068 012c 82000000 		.4byte	.LVL31
 8069 0130 8E000000 		.4byte	.LVL32
 8070 0134 4700     		.2byte	0x47
 8071 0136 71       		.byte	0x71
 8072 0137 20       		.sleb128 32
 8073 0138 94       		.byte	0x94
 8074 0139 01       		.byte	0x1
 8075 013a 48       		.byte	0x48
 8076 013b 24       		.byte	0x24
 8077 013c 48       		.byte	0x48
 8078 013d 26       		.byte	0x26
 8079 013e 35       		.byte	0x35
 8080 013f 24       		.byte	0x24
 8081 0140 71       		.byte	0x71
 8082 0141 30       		.sleb128 48
 8083 0142 06       		.byte	0x6
 8084 0143 31       		.byte	0x31
 8085 0144 26       		.byte	0x26
 8086 0145 0A       		.byte	0xa
 8087 0146 00FA     		.2byte	0xfa00
 8088 0148 1C       		.byte	0x1c
 8089 0149 32       		.byte	0x32
 8090 014a 26       		.byte	0x26
 8091 014b 71       		.byte	0x71
 8092 014c 30       		.sleb128 48
 8093 014d 06       		.byte	0x6
 8094 014e 31       		.byte	0x31
 8095 014f 26       		.byte	0x26
 8096 0150 0A       		.byte	0xa
 8097 0151 00FA     		.2byte	0xfa00
 8098 0153 1C       		.byte	0x1c
 8099 0154 32       		.byte	0x32
 8100 0155 26       		.byte	0x26
 8101 0156 1E       		.byte	0x1e
ARM GAS  C:\Users\adria\AppData\Local\Temp\ccQ3AXqi.s 			page 179


 8102 0157 3D       		.byte	0x3d
 8103 0158 26       		.byte	0x26
 8104 0159 1E       		.byte	0x1e
 8105 015a 33       		.byte	0x33
 8106 015b 26       		.byte	0x26
 8107 015c 71       		.byte	0x71
 8108 015d 30       		.sleb128 48
 8109 015e 06       		.byte	0x6
 8110 015f 31       		.byte	0x31
 8111 0160 26       		.byte	0x26
 8112 0161 0A       		.byte	0xa
 8113 0162 00FA     		.2byte	0xfa00
 8114 0164 1C       		.byte	0x1c
 8115 0165 75       		.byte	0x75
 8116 0166 00       		.sleb128 0
 8117 0167 1E       		.byte	0x1e
 8118 0168 31       		.byte	0x31
 8119 0169 26       		.byte	0x26
 8120 016a 22       		.byte	0x22
 8121 016b 42       		.byte	0x42
 8122 016c 26       		.byte	0x26
 8123 016d 23       		.byte	0x23
 8124 016e 808002   		.uleb128 0x8000
 8125 0171 71       		.byte	0x71
 8126 0172 1C       		.sleb128 28
 8127 0173 94       		.byte	0x94
 8128 0174 02       		.byte	0x2
 8129 0175 0A       		.byte	0xa
 8130 0176 FFFF     		.2byte	0xffff
 8131 0178 1A       		.byte	0x1a
 8132 0179 1E       		.byte	0x1e
 8133 017a 3F       		.byte	0x3f
 8134 017b 26       		.byte	0x26
 8135 017c 9F       		.byte	0x9f
 8136 017d 8E000000 		.4byte	.LVL32
 8137 0181 C2000000 		.4byte	.LVL39
 8138 0185 0500     		.2byte	0x5
 8139 0187 75       		.byte	0x75
 8140 0188 00       		.sleb128 0
 8141 0189 3C       		.byte	0x3c
 8142 018a 26       		.byte	0x26
 8143 018b 9F       		.byte	0x9f
 8144 018c C2000000 		.4byte	.LVL39
 8145 0190 C4000000 		.4byte	.LFE78
 8146 0194 1700     		.2byte	0x17
 8147 0196 73       		.byte	0x73
 8148 0197 00       		.sleb128 0
 8149 0198 33       		.byte	0x33
 8150 0199 26       		.byte	0x26
 8151 019a 73       		.byte	0x73
 8152 019b 00       		.sleb128 0
 8153 019c 33       		.byte	0x33
 8154 019d 26       		.byte	0x26
 8155 019e 1E       		.byte	0x1e
 8156 019f 3D       		.byte	0x3d
 8157 01a0 26       		.byte	0x26
 8158 01a1 71       		.byte	0x71
ARM GAS  C:\Users\adria\AppData\Local\Temp\ccQ3AXqi.s 			page 180


 8159 01a2 2A       		.sleb128 42
 8160 01a3 94       		.byte	0x94
 8161 01a4 02       		.byte	0x2
 8162 01a5 40       		.byte	0x40
 8163 01a6 24       		.byte	0x24
 8164 01a7 40       		.byte	0x40
 8165 01a8 26       		.byte	0x26
 8166 01a9 1E       		.byte	0x1e
 8167 01aa 3C       		.byte	0x3c
 8168 01ab 26       		.byte	0x26
 8169 01ac 9F       		.byte	0x9f
 8170 01ad 00000000 		.4byte	0
 8171 01b1 00000000 		.4byte	0
 8172              	.LLST6:
 8173 01b5 1A000000 		.4byte	.LVL15
 8174 01b9 28000000 		.4byte	.LVL16
 8175 01bd 0500     		.2byte	0x5
 8176 01bf 72       		.byte	0x72
 8177 01c0 00       		.sleb128 0
 8178 01c1 32       		.byte	0x32
 8179 01c2 26       		.byte	0x26
 8180 01c3 9F       		.byte	0x9f
 8181 01c4 28000000 		.4byte	.LVL16
 8182 01c8 62000000 		.4byte	.LVL25
 8183 01cc 0100     		.2byte	0x1
 8184 01ce 53       		.byte	0x53
 8185 01cf 62000000 		.4byte	.LVL25
 8186 01d3 9A000000 		.4byte	.LVL33
 8187 01d7 4700     		.2byte	0x47
 8188 01d9 71       		.byte	0x71
 8189 01da 30       		.sleb128 48
 8190 01db 06       		.byte	0x6
 8191 01dc 31       		.byte	0x31
 8192 01dd 26       		.byte	0x26
 8193 01de 0A       		.byte	0xa
 8194 01df 00FA     		.2byte	0xfa00
 8195 01e1 1C       		.byte	0x1c
 8196 01e2 32       		.byte	0x32
 8197 01e3 26       		.byte	0x26
 8198 01e4 71       		.byte	0x71
 8199 01e5 30       		.sleb128 48
 8200 01e6 06       		.byte	0x6
 8201 01e7 31       		.byte	0x31
 8202 01e8 26       		.byte	0x26
 8203 01e9 0A       		.byte	0xa
 8204 01ea 00FA     		.2byte	0xfa00
 8205 01ec 1C       		.byte	0x1c
 8206 01ed 32       		.byte	0x32
 8207 01ee 26       		.byte	0x26
 8208 01ef 1E       		.byte	0x1e
 8209 01f0 3B       		.byte	0x3b
 8210 01f1 26       		.byte	0x26
 8211 01f2 71       		.byte	0x71
 8212 01f3 26       		.sleb128 38
 8213 01f4 94       		.byte	0x94
 8214 01f5 01       		.byte	0x1
 8215 01f6 48       		.byte	0x48
ARM GAS  C:\Users\adria\AppData\Local\Temp\ccQ3AXqi.s 			page 181


 8216 01f7 24       		.byte	0x24
 8217 01f8 48       		.byte	0x48
 8218 01f9 26       		.byte	0x26
 8219 01fa 1E       		.byte	0x1e
 8220 01fb 32       		.byte	0x32
 8221 01fc 26       		.byte	0x26
 8222 01fd 71       		.byte	0x71
 8223 01fe 30       		.sleb128 48
 8224 01ff 06       		.byte	0x6
 8225 0200 31       		.byte	0x31
 8226 0201 26       		.byte	0x26
 8227 0202 0A       		.byte	0xa
 8228 0203 00FA     		.2byte	0xfa00
 8229 0205 1C       		.byte	0x1c
 8230 0206 71       		.byte	0x71
 8231 0207 24       		.sleb128 36
 8232 0208 94       		.byte	0x94
 8233 0209 02       		.byte	0x2
 8234 020a 40       		.byte	0x40
 8235 020b 24       		.byte	0x24
 8236 020c 40       		.byte	0x40
 8237 020d 26       		.byte	0x26
 8238 020e 1E       		.byte	0x1e
 8239 020f 31       		.byte	0x31
 8240 0210 24       		.byte	0x24
 8241 0211 22       		.byte	0x22
 8242 0212 32       		.byte	0x32
 8243 0213 26       		.byte	0x26
 8244 0214 71       		.byte	0x71
 8245 0215 22       		.sleb128 34
 8246 0216 94       		.byte	0x94
 8247 0217 02       		.byte	0x2
 8248 0218 40       		.byte	0x40
 8249 0219 24       		.byte	0x24
 8250 021a 40       		.byte	0x40
 8251 021b 26       		.byte	0x26
 8252 021c 40       		.byte	0x40
 8253 021d 24       		.byte	0x24
 8254 021e 22       		.byte	0x22
 8255 021f 9F       		.byte	0x9f
 8256 0220 9A000000 		.4byte	.LVL33
 8257 0224 B0000000 		.4byte	.LVL35
 8258 0228 0100     		.2byte	0x1
 8259 022a 52       		.byte	0x52
 8260 022b B0000000 		.4byte	.LVL35
 8261 022f C4000000 		.4byte	.LFE78
 8262 0233 1000     		.2byte	0x10
 8263 0235 73       		.byte	0x73
 8264 0236 00       		.sleb128 0
 8265 0237 32       		.byte	0x32
 8266 0238 26       		.byte	0x26
 8267 0239 71       		.byte	0x71
 8268 023a 28       		.sleb128 40
 8269 023b 94       		.byte	0x94
 8270 023c 02       		.byte	0x2
 8271 023d 40       		.byte	0x40
 8272 023e 24       		.byte	0x24
ARM GAS  C:\Users\adria\AppData\Local\Temp\ccQ3AXqi.s 			page 182


 8273 023f 40       		.byte	0x40
 8274 0240 26       		.byte	0x26
 8275 0241 1E       		.byte	0x1e
 8276 0242 3D       		.byte	0x3d
 8277 0243 26       		.byte	0x26
 8278 0244 9F       		.byte	0x9f
 8279 0245 00000000 		.4byte	0
 8280 0249 00000000 		.4byte	0
 8281              	.LLST7:
 8282 024d AC000000 		.4byte	.LVL34
 8283 0251 B4000000 		.4byte	.LVL36
 8284 0255 0500     		.2byte	0x5
 8285 0257 70       		.byte	0x70
 8286 0258 00       		.sleb128 0
 8287 0259 41       		.byte	0x41
 8288 025a 26       		.byte	0x26
 8289 025b 9F       		.byte	0x9f
 8290 025c B4000000 		.4byte	.LVL36
 8291 0260 C2000000 		.4byte	.LVL39
 8292 0264 1400     		.2byte	0x14
 8293 0266 73       		.byte	0x73
 8294 0267 00       		.sleb128 0
 8295 0268 38       		.byte	0x38
 8296 0269 26       		.byte	0x26
 8297 026a 73       		.byte	0x73
 8298 026b 00       		.sleb128 0
 8299 026c 38       		.byte	0x38
 8300 026d 26       		.byte	0x26
 8301 026e 1E       		.byte	0x1e
 8302 026f 73       		.byte	0x73
 8303 0270 00       		.sleb128 0
 8304 0271 38       		.byte	0x38
 8305 0272 26       		.byte	0x26
 8306 0273 1E       		.byte	0x1e
 8307 0274 74       		.byte	0x74
 8308 0275 00       		.sleb128 0
 8309 0276 1E       		.byte	0x1e
 8310 0277 41       		.byte	0x41
 8311 0278 26       		.byte	0x26
 8312 0279 9F       		.byte	0x9f
 8313 027a C2000000 		.4byte	.LVL39
 8314 027e C4000000 		.4byte	.LFE78
 8315 0282 1900     		.2byte	0x19
 8316 0284 73       		.byte	0x73
 8317 0285 00       		.sleb128 0
 8318 0286 38       		.byte	0x38
 8319 0287 26       		.byte	0x26
 8320 0288 73       		.byte	0x73
 8321 0289 00       		.sleb128 0
 8322 028a 38       		.byte	0x38
 8323 028b 26       		.byte	0x26
 8324 028c 1E       		.byte	0x1e
 8325 028d 73       		.byte	0x73
 8326 028e 00       		.sleb128 0
 8327 028f 38       		.byte	0x38
 8328 0290 26       		.byte	0x26
 8329 0291 1E       		.byte	0x1e
ARM GAS  C:\Users\adria\AppData\Local\Temp\ccQ3AXqi.s 			page 183


 8330 0292 71       		.byte	0x71
 8331 0293 2C       		.sleb128 44
 8332 0294 94       		.byte	0x94
 8333 0295 01       		.byte	0x1
 8334 0296 08       		.byte	0x8
 8335 0297 FF       		.byte	0xff
 8336 0298 1A       		.byte	0x1a
 8337 0299 1E       		.byte	0x1e
 8338 029a 41       		.byte	0x41
 8339 029b 26       		.byte	0x26
 8340 029c 9F       		.byte	0x9f
 8341 029d 00000000 		.4byte	0
 8342 02a1 00000000 		.4byte	0
 8343              	.LLST8:
 8344 02a5 5E000000 		.4byte	.LVL24
 8345 02a9 76000000 		.4byte	.LVL27
 8346 02ad 0100     		.2byte	0x1
 8347 02af 50       		.byte	0x50
 8348 02b0 76000000 		.4byte	.LVL27
 8349 02b4 78000000 		.4byte	.LVL28
 8350 02b8 0100     		.2byte	0x1
 8351 02ba 53       		.byte	0x53
 8352 02bb 78000000 		.4byte	.LVL28
 8353 02bf 7A000000 		.4byte	.LVL29
 8354 02c3 0100     		.2byte	0x1
 8355 02c5 50       		.byte	0x50
 8356 02c6 7A000000 		.4byte	.LVL29
 8357 02ca 7E000000 		.4byte	.LVL30
 8358 02ce 0600     		.2byte	0x6
 8359 02d0 74       		.byte	0x74
 8360 02d1 00       		.sleb128 0
 8361 02d2 73       		.byte	0x73
 8362 02d3 00       		.sleb128 0
 8363 02d4 1E       		.byte	0x1e
 8364 02d5 9F       		.byte	0x9f
 8365 02d6 7E000000 		.4byte	.LVL30
 8366 02da BC000000 		.4byte	.LVL37
 8367 02de 0100     		.2byte	0x1
 8368 02e0 53       		.byte	0x53
 8369 02e1 BC000000 		.4byte	.LVL37
 8370 02e5 C0000000 		.4byte	.LVL38
 8371 02e9 0800     		.2byte	0x8
 8372 02eb 70       		.byte	0x70
 8373 02ec 00       		.sleb128 0
 8374 02ed 34       		.byte	0x34
 8375 02ee 26       		.byte	0x26
 8376 02ef 73       		.byte	0x73
 8377 02f0 00       		.sleb128 0
 8378 02f1 22       		.byte	0x22
 8379 02f2 9F       		.byte	0x9f
 8380 02f3 C0000000 		.4byte	.LVL38
 8381 02f7 C4000000 		.4byte	.LFE78
 8382 02fb 0100     		.2byte	0x1
 8383 02fd 50       		.byte	0x50
 8384 02fe 00000000 		.4byte	0
 8385 0302 00000000 		.4byte	0
 8386              	.LLST9:
ARM GAS  C:\Users\adria\AppData\Local\Temp\ccQ3AXqi.s 			page 184


 8387 0306 00000000 		.4byte	.LVL40
 8388 030a 12000000 		.4byte	.LVL42
 8389 030e 0100     		.2byte	0x1
 8390 0310 50       		.byte	0x50
 8391 0311 12000000 		.4byte	.LVL42
 8392 0315 C4000000 		.4byte	.LFE79
 8393 0319 0400     		.2byte	0x4
 8394 031b F3       		.byte	0xf3
 8395 031c 01       		.uleb128 0x1
 8396 031d 50       		.byte	0x50
 8397 031e 9F       		.byte	0x9f
 8398 031f 00000000 		.4byte	0
 8399 0323 00000000 		.4byte	0
 8400              	.LLST10:
 8401 0327 2A000000 		.4byte	.LVL43
 8402 032b 70000000 		.4byte	.LVL45
 8403 032f 0100     		.2byte	0x1
 8404 0331 50       		.byte	0x50
 8405 0332 00000000 		.4byte	0
 8406 0336 00000000 		.4byte	0
 8407              	.LLST11:
 8408 033a 6C000000 		.4byte	.LVL44
 8409 033e 76000000 		.4byte	.LVL47
 8410 0342 0100     		.2byte	0x1
 8411 0344 53       		.byte	0x53
 8412 0345 76000000 		.4byte	.LVL47
 8413 0349 7A000000 		.4byte	.LVL48
 8414 034d 4400     		.2byte	0x44
 8415 034f 7E       		.byte	0x7e
 8416 0350 00       		.sleb128 0
 8417 0351 35       		.byte	0x35
 8418 0352 26       		.byte	0x26
 8419 0353 71       		.byte	0x71
 8420 0354 0E       		.sleb128 14
 8421 0355 94       		.byte	0x94
 8422 0356 01       		.byte	0x1
 8423 0357 48       		.byte	0x48
 8424 0358 24       		.byte	0x24
 8425 0359 48       		.byte	0x48
 8426 035a 26       		.byte	0x26
 8427 035b 74       		.byte	0x74
 8428 035c 00       		.sleb128 0
 8429 035d 1E       		.byte	0x1e
 8430 035e F7       		.byte	0xf7
 8431 035f 33       		.uleb128 0x33
 8432 0360 F7       		.byte	0xf7
 8433 0361 25       		.uleb128 0x25
 8434 0362 75       		.byte	0x75
 8435 0363 00       		.sleb128 0
 8436 0364 F7       		.byte	0xf7
 8437 0365 33       		.uleb128 0x33
 8438 0366 F7       		.byte	0xf7
 8439 0367 25       		.uleb128 0x25
 8440 0368 1E       		.byte	0x1e
 8441 0369 08       		.byte	0x8
 8442 036a 20       		.byte	0x20
 8443 036b F7       		.byte	0xf7
ARM GAS  C:\Users\adria\AppData\Local\Temp\ccQ3AXqi.s 			page 185


 8444 036c 25       		.uleb128 0x25
 8445 036d 25       		.byte	0x25
 8446 036e F7       		.byte	0xf7
 8447 036f 2C       		.uleb128 0x2c
 8448 0370 35       		.byte	0x35
 8449 0371 26       		.byte	0x26
 8450 0372 71       		.byte	0x71
 8451 0373 0E       		.sleb128 14
 8452 0374 94       		.byte	0x94
 8453 0375 01       		.byte	0x1
 8454 0376 48       		.byte	0x48
 8455 0377 24       		.byte	0x24
 8456 0378 48       		.byte	0x48
 8457 0379 26       		.byte	0x26
 8458 037a 74       		.byte	0x74
 8459 037b 00       		.sleb128 0
 8460 037c 1E       		.byte	0x1e
 8461 037d 4F       		.byte	0x4f
 8462 037e 26       		.byte	0x26
 8463 037f 1C       		.byte	0x1c
 8464 0380 74       		.byte	0x74
 8465 0381 00       		.sleb128 0
 8466 0382 1E       		.byte	0x1e
 8467 0383 4F       		.byte	0x4f
 8468 0384 26       		.byte	0x26
 8469 0385 1C       		.byte	0x1c
 8470 0386 77       		.byte	0x77
 8471 0387 00       		.sleb128 0
 8472 0388 22       		.byte	0x22
 8473 0389 23       		.byte	0x23
 8474 038a 808001   		.uleb128 0x4000
 8475 038d 76       		.byte	0x76
 8476 038e 00       		.sleb128 0
 8477 038f 1E       		.byte	0x1e
 8478 0390 3A       		.byte	0x3a
 8479 0391 26       		.byte	0x26
 8480 0392 9F       		.byte	0x9f
 8481 0393 7A000000 		.4byte	.LVL48
 8482 0397 7E000000 		.4byte	.LVL49
 8483 039b 5C00     		.2byte	0x5c
 8484 039d 7E       		.byte	0x7e
 8485 039e 00       		.sleb128 0
 8486 039f 35       		.byte	0x35
 8487 03a0 26       		.byte	0x26
 8488 03a1 71       		.byte	0x71
 8489 03a2 30       		.sleb128 48
 8490 03a3 06       		.byte	0x6
 8491 03a4 35       		.byte	0x35
 8492 03a5 1E       		.byte	0x1e
 8493 03a6 23       		.byte	0x23
 8494 03a7 8001     		.uleb128 0x80
 8495 03a9 38       		.byte	0x38
 8496 03aa 26       		.byte	0x26
 8497 03ab F7       		.byte	0xf7
 8498 03ac 33       		.uleb128 0x33
 8499 03ad F7       		.byte	0xf7
 8500 03ae 25       		.uleb128 0x25
ARM GAS  C:\Users\adria\AppData\Local\Temp\ccQ3AXqi.s 			page 186


 8501 03af 71       		.byte	0x71
 8502 03b0 0E       		.sleb128 14
 8503 03b1 94       		.byte	0x94
 8504 03b2 01       		.byte	0x1
 8505 03b3 F7       		.byte	0xf7
 8506 03b4 3A       		.uleb128 0x3a
 8507 03b5 F7       		.byte	0xf7
 8508 03b6 25       		.uleb128 0x25
 8509 03b7 1E       		.byte	0x1e
 8510 03b8 75       		.byte	0x75
 8511 03b9 00       		.sleb128 0
 8512 03ba F7       		.byte	0xf7
 8513 03bb 33       		.uleb128 0x33
 8514 03bc F7       		.byte	0xf7
 8515 03bd 25       		.uleb128 0x25
 8516 03be 1E       		.byte	0x1e
 8517 03bf 08       		.byte	0x8
 8518 03c0 20       		.byte	0x20
 8519 03c1 F7       		.byte	0xf7
 8520 03c2 25       		.uleb128 0x25
 8521 03c3 25       		.byte	0x25
 8522 03c4 F7       		.byte	0xf7
 8523 03c5 2C       		.uleb128 0x2c
 8524 03c6 35       		.byte	0x35
 8525 03c7 26       		.byte	0x26
 8526 03c8 71       		.byte	0x71
 8527 03c9 30       		.sleb128 48
 8528 03ca 06       		.byte	0x6
 8529 03cb 35       		.byte	0x35
 8530 03cc 1E       		.byte	0x1e
 8531 03cd 23       		.byte	0x23
 8532 03ce 8001     		.uleb128 0x80
 8533 03d0 38       		.byte	0x38
 8534 03d1 26       		.byte	0x26
 8535 03d2 71       		.byte	0x71
 8536 03d3 0E       		.sleb128 14
 8537 03d4 94       		.byte	0x94
 8538 03d5 01       		.byte	0x1
 8539 03d6 48       		.byte	0x48
 8540 03d7 24       		.byte	0x24
 8541 03d8 48       		.byte	0x48
 8542 03d9 26       		.byte	0x26
 8543 03da 1E       		.byte	0x1e
 8544 03db 4F       		.byte	0x4f
 8545 03dc 26       		.byte	0x26
 8546 03dd 1C       		.byte	0x1c
 8547 03de 71       		.byte	0x71
 8548 03df 30       		.sleb128 48
 8549 03e0 06       		.byte	0x6
 8550 03e1 35       		.byte	0x35
 8551 03e2 1E       		.byte	0x1e
 8552 03e3 23       		.byte	0x23
 8553 03e4 8001     		.uleb128 0x80
 8554 03e6 38       		.byte	0x38
 8555 03e7 26       		.byte	0x26
 8556 03e8 1E       		.byte	0x1e
 8557 03e9 4F       		.byte	0x4f
ARM GAS  C:\Users\adria\AppData\Local\Temp\ccQ3AXqi.s 			page 187


 8558 03ea 26       		.byte	0x26
 8559 03eb 1C       		.byte	0x1c
 8560 03ec 77       		.byte	0x77
 8561 03ed 00       		.sleb128 0
 8562 03ee 22       		.byte	0x22
 8563 03ef 23       		.byte	0x23
 8564 03f0 808001   		.uleb128 0x4000
 8565 03f3 76       		.byte	0x76
 8566 03f4 00       		.sleb128 0
 8567 03f5 1E       		.byte	0x1e
 8568 03f6 3A       		.byte	0x3a
 8569 03f7 26       		.byte	0x26
 8570 03f8 9F       		.byte	0x9f
 8571 03f9 7E000000 		.4byte	.LVL49
 8572 03fd BA000000 		.4byte	.LVL60
 8573 0401 5D00     		.2byte	0x5d
 8574 0403 7E       		.byte	0x7e
 8575 0404 00       		.sleb128 0
 8576 0405 35       		.byte	0x35
 8577 0406 26       		.byte	0x26
 8578 0407 71       		.byte	0x71
 8579 0408 30       		.sleb128 48
 8580 0409 06       		.byte	0x6
 8581 040a 35       		.byte	0x35
 8582 040b 1E       		.byte	0x1e
 8583 040c 23       		.byte	0x23
 8584 040d 8001     		.uleb128 0x80
 8585 040f 38       		.byte	0x38
 8586 0410 26       		.byte	0x26
 8587 0411 F7       		.byte	0xf7
 8588 0412 33       		.uleb128 0x33
 8589 0413 F7       		.byte	0xf7
 8590 0414 25       		.uleb128 0x25
 8591 0415 71       		.byte	0x71
 8592 0416 0E       		.sleb128 14
 8593 0417 94       		.byte	0x94
 8594 0418 01       		.byte	0x1
 8595 0419 F7       		.byte	0xf7
 8596 041a 3A       		.uleb128 0x3a
 8597 041b F7       		.byte	0xf7
 8598 041c 25       		.uleb128 0x25
 8599 041d 1E       		.byte	0x1e
 8600 041e 0C       		.byte	0xc
 8601 041f 1F85EB51 		.4byte	0x51eb851f
 8602 0423 F7       		.byte	0xf7
 8603 0424 25       		.uleb128 0x25
 8604 0425 1E       		.byte	0x1e
 8605 0426 08       		.byte	0x8
 8606 0427 20       		.byte	0x20
 8607 0428 F7       		.byte	0xf7
 8608 0429 25       		.uleb128 0x25
 8609 042a 25       		.byte	0x25
 8610 042b F7       		.byte	0xf7
 8611 042c 2C       		.uleb128 0x2c
 8612 042d 35       		.byte	0x35
 8613 042e 26       		.byte	0x26
 8614 042f 71       		.byte	0x71
ARM GAS  C:\Users\adria\AppData\Local\Temp\ccQ3AXqi.s 			page 188


 8615 0430 30       		.sleb128 48
 8616 0431 06       		.byte	0x6
 8617 0432 35       		.byte	0x35
 8618 0433 1E       		.byte	0x1e
 8619 0434 23       		.byte	0x23
 8620 0435 8001     		.uleb128 0x80
 8621 0437 38       		.byte	0x38
 8622 0438 26       		.byte	0x26
 8623 0439 71       		.byte	0x71
 8624 043a 0E       		.sleb128 14
 8625 043b 94       		.byte	0x94
 8626 043c 01       		.byte	0x1
 8627 043d 48       		.byte	0x48
 8628 043e 24       		.byte	0x24
 8629 043f 48       		.byte	0x48
 8630 0440 26       		.byte	0x26
 8631 0441 1E       		.byte	0x1e
 8632 0442 4F       		.byte	0x4f
 8633 0443 26       		.byte	0x26
 8634 0444 1C       		.byte	0x1c
 8635 0445 71       		.byte	0x71
 8636 0446 30       		.sleb128 48
 8637 0447 06       		.byte	0x6
 8638 0448 35       		.byte	0x35
 8639 0449 1E       		.byte	0x1e
 8640 044a 23       		.byte	0x23
 8641 044b 8001     		.uleb128 0x80
 8642 044d 38       		.byte	0x38
 8643 044e 26       		.byte	0x26
 8644 044f 1E       		.byte	0x1e
 8645 0450 4F       		.byte	0x4f
 8646 0451 26       		.byte	0x26
 8647 0452 1C       		.byte	0x1c
 8648 0453 77       		.byte	0x77
 8649 0454 00       		.sleb128 0
 8650 0455 22       		.byte	0x22
 8651 0456 23       		.byte	0x23
 8652 0457 808001   		.uleb128 0x4000
 8653 045a 76       		.byte	0x76
 8654 045b 00       		.sleb128 0
 8655 045c 1E       		.byte	0x1e
 8656 045d 3A       		.byte	0x3a
 8657 045e 26       		.byte	0x26
 8658 045f 9F       		.byte	0x9f
 8659 0460 BA000000 		.4byte	.LVL60
 8660 0464 C4000000 		.4byte	.LFE79
 8661 0468 9F00     		.2byte	0x9f
 8662 046a 71       		.byte	0x71
 8663 046b 30       		.sleb128 48
 8664 046c 06       		.byte	0x6
 8665 046d 35       		.byte	0x35
 8666 046e 1E       		.byte	0x1e
 8667 046f 23       		.byte	0x23
 8668 0470 8001     		.uleb128 0x80
 8669 0472 38       		.byte	0x38
 8670 0473 26       		.byte	0x26
 8671 0474 F7       		.byte	0xf7
ARM GAS  C:\Users\adria\AppData\Local\Temp\ccQ3AXqi.s 			page 189


 8672 0475 33       		.uleb128 0x33
 8673 0476 F7       		.byte	0xf7
 8674 0477 25       		.uleb128 0x25
 8675 0478 71       		.byte	0x71
 8676 0479 0D       		.sleb128 13
 8677 047a 94       		.byte	0x94
 8678 047b 01       		.byte	0x1
 8679 047c F7       		.byte	0xf7
 8680 047d 3A       		.uleb128 0x3a
 8681 047e F7       		.byte	0xf7
 8682 047f 25       		.uleb128 0x25
 8683 0480 1E       		.byte	0x1e
 8684 0481 0C       		.byte	0xc
 8685 0482 1F85EB51 		.4byte	0x51eb851f
 8686 0486 F7       		.byte	0xf7
 8687 0487 25       		.uleb128 0x25
 8688 0488 1E       		.byte	0x1e
 8689 0489 08       		.byte	0x8
 8690 048a 20       		.byte	0x20
 8691 048b F7       		.byte	0xf7
 8692 048c 25       		.uleb128 0x25
 8693 048d 25       		.byte	0x25
 8694 048e F7       		.byte	0xf7
 8695 048f 2C       		.uleb128 0x2c
 8696 0490 35       		.byte	0x35
 8697 0491 26       		.byte	0x26
 8698 0492 71       		.byte	0x71
 8699 0493 30       		.sleb128 48
 8700 0494 06       		.byte	0x6
 8701 0495 35       		.byte	0x35
 8702 0496 1E       		.byte	0x1e
 8703 0497 23       		.byte	0x23
 8704 0498 8001     		.uleb128 0x80
 8705 049a 38       		.byte	0x38
 8706 049b 26       		.byte	0x26
 8707 049c F7       		.byte	0xf7
 8708 049d 33       		.uleb128 0x33
 8709 049e F7       		.byte	0xf7
 8710 049f 25       		.uleb128 0x25
 8711 04a0 71       		.byte	0x71
 8712 04a1 0E       		.sleb128 14
 8713 04a2 94       		.byte	0x94
 8714 04a3 01       		.byte	0x1
 8715 04a4 F7       		.byte	0xf7
 8716 04a5 3A       		.uleb128 0x3a
 8717 04a6 F7       		.byte	0xf7
 8718 04a7 25       		.uleb128 0x25
 8719 04a8 1E       		.byte	0x1e
 8720 04a9 0C       		.byte	0xc
 8721 04aa 1F85EB51 		.4byte	0x51eb851f
 8722 04ae F7       		.byte	0xf7
 8723 04af 25       		.uleb128 0x25
 8724 04b0 1E       		.byte	0x1e
 8725 04b1 08       		.byte	0x8
 8726 04b2 20       		.byte	0x20
 8727 04b3 F7       		.byte	0xf7
 8728 04b4 25       		.uleb128 0x25
ARM GAS  C:\Users\adria\AppData\Local\Temp\ccQ3AXqi.s 			page 190


 8729 04b5 25       		.byte	0x25
 8730 04b6 F7       		.byte	0xf7
 8731 04b7 2C       		.uleb128 0x2c
 8732 04b8 35       		.byte	0x35
 8733 04b9 26       		.byte	0x26
 8734 04ba 71       		.byte	0x71
 8735 04bb 30       		.sleb128 48
 8736 04bc 06       		.byte	0x6
 8737 04bd 35       		.byte	0x35
 8738 04be 1E       		.byte	0x1e
 8739 04bf 23       		.byte	0x23
 8740 04c0 8001     		.uleb128 0x80
 8741 04c2 38       		.byte	0x38
 8742 04c3 26       		.byte	0x26
 8743 04c4 71       		.byte	0x71
 8744 04c5 0E       		.sleb128 14
 8745 04c6 94       		.byte	0x94
 8746 04c7 01       		.byte	0x1
 8747 04c8 48       		.byte	0x48
 8748 04c9 24       		.byte	0x24
 8749 04ca 48       		.byte	0x48
 8750 04cb 26       		.byte	0x26
 8751 04cc 1E       		.byte	0x1e
 8752 04cd 4F       		.byte	0x4f
 8753 04ce 26       		.byte	0x26
 8754 04cf 1C       		.byte	0x1c
 8755 04d0 71       		.byte	0x71
 8756 04d1 30       		.sleb128 48
 8757 04d2 06       		.byte	0x6
 8758 04d3 35       		.byte	0x35
 8759 04d4 1E       		.byte	0x1e
 8760 04d5 23       		.byte	0x23
 8761 04d6 8001     		.uleb128 0x80
 8762 04d8 38       		.byte	0x38
 8763 04d9 26       		.byte	0x26
 8764 04da 1E       		.byte	0x1e
 8765 04db 4F       		.byte	0x4f
 8766 04dc 26       		.byte	0x26
 8767 04dd 1C       		.byte	0x1c
 8768 04de 71       		.byte	0x71
 8769 04df 30       		.sleb128 48
 8770 04e0 06       		.byte	0x6
 8771 04e1 35       		.byte	0x35
 8772 04e2 1E       		.byte	0x1e
 8773 04e3 23       		.byte	0x23
 8774 04e4 8001     		.uleb128 0x80
 8775 04e6 38       		.byte	0x38
 8776 04e7 26       		.byte	0x26
 8777 04e8 71       		.byte	0x71
 8778 04e9 0D       		.sleb128 13
 8779 04ea 94       		.byte	0x94
 8780 04eb 01       		.byte	0x1
 8781 04ec 48       		.byte	0x48
 8782 04ed 24       		.byte	0x24
 8783 04ee 48       		.byte	0x48
 8784 04ef 26       		.byte	0x26
 8785 04f0 1E       		.byte	0x1e
ARM GAS  C:\Users\adria\AppData\Local\Temp\ccQ3AXqi.s 			page 191


 8786 04f1 4F       		.byte	0x4f
 8787 04f2 26       		.byte	0x26
 8788 04f3 1C       		.byte	0x1c
 8789 04f4 7E       		.byte	0x7e
 8790 04f5 00       		.sleb128 0
 8791 04f6 35       		.byte	0x35
 8792 04f7 26       		.byte	0x26
 8793 04f8 22       		.byte	0x22
 8794 04f9 23       		.byte	0x23
 8795 04fa 808001   		.uleb128 0x4000
 8796 04fd 71       		.byte	0x71
 8797 04fe 0A       		.sleb128 10
 8798 04ff 94       		.byte	0x94
 8799 0500 02       		.byte	0x2
 8800 0501 0A       		.byte	0xa
 8801 0502 FFFF     		.2byte	0xffff
 8802 0504 1A       		.byte	0x1a
 8803 0505 1E       		.byte	0x1e
 8804 0506 3A       		.byte	0x3a
 8805 0507 26       		.byte	0x26
 8806 0508 9F       		.byte	0x9f
 8807 0509 00000000 		.4byte	0
 8808 050d 00000000 		.4byte	0
 8809              	.LLST12:
 8810 0511 70000000 		.4byte	.LVL45
 8811 0515 9A000000 		.4byte	.LVL53
 8812 0519 0100     		.2byte	0x1
 8813 051b 50       		.byte	0x50
 8814 051c 00000000 		.4byte	0
 8815 0520 00000000 		.4byte	0
 8816              	.LLST13:
 8817 0524 72000000 		.4byte	.LVL46
 8818 0528 8A000000 		.4byte	.LVL50
 8819 052c 0500     		.2byte	0x5
 8820 052e 72       		.byte	0x72
 8821 052f 00       		.sleb128 0
 8822 0530 37       		.byte	0x37
 8823 0531 24       		.byte	0x24
 8824 0532 9F       		.byte	0x9f
 8825 0533 8A000000 		.4byte	.LVL50
 8826 0537 96000000 		.4byte	.LVL52
 8827 053b 0100     		.2byte	0x1
 8828 053d 54       		.byte	0x54
 8829 053e 96000000 		.4byte	.LVL52
 8830 0542 A0000000 		.4byte	.LVL54
 8831 0546 2200     		.2byte	0x22
 8832 0548 72       		.byte	0x72
 8833 0549 00       		.sleb128 0
 8834 054a 37       		.byte	0x37
 8835 054b 24       		.byte	0x24
 8836 054c 75       		.byte	0x75
 8837 054d 00       		.sleb128 0
 8838 054e 35       		.byte	0x35
 8839 054f 26       		.byte	0x26
 8840 0550 71       		.byte	0x71
 8841 0551 30       		.sleb128 48
 8842 0552 06       		.byte	0x6
ARM GAS  C:\Users\adria\AppData\Local\Temp\ccQ3AXqi.s 			page 192


 8843 0553 35       		.byte	0x35
 8844 0554 1E       		.byte	0x1e
 8845 0555 23       		.byte	0x23
 8846 0556 8001     		.uleb128 0x80
 8847 0558 38       		.byte	0x38
 8848 0559 26       		.byte	0x26
 8849 055a 71       		.byte	0x71
 8850 055b 10       		.sleb128 16
 8851 055c 94       		.byte	0x94
 8852 055d 01       		.byte	0x1
 8853 055e 48       		.byte	0x48
 8854 055f 24       		.byte	0x24
 8855 0560 48       		.byte	0x48
 8856 0561 26       		.byte	0x26
 8857 0562 1E       		.byte	0x1e
 8858 0563 4F       		.byte	0x4f
 8859 0564 26       		.byte	0x26
 8860 0565 1C       		.byte	0x1c
 8861 0566 22       		.byte	0x22
 8862 0567 34       		.byte	0x34
 8863 0568 26       		.byte	0x26
 8864 0569 9F       		.byte	0x9f
 8865 056a A0000000 		.4byte	.LVL54
 8866 056e BA000000 		.4byte	.LVL60
 8867 0572 2700     		.2byte	0x27
 8868 0574 71       		.byte	0x71
 8869 0575 0F       		.sleb128 15
 8870 0576 94       		.byte	0x94
 8871 0577 01       		.byte	0x1
 8872 0578 08       		.byte	0x8
 8873 0579 FF       		.byte	0xff
 8874 057a 1A       		.byte	0x1a
 8875 057b 37       		.byte	0x37
 8876 057c 24       		.byte	0x24
 8877 057d 75       		.byte	0x75
 8878 057e 00       		.sleb128 0
 8879 057f 35       		.byte	0x35
 8880 0580 26       		.byte	0x26
 8881 0581 71       		.byte	0x71
 8882 0582 30       		.sleb128 48
 8883 0583 06       		.byte	0x6
 8884 0584 35       		.byte	0x35
 8885 0585 1E       		.byte	0x1e
 8886 0586 23       		.byte	0x23
 8887 0587 8001     		.uleb128 0x80
 8888 0589 38       		.byte	0x38
 8889 058a 26       		.byte	0x26
 8890 058b 71       		.byte	0x71
 8891 058c 10       		.sleb128 16
 8892 058d 94       		.byte	0x94
 8893 058e 01       		.byte	0x1
 8894 058f 48       		.byte	0x48
 8895 0590 24       		.byte	0x24
 8896 0591 48       		.byte	0x48
 8897 0592 26       		.byte	0x26
 8898 0593 1E       		.byte	0x1e
 8899 0594 4F       		.byte	0x4f
ARM GAS  C:\Users\adria\AppData\Local\Temp\ccQ3AXqi.s 			page 193


 8900 0595 26       		.byte	0x26
 8901 0596 1C       		.byte	0x1c
 8902 0597 22       		.byte	0x22
 8903 0598 34       		.byte	0x34
 8904 0599 26       		.byte	0x26
 8905 059a 9F       		.byte	0x9f
 8906 059b BA000000 		.4byte	.LVL60
 8907 059f C4000000 		.4byte	.LFE79
 8908 05a3 4B00     		.2byte	0x4b
 8909 05a5 71       		.byte	0x71
 8910 05a6 0F       		.sleb128 15
 8911 05a7 94       		.byte	0x94
 8912 05a8 01       		.byte	0x1
 8913 05a9 08       		.byte	0x8
 8914 05aa FF       		.byte	0xff
 8915 05ab 1A       		.byte	0x1a
 8916 05ac 37       		.byte	0x37
 8917 05ad 24       		.byte	0x24
 8918 05ae 71       		.byte	0x71
 8919 05af 30       		.sleb128 48
 8920 05b0 06       		.byte	0x6
 8921 05b1 35       		.byte	0x35
 8922 05b2 1E       		.byte	0x1e
 8923 05b3 23       		.byte	0x23
 8924 05b4 8001     		.uleb128 0x80
 8925 05b6 38       		.byte	0x38
 8926 05b7 26       		.byte	0x26
 8927 05b8 F7       		.byte	0xf7
 8928 05b9 33       		.uleb128 0x33
 8929 05ba F7       		.byte	0xf7
 8930 05bb 25       		.uleb128 0x25
 8931 05bc 71       		.byte	0x71
 8932 05bd 10       		.sleb128 16
 8933 05be 94       		.byte	0x94
 8934 05bf 01       		.byte	0x1
 8935 05c0 F7       		.byte	0xf7
 8936 05c1 3A       		.uleb128 0x3a
 8937 05c2 F7       		.byte	0xf7
 8938 05c3 25       		.uleb128 0x25
 8939 05c4 1E       		.byte	0x1e
 8940 05c5 0C       		.byte	0xc
 8941 05c6 1F85EB51 		.4byte	0x51eb851f
 8942 05ca F7       		.byte	0xf7
 8943 05cb 25       		.uleb128 0x25
 8944 05cc 1E       		.byte	0x1e
 8945 05cd 08       		.byte	0x8
 8946 05ce 20       		.byte	0x20
 8947 05cf F7       		.byte	0xf7
 8948 05d0 25       		.uleb128 0x25
 8949 05d1 25       		.byte	0x25
 8950 05d2 F7       		.byte	0xf7
 8951 05d3 2C       		.uleb128 0x2c
 8952 05d4 35       		.byte	0x35
 8953 05d5 26       		.byte	0x26
 8954 05d6 71       		.byte	0x71
 8955 05d7 30       		.sleb128 48
 8956 05d8 06       		.byte	0x6
ARM GAS  C:\Users\adria\AppData\Local\Temp\ccQ3AXqi.s 			page 194


 8957 05d9 35       		.byte	0x35
 8958 05da 1E       		.byte	0x1e
 8959 05db 23       		.byte	0x23
 8960 05dc 8001     		.uleb128 0x80
 8961 05de 38       		.byte	0x38
 8962 05df 26       		.byte	0x26
 8963 05e0 71       		.byte	0x71
 8964 05e1 10       		.sleb128 16
 8965 05e2 94       		.byte	0x94
 8966 05e3 01       		.byte	0x1
 8967 05e4 48       		.byte	0x48
 8968 05e5 24       		.byte	0x24
 8969 05e6 48       		.byte	0x48
 8970 05e7 26       		.byte	0x26
 8971 05e8 1E       		.byte	0x1e
 8972 05e9 4F       		.byte	0x4f
 8973 05ea 26       		.byte	0x26
 8974 05eb 1C       		.byte	0x1c
 8975 05ec 22       		.byte	0x22
 8976 05ed 34       		.byte	0x34
 8977 05ee 26       		.byte	0x26
 8978 05ef 9F       		.byte	0x9f
 8979 05f0 00000000 		.4byte	0
 8980 05f4 00000000 		.4byte	0
 8981              	.LLST14:
 8982 05f8 92000000 		.4byte	.LVL51
 8983 05fc A8000000 		.4byte	.LVL56
 8984 0600 0100     		.2byte	0x1
 8985 0602 53       		.byte	0x53
 8986 0603 00000000 		.4byte	0
 8987 0607 00000000 		.4byte	0
 8988              	.LLST15:
 8989 060b 96000000 		.4byte	.LVL52
 8990 060f BA000000 		.4byte	.LVL60
 8991 0613 0500     		.2byte	0x5
 8992 0615 74       		.byte	0x74
 8993 0616 00       		.sleb128 0
 8994 0617 31       		.byte	0x31
 8995 0618 26       		.byte	0x26
 8996 0619 9F       		.byte	0x9f
 8997 061a 00000000 		.4byte	0
 8998 061e 00000000 		.4byte	0
 8999              	.LLST16:
 9000 0622 0C000000 		.4byte	.LVL41
 9001 0626 7A000000 		.4byte	.LVL48
 9002 062a 0100     		.2byte	0x1
 9003 062c 54       		.byte	0x54
 9004 062d 7A000000 		.4byte	.LVL48
 9005 0631 C4000000 		.4byte	.LFE79
 9006 0635 0B00     		.2byte	0xb
 9007 0637 71       		.byte	0x71
 9008 0638 30       		.sleb128 48
 9009 0639 06       		.byte	0x6
 9010 063a 35       		.byte	0x35
 9011 063b 1E       		.byte	0x1e
 9012 063c 23       		.byte	0x23
 9013 063d 8001     		.uleb128 0x80
ARM GAS  C:\Users\adria\AppData\Local\Temp\ccQ3AXqi.s 			page 195


 9014 063f 38       		.byte	0x38
 9015 0640 26       		.byte	0x26
 9016 0641 9F       		.byte	0x9f
 9017 0642 00000000 		.4byte	0
 9018 0646 00000000 		.4byte	0
 9019              	.LLST17:
 9020 064a A6000000 		.4byte	.LVL55
 9021 064e B4000000 		.4byte	.LVL57
 9022 0652 0100     		.2byte	0x1
 9023 0654 50       		.byte	0x50
 9024 0655 B6000000 		.4byte	.LVL58
 9025 0659 C4000000 		.4byte	.LFE79
 9026 065d 0100     		.2byte	0x1
 9027 065f 50       		.byte	0x50
 9028 0660 00000000 		.4byte	0
 9029 0664 00000000 		.4byte	0
 9030              	.LLST18:
 9031 0668 00000000 		.4byte	.LVL61
 9032 066c 12000000 		.4byte	.LVL62
 9033 0670 0100     		.2byte	0x1
 9034 0672 50       		.byte	0x50
 9035 0673 12000000 		.4byte	.LVL62
 9036 0677 AC000000 		.4byte	.LFE80
 9037 067b 0400     		.2byte	0x4
 9038 067d F3       		.byte	0xf3
 9039 067e 01       		.uleb128 0x1
 9040 067f 50       		.byte	0x50
 9041 0680 9F       		.byte	0x9f
 9042 0681 00000000 		.4byte	0
 9043 0685 00000000 		.4byte	0
 9044              	.LLST19:
 9045 0689 00000000 		.4byte	.LVL61
 9046 068d 12000000 		.4byte	.LVL62
 9047 0691 0100     		.2byte	0x1
 9048 0693 51       		.byte	0x51
 9049 0694 12000000 		.4byte	.LVL62
 9050 0698 AC000000 		.4byte	.LFE80
 9051 069c 0400     		.2byte	0x4
 9052 069e F3       		.byte	0xf3
 9053 069f 01       		.uleb128 0x1
 9054 06a0 51       		.byte	0x51
 9055 06a1 9F       		.byte	0x9f
 9056 06a2 00000000 		.4byte	0
 9057 06a6 00000000 		.4byte	0
 9058              	.LLST20:
 9059 06aa 00000000 		.4byte	.LVL61
 9060 06ae 12000000 		.4byte	.LVL62
 9061 06b2 0100     		.2byte	0x1
 9062 06b4 52       		.byte	0x52
 9063 06b5 12000000 		.4byte	.LVL62
 9064 06b9 A3000000 		.4byte	.LVL68-1
 9065 06bd 0100     		.2byte	0x1
 9066 06bf 5C       		.byte	0x5c
 9067 06c0 A3000000 		.4byte	.LVL68-1
 9068 06c4 AC000000 		.4byte	.LFE80
 9069 06c8 0400     		.2byte	0x4
 9070 06ca F3       		.byte	0xf3
ARM GAS  C:\Users\adria\AppData\Local\Temp\ccQ3AXqi.s 			page 196


 9071 06cb 01       		.uleb128 0x1
 9072 06cc 52       		.byte	0x52
 9073 06cd 9F       		.byte	0x9f
 9074 06ce 00000000 		.4byte	0
 9075 06d2 00000000 		.4byte	0
 9076              	.LLST21:
 9077 06d6 72000000 		.4byte	.LVL63
 9078 06da 90000000 		.4byte	.LVL65
 9079 06de 0600     		.2byte	0x6
 9080 06e0 50       		.byte	0x50
 9081 06e1 93       		.byte	0x93
 9082 06e2 04       		.uleb128 0x4
 9083 06e3 51       		.byte	0x51
 9084 06e4 93       		.byte	0x93
 9085 06e5 04       		.uleb128 0x4
 9086 06e6 00000000 		.4byte	0
 9087 06ea 00000000 		.4byte	0
 9088              	.LLST22:
 9089 06ee 82000000 		.4byte	.LVL64
 9090 06f2 A3000000 		.4byte	.LVL68-1
 9091 06f6 0600     		.2byte	0x6
 9092 06f8 52       		.byte	0x52
 9093 06f9 93       		.byte	0x93
 9094 06fa 04       		.uleb128 0x4
 9095 06fb 53       		.byte	0x53
 9096 06fc 93       		.byte	0x93
 9097 06fd 04       		.uleb128 0x4
 9098 06fe 00000000 		.4byte	0
 9099 0702 00000000 		.4byte	0
 9100              	.LLST23:
 9101 0706 96000000 		.4byte	.LVL66
 9102 070a 9E000000 		.4byte	.LVL67
 9103 070e 0600     		.2byte	0x6
 9104 0710 50       		.byte	0x50
 9105 0711 93       		.byte	0x93
 9106 0712 04       		.uleb128 0x4
 9107 0713 51       		.byte	0x51
 9108 0714 93       		.byte	0x93
 9109 0715 04       		.uleb128 0x4
 9110 0716 00000000 		.4byte	0
 9111 071a 00000000 		.4byte	0
 9112              	.LLST24:
 9113 071e 00000000 		.4byte	.LVL69
 9114 0722 0C000000 		.4byte	.LVL70
 9115 0726 0100     		.2byte	0x1
 9116 0728 50       		.byte	0x50
 9117 0729 0C000000 		.4byte	.LVL70
 9118 072d 90000000 		.4byte	.LVL79
 9119 0731 0100     		.2byte	0x1
 9120 0733 50       		.byte	0x50
 9121 0734 00000000 		.4byte	0
 9122 0738 00000000 		.4byte	0
 9123              	.LLST25:
 9124 073c 00000000 		.4byte	.LVL69
 9125 0740 7C000000 		.4byte	.LVL76
 9126 0744 0100     		.2byte	0x1
 9127 0746 51       		.byte	0x51
ARM GAS  C:\Users\adria\AppData\Local\Temp\ccQ3AXqi.s 			page 197


 9128 0747 7C000000 		.4byte	.LVL76
 9129 074b B0000000 		.4byte	.LFE81
 9130 074f 0400     		.2byte	0x4
 9131 0751 F3       		.byte	0xf3
 9132 0752 01       		.uleb128 0x1
 9133 0753 51       		.byte	0x51
 9134 0754 9F       		.byte	0x9f
 9135 0755 00000000 		.4byte	0
 9136 0759 00000000 		.4byte	0
 9137              	.LLST26:
 9138 075d 24000000 		.4byte	.LVL71
 9139 0761 A2000000 		.4byte	.LVL83
 9140 0765 0500     		.2byte	0x5
 9141 0767 77       		.byte	0x77
 9142 0768 00       		.sleb128 0
 9143 0769 38       		.byte	0x38
 9144 076a 24       		.byte	0x24
 9145 076b 9F       		.byte	0x9f
 9146 076c A2000000 		.4byte	.LVL83
 9147 0770 B0000000 		.4byte	.LFE81
 9148 0774 4500     		.2byte	0x45
 9149 0776 F3       		.byte	0xf3
 9150 0777 01       		.uleb128 0x1
 9151 0778 51       		.byte	0x51
 9152 0779 23       		.byte	0x23
 9153 077a 04       		.uleb128 0x4
 9154 077b 94       		.byte	0x94
 9155 077c 01       		.byte	0x1
 9156 077d F7       		.byte	0xf7
 9157 077e 3A       		.uleb128 0x3a
 9158 077f F7       		.byte	0xf7
 9159 0780 25       		.uleb128 0x25
 9160 0781 F3       		.byte	0xf3
 9161 0782 01       		.uleb128 0x1
 9162 0783 51       		.byte	0x51
 9163 0784 23       		.byte	0x23
 9164 0785 14       		.uleb128 0x14
 9165 0786 94       		.byte	0x94
 9166 0787 01       		.byte	0x1
 9167 0788 F7       		.byte	0xf7
 9168 0789 3A       		.uleb128 0x3a
 9169 078a F7       		.byte	0xf7
 9170 078b 25       		.uleb128 0x25
 9171 078c 1E       		.byte	0x1e
 9172 078d 0C       		.byte	0xc
 9173 078e D34D6210 		.4byte	0x10624dd3
 9174 0792 F7       		.byte	0xf7
 9175 0793 25       		.uleb128 0x25
 9176 0794 1E       		.byte	0x1e
 9177 0795 08       		.byte	0x8
 9178 0796 20       		.byte	0x20
 9179 0797 F7       		.byte	0xf7
 9180 0798 25       		.uleb128 0x25
 9181 0799 25       		.byte	0x25
 9182 079a F7       		.byte	0xf7
 9183 079b 2C       		.uleb128 0x2c
 9184 079c 36       		.byte	0x36
ARM GAS  C:\Users\adria\AppData\Local\Temp\ccQ3AXqi.s 			page 198


 9185 079d 26       		.byte	0x26
 9186 079e F3       		.byte	0xf3
 9187 079f 01       		.uleb128 0x1
 9188 07a0 51       		.byte	0x51
 9189 07a1 23       		.byte	0x23
 9190 07a2 04       		.uleb128 0x4
 9191 07a3 94       		.byte	0x94
 9192 07a4 01       		.byte	0x1
 9193 07a5 48       		.byte	0x48
 9194 07a6 24       		.byte	0x24
 9195 07a7 48       		.byte	0x48
 9196 07a8 26       		.byte	0x26
 9197 07a9 F3       		.byte	0xf3
 9198 07aa 01       		.uleb128 0x1
 9199 07ab 51       		.byte	0x51
 9200 07ac 23       		.byte	0x23
 9201 07ad 14       		.uleb128 0x14
 9202 07ae 94       		.byte	0x94
 9203 07af 01       		.byte	0x1
 9204 07b0 48       		.byte	0x48
 9205 07b1 24       		.byte	0x24
 9206 07b2 48       		.byte	0x48
 9207 07b3 26       		.byte	0x26
 9208 07b4 1E       		.byte	0x1e
 9209 07b5 4F       		.byte	0x4f
 9210 07b6 26       		.byte	0x26
 9211 07b7 1C       		.byte	0x1c
 9212 07b8 38       		.byte	0x38
 9213 07b9 24       		.byte	0x24
 9214 07ba 9F       		.byte	0x9f
 9215 07bb 00000000 		.4byte	0
 9216 07bf 00000000 		.4byte	0
 9217              	.LLST27:
 9218 07c3 60000000 		.4byte	.LVL72
 9219 07c7 64000000 		.4byte	.LVL73
 9220 07cb 0100     		.2byte	0x1
 9221 07cd 52       		.byte	0x52
 9222 07ce 64000000 		.4byte	.LVL73
 9223 07d2 A2000000 		.4byte	.LVL83
 9224 07d6 0600     		.2byte	0x6
 9225 07d8 75       		.byte	0x75
 9226 07d9 00       		.sleb128 0
 9227 07da 7E       		.byte	0x7e
 9228 07db 00       		.sleb128 0
 9229 07dc 1E       		.byte	0x1e
 9230 07dd 9F       		.byte	0x9f
 9231 07de 00000000 		.4byte	0
 9232 07e2 00000000 		.4byte	0
 9233              	.LLST28:
 9234 07e6 6A000000 		.4byte	.LVL74
 9235 07ea A2000000 		.4byte	.LVL83
 9236 07ee 0100     		.2byte	0x1
 9237 07f0 54       		.byte	0x54
 9238 07f1 00000000 		.4byte	0
 9239 07f5 00000000 		.4byte	0
 9240              	.LLST29:
 9241 07f9 74000000 		.4byte	.LVL75
ARM GAS  C:\Users\adria\AppData\Local\Temp\ccQ3AXqi.s 			page 199


 9242 07fd 98000000 		.4byte	.LVL80
 9243 0801 0100     		.2byte	0x1
 9244 0803 52       		.byte	0x52
 9245 0804 98000000 		.4byte	.LVL80
 9246 0808 A2000000 		.4byte	.LVL83
 9247 080c 1000     		.2byte	0x10
 9248 080e 74       		.byte	0x74
 9249 080f 00       		.sleb128 0
 9250 0810 F3       		.byte	0xf3
 9251 0811 01       		.uleb128 0x1
 9252 0812 51       		.byte	0x51
 9253 0813 23       		.byte	0x23
 9254 0814 34       		.uleb128 0x34
 9255 0815 94       		.byte	0x94
 9256 0816 01       		.byte	0x1
 9257 0817 08       		.byte	0x8
 9258 0818 FF       		.byte	0xff
 9259 0819 1A       		.byte	0x1a
 9260 081a 23       		.byte	0x23
 9261 081b 04       		.uleb128 0x4
 9262 081c 1B       		.byte	0x1b
 9263 081d 9F       		.byte	0x9f
 9264 081e 00000000 		.4byte	0
 9265 0822 00000000 		.4byte	0
 9266              	.LLST30:
 9267 0826 84000000 		.4byte	.LVL77
 9268 082a 88000000 		.4byte	.LVL78
 9269 082e 0100     		.2byte	0x1
 9270 0830 53       		.byte	0x53
 9271 0831 88000000 		.4byte	.LVL78
 9272 0835 B0000000 		.4byte	.LFE81
 9273 0839 1500     		.2byte	0x15
 9274 083b 71       		.byte	0x71
 9275 083c 00       		.sleb128 0
 9276 083d 31       		.byte	0x31
 9277 083e 24       		.byte	0x24
 9278 083f F3       		.byte	0xf3
 9279 0840 01       		.uleb128 0x1
 9280 0841 51       		.byte	0x51
 9281 0842 23       		.byte	0x23
 9282 0843 35       		.uleb128 0x35
 9283 0844 94       		.byte	0x94
 9284 0845 01       		.byte	0x1
 9285 0846 48       		.byte	0x48
 9286 0847 24       		.byte	0x24
 9287 0848 48       		.byte	0x48
 9288 0849 26       		.byte	0x26
 9289 084a 22       		.byte	0x22
 9290 084b 23       		.byte	0x23
 9291 084c 808004   		.uleb128 0x10000
 9292 084f 9F       		.byte	0x9f
 9293 0850 00000000 		.4byte	0
 9294 0854 00000000 		.4byte	0
 9295              	.LLST31:
 9296 0858 90000000 		.4byte	.LVL79
 9297 085c 98000000 		.4byte	.LVL80
 9298 0860 0100     		.2byte	0x1
ARM GAS  C:\Users\adria\AppData\Local\Temp\ccQ3AXqi.s 			page 200


 9299 0862 50       		.byte	0x50
 9300 0863 98000000 		.4byte	.LVL80
 9301 0867 9A000000 		.4byte	.LVL81
 9302 086b 0300     		.2byte	0x3
 9303 086d 73       		.byte	0x73
 9304 086e 4E       		.sleb128 -50
 9305 086f 9F       		.byte	0x9f
 9306 0870 9A000000 		.4byte	.LVL81
 9307 0874 A2000000 		.4byte	.LVL83
 9308 0878 2C00     		.2byte	0x2c
 9309 087a 74       		.byte	0x74
 9310 087b 00       		.sleb128 0
 9311 087c F3       		.byte	0xf3
 9312 087d 01       		.uleb128 0x1
 9313 087e 51       		.byte	0x51
 9314 087f 23       		.byte	0x23
 9315 0880 34       		.uleb128 0x34
 9316 0881 94       		.byte	0x94
 9317 0882 01       		.byte	0x1
 9318 0883 08       		.byte	0x8
 9319 0884 FF       		.byte	0xff
 9320 0885 1A       		.byte	0x1a
 9321 0886 23       		.byte	0x23
 9322 0887 04       		.uleb128 0x4
 9323 0888 1B       		.byte	0x1b
 9324 0889 71       		.byte	0x71
 9325 088a 00       		.sleb128 0
 9326 088b 31       		.byte	0x31
 9327 088c 24       		.byte	0x24
 9328 088d F3       		.byte	0xf3
 9329 088e 01       		.uleb128 0x1
 9330 088f 51       		.byte	0x51
 9331 0890 23       		.byte	0x23
 9332 0891 35       		.uleb128 0x35
 9333 0892 94       		.byte	0x94
 9334 0893 01       		.byte	0x1
 9335 0894 48       		.byte	0x48
 9336 0895 24       		.byte	0x24
 9337 0896 48       		.byte	0x48
 9338 0897 26       		.byte	0x26
 9339 0898 22       		.byte	0x22
 9340 0899 23       		.byte	0x23
 9341 089a 808004   		.uleb128 0x10000
 9342 089d 1B       		.byte	0x1b
 9343 089e 08       		.byte	0x8
 9344 089f FA       		.byte	0xfa
 9345 08a0 1C       		.byte	0x1c
 9346 08a1 41       		.byte	0x41
 9347 08a2 1E       		.byte	0x1e
 9348 08a3 31       		.byte	0x31
 9349 08a4 24       		.byte	0x24
 9350 08a5 9F       		.byte	0x9f
 9351 08a6 00000000 		.4byte	0
 9352 08aa 00000000 		.4byte	0
 9353              	.LLST32:
 9354 08ae 00000000 		.4byte	.LVL84
 9355 08b2 0C000000 		.4byte	.LVL86
ARM GAS  C:\Users\adria\AppData\Local\Temp\ccQ3AXqi.s 			page 201


 9356 08b6 0100     		.2byte	0x1
 9357 08b8 50       		.byte	0x50
 9358 08b9 0C000000 		.4byte	.LVL86
 9359 08bd 16000000 		.4byte	.LVL89
 9360 08c1 0100     		.2byte	0x1
 9361 08c3 50       		.byte	0x50
 9362 08c4 20000000 		.4byte	.LVL92
 9363 08c8 22000000 		.4byte	.LVL93
 9364 08cc 0100     		.2byte	0x1
 9365 08ce 50       		.byte	0x50
 9366 08cf 22000000 		.4byte	.LVL93
 9367 08d3 24000000 		.4byte	.LFE82
 9368 08d7 0400     		.2byte	0x4
 9369 08d9 F3       		.byte	0xf3
 9370 08da 01       		.uleb128 0x1
 9371 08db 50       		.byte	0x50
 9372 08dc 9F       		.byte	0x9f
 9373 08dd 00000000 		.4byte	0
 9374 08e1 00000000 		.4byte	0
 9375              	.LLST33:
 9376 08e5 00000000 		.4byte	.LVL84
 9377 08e9 0A000000 		.4byte	.LVL85
 9378 08ed 0200     		.2byte	0x2
 9379 08ef 30       		.byte	0x30
 9380 08f0 9F       		.byte	0x9f
 9381 08f1 0A000000 		.4byte	.LVL85
 9382 08f5 0E000000 		.4byte	.LVL87
 9383 08f9 0100     		.2byte	0x1
 9384 08fb 53       		.byte	0x53
 9385 08fc 10000000 		.4byte	.LVL88
 9386 0900 18000000 		.4byte	.LVL90
 9387 0904 0100     		.2byte	0x1
 9388 0906 53       		.byte	0x53
 9389 0907 20000000 		.4byte	.LVL92
 9390 090b 24000000 		.4byte	.LFE82
 9391 090f 0200     		.2byte	0x2
 9392 0911 30       		.byte	0x30
 9393 0912 9F       		.byte	0x9f
 9394 0913 00000000 		.4byte	0
 9395 0917 00000000 		.4byte	0
 9396              	.LLST34:
 9397 091b 1E000000 		.4byte	.LVL91
 9398 091f 20000000 		.4byte	.LVL92
 9399 0923 0100     		.2byte	0x1
 9400 0925 50       		.byte	0x50
 9401 0926 22000000 		.4byte	.LVL93
 9402 092a 24000000 		.4byte	.LFE82
 9403 092e 0100     		.2byte	0x1
 9404 0930 50       		.byte	0x50
 9405 0931 00000000 		.4byte	0
 9406 0935 00000000 		.4byte	0
 9407              	.LLST35:
 9408 0939 00000000 		.4byte	.LVL94
 9409 093d 08000000 		.4byte	.LVL95
 9410 0941 0100     		.2byte	0x1
 9411 0943 50       		.byte	0x50
 9412 0944 08000000 		.4byte	.LVL95
ARM GAS  C:\Users\adria\AppData\Local\Temp\ccQ3AXqi.s 			page 202


 9413 0948 32000000 		.4byte	.LVL100
 9414 094c 0100     		.2byte	0x1
 9415 094e 54       		.byte	0x54
 9416 094f 32000000 		.4byte	.LVL100
 9417 0953 36000000 		.4byte	.LVL101
 9418 0957 0100     		.2byte	0x1
 9419 0959 50       		.byte	0x50
 9420 095a 36000000 		.4byte	.LVL101
 9421 095e 38000000 		.4byte	.LVL102
 9422 0962 0400     		.2byte	0x4
 9423 0964 F3       		.byte	0xf3
 9424 0965 01       		.uleb128 0x1
 9425 0966 50       		.byte	0x50
 9426 0967 9F       		.byte	0x9f
 9427 0968 38000000 		.4byte	.LVL102
 9428 096c 3C000000 		.4byte	.LVL104
 9429 0970 0100     		.2byte	0x1
 9430 0972 54       		.byte	0x54
 9431 0973 3C000000 		.4byte	.LVL104
 9432 0977 3E000000 		.4byte	.LFE86
 9433 097b 0400     		.2byte	0x4
 9434 097d F3       		.byte	0xf3
 9435 097e 01       		.uleb128 0x1
 9436 097f 50       		.byte	0x50
 9437 0980 9F       		.byte	0x9f
 9438 0981 00000000 		.4byte	0
 9439 0985 00000000 		.4byte	0
 9440              	.LLST36:
 9441 0989 00000000 		.4byte	.LVL94
 9442 098d 12000000 		.4byte	.LVL96
 9443 0991 0100     		.2byte	0x1
 9444 0993 51       		.byte	0x51
 9445 0994 12000000 		.4byte	.LVL96
 9446 0998 1A000000 		.4byte	.LVL97
 9447 099c 0200     		.2byte	0x2
 9448 099e 74       		.byte	0x74
 9449 099f 00       		.sleb128 0
 9450 09a0 1A000000 		.4byte	.LVL97
 9451 09a4 32000000 		.4byte	.LVL100
 9452 09a8 0400     		.2byte	0x4
 9453 09aa F3       		.byte	0xf3
 9454 09ab 01       		.uleb128 0x1
 9455 09ac 51       		.byte	0x51
 9456 09ad 9F       		.byte	0x9f
 9457 09ae 32000000 		.4byte	.LVL100
 9458 09b2 38000000 		.4byte	.LVL102
 9459 09b6 0100     		.2byte	0x1
 9460 09b8 51       		.byte	0x51
 9461 09b9 38000000 		.4byte	.LVL102
 9462 09bd 3E000000 		.4byte	.LFE86
 9463 09c1 0400     		.2byte	0x4
 9464 09c3 F3       		.byte	0xf3
 9465 09c4 01       		.uleb128 0x1
 9466 09c5 51       		.byte	0x51
 9467 09c6 9F       		.byte	0x9f
 9468 09c7 00000000 		.4byte	0
 9469 09cb 00000000 		.4byte	0
ARM GAS  C:\Users\adria\AppData\Local\Temp\ccQ3AXqi.s 			page 203


 9470              	.LLST37:
 9471 09cf 00000000 		.4byte	.LVL94
 9472 09d3 26000000 		.4byte	.LVL98
 9473 09d7 0100     		.2byte	0x1
 9474 09d9 52       		.byte	0x52
 9475 09da 26000000 		.4byte	.LVL98
 9476 09de 2E000000 		.4byte	.LVL99
 9477 09e2 0200     		.2byte	0x2
 9478 09e4 74       		.byte	0x74
 9479 09e5 00       		.sleb128 0
 9480 09e6 2E000000 		.4byte	.LVL99
 9481 09ea 32000000 		.4byte	.LVL100
 9482 09ee 0400     		.2byte	0x4
 9483 09f0 F3       		.byte	0xf3
 9484 09f1 01       		.uleb128 0x1
 9485 09f2 52       		.byte	0x52
 9486 09f3 9F       		.byte	0x9f
 9487 09f4 32000000 		.4byte	.LVL100
 9488 09f8 3A000000 		.4byte	.LVL103
 9489 09fc 0100     		.2byte	0x1
 9490 09fe 52       		.byte	0x52
 9491 09ff 3A000000 		.4byte	.LVL103
 9492 0a03 3E000000 		.4byte	.LFE86
 9493 0a07 0400     		.2byte	0x4
 9494 0a09 F3       		.byte	0xf3
 9495 0a0a 01       		.uleb128 0x1
 9496 0a0b 52       		.byte	0x52
 9497 0a0c 9F       		.byte	0x9f
 9498 0a0d 00000000 		.4byte	0
 9499 0a11 00000000 		.4byte	0
 9500              	.LLST38:
 9501 0a15 00000000 		.4byte	.LVL94
 9502 0a19 36000000 		.4byte	.LVL101
 9503 0a1d 0200     		.2byte	0x2
 9504 0a1f 30       		.byte	0x30
 9505 0a20 9F       		.byte	0x9f
 9506 0a21 36000000 		.4byte	.LVL101
 9507 0a25 38000000 		.4byte	.LVL102
 9508 0a29 0100     		.2byte	0x1
 9509 0a2b 50       		.byte	0x50
 9510 0a2c 38000000 		.4byte	.LVL102
 9511 0a30 3A000000 		.4byte	.LVL103
 9512 0a34 0200     		.2byte	0x2
 9513 0a36 30       		.byte	0x30
 9514 0a37 9F       		.byte	0x9f
 9515 0a38 3A000000 		.4byte	.LVL103
 9516 0a3c 3E000000 		.4byte	.LFE86
 9517 0a40 0100     		.2byte	0x1
 9518 0a42 50       		.byte	0x50
 9519 0a43 00000000 		.4byte	0
 9520 0a47 00000000 		.4byte	0
 9521              	.LLST39:
 9522 0a4b 00000000 		.4byte	.LVL105
 9523 0a4f 12000000 		.4byte	.LVL106
 9524 0a53 0100     		.2byte	0x1
 9525 0a55 50       		.byte	0x50
 9526 0a56 12000000 		.4byte	.LVL106
ARM GAS  C:\Users\adria\AppData\Local\Temp\ccQ3AXqi.s 			page 204


 9527 0a5a 14000000 		.4byte	.LVL107
 9528 0a5e 0400     		.2byte	0x4
 9529 0a60 F3       		.byte	0xf3
 9530 0a61 01       		.uleb128 0x1
 9531 0a62 50       		.byte	0x50
 9532 0a63 9F       		.byte	0x9f
 9533 0a64 14000000 		.4byte	.LVL107
 9534 0a68 18000000 		.4byte	.LVL108
 9535 0a6c 0100     		.2byte	0x1
 9536 0a6e 50       		.byte	0x50
 9537 0a6f 18000000 		.4byte	.LVL108
 9538 0a73 1A000000 		.4byte	.LVL109
 9539 0a77 0400     		.2byte	0x4
 9540 0a79 F3       		.byte	0xf3
 9541 0a7a 01       		.uleb128 0x1
 9542 0a7b 50       		.byte	0x50
 9543 0a7c 9F       		.byte	0x9f
 9544 0a7d 1A000000 		.4byte	.LVL109
 9545 0a81 1E000000 		.4byte	.LVL110
 9546 0a85 0100     		.2byte	0x1
 9547 0a87 50       		.byte	0x50
 9548 0a88 1E000000 		.4byte	.LVL110
 9549 0a8c 20000000 		.4byte	.LVL111
 9550 0a90 0400     		.2byte	0x4
 9551 0a92 F3       		.byte	0xf3
 9552 0a93 01       		.uleb128 0x1
 9553 0a94 50       		.byte	0x50
 9554 0a95 9F       		.byte	0x9f
 9555 0a96 20000000 		.4byte	.LVL111
 9556 0a9a 24000000 		.4byte	.LVL112
 9557 0a9e 0100     		.2byte	0x1
 9558 0aa0 50       		.byte	0x50
 9559 0aa1 24000000 		.4byte	.LVL112
 9560 0aa5 26000000 		.4byte	.LVL113
 9561 0aa9 0400     		.2byte	0x4
 9562 0aab F3       		.byte	0xf3
 9563 0aac 01       		.uleb128 0x1
 9564 0aad 50       		.byte	0x50
 9565 0aae 9F       		.byte	0x9f
 9566 0aaf 26000000 		.4byte	.LVL113
 9567 0ab3 28000000 		.4byte	.LVL114
 9568 0ab7 0100     		.2byte	0x1
 9569 0ab9 50       		.byte	0x50
 9570 0aba 28000000 		.4byte	.LVL114
 9571 0abe 2A000000 		.4byte	.LFE87
 9572 0ac2 0400     		.2byte	0x4
 9573 0ac4 F3       		.byte	0xf3
 9574 0ac5 01       		.uleb128 0x1
 9575 0ac6 50       		.byte	0x50
 9576 0ac7 9F       		.byte	0x9f
 9577 0ac8 00000000 		.4byte	0
 9578 0acc 00000000 		.4byte	0
 9579              	.LLST40:
 9580 0ad0 00000000 		.4byte	.LVL115
 9581 0ad4 0A000000 		.4byte	.LVL116
 9582 0ad8 0100     		.2byte	0x1
 9583 0ada 50       		.byte	0x50
ARM GAS  C:\Users\adria\AppData\Local\Temp\ccQ3AXqi.s 			page 205


 9584 0adb 0A000000 		.4byte	.LVL116
 9585 0adf 70000000 		.4byte	.LFE84
 9586 0ae3 0400     		.2byte	0x4
 9587 0ae5 F3       		.byte	0xf3
 9588 0ae6 01       		.uleb128 0x1
 9589 0ae7 50       		.byte	0x50
 9590 0ae8 9F       		.byte	0x9f
 9591 0ae9 00000000 		.4byte	0
 9592 0aed 00000000 		.4byte	0
 9593              	.LLST41:
 9594 0af1 00000000 		.4byte	.LVL115
 9595 0af5 0D000000 		.4byte	.LVL117-1
 9596 0af9 0100     		.2byte	0x1
 9597 0afb 51       		.byte	0x51
 9598 0afc 0D000000 		.4byte	.LVL117-1
 9599 0b00 70000000 		.4byte	.LFE84
 9600 0b04 0100     		.2byte	0x1
 9601 0b06 54       		.byte	0x54
 9602 0b07 00000000 		.4byte	0
 9603 0b0b 00000000 		.4byte	0
 9604              	.LLST42:
 9605 0b0f 0E000000 		.4byte	.LVL117
 9606 0b13 32000000 		.4byte	.LVL120
 9607 0b17 0100     		.2byte	0x1
 9608 0b19 50       		.byte	0x50
 9609 0b1a 3E000000 		.4byte	.LVL122
 9610 0b1e 70000000 		.4byte	.LFE84
 9611 0b22 0100     		.2byte	0x1
 9612 0b24 55       		.byte	0x55
 9613 0b25 00000000 		.4byte	0
 9614 0b29 00000000 		.4byte	0
 9615              	.LLST43:
 9616 0b2d 1E000000 		.4byte	.LVL118
 9617 0b31 2A000000 		.4byte	.LVL119
 9618 0b35 0100     		.2byte	0x1
 9619 0b37 53       		.byte	0x53
 9620 0b38 2A000000 		.4byte	.LVL119
 9621 0b3c 33000000 		.4byte	.LVL121-1
 9622 0b40 0200     		.2byte	0x2
 9623 0b42 74       		.byte	0x74
 9624 0b43 03       		.sleb128 3
 9625 0b44 00000000 		.4byte	0
 9626 0b48 00000000 		.4byte	0
 9627              	.LLST44:
 9628 0b4c 00000000 		.4byte	.LVL125
 9629 0b50 09000000 		.4byte	.LVL126-1
 9630 0b54 0100     		.2byte	0x1
 9631 0b56 50       		.byte	0x50
 9632 0b57 09000000 		.4byte	.LVL126-1
 9633 0b5b 38000000 		.4byte	.LFE85
 9634 0b5f 0100     		.2byte	0x1
 9635 0b61 54       		.byte	0x54
 9636 0b62 00000000 		.4byte	0
 9637 0b66 00000000 		.4byte	0
 9638              	.LLST45:
 9639 0b6a 0A000000 		.4byte	.LVL126
 9640 0b6e 1A000000 		.4byte	.LVL127
ARM GAS  C:\Users\adria\AppData\Local\Temp\ccQ3AXqi.s 			page 206


 9641 0b72 0100     		.2byte	0x1
 9642 0b74 50       		.byte	0x50
 9643 0b75 32000000 		.4byte	.LVL129
 9644 0b79 38000000 		.4byte	.LFE85
 9645 0b7d 0100     		.2byte	0x1
 9646 0b7f 55       		.byte	0x55
 9647 0b80 00000000 		.4byte	0
 9648 0b84 00000000 		.4byte	0
 9649              	.LLST46:
 9650 0b88 00000000 		.4byte	.LVL130
 9651 0b8c 80000000 		.4byte	.LVL149
 9652 0b90 0100     		.2byte	0x1
 9653 0b92 50       		.byte	0x50
 9654 0b93 80000000 		.4byte	.LVL149
 9655 0b97 82000000 		.4byte	.LVL150
 9656 0b9b 0400     		.2byte	0x4
 9657 0b9d F3       		.byte	0xf3
 9658 0b9e 01       		.uleb128 0x1
 9659 0b9f 50       		.byte	0x50
 9660 0ba0 9F       		.byte	0x9f
 9661 0ba1 82000000 		.4byte	.LVL150
 9662 0ba5 84000000 		.4byte	.LVL151
 9663 0ba9 0100     		.2byte	0x1
 9664 0bab 50       		.byte	0x50
 9665 0bac 84000000 		.4byte	.LVL151
 9666 0bb0 88000000 		.4byte	.LFE89
 9667 0bb4 0400     		.2byte	0x4
 9668 0bb6 F3       		.byte	0xf3
 9669 0bb7 01       		.uleb128 0x1
 9670 0bb8 50       		.byte	0x50
 9671 0bb9 9F       		.byte	0x9f
 9672 0bba 00000000 		.4byte	0
 9673 0bbe 00000000 		.4byte	0
 9674              	.LLST47:
 9675 0bc2 02000000 		.4byte	.LVL131
 9676 0bc6 84000000 		.4byte	.LVL151
 9677 0bca 0200     		.2byte	0x2
 9678 0bcc 30       		.byte	0x30
 9679 0bcd 9F       		.byte	0x9f
 9680 0bce 84000000 		.4byte	.LVL151
 9681 0bd2 88000000 		.4byte	.LFE89
 9682 0bd6 0100     		.2byte	0x1
 9683 0bd8 50       		.byte	0x50
 9684 0bd9 00000000 		.4byte	0
 9685 0bdd 00000000 		.4byte	0
 9686              	.LLST48:
 9687 0be1 02000000 		.4byte	.LVL131
 9688 0be5 12000000 		.4byte	.LVL132
 9689 0be9 0200     		.2byte	0x2
 9690 0beb 30       		.byte	0x30
 9691 0bec 9F       		.byte	0x9f
 9692 0bed 12000000 		.4byte	.LVL132
 9693 0bf1 26000000 		.4byte	.LVL133
 9694 0bf5 0100     		.2byte	0x1
 9695 0bf7 55       		.byte	0x55
 9696 0bf8 28000000 		.4byte	.LVL134
 9697 0bfc 3A000000 		.4byte	.LVL135
ARM GAS  C:\Users\adria\AppData\Local\Temp\ccQ3AXqi.s 			page 207


 9698 0c00 0100     		.2byte	0x1
 9699 0c02 55       		.byte	0x55
 9700 0c03 3C000000 		.4byte	.LVL136
 9701 0c07 50000000 		.4byte	.LVL138
 9702 0c0b 0100     		.2byte	0x1
 9703 0c0d 55       		.byte	0x55
 9704 0c0e 52000000 		.4byte	.LVL139
 9705 0c12 7A000000 		.4byte	.LVL147
 9706 0c16 0100     		.2byte	0x1
 9707 0c18 55       		.byte	0x55
 9708 0c19 7C000000 		.4byte	.LVL148
 9709 0c1d 86000000 		.4byte	.LVL152
 9710 0c21 0100     		.2byte	0x1
 9711 0c23 55       		.byte	0x55
 9712 0c24 00000000 		.4byte	0
 9713 0c28 00000000 		.4byte	0
 9714              	.LLST49:
 9715 0c2c 40000000 		.4byte	.LVL137
 9716 0c30 54000000 		.4byte	.LVL140
 9717 0c34 0100     		.2byte	0x1
 9718 0c36 53       		.byte	0x53
 9719 0c37 56000000 		.4byte	.LVL141
 9720 0c3b 62000000 		.4byte	.LVL142
 9721 0c3f 0100     		.2byte	0x1
 9722 0c41 53       		.byte	0x53
 9723 0c42 6E000000 		.4byte	.LVL144
 9724 0c46 70000000 		.4byte	.LVL145
 9725 0c4a 0100     		.2byte	0x1
 9726 0c4c 53       		.byte	0x53
 9727 0c4d 00000000 		.4byte	0
 9728 0c51 00000000 		.4byte	0
 9729              	.LLST50:
 9730 0c55 02000000 		.4byte	.LVL131
 9731 0c59 6C000000 		.4byte	.LVL143
 9732 0c5d 0200     		.2byte	0x2
 9733 0c5f 30       		.byte	0x30
 9734 0c60 9F       		.byte	0x9f
 9735 0c61 6C000000 		.4byte	.LVL143
 9736 0c65 6E000000 		.4byte	.LVL144
 9737 0c69 0100     		.2byte	0x1
 9738 0c6b 53       		.byte	0x53
 9739 0c6c 6E000000 		.4byte	.LVL144
 9740 0c70 70000000 		.4byte	.LVL145
 9741 0c74 0200     		.2byte	0x2
 9742 0c76 30       		.byte	0x30
 9743 0c77 9F       		.byte	0x9f
 9744 0c78 70000000 		.4byte	.LVL145
 9745 0c7c 74000000 		.4byte	.LVL146
 9746 0c80 0100     		.2byte	0x1
 9747 0c82 53       		.byte	0x53
 9748 0c83 00000000 		.4byte	0
 9749 0c87 00000000 		.4byte	0
 9750              	.LLST51:
 9751 0c8b 00000000 		.4byte	.LVL153
 9752 0c8f 05000000 		.4byte	.LVL154-1
 9753 0c93 0100     		.2byte	0x1
 9754 0c95 50       		.byte	0x50
ARM GAS  C:\Users\adria\AppData\Local\Temp\ccQ3AXqi.s 			page 208


 9755 0c96 05000000 		.4byte	.LVL154-1
 9756 0c9a 08000000 		.4byte	.LFE90
 9757 0c9e 0400     		.2byte	0x4
 9758 0ca0 F3       		.byte	0xf3
 9759 0ca1 01       		.uleb128 0x1
 9760 0ca2 50       		.byte	0x50
 9761 0ca3 9F       		.byte	0x9f
 9762 0ca4 00000000 		.4byte	0
 9763 0ca8 00000000 		.4byte	0
 9764              	.LLST52:
 9765 0cac 00000000 		.4byte	.LVL155
 9766 0cb0 0D000000 		.4byte	.LVL158-1
 9767 0cb4 0100     		.2byte	0x1
 9768 0cb6 50       		.byte	0x50
 9769 0cb7 0D000000 		.4byte	.LVL158-1
 9770 0cbb 30000000 		.4byte	.LFE92
 9771 0cbf 0400     		.2byte	0x4
 9772 0cc1 F3       		.byte	0xf3
 9773 0cc2 01       		.uleb128 0x1
 9774 0cc3 50       		.byte	0x50
 9775 0cc4 9F       		.byte	0x9f
 9776 0cc5 00000000 		.4byte	0
 9777 0cc9 00000000 		.4byte	0
 9778              	.LLST53:
 9779 0ccd 00000000 		.4byte	.LVL155
 9780 0cd1 0A000000 		.4byte	.LVL157
 9781 0cd5 0100     		.2byte	0x1
 9782 0cd7 51       		.byte	0x51
 9783 0cd8 0A000000 		.4byte	.LVL157
 9784 0cdc 30000000 		.4byte	.LFE92
 9785 0ce0 0400     		.2byte	0x4
 9786 0ce2 F3       		.byte	0xf3
 9787 0ce3 01       		.uleb128 0x1
 9788 0ce4 51       		.byte	0x51
 9789 0ce5 9F       		.byte	0x9f
 9790 0ce6 00000000 		.4byte	0
 9791 0cea 00000000 		.4byte	0
 9792              	.LLST54:
 9793 0cee 00000000 		.4byte	.LVL155
 9794 0cf2 0D000000 		.4byte	.LVL158-1
 9795 0cf6 0100     		.2byte	0x1
 9796 0cf8 52       		.byte	0x52
 9797 0cf9 0D000000 		.4byte	.LVL158-1
 9798 0cfd 1C000000 		.4byte	.LVL161
 9799 0d01 0100     		.2byte	0x1
 9800 0d03 55       		.byte	0x55
 9801 0d04 1C000000 		.4byte	.LVL161
 9802 0d08 24000000 		.4byte	.LVL164
 9803 0d0c 0300     		.2byte	0x3
 9804 0d0e 75       		.byte	0x75
 9805 0d0f 7F       		.sleb128 -1
 9806 0d10 9F       		.byte	0x9f
 9807 0d11 24000000 		.4byte	.LVL164
 9808 0d15 30000000 		.4byte	.LFE92
 9809 0d19 0100     		.2byte	0x1
 9810 0d1b 55       		.byte	0x55
 9811 0d1c 00000000 		.4byte	0
ARM GAS  C:\Users\adria\AppData\Local\Temp\ccQ3AXqi.s 			page 209


 9812 0d20 00000000 		.4byte	0
 9813              	.LLST55:
 9814 0d24 00000000 		.4byte	.LVL155
 9815 0d28 0D000000 		.4byte	.LVL158-1
 9816 0d2c 0100     		.2byte	0x1
 9817 0d2e 53       		.byte	0x53
 9818 0d2f 0D000000 		.4byte	.LVL158-1
 9819 0d33 30000000 		.4byte	.LFE92
 9820 0d37 0400     		.2byte	0x4
 9821 0d39 F3       		.byte	0xf3
 9822 0d3a 01       		.uleb128 0x1
 9823 0d3b 53       		.byte	0x53
 9824 0d3c 9F       		.byte	0x9f
 9825 0d3d 00000000 		.4byte	0
 9826 0d41 00000000 		.4byte	0
 9827              	.LLST56:
 9828 0d45 08000000 		.4byte	.LVL156
 9829 0d49 0E000000 		.4byte	.LVL158
 9830 0d4d 0200     		.2byte	0x2
 9831 0d4f 30       		.byte	0x30
 9832 0d50 9F       		.byte	0x9f
 9833 0d51 2C000000 		.4byte	.LVL165
 9834 0d55 30000000 		.4byte	.LFE92
 9835 0d59 0100     		.2byte	0x1
 9836 0d5b 50       		.byte	0x50
 9837 0d5c 00000000 		.4byte	0
 9838 0d60 00000000 		.4byte	0
 9839              	.LLST57:
 9840 0d64 08000000 		.4byte	.LVL156
 9841 0d68 18000000 		.4byte	.LVL160
 9842 0d6c 0200     		.2byte	0x2
 9843 0d6e 30       		.byte	0x30
 9844 0d6f 9F       		.byte	0x9f
 9845 0d70 18000000 		.4byte	.LVL160
 9846 0d74 22000000 		.4byte	.LVL163
 9847 0d78 0100     		.2byte	0x1
 9848 0d7a 54       		.byte	0x54
 9849 0d7b 24000000 		.4byte	.LVL164
 9850 0d7f 30000000 		.4byte	.LFE92
 9851 0d83 0100     		.2byte	0x1
 9852 0d85 54       		.byte	0x54
 9853 0d86 00000000 		.4byte	0
 9854 0d8a 00000000 		.4byte	0
 9855              	.LLST58:
 9856 0d8e 00000000 		.4byte	.LVL166
 9857 0d92 0F000000 		.4byte	.LVL169-1
 9858 0d96 0100     		.2byte	0x1
 9859 0d98 50       		.byte	0x50
 9860 0d99 0F000000 		.4byte	.LVL169-1
 9861 0d9d 44000000 		.4byte	.LFE91
 9862 0da1 0400     		.2byte	0x4
 9863 0da3 F3       		.byte	0xf3
 9864 0da4 01       		.uleb128 0x1
 9865 0da5 50       		.byte	0x50
 9866 0da6 9F       		.byte	0x9f
 9867 0da7 00000000 		.4byte	0
 9868 0dab 00000000 		.4byte	0
ARM GAS  C:\Users\adria\AppData\Local\Temp\ccQ3AXqi.s 			page 210


 9869              	.LLST59:
 9870 0daf 00000000 		.4byte	.LVL166
 9871 0db3 0C000000 		.4byte	.LVL168
 9872 0db7 0100     		.2byte	0x1
 9873 0db9 51       		.byte	0x51
 9874 0dba 0C000000 		.4byte	.LVL168
 9875 0dbe 44000000 		.4byte	.LFE91
 9876 0dc2 0400     		.2byte	0x4
 9877 0dc4 F3       		.byte	0xf3
 9878 0dc5 01       		.uleb128 0x1
 9879 0dc6 51       		.byte	0x51
 9880 0dc7 9F       		.byte	0x9f
 9881 0dc8 00000000 		.4byte	0
 9882 0dcc 00000000 		.4byte	0
 9883              	.LLST60:
 9884 0dd0 00000000 		.4byte	.LVL166
 9885 0dd4 0F000000 		.4byte	.LVL169-1
 9886 0dd8 0100     		.2byte	0x1
 9887 0dda 52       		.byte	0x52
 9888 0ddb 0F000000 		.4byte	.LVL169-1
 9889 0ddf 44000000 		.4byte	.LFE91
 9890 0de3 0100     		.2byte	0x1
 9891 0de5 55       		.byte	0x55
 9892 0de6 00000000 		.4byte	0
 9893 0dea 00000000 		.4byte	0
 9894              	.LLST61:
 9895 0dee 00000000 		.4byte	.LVL166
 9896 0df2 0F000000 		.4byte	.LVL169-1
 9897 0df6 0100     		.2byte	0x1
 9898 0df8 53       		.byte	0x53
 9899 0df9 0F000000 		.4byte	.LVL169-1
 9900 0dfd 44000000 		.4byte	.LFE91
 9901 0e01 0400     		.2byte	0x4
 9902 0e03 F3       		.byte	0xf3
 9903 0e04 01       		.uleb128 0x1
 9904 0e05 53       		.byte	0x53
 9905 0e06 9F       		.byte	0x9f
 9906 0e07 00000000 		.4byte	0
 9907 0e0b 00000000 		.4byte	0
 9908              	.LLST62:
 9909 0e0f 0A000000 		.4byte	.LVL167
 9910 0e13 10000000 		.4byte	.LVL169
 9911 0e17 0200     		.2byte	0x2
 9912 0e19 30       		.byte	0x30
 9913 0e1a 9F       		.byte	0x9f
 9914 0e1b 40000000 		.4byte	.LVL177
 9915 0e1f 44000000 		.4byte	.LFE91
 9916 0e23 0100     		.2byte	0x1
 9917 0e25 50       		.byte	0x50
 9918 0e26 00000000 		.4byte	0
 9919 0e2a 00000000 		.4byte	0
 9920              	.LLST63:
 9921 0e2e 0A000000 		.4byte	.LVL167
 9922 0e32 22000000 		.4byte	.LVL172
 9923 0e36 0200     		.2byte	0x2
 9924 0e38 30       		.byte	0x30
 9925 0e39 9F       		.byte	0x9f
ARM GAS  C:\Users\adria\AppData\Local\Temp\ccQ3AXqi.s 			page 211


 9926 0e3a 22000000 		.4byte	.LVL172
 9927 0e3e 2C000000 		.4byte	.LVL174
 9928 0e42 0100     		.2byte	0x1
 9929 0e44 54       		.byte	0x54
 9930 0e45 2E000000 		.4byte	.LVL175
 9931 0e49 44000000 		.4byte	.LFE91
 9932 0e4d 0100     		.2byte	0x1
 9933 0e4f 54       		.byte	0x54
 9934 0e50 00000000 		.4byte	0
 9935 0e54 00000000 		.4byte	0
 9936              	.LLST64:
 9937 0e58 00000000 		.4byte	.LVL178
 9938 0e5c 0E000000 		.4byte	.LVL179
 9939 0e60 0100     		.2byte	0x1
 9940 0e62 50       		.byte	0x50
 9941 0e63 0E000000 		.4byte	.LVL179
 9942 0e67 2A000000 		.4byte	.LVL183
 9943 0e6b 0400     		.2byte	0x4
 9944 0e6d F3       		.byte	0xf3
 9945 0e6e 01       		.uleb128 0x1
 9946 0e6f 50       		.byte	0x50
 9947 0e70 9F       		.byte	0x9f
 9948 0e71 2A000000 		.4byte	.LVL183
 9949 0e75 40000000 		.4byte	.LVL185
 9950 0e79 0100     		.2byte	0x1
 9951 0e7b 56       		.byte	0x56
 9952 0e7c 00000000 		.4byte	0
 9953 0e80 00000000 		.4byte	0
 9954              	.LLST65:
 9955 0e84 00000000 		.4byte	.LVL178
 9956 0e88 11000000 		.4byte	.LVL180-1
 9957 0e8c 0100     		.2byte	0x1
 9958 0e8e 51       		.byte	0x51
 9959 0e8f 11000000 		.4byte	.LVL180-1
 9960 0e93 46000000 		.4byte	.LFE64
 9961 0e97 0100     		.2byte	0x1
 9962 0e99 58       		.byte	0x58
 9963 0e9a 00000000 		.4byte	0
 9964 0e9e 00000000 		.4byte	0
 9965              	.LLST66:
 9966 0ea2 00000000 		.4byte	.LVL178
 9967 0ea6 11000000 		.4byte	.LVL180-1
 9968 0eaa 0100     		.2byte	0x1
 9969 0eac 52       		.byte	0x52
 9970 0ead 11000000 		.4byte	.LVL180-1
 9971 0eb1 46000000 		.4byte	.LFE64
 9972 0eb5 0400     		.2byte	0x4
 9973 0eb7 F3       		.byte	0xf3
 9974 0eb8 01       		.uleb128 0x1
 9975 0eb9 52       		.byte	0x52
 9976 0eba 9F       		.byte	0x9f
 9977 0ebb 00000000 		.4byte	0
 9978 0ebf 00000000 		.4byte	0
 9979              	.LLST67:
 9980 0ec3 00000000 		.4byte	.LVL178
 9981 0ec7 11000000 		.4byte	.LVL180-1
 9982 0ecb 0100     		.2byte	0x1
ARM GAS  C:\Users\adria\AppData\Local\Temp\ccQ3AXqi.s 			page 212


 9983 0ecd 53       		.byte	0x53
 9984 0ece 11000000 		.4byte	.LVL180-1
 9985 0ed2 46000000 		.4byte	.LFE64
 9986 0ed6 0100     		.2byte	0x1
 9987 0ed8 54       		.byte	0x54
 9988 0ed9 00000000 		.4byte	0
 9989 0edd 00000000 		.4byte	0
 9990              	.LLST68:
 9991 0ee1 12000000 		.4byte	.LVL180
 9992 0ee5 1E000000 		.4byte	.LVL181
 9993 0ee9 0100     		.2byte	0x1
 9994 0eeb 50       		.byte	0x50
 9995 0eec 22000000 		.4byte	.LVL182
 9996 0ef0 2A000000 		.4byte	.LVL183
 9997 0ef4 0100     		.2byte	0x1
 9998 0ef6 50       		.byte	0x50
 9999 0ef7 2A000000 		.4byte	.LVL183
 10000 0efb 46000000 		.4byte	.LFE64
 10001 0eff 0100     		.2byte	0x1
 10002 0f01 55       		.byte	0x55
 10003 0f02 00000000 		.4byte	0
 10004 0f06 00000000 		.4byte	0
 10005              	.LLST69:
 10006 0f0a 00000000 		.4byte	.LVL186
 10007 0f0e 0C000000 		.4byte	.LVL187
 10008 0f12 0100     		.2byte	0x1
 10009 0f14 50       		.byte	0x50
 10010 0f15 0C000000 		.4byte	.LVL187
 10011 0f19 8A010000 		.4byte	.LFE74
 10012 0f1d 0100     		.2byte	0x1
 10013 0f1f 54       		.byte	0x54
 10014 0f20 00000000 		.4byte	0
 10015 0f24 00000000 		.4byte	0
 10016              	.LLST70:
 10017 0f28 1C000000 		.4byte	.LVL189
 10018 0f2c 2C000000 		.4byte	.LVL190
 10019 0f30 0100     		.2byte	0x1
 10020 0f32 50       		.byte	0x50
 10021 0f33 30000000 		.4byte	.LVL191
 10022 0f37 3E000000 		.4byte	.LVL192
 10023 0f3b 0100     		.2byte	0x1
 10024 0f3d 50       		.byte	0x50
 10025 0f3e 44000000 		.4byte	.LVL194
 10026 0f42 34010000 		.4byte	.LVL195
 10027 0f46 0100     		.2byte	0x1
 10028 0f48 53       		.byte	0x53
 10029 0f49 40010000 		.4byte	.LVL196
 10030 0f4d 5D010000 		.4byte	.LVL197-1
 10031 0f51 0100     		.2byte	0x1
 10032 0f53 50       		.byte	0x50
 10033 0f54 5E010000 		.4byte	.LVL197
 10034 0f58 74010000 		.4byte	.LVL198
 10035 0f5c 0100     		.2byte	0x1
 10036 0f5e 50       		.byte	0x50
 10037 0f5f 7A010000 		.4byte	.LVL200
 10038 0f63 8A010000 		.4byte	.LFE74
 10039 0f67 0100     		.2byte	0x1
ARM GAS  C:\Users\adria\AppData\Local\Temp\ccQ3AXqi.s 			page 213


 10040 0f69 53       		.byte	0x53
 10041 0f6a 00000000 		.4byte	0
 10042 0f6e 00000000 		.4byte	0
 10043              	.LLST71:
 10044 0f72 00000000 		.4byte	.LVL202
 10045 0f76 0F000000 		.4byte	.LVL204-1
 10046 0f7a 0100     		.2byte	0x1
 10047 0f7c 50       		.byte	0x50
 10048 0f7d 0F000000 		.4byte	.LVL204-1
 10049 0f81 5C000000 		.4byte	.LFE76
 10050 0f85 0100     		.2byte	0x1
 10051 0f87 54       		.byte	0x54
 10052 0f88 00000000 		.4byte	0
 10053 0f8c 00000000 		.4byte	0
 10054              	.LLST72:
 10055 0f90 10000000 		.4byte	.LVL204
 10056 0f94 1C000000 		.4byte	.LVL205
 10057 0f98 0100     		.2byte	0x1
 10058 0f9a 50       		.byte	0x50
 10059 0f9b 22000000 		.4byte	.LVL207
 10060 0f9f 26000000 		.4byte	.LVL208
 10061 0fa3 0100     		.2byte	0x1
 10062 0fa5 53       		.byte	0x53
 10063 0fa6 32000000 		.4byte	.LVL209
 10064 0faa 46000000 		.4byte	.LVL210
 10065 0fae 0100     		.2byte	0x1
 10066 0fb0 50       		.byte	0x50
 10067 0fb1 4A000000 		.4byte	.LVL211
 10068 0fb5 56000000 		.4byte	.LVL212
 10069 0fb9 0100     		.2byte	0x1
 10070 0fbb 50       		.byte	0x50
 10071 0fbc 56000000 		.4byte	.LVL212
 10072 0fc0 5C000000 		.4byte	.LFE76
 10073 0fc4 0100     		.2byte	0x1
 10074 0fc6 53       		.byte	0x53
 10075 0fc7 00000000 		.4byte	0
 10076 0fcb 00000000 		.4byte	0
 10077              	.LLST73:
 10078 0fcf 00000000 		.4byte	.LVL213
 10079 0fd3 18000000 		.4byte	.LVL215
 10080 0fd7 0100     		.2byte	0x1
 10081 0fd9 50       		.byte	0x50
 10082 0fda 18000000 		.4byte	.LVL215
 10083 0fde EC000000 		.4byte	.LFE83
 10084 0fe2 0100     		.2byte	0x1
 10085 0fe4 57       		.byte	0x57
 10086 0fe5 00000000 		.4byte	0
 10087 0fe9 00000000 		.4byte	0
 10088              	.LLST74:
 10089 0fed 00000000 		.4byte	.LVL213
 10090 0ff1 1B000000 		.4byte	.LVL216-1
 10091 0ff5 0100     		.2byte	0x1
 10092 0ff7 51       		.byte	0x51
 10093 0ff8 1B000000 		.4byte	.LVL216-1
 10094 0ffc EC000000 		.4byte	.LFE83
 10095 1000 0100     		.2byte	0x1
 10096 1002 5A       		.byte	0x5a
ARM GAS  C:\Users\adria\AppData\Local\Temp\ccQ3AXqi.s 			page 214


 10097 1003 00000000 		.4byte	0
 10098 1007 00000000 		.4byte	0
 10099              	.LLST75:
 10100 100b 90000000 		.4byte	.LVL225
 10101 100f D8000000 		.4byte	.LVL232
 10102 1013 0100     		.2byte	0x1
 10103 1015 5B       		.byte	0x5b
 10104 1016 00000000 		.4byte	0
 10105 101a 00000000 		.4byte	0
 10106              	.LLST76:
 10107 101e 72000000 		.4byte	.LVL222
 10108 1022 AB000000 		.4byte	.LVL226-1
 10109 1026 0100     		.2byte	0x1
 10110 1028 50       		.byte	0x50
 10111 1029 D0000000 		.4byte	.LVL230
 10112 102d D6000000 		.4byte	.LVL231
 10113 1031 0100     		.2byte	0x1
 10114 1033 50       		.byte	0x50
 10115 1034 00000000 		.4byte	0
 10116 1038 00000000 		.4byte	0
 10117              	.LLST77:
 10118 103c 5C000000 		.4byte	.LVL221
 10119 1040 D8000000 		.4byte	.LVL232
 10120 1044 0100     		.2byte	0x1
 10121 1046 55       		.byte	0x55
 10122 1047 00000000 		.4byte	0
 10123 104b 00000000 		.4byte	0
 10124              	.LLST78:
 10125 104f 7E000000 		.4byte	.LVL223
 10126 1053 D8000000 		.4byte	.LVL232
 10127 1057 0100     		.2byte	0x1
 10128 1059 59       		.byte	0x59
 10129 105a 00000000 		.4byte	0
 10130 105e 00000000 		.4byte	0
 10131              	.LLST79:
 10132 1062 8C000000 		.4byte	.LVL224
 10133 1066 D8000000 		.4byte	.LVL232
 10134 106a 0100     		.2byte	0x1
 10135 106c 58       		.byte	0x58
 10136 106d 00000000 		.4byte	0
 10137 1071 00000000 		.4byte	0
 10138              	.LLST80:
 10139 1075 16000000 		.4byte	.LVL214
 10140 1079 20000000 		.4byte	.LVL218
 10141 107d 0200     		.2byte	0x2
 10142 107f 3A       		.byte	0x3a
 10143 1080 9F       		.byte	0x9f
 10144 1081 20000000 		.4byte	.LVL218
 10145 1085 DA000000 		.4byte	.LVL233
 10146 1089 0100     		.2byte	0x1
 10147 108b 54       		.byte	0x54
 10148 108c DA000000 		.4byte	.LVL233
 10149 1090 E0000000 		.4byte	.LVL234
 10150 1094 0100     		.2byte	0x1
 10151 1096 53       		.byte	0x53
 10152 1097 E0000000 		.4byte	.LVL234
 10153 109b EC000000 		.4byte	.LFE83
ARM GAS  C:\Users\adria\AppData\Local\Temp\ccQ3AXqi.s 			page 215


 10154 109f 0100     		.2byte	0x1
 10155 10a1 54       		.byte	0x54
 10156 10a2 00000000 		.4byte	0
 10157 10a6 00000000 		.4byte	0
 10158              	.LLST81:
 10159 10aa 00000000 		.4byte	.LVL236
 10160 10ae 14000000 		.4byte	.LVL239
 10161 10b2 0100     		.2byte	0x1
 10162 10b4 50       		.byte	0x50
 10163 10b5 14000000 		.4byte	.LVL239
 10164 10b9 A8000000 		.4byte	.LFE65
 10165 10bd 0100     		.2byte	0x1
 10166 10bf 56       		.byte	0x56
 10167 10c0 00000000 		.4byte	0
 10168 10c4 00000000 		.4byte	0
 10169              	.LLST82:
 10170 10c8 00000000 		.4byte	.LVL236
 10171 10cc 12000000 		.4byte	.LVL238
 10172 10d0 0100     		.2byte	0x1
 10173 10d2 51       		.byte	0x51
 10174 10d3 12000000 		.4byte	.LVL238
 10175 10d7 A8000000 		.4byte	.LFE65
 10176 10db 0100     		.2byte	0x1
 10177 10dd 58       		.byte	0x58
 10178 10de 00000000 		.4byte	0
 10179 10e2 00000000 		.4byte	0
 10180              	.LLST83:
 10181 10e6 00000000 		.4byte	.LVL236
 10182 10ea 10000000 		.4byte	.LVL237
 10183 10ee 0100     		.2byte	0x1
 10184 10f0 52       		.byte	0x52
 10185 10f1 10000000 		.4byte	.LVL237
 10186 10f5 A8000000 		.4byte	.LFE65
 10187 10f9 0400     		.2byte	0x4
 10188 10fb F3       		.byte	0xf3
 10189 10fc 01       		.uleb128 0x1
 10190 10fd 52       		.byte	0x52
 10191 10fe 9F       		.byte	0x9f
 10192 10ff 00000000 		.4byte	0
 10193 1103 00000000 		.4byte	0
 10194              	.LLST84:
 10195 1107 00000000 		.4byte	.LVL236
 10196 110b 17000000 		.4byte	.LVL240-1
 10197 110f 0100     		.2byte	0x1
 10198 1111 53       		.byte	0x53
 10199 1112 17000000 		.4byte	.LVL240-1
 10200 1116 A8000000 		.4byte	.LFE65
 10201 111a 0100     		.2byte	0x1
 10202 111c 55       		.byte	0x55
 10203 111d 00000000 		.4byte	0
 10204 1121 00000000 		.4byte	0
 10205              	.LLST85:
 10206 1125 1E000000 		.4byte	.LVL241
 10207 1129 32000000 		.4byte	.LVL242
 10208 112d 0100     		.2byte	0x1
 10209 112f 50       		.byte	0x50
 10210 1130 32000000 		.4byte	.LVL242
ARM GAS  C:\Users\adria\AppData\Local\Temp\ccQ3AXqi.s 			page 216


 10211 1134 74000000 		.4byte	.LVL247
 10212 1138 0100     		.2byte	0x1
 10213 113a 59       		.byte	0x59
 10214 113b 74000000 		.4byte	.LVL247
 10215 113f 76000000 		.4byte	.LVL248
 10216 1143 0100     		.2byte	0x1
 10217 1145 50       		.byte	0x50
 10218 1146 76000000 		.4byte	.LVL248
 10219 114a A8000000 		.4byte	.LFE65
 10220 114e 0100     		.2byte	0x1
 10221 1150 59       		.byte	0x59
 10222 1151 00000000 		.4byte	0
 10223 1155 00000000 		.4byte	0
 10224              	.LLST86:
 10225 1159 32000000 		.4byte	.LVL242
 10226 115d 70000000 		.4byte	.LVL245
 10227 1161 0100     		.2byte	0x1
 10228 1163 54       		.byte	0x54
 10229 1164 72000000 		.4byte	.LVL246
 10230 1168 74000000 		.4byte	.LVL247
 10231 116c 0100     		.2byte	0x1
 10232 116e 54       		.byte	0x54
 10233 116f 76000000 		.4byte	.LVL248
 10234 1173 84000000 		.4byte	.LVL249
 10235 1177 0100     		.2byte	0x1
 10236 1179 54       		.byte	0x54
 10237 117a 00000000 		.4byte	0
 10238 117e 00000000 		.4byte	0
 10239              	.LLST87:
 10240 1182 00000000 		.4byte	.LVL252
 10241 1186 09000000 		.4byte	.LVL253-1
 10242 118a 0100     		.2byte	0x1
 10243 118c 50       		.byte	0x50
 10244 118d 09000000 		.4byte	.LVL253-1
 10245 1191 66000000 		.4byte	.LFE75
 10246 1195 0100     		.2byte	0x1
 10247 1197 55       		.byte	0x55
 10248 1198 00000000 		.4byte	0
 10249 119c 00000000 		.4byte	0
 10250              	.LLST88:
 10251 11a0 0A000000 		.4byte	.LVL253
 10252 11a4 2C000000 		.4byte	.LVL254
 10253 11a8 0100     		.2byte	0x1
 10254 11aa 50       		.byte	0x50
 10255 11ab 4E000000 		.4byte	.LVL257
 10256 11af 50000000 		.4byte	.LVL258
 10257 11b3 0100     		.2byte	0x1
 10258 11b5 50       		.byte	0x50
 10259 11b6 50000000 		.4byte	.LVL258
 10260 11ba 66000000 		.4byte	.LFE75
 10261 11be 0100     		.2byte	0x1
 10262 11c0 54       		.byte	0x54
 10263 11c1 00000000 		.4byte	0
 10264 11c5 00000000 		.4byte	0
 10265              	.LLST89:
 10266 11c9 00000000 		.4byte	.LVL261
 10267 11cd 15000000 		.4byte	.LVL262-1
ARM GAS  C:\Users\adria\AppData\Local\Temp\ccQ3AXqi.s 			page 217


 10268 11d1 0100     		.2byte	0x1
 10269 11d3 50       		.byte	0x50
 10270 11d4 15000000 		.4byte	.LVL262-1
 10271 11d8 54000000 		.4byte	.LFE66
 10272 11dc 0100     		.2byte	0x1
 10273 11de 55       		.byte	0x55
 10274 11df 00000000 		.4byte	0
 10275 11e3 00000000 		.4byte	0
 10276              	.LLST90:
 10277 11e7 16000000 		.4byte	.LVL262
 10278 11eb 20000000 		.4byte	.LVL263
 10279 11ef 0100     		.2byte	0x1
 10280 11f1 50       		.byte	0x50
 10281 11f2 26000000 		.4byte	.LVL265
 10282 11f6 54000000 		.4byte	.LFE66
 10283 11fa 0100     		.2byte	0x1
 10284 11fc 54       		.byte	0x54
 10285 11fd 00000000 		.4byte	0
 10286 1201 00000000 		.4byte	0
 10287              	.LLST91:
 10288 1205 00000000 		.4byte	.LVL271
 10289 1209 07000000 		.4byte	.LVL272-1
 10290 120d 0100     		.2byte	0x1
 10291 120f 50       		.byte	0x50
 10292 1210 07000000 		.4byte	.LVL272-1
 10293 1214 3E000000 		.4byte	.LFE63
 10294 1218 0100     		.2byte	0x1
 10295 121a 54       		.byte	0x54
 10296 121b 00000000 		.4byte	0
 10297 121f 00000000 		.4byte	0
 10298              	.LLST92:
 10299 1223 08000000 		.4byte	.LVL272
 10300 1227 0E000000 		.4byte	.LVL273
 10301 122b 0100     		.2byte	0x1
 10302 122d 50       		.byte	0x50
 10303 122e 12000000 		.4byte	.LVL274
 10304 1232 1E000000 		.4byte	.LVL275
 10305 1236 0100     		.2byte	0x1
 10306 1238 50       		.byte	0x50
 10307 1239 22000000 		.4byte	.LVL276
 10308 123d 2E000000 		.4byte	.LVL277
 10309 1241 0100     		.2byte	0x1
 10310 1243 50       		.byte	0x50
 10311 1244 34000000 		.4byte	.LVL279
 10312 1248 36000000 		.4byte	.LVL280
 10313 124c 0100     		.2byte	0x1
 10314 124e 53       		.byte	0x53
 10315 124f 36000000 		.4byte	.LVL280
 10316 1253 3A000000 		.4byte	.LVL281
 10317 1257 0100     		.2byte	0x1
 10318 1259 50       		.byte	0x50
 10319 125a 3A000000 		.4byte	.LVL281
 10320 125e 3E000000 		.4byte	.LFE63
 10321 1262 0100     		.2byte	0x1
 10322 1264 53       		.byte	0x53
 10323 1265 00000000 		.4byte	0
 10324 1269 00000000 		.4byte	0
ARM GAS  C:\Users\adria\AppData\Local\Temp\ccQ3AXqi.s 			page 218


 10325              	.LLST93:
 10326 126d 00000000 		.4byte	.LVL282
 10327 1271 12000000 		.4byte	.LVL284
 10328 1275 0100     		.2byte	0x1
 10329 1277 50       		.byte	0x50
 10330 1278 12000000 		.4byte	.LVL284
 10331 127c B6000000 		.4byte	.LFE68
 10332 1280 0400     		.2byte	0x4
 10333 1282 F3       		.byte	0xf3
 10334 1283 01       		.uleb128 0x1
 10335 1284 50       		.byte	0x50
 10336 1285 9F       		.byte	0x9f
 10337 1286 00000000 		.4byte	0
 10338 128a 00000000 		.4byte	0
 10339              	.LLST94:
 10340 128e 00000000 		.4byte	.LVL282
 10341 1292 15000000 		.4byte	.LVL285-1
 10342 1296 0100     		.2byte	0x1
 10343 1298 51       		.byte	0x51
 10344 1299 15000000 		.4byte	.LVL285-1
 10345 129d B6000000 		.4byte	.LFE68
 10346 12a1 0100     		.2byte	0x1
 10347 12a3 54       		.byte	0x54
 10348 12a4 00000000 		.4byte	0
 10349 12a8 00000000 		.4byte	0
 10350              	.LLST95:
 10351 12ac 16000000 		.4byte	.LVL285
 10352 12b0 22000000 		.4byte	.LVL286
 10353 12b4 0100     		.2byte	0x1
 10354 12b6 50       		.byte	0x50
 10355 12b7 26000000 		.4byte	.LVL287
 10356 12bb 36000000 		.4byte	.LVL288
 10357 12bf 0100     		.2byte	0x1
 10358 12c1 50       		.byte	0x50
 10359 12c2 3C000000 		.4byte	.LVL290
 10360 12c6 AC000000 		.4byte	.LVL291
 10361 12ca 0100     		.2byte	0x1
 10362 12cc 52       		.byte	0x52
 10363 12cd AC000000 		.4byte	.LVL291
 10364 12d1 B0000000 		.4byte	.LVL292
 10365 12d5 0100     		.2byte	0x1
 10366 12d7 50       		.byte	0x50
 10367 12d8 B0000000 		.4byte	.LVL292
 10368 12dc B6000000 		.4byte	.LFE68
 10369 12e0 0100     		.2byte	0x1
 10370 12e2 52       		.byte	0x52
 10371 12e3 00000000 		.4byte	0
 10372 12e7 00000000 		.4byte	0
 10373              	.LLST96:
 10374 12eb 00000000 		.4byte	.LVL293
 10375 12ef 0F000000 		.4byte	.LVL295-1
 10376 12f3 0100     		.2byte	0x1
 10377 12f5 50       		.byte	0x50
 10378 12f6 0F000000 		.4byte	.LVL295-1
 10379 12fa 86000000 		.4byte	.LFE69
 10380 12fe 0100     		.2byte	0x1
 10381 1300 55       		.byte	0x55
ARM GAS  C:\Users\adria\AppData\Local\Temp\ccQ3AXqi.s 			page 219


 10382 1301 00000000 		.4byte	0
 10383 1305 00000000 		.4byte	0
 10384              	.LLST97:
 10385 1309 10000000 		.4byte	.LVL295
 10386 130d 16000000 		.4byte	.LVL296
 10387 1311 0100     		.2byte	0x1
 10388 1313 50       		.byte	0x50
 10389 1314 24000000 		.4byte	.LVL297
 10390 1318 44000000 		.4byte	.LVL301
 10391 131c 0100     		.2byte	0x1
 10392 131e 50       		.byte	0x50
 10393 131f 4A000000 		.4byte	.LVL303
 10394 1323 86000000 		.4byte	.LFE69
 10395 1327 0100     		.2byte	0x1
 10396 1329 56       		.byte	0x56
 10397 132a 00000000 		.4byte	0
 10398 132e 00000000 		.4byte	0
 10399              	.LLST98:
 10400 1332 06000000 		.4byte	.LVL294
 10401 1336 16000000 		.4byte	.LVL296
 10402 133a 0200     		.2byte	0x2
 10403 133c 30       		.byte	0x30
 10404 133d 9F       		.byte	0x9f
 10405 133e 16000000 		.4byte	.LVL296
 10406 1342 2C000000 		.4byte	.LVL298
 10407 1346 0100     		.2byte	0x1
 10408 1348 54       		.byte	0x54
 10409 1349 2C000000 		.4byte	.LVL298
 10410 134d 36000000 		.4byte	.LVL299
 10411 1351 0500     		.2byte	0x5
 10412 1353 73       		.byte	0x73
 10413 1354 00       		.sleb128 0
 10414 1355 33       		.byte	0x33
 10415 1356 1A       		.byte	0x1a
 10416 1357 9F       		.byte	0x9f
 10417 1358 36000000 		.4byte	.LVL299
 10418 135c 3C000000 		.4byte	.LVL300
 10419 1360 0700     		.2byte	0x7
 10420 1362 91       		.byte	0x91
 10421 1363 6F       		.sleb128 -17
 10422 1364 94       		.byte	0x94
 10423 1365 01       		.byte	0x1
 10424 1366 33       		.byte	0x33
 10425 1367 1A       		.byte	0x1a
 10426 1368 9F       		.byte	0x9f
 10427 1369 50000000 		.4byte	.LVL304
 10428 136d 80000000 		.4byte	.LVL306
 10429 1371 0100     		.2byte	0x1
 10430 1373 54       		.byte	0x54
 10431 1374 00000000 		.4byte	0
 10432 1378 00000000 		.4byte	0
 10433              	.LLST99:
 10434 137c 00000000 		.4byte	.LVL307
 10435 1380 20000000 		.4byte	.LVL310
 10436 1384 0100     		.2byte	0x1
 10437 1386 50       		.byte	0x50
 10438 1387 20000000 		.4byte	.LVL310
ARM GAS  C:\Users\adria\AppData\Local\Temp\ccQ3AXqi.s 			page 220


 10439 138b 68020000 		.4byte	.LFE67
 10440 138f 0400     		.2byte	0x4
 10441 1391 F3       		.byte	0xf3
 10442 1392 01       		.uleb128 0x1
 10443 1393 50       		.byte	0x50
 10444 1394 9F       		.byte	0x9f
 10445 1395 00000000 		.4byte	0
 10446 1399 00000000 		.4byte	0
 10447              	.LLST100:
 10448 139d 00000000 		.4byte	.LVL307
 10449 13a1 23000000 		.4byte	.LVL311-1
 10450 13a5 0100     		.2byte	0x1
 10451 13a7 51       		.byte	0x51
 10452 13a8 23000000 		.4byte	.LVL311-1
 10453 13ac 68020000 		.4byte	.LFE67
 10454 13b0 0100     		.2byte	0x1
 10455 13b2 54       		.byte	0x54
 10456 13b3 00000000 		.4byte	0
 10457 13b7 00000000 		.4byte	0
 10458              	.LLST101:
 10459 13bb 24000000 		.4byte	.LVL311
 10460 13bf 36000000 		.4byte	.LVL312
 10461 13c3 0100     		.2byte	0x1
 10462 13c5 50       		.byte	0x50
 10463 13c6 3C000000 		.4byte	.LVL314
 10464 13ca 49000000 		.4byte	.LVL315-1
 10465 13ce 0100     		.2byte	0x1
 10466 13d0 53       		.byte	0x53
 10467 13d1 4C000000 		.4byte	.LVL316
 10468 13d5 56000000 		.4byte	.LVL317
 10469 13d9 0100     		.2byte	0x1
 10470 13db 53       		.byte	0x53
 10471 13dc 62000000 		.4byte	.LVL318
 10472 13e0 70000000 		.4byte	.LVL319
 10473 13e4 0100     		.2byte	0x1
 10474 13e6 50       		.byte	0x50
 10475 13e7 76000000 		.4byte	.LVL321
 10476 13eb AE000000 		.4byte	.LVL325
 10477 13ef 0100     		.2byte	0x1
 10478 13f1 53       		.byte	0x53
 10479 13f2 BA000000 		.4byte	.LVL326
 10480 13f6 C8000000 		.4byte	.LVL327
 10481 13fa 0100     		.2byte	0x1
 10482 13fc 50       		.byte	0x50
 10483 13fd CE000000 		.4byte	.LVL329
 10484 1401 FE000000 		.4byte	.LVL332
 10485 1405 0100     		.2byte	0x1
 10486 1407 53       		.byte	0x53
 10487 1408 0A010000 		.4byte	.LVL333
 10488 140c 18010000 		.4byte	.LVL334
 10489 1410 0100     		.2byte	0x1
 10490 1412 50       		.byte	0x50
 10491 1413 1E010000 		.4byte	.LVL336
 10492 1417 78010000 		.4byte	.LVL339
 10493 141b 0100     		.2byte	0x1
 10494 141d 53       		.byte	0x53
 10495 141e 84010000 		.4byte	.LVL340
ARM GAS  C:\Users\adria\AppData\Local\Temp\ccQ3AXqi.s 			page 221


 10496 1422 92010000 		.4byte	.LVL341
 10497 1426 0100     		.2byte	0x1
 10498 1428 50       		.byte	0x50
 10499 1429 98010000 		.4byte	.LVL343
 10500 142d C8010000 		.4byte	.LVL346
 10501 1431 0100     		.2byte	0x1
 10502 1433 53       		.byte	0x53
 10503 1434 D4010000 		.4byte	.LVL347
 10504 1438 E2010000 		.4byte	.LVL348
 10505 143c 0100     		.2byte	0x1
 10506 143e 50       		.byte	0x50
 10507 143f E8010000 		.4byte	.LVL350
 10508 1443 EC010000 		.4byte	.LVL351
 10509 1447 0100     		.2byte	0x1
 10510 1449 53       		.byte	0x53
 10511 144a FA010000 		.4byte	.LVL353
 10512 144e 52020000 		.4byte	.LVL356
 10513 1452 0100     		.2byte	0x1
 10514 1454 53       		.byte	0x53
 10515 1455 5E020000 		.4byte	.LVL358
 10516 1459 68020000 		.4byte	.LFE67
 10517 145d 0100     		.2byte	0x1
 10518 145f 53       		.byte	0x53
 10519 1460 00000000 		.4byte	0
 10520 1464 00000000 		.4byte	0
 10521              	.LLST102:
 10522 1468 62000000 		.4byte	.LVL318
 10523 146c A2000000 		.4byte	.LVL323
 10524 1470 0300     		.2byte	0x3
 10525 1472 08       		.byte	0x8
 10526 1473 75       		.byte	0x75
 10527 1474 9F       		.byte	0x9f
 10528 1475 BA000000 		.4byte	.LVL326
 10529 1479 F6000000 		.4byte	.LVL331
 10530 147d 0300     		.2byte	0x3
 10531 147f 08       		.byte	0x8
 10532 1480 70       		.byte	0x70
 10533 1481 9F       		.byte	0x9f
 10534 1482 0A010000 		.4byte	.LVL333
 10535 1486 6E010000 		.4byte	.LVL338
 10536 148a 0300     		.2byte	0x3
 10537 148c 08       		.byte	0x8
 10538 148d 74       		.byte	0x74
 10539 148e 9F       		.byte	0x9f
 10540 148f 84010000 		.4byte	.LVL340
 10541 1493 C0010000 		.4byte	.LVL345
 10542 1497 0300     		.2byte	0x3
 10543 1499 08       		.byte	0x8
 10544 149a 72       		.byte	0x72
 10545 149b 9F       		.byte	0x9f
 10546 149c E8010000 		.4byte	.LVL350
 10547 14a0 4E020000 		.4byte	.LVL355
 10548 14a4 0300     		.2byte	0x3
 10549 14a6 08       		.byte	0x8
 10550 14a7 71       		.byte	0x71
 10551 14a8 9F       		.byte	0x9f
 10552 14a9 00000000 		.4byte	0
ARM GAS  C:\Users\adria\AppData\Local\Temp\ccQ3AXqi.s 			page 222


 10553 14ad 00000000 		.4byte	0
 10554              	.LLST103:
 10555 14b1 0E000000 		.4byte	.LVL308
 10556 14b5 9E000000 		.4byte	.LVL322
 10557 14b9 0200     		.2byte	0x2
 10558 14bb 30       		.byte	0x30
 10559 14bc 9F       		.byte	0x9f
 10560 14bd 9E000000 		.4byte	.LVL322
 10561 14c1 A2000000 		.4byte	.LVL323
 10562 14c5 0200     		.2byte	0x2
 10563 14c7 31       		.byte	0x31
 10564 14c8 9F       		.byte	0x9f
 10565 14c9 A2000000 		.4byte	.LVL323
 10566 14cd A4000000 		.4byte	.LVL324
 10567 14d1 0200     		.2byte	0x2
 10568 14d3 30       		.byte	0x30
 10569 14d4 9F       		.byte	0x9f
 10570 14d5 A4000000 		.4byte	.LVL324
 10571 14d9 F4000000 		.4byte	.LVL330
 10572 14dd 0100     		.2byte	0x1
 10573 14df 56       		.byte	0x56
 10574 14e0 F6000000 		.4byte	.LVL331
 10575 14e4 6C010000 		.4byte	.LVL337
 10576 14e8 0100     		.2byte	0x1
 10577 14ea 56       		.byte	0x56
 10578 14eb 6E010000 		.4byte	.LVL338
 10579 14ef BE010000 		.4byte	.LVL344
 10580 14f3 0100     		.2byte	0x1
 10581 14f5 56       		.byte	0x56
 10582 14f6 C0010000 		.4byte	.LVL345
 10583 14fa 4C020000 		.4byte	.LVL354
 10584 14fe 0100     		.2byte	0x1
 10585 1500 56       		.byte	0x56
 10586 1501 4E020000 		.4byte	.LVL355
 10587 1505 62020000 		.4byte	.LVL359
 10588 1509 0100     		.2byte	0x1
 10589 150b 56       		.byte	0x56
 10590 150c 00000000 		.4byte	0
 10591 1510 00000000 		.4byte	0
 10592              	.LLST104:
 10593 1514 00000000 		.4byte	.LVL360
 10594 1518 09000000 		.4byte	.LVL361-1
 10595 151c 0100     		.2byte	0x1
 10596 151e 50       		.byte	0x50
 10597 151f 09000000 		.4byte	.LVL361-1
 10598 1523 30000000 		.4byte	.LFE70
 10599 1527 0100     		.2byte	0x1
 10600 1529 54       		.byte	0x54
 10601 152a 00000000 		.4byte	0
 10602 152e 00000000 		.4byte	0
 10603              	.LLST105:
 10604 1532 0A000000 		.4byte	.LVL361
 10605 1536 18000000 		.4byte	.LVL362
 10606 153a 0100     		.2byte	0x1
 10607 153c 50       		.byte	0x50
 10608 153d 1E000000 		.4byte	.LVL364
 10609 1541 30000000 		.4byte	.LFE70
ARM GAS  C:\Users\adria\AppData\Local\Temp\ccQ3AXqi.s 			page 223


 10610 1545 0100     		.2byte	0x1
 10611 1547 53       		.byte	0x53
 10612 1548 00000000 		.4byte	0
 10613 154c 00000000 		.4byte	0
 10614              	.LLST106:
 10615 1550 00000000 		.4byte	.LVL366
 10616 1554 0C000000 		.4byte	.LVL367
 10617 1558 0100     		.2byte	0x1
 10618 155a 50       		.byte	0x50
 10619 155b 0C000000 		.4byte	.LVL367
 10620 155f 64000000 		.4byte	.LFE71
 10621 1563 0400     		.2byte	0x4
 10622 1565 F3       		.byte	0xf3
 10623 1566 01       		.uleb128 0x1
 10624 1567 50       		.byte	0x50
 10625 1568 9F       		.byte	0x9f
 10626 1569 00000000 		.4byte	0
 10627 156d 00000000 		.4byte	0
 10628              	.LLST107:
 10629 1571 3A000000 		.4byte	.LVL370
 10630 1575 46000000 		.4byte	.LVL371
 10631 1579 0A00     		.2byte	0xa
 10632 157b 73       		.byte	0x73
 10633 157c 00       		.sleb128 0
 10634 157d 0A       		.byte	0xa
 10635 157e AB07     		.2byte	0x7ab
 10636 1580 1E       		.byte	0x1e
 10637 1581 23       		.byte	0x23
 10638 1582 C521     		.uleb128 0x10c5
 10639 1584 9F       		.byte	0x9f
 10640 1585 46000000 		.4byte	.LVL371
 10641 1589 4C000000 		.4byte	.LVL373
 10642 158d 0100     		.2byte	0x1
 10643 158f 50       		.byte	0x50
 10644 1590 4C000000 		.4byte	.LVL373
 10645 1594 4E000000 		.4byte	.LVL374
 10646 1598 3C00     		.2byte	0x3c
 10647 159a 71       		.byte	0x71
 10648 159b 39       		.sleb128 57
 10649 159c 94       		.byte	0x94
 10650 159d 01       		.byte	0x1
 10651 159e 08       		.byte	0x8
 10652 159f FF       		.byte	0xff
 10653 15a0 1A       		.byte	0x1a
 10654 15a1 91       		.byte	0x91
 10655 15a2 00       		.sleb128 0
 10656 15a3 22       		.byte	0x22
 10657 15a4 40       		.byte	0x40
 10658 15a5 1C       		.byte	0x1c
 10659 15a6 94       		.byte	0x94
 10660 15a7 01       		.byte	0x1
 10661 15a8 08       		.byte	0x8
 10662 15a9 FF       		.byte	0xff
 10663 15aa 1A       		.byte	0x1a
 10664 15ab 71       		.byte	0x71
 10665 15ac 38       		.sleb128 56
 10666 15ad 94       		.byte	0x94
ARM GAS  C:\Users\adria\AppData\Local\Temp\ccQ3AXqi.s 			page 224


 10667 15ae 01       		.byte	0x1
 10668 15af 08       		.byte	0x8
 10669 15b0 FF       		.byte	0xff
 10670 15b1 1A       		.byte	0x1a
 10671 15b2 91       		.byte	0x91
 10672 15b3 00       		.sleb128 0
 10673 15b4 22       		.byte	0x22
 10674 15b5 40       		.byte	0x40
 10675 15b6 1C       		.byte	0x1c
 10676 15b7 94       		.byte	0x94
 10677 15b8 01       		.byte	0x1
 10678 15b9 08       		.byte	0x8
 10679 15ba FF       		.byte	0xff
 10680 15bb 1A       		.byte	0x1a
 10681 15bc 22       		.byte	0x22
 10682 15bd 71       		.byte	0x71
 10683 15be 3A       		.sleb128 58
 10684 15bf 94       		.byte	0x94
 10685 15c0 01       		.byte	0x1
 10686 15c1 08       		.byte	0x8
 10687 15c2 FF       		.byte	0xff
 10688 15c3 1A       		.byte	0x1a
 10689 15c4 91       		.byte	0x91
 10690 15c5 00       		.sleb128 0
 10691 15c6 22       		.byte	0x22
 10692 15c7 40       		.byte	0x40
 10693 15c8 1C       		.byte	0x1c
 10694 15c9 94       		.byte	0x94
 10695 15ca 01       		.byte	0x1
 10696 15cb 08       		.byte	0x8
 10697 15cc FF       		.byte	0xff
 10698 15cd 1A       		.byte	0x1a
 10699 15ce 22       		.byte	0x22
 10700 15cf 74       		.byte	0x74
 10701 15d0 00       		.sleb128 0
 10702 15d1 1E       		.byte	0x1e
 10703 15d2 23       		.byte	0x23
 10704 15d3 B925     		.uleb128 0x12b9
 10705 15d5 9F       		.byte	0x9f
 10706 15d6 4E000000 		.4byte	.LVL374
 10707 15da 52000000 		.4byte	.LVL376
 10708 15de 0100     		.2byte	0x1
 10709 15e0 50       		.byte	0x50
 10710 15e1 52000000 		.4byte	.LVL376
 10711 15e5 5A000000 		.4byte	.LVL377
 10712 15e9 5300     		.2byte	0x53
 10713 15eb 71       		.byte	0x71
 10714 15ec 39       		.sleb128 57
 10715 15ed 94       		.byte	0x94
 10716 15ee 01       		.byte	0x1
 10717 15ef 08       		.byte	0x8
 10718 15f0 FF       		.byte	0xff
 10719 15f1 1A       		.byte	0x1a
 10720 15f2 91       		.byte	0x91
 10721 15f3 00       		.sleb128 0
 10722 15f4 22       		.byte	0x22
 10723 15f5 40       		.byte	0x40
ARM GAS  C:\Users\adria\AppData\Local\Temp\ccQ3AXqi.s 			page 225


 10724 15f6 1C       		.byte	0x1c
 10725 15f7 94       		.byte	0x94
 10726 15f8 01       		.byte	0x1
 10727 15f9 08       		.byte	0x8
 10728 15fa FF       		.byte	0xff
 10729 15fb 1A       		.byte	0x1a
 10730 15fc 71       		.byte	0x71
 10731 15fd 38       		.sleb128 56
 10732 15fe 94       		.byte	0x94
 10733 15ff 01       		.byte	0x1
 10734 1600 08       		.byte	0x8
 10735 1601 FF       		.byte	0xff
 10736 1602 1A       		.byte	0x1a
 10737 1603 91       		.byte	0x91
 10738 1604 00       		.sleb128 0
 10739 1605 22       		.byte	0x22
 10740 1606 40       		.byte	0x40
 10741 1607 1C       		.byte	0x1c
 10742 1608 94       		.byte	0x94
 10743 1609 01       		.byte	0x1
 10744 160a 08       		.byte	0x8
 10745 160b FF       		.byte	0xff
 10746 160c 1A       		.byte	0x1a
 10747 160d 22       		.byte	0x22
 10748 160e 71       		.byte	0x71
 10749 160f 3A       		.sleb128 58
 10750 1610 94       		.byte	0x94
 10751 1611 01       		.byte	0x1
 10752 1612 08       		.byte	0x8
 10753 1613 FF       		.byte	0xff
 10754 1614 1A       		.byte	0x1a
 10755 1615 91       		.byte	0x91
 10756 1616 00       		.sleb128 0
 10757 1617 22       		.byte	0x22
 10758 1618 40       		.byte	0x40
 10759 1619 1C       		.byte	0x1c
 10760 161a 94       		.byte	0x94
 10761 161b 01       		.byte	0x1
 10762 161c 08       		.byte	0x8
 10763 161d FF       		.byte	0xff
 10764 161e 1A       		.byte	0x1a
 10765 161f 22       		.byte	0x22
 10766 1620 74       		.byte	0x74
 10767 1621 00       		.sleb128 0
 10768 1622 1E       		.byte	0x1e
 10769 1623 23       		.byte	0x23
 10770 1624 B925     		.uleb128 0x12b9
 10771 1626 F7       		.byte	0xf7
 10772 1627 2C       		.uleb128 0x2c
 10773 1628 F7       		.byte	0xf7
 10774 1629 25       		.uleb128 0x25
 10775 162a 0C       		.byte	0xc
 10776 162b D34D6210 		.4byte	0x10624dd3
 10777 162f F7       		.byte	0xf7
 10778 1630 25       		.uleb128 0x25
 10779 1631 1E       		.byte	0x1e
 10780 1632 08       		.byte	0x8
ARM GAS  C:\Users\adria\AppData\Local\Temp\ccQ3AXqi.s 			page 226


 10781 1633 20       		.byte	0x20
 10782 1634 F7       		.byte	0xf7
 10783 1635 25       		.uleb128 0x25
 10784 1636 25       		.byte	0x25
 10785 1637 F7       		.byte	0xf7
 10786 1638 2C       		.uleb128 0x2c
 10787 1639 36       		.byte	0x36
 10788 163a 25       		.byte	0x25
 10789 163b 23       		.byte	0x23
 10790 163c 01       		.uleb128 0x1
 10791 163d 9F       		.byte	0x9f
 10792 163e 5A000000 		.4byte	.LVL377
 10793 1642 64000000 		.4byte	.LFE71
 10794 1646 5400     		.2byte	0x54
 10795 1648 71       		.byte	0x71
 10796 1649 39       		.sleb128 57
 10797 164a 94       		.byte	0x94
 10798 164b 01       		.byte	0x1
 10799 164c 08       		.byte	0x8
 10800 164d FF       		.byte	0xff
 10801 164e 1A       		.byte	0x1a
 10802 164f 7D       		.byte	0x7d
 10803 1650 00       		.sleb128 0
 10804 1651 22       		.byte	0x22
 10805 1652 40       		.byte	0x40
 10806 1653 1C       		.byte	0x1c
 10807 1654 94       		.byte	0x94
 10808 1655 01       		.byte	0x1
 10809 1656 08       		.byte	0x8
 10810 1657 FF       		.byte	0xff
 10811 1658 1A       		.byte	0x1a
 10812 1659 71       		.byte	0x71
 10813 165a 38       		.sleb128 56
 10814 165b 94       		.byte	0x94
 10815 165c 01       		.byte	0x1
 10816 165d 08       		.byte	0x8
 10817 165e FF       		.byte	0xff
 10818 165f 1A       		.byte	0x1a
 10819 1660 7D       		.byte	0x7d
 10820 1661 00       		.sleb128 0
 10821 1662 22       		.byte	0x22
 10822 1663 40       		.byte	0x40
 10823 1664 1C       		.byte	0x1c
 10824 1665 94       		.byte	0x94
 10825 1666 01       		.byte	0x1
 10826 1667 08       		.byte	0x8
 10827 1668 FF       		.byte	0xff
 10828 1669 1A       		.byte	0x1a
 10829 166a 22       		.byte	0x22
 10830 166b 71       		.byte	0x71
 10831 166c 3A       		.sleb128 58
 10832 166d 94       		.byte	0x94
 10833 166e 01       		.byte	0x1
 10834 166f 08       		.byte	0x8
 10835 1670 FF       		.byte	0xff
 10836 1671 1A       		.byte	0x1a
 10837 1672 7D       		.byte	0x7d
ARM GAS  C:\Users\adria\AppData\Local\Temp\ccQ3AXqi.s 			page 227


 10838 1673 00       		.sleb128 0
 10839 1674 22       		.byte	0x22
 10840 1675 40       		.byte	0x40
 10841 1676 1C       		.byte	0x1c
 10842 1677 94       		.byte	0x94
 10843 1678 01       		.byte	0x1
 10844 1679 08       		.byte	0x8
 10845 167a FF       		.byte	0xff
 10846 167b 1A       		.byte	0x1a
 10847 167c 22       		.byte	0x22
 10848 167d 0A       		.byte	0xa
 10849 167e AB07     		.2byte	0x7ab
 10850 1680 1E       		.byte	0x1e
 10851 1681 23       		.byte	0x23
 10852 1682 B925     		.uleb128 0x12b9
 10853 1684 F7       		.byte	0xf7
 10854 1685 2C       		.uleb128 0x2c
 10855 1686 F7       		.byte	0xf7
 10856 1687 25       		.uleb128 0x25
 10857 1688 0C       		.byte	0xc
 10858 1689 D34D6210 		.4byte	0x10624dd3
 10859 168d F7       		.byte	0xf7
 10860 168e 25       		.uleb128 0x25
 10861 168f 1E       		.byte	0x1e
 10862 1690 08       		.byte	0x8
 10863 1691 20       		.byte	0x20
 10864 1692 F7       		.byte	0xf7
 10865 1693 25       		.uleb128 0x25
 10866 1694 25       		.byte	0x25
 10867 1695 F7       		.byte	0xf7
 10868 1696 2C       		.uleb128 0x2c
 10869 1697 36       		.byte	0x36
 10870 1698 25       		.byte	0x25
 10871 1699 23       		.byte	0x23
 10872 169a 01       		.uleb128 0x1
 10873 169b 9F       		.byte	0x9f
 10874 169c 00000000 		.4byte	0
 10875 16a0 00000000 		.4byte	0
 10876              	.LLST108:
 10877 16a4 20000000 		.4byte	.LVL368
 10878 16a8 48000000 		.4byte	.LVL372
 10879 16ac 0100     		.2byte	0x1
 10880 16ae 53       		.byte	0x53
 10881 16af 48000000 		.4byte	.LVL372
 10882 16b3 5A000000 		.4byte	.LVL377
 10883 16b7 3600     		.2byte	0x36
 10884 16b9 71       		.byte	0x71
 10885 16ba 39       		.sleb128 57
 10886 16bb 94       		.byte	0x94
 10887 16bc 01       		.byte	0x1
 10888 16bd 08       		.byte	0x8
 10889 16be FF       		.byte	0xff
 10890 16bf 1A       		.byte	0x1a
 10891 16c0 91       		.byte	0x91
 10892 16c1 00       		.sleb128 0
 10893 16c2 22       		.byte	0x22
 10894 16c3 40       		.byte	0x40
ARM GAS  C:\Users\adria\AppData\Local\Temp\ccQ3AXqi.s 			page 228


 10895 16c4 1C       		.byte	0x1c
 10896 16c5 94       		.byte	0x94
 10897 16c6 01       		.byte	0x1
 10898 16c7 08       		.byte	0x8
 10899 16c8 FF       		.byte	0xff
 10900 16c9 1A       		.byte	0x1a
 10901 16ca 71       		.byte	0x71
 10902 16cb 38       		.sleb128 56
 10903 16cc 94       		.byte	0x94
 10904 16cd 01       		.byte	0x1
 10905 16ce 08       		.byte	0x8
 10906 16cf FF       		.byte	0xff
 10907 16d0 1A       		.byte	0x1a
 10908 16d1 91       		.byte	0x91
 10909 16d2 00       		.sleb128 0
 10910 16d3 22       		.byte	0x22
 10911 16d4 40       		.byte	0x40
 10912 16d5 1C       		.byte	0x1c
 10913 16d6 94       		.byte	0x94
 10914 16d7 01       		.byte	0x1
 10915 16d8 08       		.byte	0x8
 10916 16d9 FF       		.byte	0xff
 10917 16da 1A       		.byte	0x1a
 10918 16db 22       		.byte	0x22
 10919 16dc 71       		.byte	0x71
 10920 16dd 3A       		.sleb128 58
 10921 16de 94       		.byte	0x94
 10922 16df 01       		.byte	0x1
 10923 16e0 08       		.byte	0x8
 10924 16e1 FF       		.byte	0xff
 10925 16e2 1A       		.byte	0x1a
 10926 16e3 91       		.byte	0x91
 10927 16e4 00       		.sleb128 0
 10928 16e5 22       		.byte	0x22
 10929 16e6 40       		.byte	0x40
 10930 16e7 1C       		.byte	0x1c
 10931 16e8 94       		.byte	0x94
 10932 16e9 01       		.byte	0x1
 10933 16ea 08       		.byte	0x8
 10934 16eb FF       		.byte	0xff
 10935 16ec 1A       		.byte	0x1a
 10936 16ed 22       		.byte	0x22
 10937 16ee 9F       		.byte	0x9f
 10938 16ef 5A000000 		.4byte	.LVL377
 10939 16f3 64000000 		.4byte	.LFE71
 10940 16f7 3600     		.2byte	0x36
 10941 16f9 71       		.byte	0x71
 10942 16fa 39       		.sleb128 57
 10943 16fb 94       		.byte	0x94
 10944 16fc 01       		.byte	0x1
 10945 16fd 08       		.byte	0x8
 10946 16fe FF       		.byte	0xff
 10947 16ff 1A       		.byte	0x1a
 10948 1700 7D       		.byte	0x7d
 10949 1701 00       		.sleb128 0
 10950 1702 22       		.byte	0x22
 10951 1703 40       		.byte	0x40
ARM GAS  C:\Users\adria\AppData\Local\Temp\ccQ3AXqi.s 			page 229


 10952 1704 1C       		.byte	0x1c
 10953 1705 94       		.byte	0x94
 10954 1706 01       		.byte	0x1
 10955 1707 08       		.byte	0x8
 10956 1708 FF       		.byte	0xff
 10957 1709 1A       		.byte	0x1a
 10958 170a 71       		.byte	0x71
 10959 170b 38       		.sleb128 56
 10960 170c 94       		.byte	0x94
 10961 170d 01       		.byte	0x1
 10962 170e 08       		.byte	0x8
 10963 170f FF       		.byte	0xff
 10964 1710 1A       		.byte	0x1a
 10965 1711 7D       		.byte	0x7d
 10966 1712 00       		.sleb128 0
 10967 1713 22       		.byte	0x22
 10968 1714 40       		.byte	0x40
 10969 1715 1C       		.byte	0x1c
 10970 1716 94       		.byte	0x94
 10971 1717 01       		.byte	0x1
 10972 1718 08       		.byte	0x8
 10973 1719 FF       		.byte	0xff
 10974 171a 1A       		.byte	0x1a
 10975 171b 22       		.byte	0x22
 10976 171c 71       		.byte	0x71
 10977 171d 3A       		.sleb128 58
 10978 171e 94       		.byte	0x94
 10979 171f 01       		.byte	0x1
 10980 1720 08       		.byte	0x8
 10981 1721 FF       		.byte	0xff
 10982 1722 1A       		.byte	0x1a
 10983 1723 7D       		.byte	0x7d
 10984 1724 00       		.sleb128 0
 10985 1725 22       		.byte	0x22
 10986 1726 40       		.byte	0x40
 10987 1727 1C       		.byte	0x1c
 10988 1728 94       		.byte	0x94
 10989 1729 01       		.byte	0x1
 10990 172a 08       		.byte	0x8
 10991 172b FF       		.byte	0xff
 10992 172c 1A       		.byte	0x1a
 10993 172d 22       		.byte	0x22
 10994 172e 9F       		.byte	0x9f
 10995 172f 00000000 		.4byte	0
 10996 1733 00000000 		.4byte	0
 10997              	.LLST109:
 10998 1737 00000000 		.4byte	.LVL378
 10999 173b 0C000000 		.4byte	.LVL379
 11000 173f 0100     		.2byte	0x1
 11001 1741 50       		.byte	0x50
 11002 1742 0C000000 		.4byte	.LVL379
 11003 1746 66000000 		.4byte	.LVL390
 11004 174a 0100     		.2byte	0x1
 11005 174c 54       		.byte	0x54
 11006 174d 66000000 		.4byte	.LVL390
 11007 1751 70000000 		.4byte	.LFE72
 11008 1755 0400     		.2byte	0x4
ARM GAS  C:\Users\adria\AppData\Local\Temp\ccQ3AXqi.s 			page 230


 11009 1757 F3       		.byte	0xf3
 11010 1758 01       		.uleb128 0x1
 11011 1759 50       		.byte	0x50
 11012 175a 9F       		.byte	0x9f
 11013 175b 00000000 		.4byte	0
 11014 175f 00000000 		.4byte	0
 11015              	.LLST110:
 11016 1763 3A000000 		.4byte	.LVL382
 11017 1767 46000000 		.4byte	.LVL383
 11018 176b 0A00     		.2byte	0xa
 11019 176d 72       		.byte	0x72
 11020 176e 00       		.sleb128 0
 11021 176f 0A       		.byte	0xa
 11022 1770 AB07     		.2byte	0x7ab
 11023 1772 1E       		.byte	0x1e
 11024 1773 23       		.byte	0x23
 11025 1774 C521     		.uleb128 0x10c5
 11026 1776 9F       		.byte	0x9f
 11027 1777 46000000 		.4byte	.LVL383
 11028 177b 4C000000 		.4byte	.LVL385
 11029 177f 0100     		.2byte	0x1
 11030 1781 53       		.byte	0x53
 11031 1782 4C000000 		.4byte	.LVL385
 11032 1786 4E000000 		.4byte	.LVL386
 11033 178a 3C00     		.2byte	0x3c
 11034 178c 71       		.byte	0x71
 11035 178d 39       		.sleb128 57
 11036 178e 94       		.byte	0x94
 11037 178f 01       		.byte	0x1
 11038 1790 08       		.byte	0x8
 11039 1791 FF       		.byte	0xff
 11040 1792 1A       		.byte	0x1a
 11041 1793 91       		.byte	0x91
 11042 1794 00       		.sleb128 0
 11043 1795 22       		.byte	0x22
 11044 1796 40       		.byte	0x40
 11045 1797 1C       		.byte	0x1c
 11046 1798 94       		.byte	0x94
 11047 1799 01       		.byte	0x1
 11048 179a 08       		.byte	0x8
 11049 179b FF       		.byte	0xff
 11050 179c 1A       		.byte	0x1a
 11051 179d 71       		.byte	0x71
 11052 179e 38       		.sleb128 56
 11053 179f 94       		.byte	0x94
 11054 17a0 01       		.byte	0x1
 11055 17a1 08       		.byte	0x8
 11056 17a2 FF       		.byte	0xff
 11057 17a3 1A       		.byte	0x1a
 11058 17a4 91       		.byte	0x91
 11059 17a5 00       		.sleb128 0
 11060 17a6 22       		.byte	0x22
 11061 17a7 40       		.byte	0x40
 11062 17a8 1C       		.byte	0x1c
 11063 17a9 94       		.byte	0x94
 11064 17aa 01       		.byte	0x1
 11065 17ab 08       		.byte	0x8
ARM GAS  C:\Users\adria\AppData\Local\Temp\ccQ3AXqi.s 			page 231


 11066 17ac FF       		.byte	0xff
 11067 17ad 1A       		.byte	0x1a
 11068 17ae 22       		.byte	0x22
 11069 17af 71       		.byte	0x71
 11070 17b0 3A       		.sleb128 58
 11071 17b1 94       		.byte	0x94
 11072 17b2 01       		.byte	0x1
 11073 17b3 08       		.byte	0x8
 11074 17b4 FF       		.byte	0xff
 11075 17b5 1A       		.byte	0x1a
 11076 17b6 91       		.byte	0x91
 11077 17b7 00       		.sleb128 0
 11078 17b8 22       		.byte	0x22
 11079 17b9 40       		.byte	0x40
 11080 17ba 1C       		.byte	0x1c
 11081 17bb 94       		.byte	0x94
 11082 17bc 01       		.byte	0x1
 11083 17bd 08       		.byte	0x8
 11084 17be FF       		.byte	0xff
 11085 17bf 1A       		.byte	0x1a
 11086 17c0 22       		.byte	0x22
 11087 17c1 70       		.byte	0x70
 11088 17c2 00       		.sleb128 0
 11089 17c3 1E       		.byte	0x1e
 11090 17c4 23       		.byte	0x23
 11091 17c5 B925     		.uleb128 0x12b9
 11092 17c7 9F       		.byte	0x9f
 11093 17c8 4E000000 		.4byte	.LVL386
 11094 17cc 52000000 		.4byte	.LVL388
 11095 17d0 0100     		.2byte	0x1
 11096 17d2 53       		.byte	0x53
 11097 17d3 52000000 		.4byte	.LVL388
 11098 17d7 54000000 		.4byte	.LVL389
 11099 17db 5300     		.2byte	0x53
 11100 17dd 71       		.byte	0x71
 11101 17de 39       		.sleb128 57
 11102 17df 94       		.byte	0x94
 11103 17e0 01       		.byte	0x1
 11104 17e1 08       		.byte	0x8
 11105 17e2 FF       		.byte	0xff
 11106 17e3 1A       		.byte	0x1a
 11107 17e4 91       		.byte	0x91
 11108 17e5 00       		.sleb128 0
 11109 17e6 22       		.byte	0x22
 11110 17e7 40       		.byte	0x40
 11111 17e8 1C       		.byte	0x1c
 11112 17e9 94       		.byte	0x94
 11113 17ea 01       		.byte	0x1
 11114 17eb 08       		.byte	0x8
 11115 17ec FF       		.byte	0xff
 11116 17ed 1A       		.byte	0x1a
 11117 17ee 71       		.byte	0x71
 11118 17ef 38       		.sleb128 56
 11119 17f0 94       		.byte	0x94
 11120 17f1 01       		.byte	0x1
 11121 17f2 08       		.byte	0x8
 11122 17f3 FF       		.byte	0xff
ARM GAS  C:\Users\adria\AppData\Local\Temp\ccQ3AXqi.s 			page 232


 11123 17f4 1A       		.byte	0x1a
 11124 17f5 91       		.byte	0x91
 11125 17f6 00       		.sleb128 0
 11126 17f7 22       		.byte	0x22
 11127 17f8 40       		.byte	0x40
 11128 17f9 1C       		.byte	0x1c
 11129 17fa 94       		.byte	0x94
 11130 17fb 01       		.byte	0x1
 11131 17fc 08       		.byte	0x8
 11132 17fd FF       		.byte	0xff
 11133 17fe 1A       		.byte	0x1a
 11134 17ff 22       		.byte	0x22
 11135 1800 71       		.byte	0x71
 11136 1801 3A       		.sleb128 58
 11137 1802 94       		.byte	0x94
 11138 1803 01       		.byte	0x1
 11139 1804 08       		.byte	0x8
 11140 1805 FF       		.byte	0xff
 11141 1806 1A       		.byte	0x1a
 11142 1807 91       		.byte	0x91
 11143 1808 00       		.sleb128 0
 11144 1809 22       		.byte	0x22
 11145 180a 40       		.byte	0x40
 11146 180b 1C       		.byte	0x1c
 11147 180c 94       		.byte	0x94
 11148 180d 01       		.byte	0x1
 11149 180e 08       		.byte	0x8
 11150 180f FF       		.byte	0xff
 11151 1810 1A       		.byte	0x1a
 11152 1811 22       		.byte	0x22
 11153 1812 70       		.byte	0x70
 11154 1813 00       		.sleb128 0
 11155 1814 1E       		.byte	0x1e
 11156 1815 23       		.byte	0x23
 11157 1816 B925     		.uleb128 0x12b9
 11158 1818 F7       		.byte	0xf7
 11159 1819 2C       		.uleb128 0x2c
 11160 181a F7       		.byte	0xf7
 11161 181b 25       		.uleb128 0x25
 11162 181c 0C       		.byte	0xc
 11163 181d D34D6210 		.4byte	0x10624dd3
 11164 1821 F7       		.byte	0xf7
 11165 1822 25       		.uleb128 0x25
 11166 1823 1E       		.byte	0x1e
 11167 1824 08       		.byte	0x8
 11168 1825 20       		.byte	0x20
 11169 1826 F7       		.byte	0xf7
 11170 1827 25       		.uleb128 0x25
 11171 1828 25       		.byte	0x25
 11172 1829 F7       		.byte	0xf7
 11173 182a 2C       		.uleb128 0x2c
 11174 182b 36       		.byte	0x36
 11175 182c 25       		.byte	0x25
 11176 182d 23       		.byte	0x23
 11177 182e 01       		.uleb128 0x1
 11178 182f 9F       		.byte	0x9f
 11179 1830 00000000 		.4byte	0
ARM GAS  C:\Users\adria\AppData\Local\Temp\ccQ3AXqi.s 			page 233


 11180 1834 00000000 		.4byte	0
 11181              	.LLST111:
 11182 1838 20000000 		.4byte	.LVL380
 11183 183c 3A000000 		.4byte	.LVL382
 11184 1840 0100     		.2byte	0x1
 11185 1842 53       		.byte	0x53
 11186 1843 3A000000 		.4byte	.LVL382
 11187 1847 48000000 		.4byte	.LVL384
 11188 184b 0100     		.2byte	0x1
 11189 184d 52       		.byte	0x52
 11190 184e 48000000 		.4byte	.LVL384
 11191 1852 54000000 		.4byte	.LVL389
 11192 1856 3600     		.2byte	0x36
 11193 1858 71       		.byte	0x71
 11194 1859 39       		.sleb128 57
 11195 185a 94       		.byte	0x94
 11196 185b 01       		.byte	0x1
 11197 185c 08       		.byte	0x8
 11198 185d FF       		.byte	0xff
 11199 185e 1A       		.byte	0x1a
 11200 185f 91       		.byte	0x91
 11201 1860 00       		.sleb128 0
 11202 1861 22       		.byte	0x22
 11203 1862 40       		.byte	0x40
 11204 1863 1C       		.byte	0x1c
 11205 1864 94       		.byte	0x94
 11206 1865 01       		.byte	0x1
 11207 1866 08       		.byte	0x8
 11208 1867 FF       		.byte	0xff
 11209 1868 1A       		.byte	0x1a
 11210 1869 71       		.byte	0x71
 11211 186a 38       		.sleb128 56
 11212 186b 94       		.byte	0x94
 11213 186c 01       		.byte	0x1
 11214 186d 08       		.byte	0x8
 11215 186e FF       		.byte	0xff
 11216 186f 1A       		.byte	0x1a
 11217 1870 91       		.byte	0x91
 11218 1871 00       		.sleb128 0
 11219 1872 22       		.byte	0x22
 11220 1873 40       		.byte	0x40
 11221 1874 1C       		.byte	0x1c
 11222 1875 94       		.byte	0x94
 11223 1876 01       		.byte	0x1
 11224 1877 08       		.byte	0x8
 11225 1878 FF       		.byte	0xff
 11226 1879 1A       		.byte	0x1a
 11227 187a 22       		.byte	0x22
 11228 187b 71       		.byte	0x71
 11229 187c 3A       		.sleb128 58
 11230 187d 94       		.byte	0x94
 11231 187e 01       		.byte	0x1
 11232 187f 08       		.byte	0x8
 11233 1880 FF       		.byte	0xff
 11234 1881 1A       		.byte	0x1a
 11235 1882 91       		.byte	0x91
 11236 1883 00       		.sleb128 0
ARM GAS  C:\Users\adria\AppData\Local\Temp\ccQ3AXqi.s 			page 234


 11237 1884 22       		.byte	0x22
 11238 1885 40       		.byte	0x40
 11239 1886 1C       		.byte	0x1c
 11240 1887 94       		.byte	0x94
 11241 1888 01       		.byte	0x1
 11242 1889 08       		.byte	0x8
 11243 188a FF       		.byte	0xff
 11244 188b 1A       		.byte	0x1a
 11245 188c 22       		.byte	0x22
 11246 188d 9F       		.byte	0x9f
 11247 188e 00000000 		.4byte	0
 11248 1892 00000000 		.4byte	0
 11249              	.LLST112:
 11250 1896 00000000 		.4byte	.LVL391
 11251 189a 08000000 		.4byte	.LVL392
 11252 189e 0100     		.2byte	0x1
 11253 18a0 50       		.byte	0x50
 11254 18a1 08000000 		.4byte	.LVL392
 11255 18a5 36000000 		.4byte	.LFE73
 11256 18a9 0100     		.2byte	0x1
 11257 18ab 55       		.byte	0x55
 11258 18ac 00000000 		.4byte	0
 11259 18b0 00000000 		.4byte	0
 11260              	.LLST113:
 11261 18b4 00000000 		.4byte	.LVL391
 11262 18b8 0B000000 		.4byte	.LVL393-1
 11263 18bc 0100     		.2byte	0x1
 11264 18be 51       		.byte	0x51
 11265 18bf 0B000000 		.4byte	.LVL393-1
 11266 18c3 36000000 		.4byte	.LFE73
 11267 18c7 0100     		.2byte	0x1
 11268 18c9 54       		.byte	0x54
 11269 18ca 00000000 		.4byte	0
 11270 18ce 00000000 		.4byte	0
 11271              	.LLST114:
 11272 18d2 0C000000 		.4byte	.LVL393
 11273 18d6 14000000 		.4byte	.LVL394
 11274 18da 0100     		.2byte	0x1
 11275 18dc 50       		.byte	0x50
 11276 18dd 18000000 		.4byte	.LVL395
 11277 18e1 32000000 		.4byte	.LVL396
 11278 18e5 0100     		.2byte	0x1
 11279 18e7 50       		.byte	0x50
 11280 18e8 32000000 		.4byte	.LVL396
 11281 18ec 36000000 		.4byte	.LFE73
 11282 18f0 0100     		.2byte	0x1
 11283 18f2 53       		.byte	0x53
 11284 18f3 00000000 		.4byte	0
 11285 18f7 00000000 		.4byte	0
 11286              	.LLST115:
 11287 18fb 00000000 		.4byte	.LVL397
 11288 18ff 24000000 		.4byte	.LVL399
 11289 1903 0100     		.2byte	0x1
 11290 1905 50       		.byte	0x50
 11291 1906 24000000 		.4byte	.LVL399
 11292 190a C2000000 		.4byte	.LFE88
 11293 190e 0400     		.2byte	0x4
ARM GAS  C:\Users\adria\AppData\Local\Temp\ccQ3AXqi.s 			page 235


 11294 1910 F3       		.byte	0xf3
 11295 1911 01       		.uleb128 0x1
 11296 1912 50       		.byte	0x50
 11297 1913 9F       		.byte	0x9f
 11298 1914 00000000 		.4byte	0
 11299 1918 00000000 		.4byte	0
 11300              	.LLST116:
 11301 191c 04000000 		.4byte	.LVL398
 11302 1920 28000000 		.4byte	.LVL400
 11303 1924 0200     		.2byte	0x2
 11304 1926 30       		.byte	0x30
 11305 1927 9F       		.byte	0x9f
 11306 1928 28000000 		.4byte	.LVL400
 11307 192c 5C000000 		.4byte	.LVL402
 11308 1930 0100     		.2byte	0x1
 11309 1932 50       		.byte	0x50
 11310 1933 62000000 		.4byte	.LVL404
 11311 1937 82000000 		.4byte	.LVL405
 11312 193b 0100     		.2byte	0x1
 11313 193d 55       		.byte	0x55
 11314 193e 82000000 		.4byte	.LVL405
 11315 1942 88000000 		.4byte	.LVL406
 11316 1946 0100     		.2byte	0x1
 11317 1948 50       		.byte	0x50
 11318 1949 A6000000 		.4byte	.LVL410
 11319 194d C2000000 		.4byte	.LFE88
 11320 1951 0100     		.2byte	0x1
 11321 1953 55       		.byte	0x55
 11322 1954 00000000 		.4byte	0
 11323 1958 00000000 		.4byte	0
 11324              	.LLST117:
 11325 195c 50000000 		.4byte	.LVL401
 11326 1960 BC000000 		.4byte	.LVL414
 11327 1964 0300     		.2byte	0x3
 11328 1966 08       		.byte	0x8
 11329 1967 CF       		.byte	0xcf
 11330 1968 9F       		.byte	0x9f
 11331 1969 00000000 		.4byte	0
 11332 196d 00000000 		.4byte	0
 11333              	.LLST118:
 11334 1971 60000000 		.4byte	.LVL403
 11335 1975 62000000 		.4byte	.LVL404
 11336 1979 0200     		.2byte	0x2
 11337 197b 30       		.byte	0x30
 11338 197c 9F       		.byte	0x9f
 11339 197d 62000000 		.4byte	.LVL404
 11340 1981 A8000000 		.4byte	.LVL411
 11341 1985 0100     		.2byte	0x1
 11342 1987 54       		.byte	0x54
 11343 1988 AA000000 		.4byte	.LVL412
 11344 198c BC000000 		.4byte	.LVL414
 11345 1990 0100     		.2byte	0x1
 11346 1992 54       		.byte	0x54
 11347 1993 00000000 		.4byte	0
 11348 1997 00000000 		.4byte	0
 11349              	.LLST119:
 11350 199b 00000000 		.4byte	.LVL415
ARM GAS  C:\Users\adria\AppData\Local\Temp\ccQ3AXqi.s 			page 236


 11351 199f 1D000000 		.4byte	.LVL417-1
 11352 19a3 0100     		.2byte	0x1
 11353 19a5 50       		.byte	0x50
 11354 19a6 1D000000 		.4byte	.LVL417-1
 11355 19aa 2C000000 		.4byte	.LFE93
 11356 19ae 0400     		.2byte	0x4
 11357 19b0 F3       		.byte	0xf3
 11358 19b1 01       		.uleb128 0x1
 11359 19b2 50       		.byte	0x50
 11360 19b3 9F       		.byte	0x9f
 11361 19b4 00000000 		.4byte	0
 11362 19b8 00000000 		.4byte	0
 11363              	.LLST120:
 11364 19bc 1A000000 		.4byte	.LVL416
 11365 19c0 1E000000 		.4byte	.LVL417
 11366 19c4 0200     		.2byte	0x2
 11367 19c6 30       		.byte	0x30
 11368 19c7 9F       		.byte	0x9f
 11369 19c8 1E000000 		.4byte	.LVL417
 11370 19cc 2C000000 		.4byte	.LFE93
 11371 19d0 0100     		.2byte	0x1
 11372 19d2 50       		.byte	0x50
 11373 19d3 00000000 		.4byte	0
 11374 19d7 00000000 		.4byte	0
 11375              	.LLST121:
 11376 19db 00000000 		.4byte	.LVL418
 11377 19df 36000000 		.4byte	.LVL420
 11378 19e3 0100     		.2byte	0x1
 11379 19e5 50       		.byte	0x50
 11380 19e6 36000000 		.4byte	.LVL420
 11381 19ea 39000000 		.4byte	.LVL421-1
 11382 19ee 0100     		.2byte	0x1
 11383 19f0 51       		.byte	0x51
 11384 19f1 39000000 		.4byte	.LVL421-1
 11385 19f5 42000000 		.4byte	.LFE94
 11386 19f9 0100     		.2byte	0x1
 11387 19fb 54       		.byte	0x54
 11388 19fc 00000000 		.4byte	0
 11389 1a00 00000000 		.4byte	0
 11390              	.LLST122:
 11391 1a04 32000000 		.4byte	.LVL419
 11392 1a08 3A000000 		.4byte	.LVL421
 11393 1a0c 0200     		.2byte	0x2
 11394 1a0e 30       		.byte	0x30
 11395 1a0f 9F       		.byte	0x9f
 11396 1a10 40000000 		.4byte	.LVL422
 11397 1a14 42000000 		.4byte	.LFE94
 11398 1a18 0100     		.2byte	0x1
 11399 1a1a 50       		.byte	0x50
 11400 1a1b 00000000 		.4byte	0
 11401 1a1f 00000000 		.4byte	0
 11402              	.LLST123:
 11403 1a23 00000000 		.4byte	.LVL423
 11404 1a27 0F000000 		.4byte	.LVL425-1
 11405 1a2b 0100     		.2byte	0x1
 11406 1a2d 51       		.byte	0x51
 11407 1a2e 0F000000 		.4byte	.LVL425-1
ARM GAS  C:\Users\adria\AppData\Local\Temp\ccQ3AXqi.s 			page 237


 11408 1a32 30000000 		.4byte	.LVL429
 11409 1a36 0100     		.2byte	0x1
 11410 1a38 54       		.byte	0x54
 11411 1a39 30000000 		.4byte	.LVL429
 11412 1a3d 40000000 		.4byte	.LFE95
 11413 1a41 0400     		.2byte	0x4
 11414 1a43 F3       		.byte	0xf3
 11415 1a44 01       		.uleb128 0x1
 11416 1a45 51       		.byte	0x51
 11417 1a46 9F       		.byte	0x9f
 11418 1a47 00000000 		.4byte	0
 11419 1a4b 00000000 		.4byte	0
 11420              	.LLST124:
 11421 1a4f 00000000 		.4byte	.LVL430
 11422 1a53 07000000 		.4byte	.LVL431-1
 11423 1a57 0100     		.2byte	0x1
 11424 1a59 50       		.byte	0x50
 11425 1a5a 07000000 		.4byte	.LVL431-1
 11426 1a5e 10000000 		.4byte	.LFE96
 11427 1a62 0100     		.2byte	0x1
 11428 1a64 54       		.byte	0x54
 11429 1a65 00000000 		.4byte	0
 11430 1a69 00000000 		.4byte	0
 11431              		.section	.debug_aranges,"",%progbits
 11432 0000 24010000 		.4byte	0x124
 11433 0004 0200     		.2byte	0x2
 11434 0006 00000000 		.4byte	.Ldebug_info0
 11435 000a 04       		.byte	0x4
 11436 000b 00       		.byte	0
 11437 000c 0000     		.2byte	0
 11438 000e 0000     		.2byte	0
 11439 0010 00000000 		.4byte	.LFB77
 11440 0014 70000000 		.4byte	.LFE77-.LFB77
 11441 0018 00000000 		.4byte	.LFB78
 11442 001c C4000000 		.4byte	.LFE78-.LFB78
 11443 0020 00000000 		.4byte	.LFB79
 11444 0024 C4000000 		.4byte	.LFE79-.LFB79
 11445 0028 00000000 		.4byte	.LFB80
 11446 002c AC000000 		.4byte	.LFE80-.LFB80
 11447 0030 00000000 		.4byte	.LFB81
 11448 0034 B0000000 		.4byte	.LFE81-.LFB81
 11449 0038 00000000 		.4byte	.LFB82
 11450 003c 24000000 		.4byte	.LFE82-.LFB82
 11451 0040 00000000 		.4byte	.LFB86
 11452 0044 3E000000 		.4byte	.LFE86-.LFB86
 11453 0048 00000000 		.4byte	.LFB87
 11454 004c 2A000000 		.4byte	.LFE87-.LFB87
 11455 0050 00000000 		.4byte	.LFB84
 11456 0054 70000000 		.4byte	.LFE84-.LFB84
 11457 0058 00000000 		.4byte	.LFB85
 11458 005c 38000000 		.4byte	.LFE85-.LFB85
 11459 0060 00000000 		.4byte	.LFB89
 11460 0064 88000000 		.4byte	.LFE89-.LFB89
 11461 0068 00000000 		.4byte	.LFB90
 11462 006c 08000000 		.4byte	.LFE90-.LFB90
 11463 0070 00000000 		.4byte	.LFB92
 11464 0074 30000000 		.4byte	.LFE92-.LFB92
ARM GAS  C:\Users\adria\AppData\Local\Temp\ccQ3AXqi.s 			page 238


 11465 0078 00000000 		.4byte	.LFB91
 11466 007c 44000000 		.4byte	.LFE91-.LFB91
 11467 0080 00000000 		.4byte	.LFB64
 11468 0084 46000000 		.4byte	.LFE64-.LFB64
 11469 0088 00000000 		.4byte	.LFB74
 11470 008c 8A010000 		.4byte	.LFE74-.LFB74
 11471 0090 00000000 		.4byte	.LFB76
 11472 0094 5C000000 		.4byte	.LFE76-.LFB76
 11473 0098 00000000 		.4byte	.LFB83
 11474 009c EC000000 		.4byte	.LFE83-.LFB83
 11475 00a0 00000000 		.4byte	.LFB65
 11476 00a4 A8000000 		.4byte	.LFE65-.LFB65
 11477 00a8 00000000 		.4byte	.LFB75
 11478 00ac 66000000 		.4byte	.LFE75-.LFB75
 11479 00b0 00000000 		.4byte	.LFB66
 11480 00b4 54000000 		.4byte	.LFE66-.LFB66
 11481 00b8 00000000 		.4byte	.LFB63
 11482 00bc 3E000000 		.4byte	.LFE63-.LFB63
 11483 00c0 00000000 		.4byte	.LFB68
 11484 00c4 B6000000 		.4byte	.LFE68-.LFB68
 11485 00c8 00000000 		.4byte	.LFB69
 11486 00cc 86000000 		.4byte	.LFE69-.LFB69
 11487 00d0 00000000 		.4byte	.LFB67
 11488 00d4 68020000 		.4byte	.LFE67-.LFB67
 11489 00d8 00000000 		.4byte	.LFB70
 11490 00dc 30000000 		.4byte	.LFE70-.LFB70
 11491 00e0 00000000 		.4byte	.LFB71
 11492 00e4 64000000 		.4byte	.LFE71-.LFB71
 11493 00e8 00000000 		.4byte	.LFB72
 11494 00ec 70000000 		.4byte	.LFE72-.LFB72
 11495 00f0 00000000 		.4byte	.LFB73
 11496 00f4 36000000 		.4byte	.LFE73-.LFB73
 11497 00f8 00000000 		.4byte	.LFB88
 11498 00fc C2000000 		.4byte	.LFE88-.LFB88
 11499 0100 00000000 		.4byte	.LFB93
 11500 0104 2C000000 		.4byte	.LFE93-.LFB93
 11501 0108 00000000 		.4byte	.LFB94
 11502 010c 42000000 		.4byte	.LFE94-.LFB94
 11503 0110 00000000 		.4byte	.LFB95
 11504 0114 40000000 		.4byte	.LFE95-.LFB95
 11505 0118 00000000 		.4byte	.LFB96
 11506 011c 10000000 		.4byte	.LFE96-.LFB96
 11507 0120 00000000 		.4byte	0
 11508 0124 00000000 		.4byte	0
 11509              		.section	.debug_ranges,"",%progbits
 11510              	.Ldebug_ranges0:
 11511 0000 00000000 		.4byte	.LFB77
 11512 0004 70000000 		.4byte	.LFE77
 11513 0008 00000000 		.4byte	.LFB78
 11514 000c C4000000 		.4byte	.LFE78
 11515 0010 00000000 		.4byte	.LFB79
 11516 0014 C4000000 		.4byte	.LFE79
 11517 0018 00000000 		.4byte	.LFB80
 11518 001c AC000000 		.4byte	.LFE80
 11519 0020 00000000 		.4byte	.LFB81
 11520 0024 B0000000 		.4byte	.LFE81
 11521 0028 00000000 		.4byte	.LFB82
ARM GAS  C:\Users\adria\AppData\Local\Temp\ccQ3AXqi.s 			page 239


 11522 002c 24000000 		.4byte	.LFE82
 11523 0030 00000000 		.4byte	.LFB86
 11524 0034 3E000000 		.4byte	.LFE86
 11525 0038 00000000 		.4byte	.LFB87
 11526 003c 2A000000 		.4byte	.LFE87
 11527 0040 00000000 		.4byte	.LFB84
 11528 0044 70000000 		.4byte	.LFE84
 11529 0048 00000000 		.4byte	.LFB85
 11530 004c 38000000 		.4byte	.LFE85
 11531 0050 00000000 		.4byte	.LFB89
 11532 0054 88000000 		.4byte	.LFE89
 11533 0058 00000000 		.4byte	.LFB90
 11534 005c 08000000 		.4byte	.LFE90
 11535 0060 00000000 		.4byte	.LFB92
 11536 0064 30000000 		.4byte	.LFE92
 11537 0068 00000000 		.4byte	.LFB91
 11538 006c 44000000 		.4byte	.LFE91
 11539 0070 00000000 		.4byte	.LFB64
 11540 0074 46000000 		.4byte	.LFE64
 11541 0078 00000000 		.4byte	.LFB74
 11542 007c 8A010000 		.4byte	.LFE74
 11543 0080 00000000 		.4byte	.LFB76
 11544 0084 5C000000 		.4byte	.LFE76
 11545 0088 00000000 		.4byte	.LFB83
 11546 008c EC000000 		.4byte	.LFE83
 11547 0090 00000000 		.4byte	.LFB65
 11548 0094 A8000000 		.4byte	.LFE65
 11549 0098 00000000 		.4byte	.LFB75
 11550 009c 66000000 		.4byte	.LFE75
 11551 00a0 00000000 		.4byte	.LFB66
 11552 00a4 54000000 		.4byte	.LFE66
 11553 00a8 00000000 		.4byte	.LFB63
 11554 00ac 3E000000 		.4byte	.LFE63
 11555 00b0 00000000 		.4byte	.LFB68
 11556 00b4 B6000000 		.4byte	.LFE68
 11557 00b8 00000000 		.4byte	.LFB69
 11558 00bc 86000000 		.4byte	.LFE69
 11559 00c0 00000000 		.4byte	.LFB67
 11560 00c4 68020000 		.4byte	.LFE67
 11561 00c8 00000000 		.4byte	.LFB70
 11562 00cc 30000000 		.4byte	.LFE70
 11563 00d0 00000000 		.4byte	.LFB71
 11564 00d4 64000000 		.4byte	.LFE71
 11565 00d8 00000000 		.4byte	.LFB72
 11566 00dc 70000000 		.4byte	.LFE72
 11567 00e0 00000000 		.4byte	.LFB73
 11568 00e4 36000000 		.4byte	.LFE73
 11569 00e8 00000000 		.4byte	.LFB88
 11570 00ec C2000000 		.4byte	.LFE88
 11571 00f0 00000000 		.4byte	.LFB93
 11572 00f4 2C000000 		.4byte	.LFE93
 11573 00f8 00000000 		.4byte	.LFB94
 11574 00fc 42000000 		.4byte	.LFE94
 11575 0100 00000000 		.4byte	.LFB95
 11576 0104 40000000 		.4byte	.LFE95
 11577 0108 00000000 		.4byte	.LFB96
 11578 010c 10000000 		.4byte	.LFE96
ARM GAS  C:\Users\adria\AppData\Local\Temp\ccQ3AXqi.s 			page 240


 11579 0110 00000000 		.4byte	0
 11580 0114 00000000 		.4byte	0
 11581              		.section	.debug_line,"",%progbits
 11582              	.Ldebug_line0:
 11583 0000 37060000 		.section	.debug_str,"MS",%progbits,1
 11583      02009B01 
 11583      00000201 
 11583      FB0E0D00 
 11583      01010101 
 11584              	.LASF84:
 11585 0000 7470685F 		.ascii	"tph_sett\000"
 11585      73657474 
 11585      00
 11586              	.LASF172:
 11587 0009 7265675F 		.ascii	"reg_array\000"
 11587      61727261 
 11587      7900
 11588              	.LASF190:
 11589 0013 626D6536 		.ascii	"bme680_readData\000"
 11589      38305F72 
 11589      65616444 
 11589      61746100 
 11590              	.LASF194:
 11591 0023 49544D5F 		.ascii	"ITM_RxBuffer\000"
 11591      52784275 
 11591      66666572 
 11591      00
 11592              	.LASF177:
 11593 0030 7470685F 		.ascii	"tph_dur\000"
 11593      64757200 
 11594              	.LASF139:
 11595 0038 70657269 		.ascii	"period\000"
 11595      6F6400
 11596              	.LASF144:
 11597 003f 636F6566 		.ascii	"coeff_array\000"
 11597      665F6172 
 11597      72617900 
 11598              	.LASF183:
 11599 004b 626D6536 		.ascii	"bme680_self_test\000"
 11599      38305F73 
 11599      656C665F 
 11599      74657374 
 11599      00
 11600              	.LASF77:
 11601 005c 626D6536 		.ascii	"bme680_dev\000"
 11601      38305F64 
 11601      657600
 11602              	.LASF33:
 11603 0067 74656D70 		.ascii	"temperature\000"
 11603      65726174 
 11603      75726500 
 11604              	.LASF121:
 11605 0073 74656D70 		.ascii	"temp\000"
 11605      00
 11606              	.LASF34:
 11607 0078 70726573 		.ascii	"pressure\000"
 11607      73757265 
ARM GAS  C:\Users\adria\AppData\Local\Temp\ccQ3AXqi.s 			page 241


 11607      00
 11608              	.LASF115:
 11609 0081 6761735F 		.ascii	"gas_res_adc\000"
 11609      7265735F 
 11609      61646300 
 11610              	.LASF36:
 11611 008d 6761735F 		.ascii	"gas_resistance\000"
 11611      72657369 
 11611      7374616E 
 11611      636500
 11612              	.LASF188:
 11613 009c 626D6536 		.ascii	"bme680_config\000"
 11613      38305F63 
 11613      6F6E6669 
 11613      6700
 11614              	.LASF157:
 11615 00aa 626D6536 		.ascii	"bme680_set_regs\000"
 11615      38305F73 
 11615      65745F72 
 11615      65677300 
 11616              	.LASF181:
 11617 00ba 626D6536 		.ascii	"bme680_get_profile_dur\000"
 11617      38305F67 
 11617      65745F70 
 11617      726F6669 
 11617      6C655F64 
 11618              	.LASF1:
 11619 00d1 756E7369 		.ascii	"unsigned int\000"
 11619      676E6564 
 11619      20696E74 
 11619      00
 11620              	.LASF114:
 11621 00de 63616C63 		.ascii	"calc_gas_resistance\000"
 11621      5F676173 
 11621      5F726573 
 11621      69737461 
 11621      6E636500 
 11622              	.LASF10:
 11623 00f2 5F5F696E 		.ascii	"__int32_t\000"
 11623      7433325F 
 11623      7400
 11624              	.LASF205:
 11625 00fc 75736572 		.ascii	"user_delay_ms\000"
 11625      5F64656C 
 11625      61795F6D 
 11625      7300
 11626              	.LASF206:
 11627 010a 6D656D73 		.ascii	"memset\000"
 11627      657400
 11628              	.LASF189:
 11629 0111 7365745F 		.ascii	"set_required_settings\000"
 11629      72657175 
 11629      69726564 
 11629      5F736574 
 11629      74696E67 
 11630              	.LASF68:
 11631 0127 6F735F74 		.ascii	"os_temp\000"
ARM GAS  C:\Users\adria\AppData\Local\Temp\ccQ3AXqi.s 			page 242


 11631      656D7000 
 11632              	.LASF28:
 11633 012f 424D4536 		.ascii	"BME680_SPI_INTF\000"
 11633      38305F53 
 11633      50495F49 
 11633      4E544600 
 11634              	.LASF197:
 11635 013f 4932435F 		.ascii	"I2C_MasterWriteByte\000"
 11635      4D617374 
 11635      65725772 
 11635      69746542 
 11635      79746500 
 11636              	.LASF175:
 11637 0153 6D6F6465 		.ascii	"mode\000"
 11637      00
 11638              	.LASF203:
 11639 0158 433A5C55 		.ascii	"C:\\Users\\adria\\OneDrive\\Documents\\psoc\\PROYEC"
 11639      73657273 
 11639      5C616472 
 11639      69615C4F 
 11639      6E654472 
 11640 0185 544F5F49 		.ascii	"TO_IOT\\DOMOTICA_PROYECTO.cydsn\000"
 11640      4F545C44 
 11640      4F4D4F54 
 11640      4943415F 
 11640      50524F59 
 11641              	.LASF165:
 11642 01a4 64657369 		.ascii	"desired_settings\000"
 11642      7265645F 
 11642      73657474 
 11642      696E6773 
 11642      00
 11643              	.LASF29:
 11644 01b5 424D4536 		.ascii	"BME680_I2C_INTF\000"
 11644      38305F49 
 11644      32435F49 
 11644      4E544600 
 11645              	.LASF116:
 11646 01c5 6761735F 		.ascii	"gas_range\000"
 11646      72616E67 
 11646      6500
 11647              	.LASF81:
 11648 01cf 6D656D5F 		.ascii	"mem_page\000"
 11648      70616765 
 11648      00
 11649              	.LASF198:
 11650 01d8 4932435F 		.ascii	"I2C_MasterSendStop\000"
 11650      4D617374 
 11650      65725365 
 11650      6E645374 
 11650      6F7000
 11651              	.LASF164:
 11652 01eb 626D6536 		.ascii	"bme680_get_sensor_settings\000"
 11652      38305F67 
 11652      65745F73 
 11652      656E736F 
 11652      725F7365 
ARM GAS  C:\Users\adria\AppData\Local\Temp\ccQ3AXqi.s 			page 243


 11653              	.LASF22:
 11654 0206 75696E74 		.ascii	"uint32_t\000"
 11654      33325F74 
 11654      00
 11655              	.LASF17:
 11656 020f 696E7438 		.ascii	"int8_t\000"
 11656      5F7400
 11657              	.LASF166:
 11658 0216 64617461 		.ascii	"data_array\000"
 11658      5F617272 
 11658      617900
 11659              	.LASF112:
 11660 0221 74656D70 		.ascii	"temp_scaled\000"
 11660      5F736361 
 11660      6C656400 
 11661              	.LASF94:
 11662 022d 666C6F61 		.ascii	"float\000"
 11662      7400
 11663              	.LASF65:
 11664 0233 72616E67 		.ascii	"range_sw_err\000"
 11664      655F7377 
 11664      5F657272 
 11664      00
 11665              	.LASF159:
 11666 0240 696E6465 		.ascii	"index\000"
 11666      7800
 11667              	.LASF176:
 11668 0246 64757261 		.ascii	"duration\000"
 11668      74696F6E 
 11668      00
 11669              	.LASF19:
 11670 024f 696E7431 		.ascii	"int16_t\000"
 11670      365F7400 
 11671              	.LASF83:
 11672 0257 63616C69 		.ascii	"calib\000"
 11672      6200
 11673              	.LASF124:
 11674 025d 63616C63 		.ascii	"calc_heater_dur\000"
 11674      5F686561 
 11674      7465725F 
 11674      64757200 
 11675              	.LASF0:
 11676 026d 6C6F6E67 		.ascii	"long long unsigned int\000"
 11676      206C6F6E 
 11676      6720756E 
 11676      7369676E 
 11676      65642069 
 11677              	.LASF32:
 11678 0284 6D656173 		.ascii	"meas_index\000"
 11678      5F696E64 
 11678      657800
 11679              	.LASF141:
 11680 028f 7265675F 		.ascii	"reg_data\000"
 11680      64617461 
 11680      00
 11681              	.LASF8:
 11682 0298 5F5F7569 		.ascii	"__uint16_t\000"
ARM GAS  C:\Users\adria\AppData\Local\Temp\ccQ3AXqi.s 			page 244


 11682      6E743136 
 11682      5F7400
 11683              	.LASF174:
 11684 02a3 626D6536 		.ascii	"bme680_get_sensor_mode\000"
 11684      38305F67 
 11684      65745F73 
 11684      656E736F 
 11684      725F6D6F 
 11685              	.LASF40:
 11686 02ba 7061725F 		.ascii	"par_h2\000"
 11686      683200
 11687              	.LASF108:
 11688 02c1 68756D5F 		.ascii	"hum_adc\000"
 11688      61646300 
 11689              	.LASF44:
 11690 02c9 7061725F 		.ascii	"par_h6\000"
 11690      683600
 11691              	.LASF186:
 11692 02d0 70726F66 		.ascii	"profile_dur\000"
 11692      696C655F 
 11692      64757200 
 11693              	.LASF128:
 11694 02dc 76616C75 		.ascii	"value\000"
 11694      6500
 11695              	.LASF201:
 11696 02e2 474E5520 		.ascii	"GNU C11 5.4.1 20160609 (release) [ARM/embedded-5-br"
 11696      43313120 
 11696      352E342E 
 11696      31203230 
 11696      31363036 
 11697 0315 616E6368 		.ascii	"anch revision 237715] -mcpu=cortex-m3 -mthumb -g -O"
 11697      20726576 
 11697      6973696F 
 11697      6E203233 
 11697      37373135 
 11698 0348 67202D66 		.ascii	"g -ffunction-sections -ffat-lto-objects\000"
 11698      66756E63 
 11698      74696F6E 
 11698      2D736563 
 11698      74696F6E 
 11699              	.LASF133:
 11700 0370 6765745F 		.ascii	"get_mem_page\000"
 11700      6D656D5F 
 11700      70616765 
 11700      00
 11701              	.LASF71:
 11702 037d 626D6536 		.ascii	"bme680_gas_sett\000"
 11702      38305F67 
 11702      61735F73 
 11702      65747400 
 11703              	.LASF78:
 11704 038d 63686970 		.ascii	"chip_id\000"
 11704      5F696400 
 11705              	.LASF23:
 11706 0395 696E7436 		.ascii	"int64_t\000"
 11706      345F7400 
 11707              	.LASF56:
ARM GAS  C:\Users\adria\AppData\Local\Temp\ccQ3AXqi.s 			page 245


 11708 039d 7061725F 		.ascii	"par_p5\000"
 11708      703500
 11709              	.LASF126:
 11710 03a4 64757276 		.ascii	"durval\000"
 11710      616C00
 11711              	.LASF162:
 11712 03ab 736F6674 		.ascii	"soft_rst_cmd\000"
 11712      5F727374 
 11712      5F636D64 
 11712      00
 11713              	.LASF137:
 11714 03b8 73656C66 		.ascii	"self_test_failed\000"
 11714      5F746573 
 11714      745F6661 
 11714      696C6564 
 11714      00
 11715              	.LASF52:
 11716 03c9 7061725F 		.ascii	"par_p1\000"
 11716      703100
 11717              	.LASF53:
 11718 03d0 7061725F 		.ascii	"par_p2\000"
 11718      703200
 11719              	.LASF54:
 11720 03d7 7061725F 		.ascii	"par_p3\000"
 11720      703300
 11721              	.LASF55:
 11722 03de 7061725F 		.ascii	"par_p4\000"
 11722      703400
 11723              	.LASF16:
 11724 03e5 5F5F7569 		.ascii	"__uint64_t\000"
 11724      6E743634 
 11724      5F7400
 11725              	.LASF57:
 11726 03f0 7061725F 		.ascii	"par_p6\000"
 11726      703600
 11727              	.LASF58:
 11728 03f7 7061725F 		.ascii	"par_p7\000"
 11728      703700
 11729              	.LASF59:
 11730 03fe 7061725F 		.ascii	"par_p8\000"
 11730      703800
 11731              	.LASF60:
 11732 0405 7061725F 		.ascii	"par_p9\000"
 11732      703900
 11733              	.LASF91:
 11734 040c 64656C61 		.ascii	"delay_ms\000"
 11734      795F6D73 
 11734      00
 11735              	.LASF199:
 11736 0415 4932435F 		.ascii	"I2C_MasterSendRestart\000"
 11736      4D617374 
 11736      65725365 
 11736      6E645265 
 11736      73746172 
 11737              	.LASF107:
 11738 042b 63616C63 		.ascii	"calc_humidity\000"
 11738      5F68756D 
ARM GAS  C:\Users\adria\AppData\Local\Temp\ccQ3AXqi.s 			page 246


 11738      69646974 
 11738      7900
 11739              	.LASF76:
 11740 0439 68656174 		.ascii	"heatr_dur\000"
 11740      725F6475 
 11740      7200
 11741              	.LASF180:
 11742 0443 626D6536 		.ascii	"bme680_set_profile_dur\000"
 11742      38305F73 
 11742      65745F70 
 11742      726F6669 
 11742      6C655F64 
 11743              	.LASF171:
 11744 045a 636F756E 		.ascii	"count\000"
 11744      7400
 11745              	.LASF73:
 11746 0460 68656174 		.ascii	"heatr_ctrl\000"
 11746      725F6374 
 11746      726C00
 11747              	.LASF87:
 11748 046b 6E65775F 		.ascii	"new_fields\000"
 11748      6669656C 
 11748      647300
 11749              	.LASF93:
 11750 0476 73646174 		.ascii	"sdata_bme680\000"
 11750      615F626D 
 11750      65363830 
 11750      00
 11751              	.LASF96:
 11752 0483 63686172 		.ascii	"char\000"
 11752      00
 11753              	.LASF150:
 11754 0488 62756666 		.ascii	"buff\000"
 11754      00
 11755              	.LASF147:
 11756 048d 7265675F 		.ascii	"reg_addr1\000"
 11756      61646472 
 11756      3100
 11757              	.LASF148:
 11758 0497 7265675F 		.ascii	"reg_addr2\000"
 11758      61646472 
 11758      3200
 11759              	.LASF200:
 11760 04a1 4932435F 		.ascii	"I2C_MasterReadByte\000"
 11760      4D617374 
 11760      65725265 
 11760      61644279 
 11760      746500
 11761              	.LASF204:
 11762 04b4 626D6536 		.ascii	"bme680_intf\000"
 11762      38305F69 
 11762      6E746600 
 11763              	.LASF67:
 11764 04c0 6F735F68 		.ascii	"os_hum\000"
 11764      756D00
 11765              	.LASF195:
 11766 04c7 43794465 		.ascii	"CyDelay\000"
ARM GAS  C:\Users\adria\AppData\Local\Temp\ccQ3AXqi.s 			page 247


 11766      6C617900 
 11767              	.LASF135:
 11768 04cf 64617461 		.ascii	"data\000"
 11768      00
 11769              	.LASF18:
 11770 04d4 75696E74 		.ascii	"uint8_t\000"
 11770      385F7400 
 11771              	.LASF142:
 11772 04dc 75736572 		.ascii	"user_i2c_read\000"
 11772      5F693263 
 11772      5F726561 
 11772      6400
 11773              	.LASF30:
 11774 04ea 73746174 		.ascii	"status\000"
 11774      757300
 11775              	.LASF136:
 11776 04f1 6E5F6D65 		.ascii	"n_meas\000"
 11776      617300
 11777              	.LASF130:
 11778 04f8 6E756C6C 		.ascii	"null_ptr_check\000"
 11778      5F707472 
 11778      5F636865 
 11778      636B00
 11779              	.LASF69:
 11780 0507 6F735F70 		.ascii	"os_pres\000"
 11780      72657300 
 11781              	.LASF61:
 11782 050f 7061725F 		.ascii	"par_p10\000"
 11782      70313000 
 11783              	.LASF62:
 11784 0517 745F6669 		.ascii	"t_fine\000"
 11784      6E6500
 11785              	.LASF131:
 11786 051e 7365745F 		.ascii	"set_mem_page\000"
 11786      6D656D5F 
 11786      70616765 
 11786      00
 11787              	.LASF26:
 11788 052b 626D6536 		.ascii	"bme680_com_fptr_t\000"
 11788      38305F63 
 11788      6F6D5F66 
 11788      7074725F 
 11788      7400
 11789              	.LASF72:
 11790 053d 6E625F63 		.ascii	"nb_conv\000"
 11790      6F6E7600 
 11791              	.LASF154:
 11792 0545 6164635F 		.ascii	"adc_gas_res\000"
 11792      6761735F 
 11792      72657300 
 11793              	.LASF80:
 11794 0551 696E7466 		.ascii	"intf\000"
 11794      00
 11795              	.LASF153:
 11796 0556 6164635F 		.ascii	"adc_hum\000"
 11796      68756D00 
 11797              	.LASF15:
ARM GAS  C:\Users\adria\AppData\Local\Temp\ccQ3AXqi.s 			page 248


 11798 055e 6C6F6E67 		.ascii	"long long int\000"
 11798      206C6F6E 
 11798      6720696E 
 11798      7400
 11799              	.LASF90:
 11800 056c 77726974 		.ascii	"write\000"
 11800      6500
 11801              	.LASF46:
 11802 0572 7061725F 		.ascii	"par_gh1\000"
 11802      67683100 
 11803              	.LASF47:
 11804 057a 7061725F 		.ascii	"par_gh2\000"
 11804      67683200 
 11805              	.LASF48:
 11806 0582 7061725F 		.ascii	"par_gh3\000"
 11806      67683300 
 11807              	.LASF202:
 11808 058a 443A5C6D 		.ascii	"D:\\mcu\\design-mpu\\source\\ejemplos\\BME680\\bme6"
 11808      63755C64 
 11808      65736967 
 11808      6E2D6D70 
 11808      755C736F 
 11809 05b7 38302E63 		.ascii	"80.c\000"
 11809      00
 11810              	.LASF179:
 11811 05bc 6F735F74 		.ascii	"os_to_meas_cycles\000"
 11811      6F5F6D65 
 11811      61735F63 
 11811      79636C65 
 11811      7300
 11812              	.LASF127:
 11813 05ce 626F756E 		.ascii	"boundary_check\000"
 11813      64617279 
 11813      5F636865 
 11813      636B00
 11814              	.LASF6:
 11815 05dd 5F5F696E 		.ascii	"__int16_t\000"
 11815      7431365F 
 11815      7400
 11816              	.LASF169:
 11817 05e7 706F775F 		.ascii	"pow_mode\000"
 11817      6D6F6465 
 11817      00
 11818              	.LASF99:
 11819 05f0 76617231 		.ascii	"var1\000"
 11819      00
 11820              	.LASF105:
 11821 05f5 76617232 		.ascii	"var2\000"
 11821      00
 11822              	.LASF100:
 11823 05fa 76617233 		.ascii	"var3\000"
 11823      00
 11824              	.LASF109:
 11825 05ff 76617234 		.ascii	"var4\000"
 11825      00
 11826              	.LASF110:
 11827 0604 76617235 		.ascii	"var5\000"
ARM GAS  C:\Users\adria\AppData\Local\Temp\ccQ3AXqi.s 			page 249


 11827      00
 11828              	.LASF111:
 11829 0609 76617236 		.ascii	"var6\000"
 11829      00
 11830              	.LASF151:
 11831 060e 6164635F 		.ascii	"adc_temp\000"
 11831      74656D70 
 11831      00
 11832              	.LASF149:
 11833 0617 72656164 		.ascii	"read_field_data\000"
 11833      5F666965 
 11833      6C645F64 
 11833      61746100 
 11834              	.LASF85:
 11835 0627 6761735F 		.ascii	"gas_sett\000"
 11835      73657474 
 11835      00
 11836              	.LASF38:
 11837 0630 626D6536 		.ascii	"bme680_calib_data\000"
 11837      38305F63 
 11837      616C6962 
 11837      5F646174 
 11837      6100
 11838              	.LASF167:
 11839 0642 626D6536 		.ascii	"bme680_set_sensor_mode\000"
 11839      38305F73 
 11839      65745F73 
 11839      656E736F 
 11839      725F6D6F 
 11840              	.LASF3:
 11841 0659 5F5F696E 		.ascii	"__int8_t\000"
 11841      74385F74 
 11841      00
 11842              	.LASF64:
 11843 0662 7265735F 		.ascii	"res_heat_val\000"
 11843      68656174 
 11843      5F76616C 
 11843      00
 11844              	.LASF161:
 11845 066f 626D6536 		.ascii	"bme680_soft_reset\000"
 11845      38305F73 
 11845      6F66745F 
 11845      72657365 
 11845      7400
 11846              	.LASF49:
 11847 0681 7061725F 		.ascii	"par_t1\000"
 11847      743100
 11848              	.LASF50:
 11849 0688 7061725F 		.ascii	"par_t2\000"
 11849      743200
 11850              	.LASF14:
 11851 068f 5F5F696E 		.ascii	"__int64_t\000"
 11851      7436345F 
 11851      7400
 11852              	.LASF25:
 11853 0699 6C6F6E67 		.ascii	"long double\000"
 11853      20646F75 
ARM GAS  C:\Users\adria\AppData\Local\Temp\ccQ3AXqi.s 			page 250


 11853      626C6500 
 11854              	.LASF20:
 11855 06a5 75696E74 		.ascii	"uint16_t\000"
 11855      31365F74 
 11855      00
 11856              	.LASF184:
 11857 06ae 745F6465 		.ascii	"t_dev\000"
 11857      7600
 11858              	.LASF86:
 11859 06b4 706F7765 		.ascii	"power_mode\000"
 11859      725F6D6F 
 11859      646500
 11860              	.LASF160:
 11861 06bf 7365745F 		.ascii	"set_gas_config\000"
 11861      6761735F 
 11861      636F6E66 
 11861      696700
 11862              	.LASF104:
 11863 06ce 70726573 		.ascii	"pres_adc\000"
 11863      5F616463 
 11863      00
 11864              	.LASF88:
 11865 06d7 696E666F 		.ascii	"info_msg\000"
 11865      5F6D7367 
 11865      00
 11866              	.LASF74:
 11867 06e0 72756E5F 		.ascii	"run_gas\000"
 11867      67617300 
 11868              	.LASF156:
 11869 06e8 626D6536 		.ascii	"bme680_get_regs\000"
 11869      38305F67 
 11869      65745F72 
 11869      65677300 
 11870              	.LASF138:
 11871 06f8 63656E74 		.ascii	"cent_res\000"
 11871      5F726573 
 11871      00
 11872              	.LASF7:
 11873 0701 73686F72 		.ascii	"short int\000"
 11873      7420696E 
 11873      7400
 11874              	.LASF134:
 11875 070b 616E616C 		.ascii	"analyze_sensor_data\000"
 11875      797A655F 
 11875      73656E73 
 11875      6F725F64 
 11875      61746100 
 11876              	.LASF132:
 11877 071f 7265675F 		.ascii	"reg_addr\000"
 11877      61646472 
 11877      00
 11878              	.LASF11:
 11879 0728 6C6F6E67 		.ascii	"long int\000"
 11879      20696E74 
 11879      00
 11880              	.LASF129:
 11881 0731 72736C74 		.ascii	"rslt\000"
ARM GAS  C:\Users\adria\AppData\Local\Temp\ccQ3AXqi.s 			page 251


 11881      00
 11882              	.LASF185:
 11883 0736 73657474 		.ascii	"settings_sel\000"
 11883      696E6773 
 11883      5F73656C 
 11883      00
 11884              	.LASF173:
 11885 0743 696E7465 		.ascii	"intended_power_mode\000"
 11885      6E646564 
 11885      5F706F77 
 11885      65725F6D 
 11885      6F646500 
 11886              	.LASF117:
 11887 0757 63616C63 		.ascii	"calc_gas_res\000"
 11887      5F676173 
 11887      5F726573 
 11887      00
 11888              	.LASF70:
 11889 0764 66696C74 		.ascii	"filter\000"
 11889      657200
 11890              	.LASF24:
 11891 076b 75696E74 		.ascii	"uint64_t\000"
 11891      36345F74 
 11891      00
 11892              	.LASF163:
 11893 0774 626D6536 		.ascii	"bme680_init\000"
 11893      38305F69 
 11893      6E697400 
 11894              	.LASF123:
 11895 0780 68656174 		.ascii	"heatr_res_x100\000"
 11895      725F7265 
 11895      735F7831 
 11895      303000
 11896              	.LASF66:
 11897 078f 626D6536 		.ascii	"bme680_tph_sett\000"
 11897      38305F74 
 11897      70685F73 
 11897      65747400 
 11898              	.LASF31:
 11899 079f 6761735F 		.ascii	"gas_index\000"
 11899      696E6465 
 11899      7800
 11900              	.LASF27:
 11901 07a9 626D6536 		.ascii	"bme680_delay_fptr_t\000"
 11901      38305F64 
 11901      656C6179 
 11901      5F667074 
 11901      725F7400 
 11902              	.LASF187:
 11903 07bd 626D6536 		.ascii	"bme680_setup\000"
 11903      38305F73 
 11903      65747570 
 11903      00
 11904              	.LASF120:
 11905 07ca 63616C63 		.ascii	"calc_heater_res\000"
 11905      5F686561 
 11905      7465725F 
ARM GAS  C:\Users\adria\AppData\Local\Temp\ccQ3AXqi.s 			page 252


 11905      72657300 
 11906              	.LASF193:
 11907 07da 73656E73 		.ascii	"sensor_bme680\000"
 11907      6F725F62 
 11907      6D653638 
 11907      3000
 11908              	.LASF4:
 11909 07e8 5F5F7569 		.ascii	"__uint8_t\000"
 11909      6E74385F 
 11909      7400
 11910              	.LASF89:
 11911 07f2 72656164 		.ascii	"read\000"
 11911      00
 11912              	.LASF98:
 11913 07f7 74656D70 		.ascii	"temp_adc\000"
 11913      5F616463 
 11913      00
 11914              	.LASF146:
 11915 0800 6765745F 		.ascii	"get_gas_config\000"
 11915      6761735F 
 11915      636F6E66 
 11915      696700
 11916              	.LASF97:
 11917 080f 73697A65 		.ascii	"sizetype\000"
 11917      74797065 
 11917      00
 11918              	.LASF13:
 11919 0818 6C6F6E67 		.ascii	"long unsigned int\000"
 11919      20756E73 
 11919      69676E65 
 11919      6420696E 
 11919      7400
 11920              	.LASF196:
 11921 082a 4932435F 		.ascii	"I2C_MasterSendStart\000"
 11921      4D617374 
 11921      65725365 
 11921      6E645374 
 11921      61727400 
 11922              	.LASF21:
 11923 083e 696E7433 		.ascii	"int32_t\000"
 11923      325F7400 
 11924              	.LASF182:
 11925 0846 626D6536 		.ascii	"bme680_get_sensor_data\000"
 11925      38305F67 
 11925      65745F73 
 11925      656E736F 
 11925      725F6461 
 11926              	.LASF92:
 11927 085d 636F6D5F 		.ascii	"com_rslt\000"
 11927      72736C74 
 11927      00
 11928              	.LASF158:
 11929 0866 746D705F 		.ascii	"tmp_buff\000"
 11929      62756666 
 11929      00
 11930              	.LASF192:
 11931 086f 626D6536 		.ascii	"bme680_Start\000"
ARM GAS  C:\Users\adria\AppData\Local\Temp\ccQ3AXqi.s 			page 253


 11931      38305F53 
 11931      74617274 
 11931      00
 11932              	.LASF39:
 11933 087c 7061725F 		.ascii	"par_h1\000"
 11933      683100
 11934              	.LASF5:
 11935 0883 756E7369 		.ascii	"unsigned char\000"
 11935      676E6564 
 11935      20636861 
 11935      7200
 11936              	.LASF41:
 11937 0891 7061725F 		.ascii	"par_h3\000"
 11937      683300
 11938              	.LASF42:
 11939 0898 7061725F 		.ascii	"par_h4\000"
 11939      683400
 11940              	.LASF43:
 11941 089f 7061725F 		.ascii	"par_h5\000"
 11941      683500
 11942              	.LASF12:
 11943 08a6 5F5F7569 		.ascii	"__uint32_t\000"
 11943      6E743332 
 11943      5F7400
 11944              	.LASF45:
 11945 08b1 7061725F 		.ascii	"par_h7\000"
 11945      683700
 11946              	.LASF102:
 11947 08b8 63616C63 		.ascii	"calc_temperature\000"
 11947      5F74656D 
 11947      70657261 
 11947      74757265 
 11947      00
 11948              	.LASF51:
 11949 08c9 7061725F 		.ascii	"par_t3\000"
 11949      743300
 11950              	.LASF191:
 11951 08d0 6D656173 		.ascii	"meas_period\000"
 11951      5F706572 
 11951      696F6400 
 11952              	.LASF155:
 11953 08dc 74726965 		.ascii	"tries\000"
 11953      7300
 11954              	.LASF79:
 11955 08e2 6465765F 		.ascii	"dev_id\000"
 11955      696400
 11956              	.LASF152:
 11957 08e9 6164635F 		.ascii	"adc_pres\000"
 11957      70726573 
 11957      00
 11958              	.LASF82:
 11959 08f2 616D625F 		.ascii	"amb_temp\000"
 11959      74656D70 
 11959      00
 11960              	.LASF143:
 11961 08fb 6765745F 		.ascii	"get_calib_data\000"
 11961      63616C69 
ARM GAS  C:\Users\adria\AppData\Local\Temp\ccQ3AXqi.s 			page 254


 11961      625F6461 
 11961      746100
 11962              	.LASF122:
 11963 090a 68656174 		.ascii	"heatr_res\000"
 11963      725F7265 
 11963      7300
 11964              	.LASF178:
 11965 0914 6D656173 		.ascii	"meas_cycles\000"
 11965      5F637963 
 11965      6C657300 
 11966              	.LASF168:
 11967 0920 746D705F 		.ascii	"tmp_pow_mode\000"
 11967      706F775F 
 11967      6D6F6465 
 11967      00
 11968              	.LASF37:
 11969 092d 626D6536 		.ascii	"bme680_field_data\000"
 11969      38305F66 
 11969      69656C64 
 11969      5F646174 
 11969      6100
 11970              	.LASF2:
 11971 093f 7369676E 		.ascii	"signed char\000"
 11971      65642063 
 11971      68617200 
 11972              	.LASF106:
 11973 094b 70726573 		.ascii	"pressure_comp\000"
 11973      73757265 
 11973      5F636F6D 
 11973      7000
 11974              	.LASF145:
 11975 0959 74656D70 		.ascii	"temp_var\000"
 11975      5F766172 
 11975      00
 11976              	.LASF170:
 11977 0962 626D6536 		.ascii	"bme680_set_sensor_settings\000"
 11977      38305F73 
 11977      65745F73 
 11977      656E736F 
 11977      725F7365 
 11978              	.LASF9:
 11979 097d 73686F72 		.ascii	"short unsigned int\000"
 11979      7420756E 
 11979      7369676E 
 11979      65642069 
 11979      6E7400
 11980              	.LASF118:
 11981 0990 6C6F6F6B 		.ascii	"lookupTable1\000"
 11981      75705461 
 11981      626C6531 
 11981      00
 11982              	.LASF119:
 11983 099d 6C6F6F6B 		.ascii	"lookupTable2\000"
 11983      75705461 
 11983      626C6532 
 11983      00
 11984              	.LASF75:
ARM GAS  C:\Users\adria\AppData\Local\Temp\ccQ3AXqi.s 			page 255


 11985 09aa 68656174 		.ascii	"heatr_temp\000"
 11985      725F7465 
 11985      6D7000
 11986              	.LASF103:
 11987 09b5 63616C63 		.ascii	"calc_pressure\000"
 11987      5F707265 
 11987      73737572 
 11987      6500
 11988              	.LASF95:
 11989 09c3 646F7562 		.ascii	"double\000"
 11989      6C6500
 11990              	.LASF101:
 11991 09ca 63616C63 		.ascii	"calc_temp\000"
 11991      5F74656D 
 11991      7000
 11992              	.LASF125:
 11993 09d4 66616374 		.ascii	"factor\000"
 11993      6F7200
 11994              	.LASF140:
 11995 09db 75736572 		.ascii	"user_i2c_write\000"
 11995      5F693263 
 11995      5F777269 
 11995      746500
 11996              	.LASF35:
 11997 09ea 68756D69 		.ascii	"humidity\000"
 11997      64697479 
 11997      00
 11998              	.LASF63:
 11999 09f3 7265735F 		.ascii	"res_heat_range\000"
 11999      68656174 
 11999      5F72616E 
 11999      676500
 12000              	.LASF113:
 12001 0a02 63616C63 		.ascii	"calc_hum\000"
 12001      5F68756D 
 12001      00
 12002              		.ident	"GCC: (GNU Tools for ARM Embedded Processors) 5.4.1 20160609 (release) [ARM/embedded-5-bran
