ARM GAS  C:\Users\adria\AppData\Local\Temp\cce8aatr.s 			page 1


   1              		.syntax unified
   2              		.cpu cortex-m3
   3              		.fpu softvfp
   4              		.eabi_attribute 20, 1
   5              		.eabi_attribute 21, 1
   6              		.eabi_attribute 23, 3
   7              		.eabi_attribute 24, 1
   8              		.eabi_attribute 25, 1
   9              		.eabi_attribute 26, 1
  10              		.eabi_attribute 30, 1
  11              		.eabi_attribute 34, 1
  12              		.eabi_attribute 18, 4
  13              		.thumb
  14              		.syntax unified
  15              		.file	"espU1.c"
  16              		.text
  17              	.Ltext0:
  18              		.cfi_sections	.debug_frame
  19              		.section	.text.esp_wifi_Start,"ax",%progbits
  20              		.align	2
  21              		.global	esp_wifi_Start
  22              		.thumb
  23              		.thumb_func
  24              		.type	esp_wifi_Start, %function
  25              	esp_wifi_Start:
  26              	.LFB64:
  27              		.file 1 "..\\ESP_wifi_module.cydsn\\espU1.c"
   1:..\ESP_wifi_module.cydsn/espU1.c **** #include "espU1.h"
   2:..\ESP_wifi_module.cydsn/espU1.c **** #include <stdio.h>
   3:..\ESP_wifi_module.cydsn/espU1.c **** /*
   4:..\ESP_wifi_module.cydsn/espU1.c **** --- Ejemplo UDP ---
   5:..\ESP_wifi_module.cydsn/espU1.c **** 
   6:..\ESP_wifi_module.cydsn/espU1.c **** 1. Configuración del Modo de Operación:
   7:..\ESP_wifi_module.cydsn/espU1.c **** AT+CWMODE=3: Este comando configura el módulo en modo tanto cliente como punto de acceso, permitie
   8:..\ESP_wifi_module.cydsn/espU1.c **** 
   9:..\ESP_wifi_module.cydsn/espU1.c **** 2. Conexión a la Red WiFi:
  10:..\ESP_wifi_module.cydsn/espU1.c **** AT+CWJAP="nombre_de_tu_red","contraseña_de_tu_red": Este comando conecta el módulo a tu red WiFi.
  11:..\ESP_wifi_module.cydsn/espU1.c **** AT+CWJAP="MiHotspot","Pass123"
  12:..\ESP_wifi_module.cydsn/espU1.c **** AT+CIFSR: Para consultar la dirección IP del dispositivo.
  13:..\ESP_wifi_module.cydsn/espU1.c **** 
  14:..\ESP_wifi_module.cydsn/espU1.c **** 3. Inicio de la Conexión UDP:
  15:..\ESP_wifi_module.cydsn/espU1.c **** AT+CIPSTART="UDP","ip_destino",puerto_destino,puerto_local,modo:
  16:..\ESP_wifi_module.cydsn/espU1.c **** Reemplaza "ip_destino" con la dirección IP del dispositivo al que deseas enviar datos,
  17:..\ESP_wifi_module.cydsn/espU1.c **** "puerto_destino" con el puerto del dispositivo destino,
  18:..\ESP_wifi_module.cydsn/espU1.c **** "puerto_local" con un puerto local en el ESP8266 para recibir datos,
  19:..\ESP_wifi_module.cydsn/espU1.c **** y "modo" con 2 para permitir enviar y recibir datos sin cambiar la conexión.
  20:..\ESP_wifi_module.cydsn/espU1.c **** AT+CIPSTART="UDP","192.168.100.55",8080,8081,2
  21:..\ESP_wifi_module.cydsn/espU1.c **** 
  22:..\ESP_wifi_module.cydsn/espU1.c **** 4. Envío de Datos:
  23:..\ESP_wifi_module.cydsn/espU1.c **** AT+CIPSEND=tamaño_del_mensaje: Este comando especifica el tamaño del mensaje que deseas enviar.
  24:..\ESP_wifi_module.cydsn/espU1.c **** Luego, ingresa los datos que deseas enviar.
  25:..\ESP_wifi_module.cydsn/espU1.c **** AT+CIPSEND=4
  26:..\ESP_wifi_module.cydsn/espU1.c **** > Hola
  27:..\ESP_wifi_module.cydsn/espU1.c **** 
  28:..\ESP_wifi_module.cydsn/espU1.c **** 5. Recepción de Datos:
  29:..\ESP_wifi_module.cydsn/espU1.c **** Los datos recibidos serán mostrados en la interfaz serial automáticamente si el módulo está cor
  30:..\ESP_wifi_module.cydsn/espU1.c **** 
ARM GAS  C:\Users\adria\AppData\Local\Temp\cce8aatr.s 			page 2


  31:..\ESP_wifi_module.cydsn/espU1.c **** 6. Cierre de la Conexión:
  32:..\ESP_wifi_module.cydsn/espU1.c **** AT+CIPCLOSE: Este comando cerrará la conexión UDP.
  33:..\ESP_wifi_module.cydsn/espU1.c **** */
  34:..\ESP_wifi_module.cydsn/espU1.c **** //Funcion de inicializacion sin tanto shitpost
  35:..\ESP_wifi_module.cydsn/espU1.c **** 
  36:..\ESP_wifi_module.cydsn/espU1.c **** 
  37:..\ESP_wifi_module.cydsn/espU1.c **** uint8_t esp_wifi_Start(uint8_t ROUTER){
  28              		.loc 1 37 0
  29              		.cfi_startproc
  30              		@ args = 0, pretend = 0, frame = 0
  31              		@ frame_needed = 0, uses_anonymous_args = 0
  32              	.LVL0:
  33 0000 10B5     		push	{r4, lr}
  34              		.cfi_def_cfa_offset 8
  35              		.cfi_offset 4, -8
  36              		.cfi_offset 14, -4
  37 0002 0446     		mov	r4, r0
  38:..\ESP_wifi_module.cydsn/espU1.c ****     
  39:..\ESP_wifi_module.cydsn/espU1.c ****     UART_PutString("AT+CIPCLOSE\r\n");
  38              		.loc 1 39 0
  39 0004 1548     		ldr	r0, .L4
  40              	.LVL1:
  41 0006 FFF7FEFF 		bl	UART_PutString
  42              	.LVL2:
  40:..\ESP_wifi_module.cydsn/espU1.c ****     CyDelay(3000);
  43              		.loc 1 40 0
  44 000a 40F6B830 		movw	r0, #3000
  45 000e FFF7FEFF 		bl	CyDelay
  46              	.LVL3:
  41:..\ESP_wifi_module.cydsn/espU1.c ****     UART_PutString("AT+CWMODE=3\r\n");
  47              		.loc 1 41 0
  48 0012 1348     		ldr	r0, .L4+4
  49 0014 FFF7FEFF 		bl	UART_PutString
  50              	.LVL4:
  42:..\ESP_wifi_module.cydsn/espU1.c ****     CyDelay(3000);
  51              		.loc 1 42 0
  52 0018 40F6B830 		movw	r0, #3000
  53 001c FFF7FEFF 		bl	CyDelay
  54              	.LVL5:
  43:..\ESP_wifi_module.cydsn/espU1.c ****     
  44:..\ESP_wifi_module.cydsn/espU1.c ****     if (ROUTER ==0){//VILCHIS
  45:..\ESP_wifi_module.cydsn/espU1.c ****     }
  46:..\ESP_wifi_module.cydsn/espU1.c ****     
  47:..\ESP_wifi_module.cydsn/espU1.c ****     if (ROUTER ==1){//cuernofono
  48:..\ESP_wifi_module.cydsn/espU1.c ****     }
  49:..\ESP_wifi_module.cydsn/espU1.c ****     
  50:..\ESP_wifi_module.cydsn/espU1.c ****     if(ROUTER ==2){//CANTON
  55              		.loc 1 50 0
  56 0020 022C     		cmp	r4, #2
  57 0022 10D1     		bne	.L2
  51:..\ESP_wifi_module.cydsn/espU1.c ****         UART_PutString("AT+CWJAP=\"FOCOS\",\"focointeligente\"\r\n");
  58              		.loc 1 51 0
  59 0024 0F48     		ldr	r0, .L4+8
  60 0026 FFF7FEFF 		bl	UART_PutString
  61              	.LVL6:
  52:..\ESP_wifi_module.cydsn/espU1.c ****         CyDelay(10000);
  62              		.loc 1 52 0
ARM GAS  C:\Users\adria\AppData\Local\Temp\cce8aatr.s 			page 3


  63 002a 42F21070 		movw	r0, #10000
  64 002e FFF7FEFF 		bl	CyDelay
  65              	.LVL7:
  53:..\ESP_wifi_module.cydsn/espU1.c ****         
  54:..\ESP_wifi_module.cydsn/espU1.c ****         UART_PutString("AT+CIFSR\r\n");
  66              		.loc 1 54 0
  67 0032 0D48     		ldr	r0, .L4+12
  68 0034 FFF7FEFF 		bl	UART_PutString
  69              	.LVL8:
  55:..\ESP_wifi_module.cydsn/espU1.c ****         CyDelay(1000);
  70              		.loc 1 55 0
  71 0038 4FF47A70 		mov	r0, #1000
  72 003c FFF7FEFF 		bl	CyDelay
  73              	.LVL9:
  56:..\ESP_wifi_module.cydsn/espU1.c ****         
  57:..\ESP_wifi_module.cydsn/espU1.c ****         UART_PutString("AT+CIPSTART=\"UDP\",\"192.168.0.25\",8501,8081,2\r\n");
  74              		.loc 1 57 0
  75 0040 0A48     		ldr	r0, .L4+16
  76 0042 FFF7FEFF 		bl	UART_PutString
  77              	.LVL10:
  78              	.L2:
  58:..\ESP_wifi_module.cydsn/espU1.c ****     }
  59:..\ESP_wifi_module.cydsn/espU1.c **** 
  60:..\ESP_wifi_module.cydsn/espU1.c ****     INDICADORES_Write(BIT0);//El buzzer indica el fin de la inicializacion
  79              		.loc 1 60 0
  80 0046 0120     		movs	r0, #1
  81 0048 FFF7FEFF 		bl	INDICADORES_Write
  82              	.LVL11:
  61:..\ESP_wifi_module.cydsn/espU1.c ****     CyDelay(150);
  83              		.loc 1 61 0
  84 004c 9620     		movs	r0, #150
  85 004e FFF7FEFF 		bl	CyDelay
  86              	.LVL12:
  62:..\ESP_wifi_module.cydsn/espU1.c ****     INDICADORES_Write(~BIT0);//El buzzer indica el fin de la inicializacion
  87              		.loc 1 62 0
  88 0052 FE20     		movs	r0, #254
  89 0054 FFF7FEFF 		bl	INDICADORES_Write
  90              	.LVL13:
  63:..\ESP_wifi_module.cydsn/espU1.c ****     
  64:..\ESP_wifi_module.cydsn/espU1.c ****     return 0;
  65:..\ESP_wifi_module.cydsn/espU1.c **** }
  91              		.loc 1 65 0
  92 0058 0020     		movs	r0, #0
  93 005a 10BD     		pop	{r4, pc}
  94              	.L5:
  95              		.align	2
  96              	.L4:
  97 005c 00000000 		.word	.LC0
  98 0060 10000000 		.word	.LC1
  99 0064 20000000 		.word	.LC2
 100 0068 48000000 		.word	.LC3
 101 006c 54000000 		.word	.LC4
 102              		.cfi_endproc
 103              	.LFE64:
 104              		.size	esp_wifi_Start, .-esp_wifi_Start
 105              		.section	.text.send,"ax",%progbits
 106              		.align	2
ARM GAS  C:\Users\adria\AppData\Local\Temp\cce8aatr.s 			page 4


 107              		.global	send
 108              		.thumb
 109              		.thumb_func
 110              		.type	send, %function
 111              	send:
 112              	.LFB65:
  66:..\ESP_wifi_module.cydsn/espU1.c **** 
  67:..\ESP_wifi_module.cydsn/espU1.c **** void send(uint8_t len, char *msg){
 113              		.loc 1 67 0
 114              		.cfi_startproc
 115              		@ args = 0, pretend = 0, frame = 0
 116              		@ frame_needed = 0, uses_anonymous_args = 0
 117              	.LVL14:
 118 0000 38B5     		push	{r3, r4, r5, lr}
 119              		.cfi_def_cfa_offset 16
 120              		.cfi_offset 3, -16
 121              		.cfi_offset 4, -12
 122              		.cfi_offset 5, -8
 123              		.cfi_offset 14, -4
 124 0002 0D46     		mov	r5, r1
  68:..\ESP_wifi_module.cydsn/espU1.c ****     char *send;
  69:..\ESP_wifi_module.cydsn/espU1.c ****     sprintf(send,"AT+CIPSEND=%d\r\n",len);
 125              		.loc 1 69 0
 126 0004 0246     		mov	r2, r0
 127 0006 0949     		ldr	r1, .L8
 128              	.LVL15:
 129 0008 0024     		movs	r4, #0
 130 000a 2046     		mov	r0, r4
 131              	.LVL16:
 132 000c FFF7FEFF 		bl	sprintf
 133              	.LVL17:
  70:..\ESP_wifi_module.cydsn/espU1.c ****     
  71:..\ESP_wifi_module.cydsn/espU1.c ****     UART_PutString(send);
 134              		.loc 1 71 0
 135 0010 2046     		mov	r0, r4
 136 0012 FFF7FEFF 		bl	UART_PutString
 137              	.LVL18:
  72:..\ESP_wifi_module.cydsn/espU1.c ****     CyDelay(5000);
 138              		.loc 1 72 0
 139 0016 41F28830 		movw	r0, #5000
 140 001a FFF7FEFF 		bl	CyDelay
 141              	.LVL19:
  73:..\ESP_wifi_module.cydsn/espU1.c ****     UART_PutString(msg);
 142              		.loc 1 73 0
 143 001e 2846     		mov	r0, r5
 144 0020 FFF7FEFF 		bl	UART_PutString
 145              	.LVL20:
  74:..\ESP_wifi_module.cydsn/espU1.c ****     UART_PutString("\r\n");
 146              		.loc 1 74 0
 147 0024 0248     		ldr	r0, .L8+4
 148 0026 FFF7FEFF 		bl	UART_PutString
 149              	.LVL21:
 150 002a 38BD     		pop	{r3, r4, r5, pc}
 151              	.LVL22:
 152              	.L9:
 153              		.align	2
 154              	.L8:
ARM GAS  C:\Users\adria\AppData\Local\Temp\cce8aatr.s 			page 5


 155 002c 84000000 		.word	.LC5
 156 0030 94000000 		.word	.LC6
 157              		.cfi_endproc
 158              	.LFE65:
 159              		.size	send, .-send
 160              		.section	.rodata.str1.4,"aMS",%progbits,1
 161              		.align	2
 162              	.LC0:
 163 0000 41542B43 		.ascii	"AT+CIPCLOSE\015\012\000"
 163      4950434C 
 163      4F53450D 
 163      0A00
 164 000e 0000     		.space	2
 165              	.LC1:
 166 0010 41542B43 		.ascii	"AT+CWMODE=3\015\012\000"
 166      574D4F44 
 166      453D330D 
 166      0A00
 167 001e 0000     		.space	2
 168              	.LC2:
 169 0020 41542B43 		.ascii	"AT+CWJAP=\"FOCOS\",\"focointeligente\"\015\012\000"
 169      574A4150 
 169      3D22464F 
 169      434F5322 
 169      2C22666F 
 170 0045 000000   		.space	3
 171              	.LC3:
 172 0048 41542B43 		.ascii	"AT+CIFSR\015\012\000"
 172      49465352 
 172      0D0A00
 173 0053 00       		.space	1
 174              	.LC4:
 175 0054 41542B43 		.ascii	"AT+CIPSTART=\"UDP\",\"192.168.0.25\",8501,8081,2\015"
 175      49505354 
 175      4152543D 
 175      22554450 
 175      222C2231 
 176 0081 0A00     		.ascii	"\012\000"
 177 0083 00       		.space	1
 178              	.LC5:
 179 0084 41542B43 		.ascii	"AT+CIPSEND=%d\015\012\000"
 179      49505345 
 179      4E443D25 
 179      640D0A00 
 180              	.LC6:
 181 0094 0D0A00   		.ascii	"\015\012\000"
 182              		.text
 183              	.Letext0:
 184              		.file 2 "c:\\program files (x86)\\cypress\\psoc creator\\4.4\\psoc creator\\import\\gnu\\arm\\5.4.
 185              		.file 3 "c:\\program files (x86)\\cypress\\psoc creator\\4.4\\psoc creator\\import\\gnu\\arm\\5.4.
 186              		.file 4 "Generated_Source\\PSoC5/UART.h"
 187              		.file 5 "Generated_Source\\PSoC5/CyLib.h"
 188              		.file 6 "Generated_Source\\PSoC5/INDICADORES.h"
 189              		.file 7 "c:\\program files (x86)\\cypress\\psoc creator\\4.4\\psoc creator\\import\\gnu\\arm\\5.4.
 190              		.file 8 "Generated_Source\\PSoC5/core_cm3.h"