ARM GAS  C:\Users\adria\AppData\Local\Temp\cc9BMV37.s 			page 1


   1              		.syntax unified
   2              		.cpu cortex-m3
   3              		.fpu softvfp
   4              		.eabi_attribute 20, 1
   5              		.eabi_attribute 21, 1
   6              		.eabi_attribute 23, 3
   7              		.eabi_attribute 24, 1
   8              		.eabi_attribute 25, 1
   9              		.eabi_attribute 26, 1
  10              		.eabi_attribute 30, 1
  11              		.eabi_attribute 34, 1
  12              		.eabi_attribute 18, 4
  13              		.thumb
  14              		.syntax unified
  15              		.file	"main.c"
  16              		.text
  17              	.Ltext0:
  18              		.cfi_sections	.debug_frame
  19              		.section	.text.isr,"ax",%progbits
  20              		.align	2
  21              		.global	isr
  22              		.thumb
  23              		.thumb_func
  24              		.type	isr, %function
  25              	isr:
  26              	.LFB64:
  27              		.file 1 "main.c"
   1:main.c        **** #include "project.h"
   2:main.c        **** #include <stdio.h>
   3:main.c        **** #include <stdlib.h>
   4:main.c        **** #include <string.h>
   5:main.c        **** 
   6:main.c        **** #include "D:\GITHUB\Librerias_PSOC\Libreria_PSOC\LIB_psoc.h"
   7:main.c        **** #include "..\ESP_wifi_module.cydsn\espU1.h"
   8:main.c        **** #include "D:\mcu\design-mpu\source\ejemplos\BME680\bme680.h"
   9:main.c        **** #include "..\MAX6675.cydsn\max6675.h"
  10:main.c        **** #include "..\..\lcd_7seg\Workspace01\LCD.cydsn\PSOC_LCD.h"
  11:main.c        **** 
  12:main.c        **** //Variables de BME
  13:main.c        **** int8_t error = 0;
  14:main.c        **** sdata_bme680 datos_bme680;
  15:main.c        **** uint8_t datochu = 0;
  16:main.c        **** uint8_t result = 0;
  17:main.c        **** uint8_t address = 0x76;
  18:main.c        **** 
  19:main.c        **** //Rutina de interrrupción
  20:main.c        **** uint8_t flag = 0;//Bandera de interrupión de la uart
  21:main.c        **** int i=0;//Contador para leer el buffer de la UART
  22:main.c        **** char buffer[32];//Buffer para lectura
  23:main.c        **** CY_ISR(isr){
  28              		.loc 1 23 0
  29              		.cfi_startproc
  30              		@ args = 0, pretend = 0, frame = 0
  31              		@ frame_needed = 0, uses_anonymous_args = 0
  32 0000 70B5     		push	{r4, r5, r6, lr}
  33              		.cfi_def_cfa_offset 16
  34              		.cfi_offset 4, -16
ARM GAS  C:\Users\adria\AppData\Local\Temp\cc9BMV37.s 			page 2


  35              		.cfi_offset 5, -12
  36              		.cfi_offset 6, -8
  37              		.cfi_offset 14, -4
  24:main.c        ****     isr_ClearPending();  // Limpieza de interrupción
  38              		.loc 1 24 0
  39 0002 FFF7FEFF 		bl	isr_ClearPending
  40              	.LVL0:
  25:main.c        ****     
  26:main.c        ****     buffer[i] =  UART_GetByte();//Agregamos al arreglo el ascci del caracter recibido
  41              		.loc 1 26 0
  42 0006 0A4C     		ldr	r4, .L4
  43 0008 2668     		ldr	r6, [r4]
  44 000a FFF7FEFF 		bl	UART_GetByte
  45              	.LVL1:
  46 000e 094D     		ldr	r5, .L4+4
  47 0010 A855     		strb	r0, [r5, r6]
  27:main.c        ****     UART_PC_PutChar(buffer[i]);
  48              		.loc 1 27 0
  49 0012 2368     		ldr	r3, [r4]
  50 0014 E85C     		ldrb	r0, [r5, r3]	@ zero_extendqisi2
  51 0016 FFF7FEFF 		bl	UART_PC_PutChar
  52              	.LVL2:
  28:main.c        ****     i++;
  53              		.loc 1 28 0
  54 001a 2368     		ldr	r3, [r4]
  55 001c 5A1C     		adds	r2, r3, #1
  56 001e 2260     		str	r2, [r4]
  29:main.c        ****     
  30:main.c        ****     if(buffer[i-1] == '*'){
  57              		.loc 1 30 0
  58 0020 EB5C     		ldrb	r3, [r5, r3]	@ zero_extendqisi2
  59 0022 2A2B     		cmp	r3, #42
  60 0024 03D1     		bne	.L1
  31:main.c        ****         flag |= BIT0;// Bandera de dato recibido  
  61              		.loc 1 31 0
  62 0026 2379     		ldrb	r3, [r4, #4]	@ zero_extendqisi2
  63 0028 43F00103 		orr	r3, r3, #1
  64 002c 2371     		strb	r3, [r4, #4]
  65              	.L1:
  66 002e 70BD     		pop	{r4, r5, r6, pc}
  67              	.L5:
  68              		.align	2
  69              	.L4:
  70 0030 00000000 		.word	.LANCHOR0
  71 0034 00000000 		.word	buffer
  72              		.cfi_endproc
  73              	.LFE64:
  74              		.size	isr, .-isr
  75              		.section	.text.main,"ax",%progbits
  76              		.align	2
  77              		.global	main
  78              		.thumb
  79              		.thumb_func
  80              		.type	main, %function
  81              	main:
  82              	.LFB65:
  32:main.c        ****     }
ARM GAS  C:\Users\adria\AppData\Local\Temp\cc9BMV37.s 			page 3


  33:main.c        **** }
  34:main.c        **** 
  35:main.c        **** 
  36:main.c        **** 
  37:main.c        **** int main(void)
  38:main.c        **** {
  83              		.loc 1 38 0
  84              		.cfi_startproc
  85              		@ args = 0, pretend = 0, frame = 24
  86              		@ frame_needed = 0, uses_anonymous_args = 0
  87 0000 2DE9F043 		push	{r4, r5, r6, r7, r8, r9, lr}
  88              		.cfi_def_cfa_offset 28
  89              		.cfi_offset 4, -28
  90              		.cfi_offset 5, -24
  91              		.cfi_offset 6, -20
  92              		.cfi_offset 7, -16
  93              		.cfi_offset 8, -12
  94              		.cfi_offset 9, -8
  95              		.cfi_offset 14, -4
  96 0004 87B0     		sub	sp, sp, #28
  97              		.cfi_def_cfa_offset 56
  39:main.c        ****     CyGlobalIntEnable;
  98              		.loc 1 39 0
  99              		.syntax unified
 100              	@ 39 "main.c" 1
 101 0006 62B6     		CPSIE   i
 102              	@ 0 "" 2
  40:main.c        ****     //INCIALIZAMOS HARDWARE
  41:main.c        ****     I2C_Start();
 103              		.loc 1 41 0
 104              		.thumb
 105              		.syntax unified
 106 0008 FFF7FEFF 		bl	I2C_Start
 107              	.LVL3:
  42:main.c        ****     SPIM_Start();
 108              		.loc 1 42 0
 109 000c FFF7FEFF 		bl	SPIM_Start
 110              	.LVL4:
  43:main.c        ****     LCD_Start();
 111              		.loc 1 43 0
 112 0010 FFF7FEFF 		bl	LCD_Start
 113              	.LVL5:
  44:main.c        ****     LCD_ClearDisplay();
 114              		.loc 1 44 0
 115 0014 FFF7FEFF 		bl	LCD_ClearDisplay
 116              	.LVL6:
  45:main.c        ****     LCD_Position(0,0);
 117              		.loc 1 45 0
 118 0018 0021     		movs	r1, #0
 119 001a 0846     		mov	r0, r1
 120 001c FFF7FEFF 		bl	LCD_Position
 121              	.LVL7:
  46:main.c        ****     
  47:main.c        ****     //Puente de UART
  48:main.c        ****     UART_Start();
 122              		.loc 1 48 0
 123 0020 FFF7FEFF 		bl	UART_Start
ARM GAS  C:\Users\adria\AppData\Local\Temp\cc9BMV37.s 			page 4


 124              	.LVL8:
  49:main.c        ****     UART_ClearRxBuffer();
 125              		.loc 1 49 0
 126 0024 FFF7FEFF 		bl	UART_ClearRxBuffer
 127              	.LVL9:
  50:main.c        ****     UART_PC_Start();
 128              		.loc 1 50 0
 129 0028 FFF7FEFF 		bl	UART_PC_Start
 130              	.LVL10:
  51:main.c        ****     UART_PC_ClearRxBuffer();
 131              		.loc 1 51 0
 132 002c FFF7FEFF 		bl	UART_PC_ClearRxBuffer
 133              	.LVL11:
  52:main.c        ****     //Interrrupciones
  53:main.c        ****     isr_StartEx(isr);// Inicializar interrupción física
 134              		.loc 1 53 0
 135 0030 8048     		ldr	r0, .L14
 136 0032 FFF7FEFF 		bl	isr_StartEx
 137              	.LVL12:
  54:main.c        ****     isr_ClearPending();// Limpiar por primera vez la interrupción
 138              		.loc 1 54 0
 139 0036 FFF7FEFF 		bl	isr_ClearPending
 140              	.LVL13:
  55:main.c        ****     
  56:main.c        ****     //wifi con esp
  57:main.c        ****     esp_wifi_Start(2);
 141              		.loc 1 57 0
 142 003a 0220     		movs	r0, #2
 143 003c FFF7FEFF 		bl	esp_wifi_Start
 144              	.LVL14:
  58:main.c        ****     
  59:main.c        ****     //sensores
  60:main.c        ****     error = bme680_Start(&sensor_bme680);
 145              		.loc 1 60 0
 146 0040 7D48     		ldr	r0, .L14+4
 147 0042 FFF7FEFF 		bl	bme680_Start
 148              	.LVL15:
 149 0046 7D4B     		ldr	r3, .L14+8
 150 0048 5871     		strb	r0, [r3, #5]
 151              	.LVL16:
 152              	.L7:
  61:main.c        ****     uint16_t thermo = 0;//Variable alamacena la temperatura 
  62:main.c        ****     for(;;)
  63:main.c        ****     {
  64:main.c        ****         //obtenemos datos del bme
  65:main.c        ****         datos_bme680 = bme680_readData(&sensor_bme680);
 153              		.loc 1 65 0
 154 004a 7D4D     		ldr	r5, .L14+12
 155 004c 7A49     		ldr	r1, .L14+4
 156 004e 6846     		mov	r0, sp
 157 0050 FFF7FEFF 		bl	bme680_readData
 158              	.LVL17:
 159 0054 2E46     		mov	r6, r5
 160 0056 6C46     		mov	r4, sp
 161 0058 0FCC     		ldmia	r4!, {r0, r1, r2, r3}
 162 005a 0FC6     		stmia	r6!, {r0, r1, r2, r3}
 163 005c 2368     		ldr	r3, [r4]
ARM GAS  C:\Users\adria\AppData\Local\Temp\cc9BMV37.s 			page 5


 164 005e 3360     		str	r3, [r6]
  66:main.c        ****         
  67:main.c        ****         LCD_Position(0,0);
 165              		.loc 1 67 0
 166 0060 0021     		movs	r1, #0
 167 0062 0846     		mov	r0, r1
 168 0064 FFF7FEFF 		bl	LCD_Position
 169              	.LVL18:
  68:main.c        ****         LCD_PrintString("Temperatura:    ");
 170              		.loc 1 68 0
 171 0068 7648     		ldr	r0, .L14+16
 172 006a FFF7FEFF 		bl	LCD_PrintString
 173              	.LVL19:
  69:main.c        ****         LCD_Position(1,0);
 174              		.loc 1 69 0
 175 006e 0021     		movs	r1, #0
 176 0070 0120     		movs	r0, #1
 177 0072 FFF7FEFF 		bl	LCD_Position
 178              	.LVL20:
  70:main.c        ****         LCD_PrintNumber(datos_bme680.temperature/100);
 179              		.loc 1 70 0
 180 0076 B5F90430 		ldrsh	r3, [r5, #4]
 181 007a 734E     		ldr	r6, .L14+20
 182 007c 86FB0320 		smull	r2, r0, r6, r3
 183 0080 DB17     		asrs	r3, r3, #31
 184 0082 C3EB6010 		rsb	r0, r3, r0, asr #5
 185 0086 00B2     		sxth	r0, r0
 186 0088 FFF7FEFF 		bl	LCD_PrintNumber
 187              	.LVL21:
  71:main.c        ****         LCD_PrintString(".");
 188              		.loc 1 71 0
 189 008c DFF8F881 		ldr	r8, .L14+84
 190 0090 4046     		mov	r0, r8
 191 0092 FFF7FEFF 		bl	LCD_PrintString
 192              	.LVL22:
  72:main.c        ****         LCD_PrintNumber(datos_bme680.temperature%100);
 193              		.loc 1 72 0
 194 0096 B5F90420 		ldrsh	r2, [r5, #4]
 195 009a 86FB0230 		smull	r3, r0, r6, r2
 196 009e D317     		asrs	r3, r2, #31
 197 00a0 C3EB6013 		rsb	r3, r3, r0, asr #5
 198 00a4 4FF06409 		mov	r9, #100
 199 00a8 09FB1320 		mls	r0, r9, r3, r2
 200 00ac 00B2     		sxth	r0, r0
 201 00ae FFF7FEFF 		bl	LCD_PrintNumber
 202              	.LVL23:
  73:main.c        ****         LCD_PrintString("C               ");
 203              		.loc 1 73 0
 204 00b2 6648     		ldr	r0, .L14+24
 205 00b4 FFF7FEFF 		bl	LCD_PrintString
 206              	.LVL24:
  74:main.c        ****         CyDelay(500);
 207              		.loc 1 74 0
 208 00b8 4FF4FA70 		mov	r0, #500
 209 00bc FFF7FEFF 		bl	CyDelay
 210              	.LVL25:
  75:main.c        ****         
ARM GAS  C:\Users\adria\AppData\Local\Temp\cc9BMV37.s 			page 6


  76:main.c        ****         LCD_Position(0,0);
 211              		.loc 1 76 0
 212 00c0 0021     		movs	r1, #0
 213 00c2 0846     		mov	r0, r1
 214 00c4 FFF7FEFF 		bl	LCD_Position
 215              	.LVL26:
  77:main.c        ****         LCD_PrintString("Humedad:        ");
 216              		.loc 1 77 0
 217 00c8 6148     		ldr	r0, .L14+28
 218 00ca FFF7FEFF 		bl	LCD_PrintString
 219              	.LVL27:
  78:main.c        ****         LCD_Position(1,0);
 220              		.loc 1 78 0
 221 00ce 0021     		movs	r1, #0
 222 00d0 0120     		movs	r0, #1
 223 00d2 FFF7FEFF 		bl	LCD_Position
 224              	.LVL28:
  79:main.c        ****         LCD_PrintNumber(datos_bme680.humidity/1000);
 225              		.loc 1 79 0
 226 00d6 E868     		ldr	r0, [r5, #12]
 227 00d8 5E4C     		ldr	r4, .L14+32
 228 00da A4FB0030 		umull	r3, r0, r4, r0
 229 00de 8009     		lsrs	r0, r0, #6
 230 00e0 FFF7FEFF 		bl	LCD_PrintNumber
 231              	.LVL29:
  80:main.c        ****         LCD_PrintString(".");
 232              		.loc 1 80 0
 233 00e4 4046     		mov	r0, r8
 234 00e6 FFF7FEFF 		bl	LCD_PrintString
 235              	.LVL30:
  81:main.c        ****         LCD_PrintNumber(datos_bme680.humidity%1000);
 236              		.loc 1 81 0
 237 00ea E868     		ldr	r0, [r5, #12]
 238 00ec A4FB0023 		umull	r2, r3, r4, r0
 239 00f0 9B09     		lsrs	r3, r3, #6
 240 00f2 4FF47A77 		mov	r7, #1000
 241 00f6 07FB1300 		mls	r0, r7, r3, r0
 242 00fa FFF7FEFF 		bl	LCD_PrintNumber
 243              	.LVL31:
  82:main.c        ****         LCD_PrintString("%               ");
 244              		.loc 1 82 0
 245 00fe 5648     		ldr	r0, .L14+36
 246 0100 FFF7FEFF 		bl	LCD_PrintString
 247              	.LVL32:
  83:main.c        ****         CyDelay(500);
 248              		.loc 1 83 0
 249 0104 4FF4FA70 		mov	r0, #500
 250 0108 FFF7FEFF 		bl	CyDelay
 251              	.LVL33:
  84:main.c        ****         
  85:main.c        ****         LCD_Position(0,0);
 252              		.loc 1 85 0
 253 010c 0021     		movs	r1, #0
 254 010e 0846     		mov	r0, r1
 255 0110 FFF7FEFF 		bl	LCD_Position
 256              	.LVL34:
  86:main.c        ****         LCD_PrintString("Presion atmos:  ");
ARM GAS  C:\Users\adria\AppData\Local\Temp\cc9BMV37.s 			page 7


 257              		.loc 1 86 0
 258 0114 5148     		ldr	r0, .L14+40
 259 0116 FFF7FEFF 		bl	LCD_PrintString
 260              	.LVL35:
  87:main.c        ****         LCD_Position(1,0);
 261              		.loc 1 87 0
 262 011a 0021     		movs	r1, #0
 263 011c 0120     		movs	r0, #1
 264 011e FFF7FEFF 		bl	LCD_Position
 265              	.LVL36:
  88:main.c        ****         LCD_PrintNumber(datos_bme680.pressure/100);
 266              		.loc 1 88 0
 267 0122 A868     		ldr	r0, [r5, #8]
 268 0124 A6FB0030 		umull	r3, r0, r6, r0
 269 0128 4009     		lsrs	r0, r0, #5
 270 012a FFF7FEFF 		bl	LCD_PrintNumber
 271              	.LVL37:
  89:main.c        ****         LCD_PrintString(".");
 272              		.loc 1 89 0
 273 012e 4046     		mov	r0, r8
 274 0130 FFF7FEFF 		bl	LCD_PrintString
 275              	.LVL38:
  90:main.c        ****         LCD_PrintNumber(datos_bme680.pressure%100);
 276              		.loc 1 90 0
 277 0134 A868     		ldr	r0, [r5, #8]
 278 0136 A6FB0036 		umull	r3, r6, r6, r0
 279 013a 7609     		lsrs	r6, r6, #5
 280 013c 09FB1600 		mls	r0, r9, r6, r0
 281 0140 FFF7FEFF 		bl	LCD_PrintNumber
 282              	.LVL39:
  91:main.c        ****         LCD_PrintString("hPa             ");
 283              		.loc 1 91 0
 284 0144 4648     		ldr	r0, .L14+44
 285 0146 FFF7FEFF 		bl	LCD_PrintString
 286              	.LVL40:
  92:main.c        ****         CyDelay(500);
 287              		.loc 1 92 0
 288 014a 4FF4FA70 		mov	r0, #500
 289 014e FFF7FEFF 		bl	CyDelay
 290              	.LVL41:
  93:main.c        ****         
  94:main.c        ****         LCD_Position(0,0);
 291              		.loc 1 94 0
 292 0152 0021     		movs	r1, #0
 293 0154 0846     		mov	r0, r1
 294 0156 FFF7FEFF 		bl	LCD_Position
 295              	.LVL42:
  95:main.c        ****         LCD_PrintString("Resistencia gas:");
 296              		.loc 1 95 0
 297 015a 4248     		ldr	r0, .L14+48
 298 015c FFF7FEFF 		bl	LCD_PrintString
 299              	.LVL43:
  96:main.c        ****         LCD_Position(1,0);
 300              		.loc 1 96 0
 301 0160 0021     		movs	r1, #0
 302 0162 0120     		movs	r0, #1
 303 0164 FFF7FEFF 		bl	LCD_Position
ARM GAS  C:\Users\adria\AppData\Local\Temp\cc9BMV37.s 			page 8


 304              	.LVL44:
  97:main.c        ****         LCD_PrintNumber(datos_bme680.gas_resistance/1000);
 305              		.loc 1 97 0
 306 0168 2869     		ldr	r0, [r5, #16]
 307 016a A4FB0030 		umull	r3, r0, r4, r0
 308 016e 8009     		lsrs	r0, r0, #6
 309 0170 FFF7FEFF 		bl	LCD_PrintNumber
 310              	.LVL45:
  98:main.c        ****         LCD_PrintString(".");
 311              		.loc 1 98 0
 312 0174 4046     		mov	r0, r8
 313 0176 FFF7FEFF 		bl	LCD_PrintString
 314              	.LVL46:
  99:main.c        ****         LCD_PrintNumber(datos_bme680.gas_resistance%1000);
 315              		.loc 1 99 0
 316 017a 2869     		ldr	r0, [r5, #16]
 317 017c A4FB0034 		umull	r3, r4, r4, r0
 318 0180 A409     		lsrs	r4, r4, #6
 319 0182 07FB1400 		mls	r0, r7, r4, r0
 320 0186 FFF7FEFF 		bl	LCD_PrintNumber
 321              	.LVL47:
 100:main.c        ****         LCD_PrintString(" Kohm            ");
 322              		.loc 1 100 0
 323 018a 3748     		ldr	r0, .L14+52
 324 018c FFF7FEFF 		bl	LCD_PrintString
 325              	.LVL48:
 101:main.c        ****         CyDelay(500);
 326              		.loc 1 101 0
 327 0190 4FF4FA70 		mov	r0, #500
 328 0194 FFF7FEFF 		bl	CyDelay
 329              	.LVL49:
 102:main.c        ****         
 103:main.c        ****         //Optenemos valores del thermopar
 104:main.c        ****         thermo = sens();//sensamos
 330              		.loc 1 104 0
 331 0198 FFF7FEFF 		bl	sens
 332              	.LVL50:
 333 019c 0446     		mov	r4, r0
 334              	.LVL51:
 105:main.c        ****         LCD_Position(0,0);
 335              		.loc 1 105 0
 336 019e 0021     		movs	r1, #0
 337 01a0 0846     		mov	r0, r1
 338 01a2 FFF7FEFF 		bl	LCD_Position
 339              	.LVL52:
 106:main.c        ****         LCD_PrintString("THERMOPAR          ");
 340              		.loc 1 106 0
 341 01a6 3148     		ldr	r0, .L14+56
 342 01a8 FFF7FEFF 		bl	LCD_PrintString
 343              	.LVL53:
 107:main.c        ****         LCD_Position(1,0);
 344              		.loc 1 107 0
 345 01ac 0021     		movs	r1, #0
 346 01ae 0120     		movs	r0, #1
 347 01b0 FFF7FEFF 		bl	LCD_Position
 348              	.LVL54:
 108:main.c        ****         LCD_PrintNumber(thermo);
ARM GAS  C:\Users\adria\AppData\Local\Temp\cc9BMV37.s 			page 9


 349              		.loc 1 108 0
 350 01b4 2046     		mov	r0, r4
 351 01b6 FFF7FEFF 		bl	LCD_PrintNumber
 352              	.LVL55:
 109:main.c        ****         LCD_PrintString("degC               ");
 353              		.loc 1 109 0
 354 01ba 2D48     		ldr	r0, .L14+60
 355 01bc FFF7FEFF 		bl	LCD_PrintString
 356              	.LVL56:
 110:main.c        ****         CyDelay(500);
 357              		.loc 1 110 0
 358 01c0 4FF4FA70 		mov	r0, #500
 359 01c4 FFF7FEFF 		bl	CyDelay
 360              	.LVL57:
 111:main.c        ****         
 112:main.c        ****         //Mandamos info a streamlit
 113:main.c        ****         
 114:main.c        ****         //RECIVIMOS INFO
 115:main.c        ****         //RUTINA PARA CAPTURAR EL DATO ENVIADO POR EL uart
 116:main.c        ****         if(flag){//Se envió un mensaje por la UART
 361              		.loc 1 116 0
 362 01c8 1C4B     		ldr	r3, .L14+8
 363 01ca 1B79     		ldrb	r3, [r3, #4]	@ zero_extendqisi2
 364 01cc 002B     		cmp	r3, #0
 365 01ce 3FF43CAF 		beq	.L7
 117:main.c        ****             flag &= ~BIT0;//Tiramos la bandera
 366              		.loc 1 117 0
 367 01d2 23F00103 		bic	r3, r3, #1
 368 01d6 194A     		ldr	r2, .L14+8
 369 01d8 1371     		strb	r3, [r2, #4]
 118:main.c        ****                           
 119:main.c        ****             if(strstr(buffer,"FOCO")!= NULL){//rojo
 370              		.loc 1 119 0
 371 01da 2649     		ldr	r1, .L14+64
 372 01dc 2648     		ldr	r0, .L14+68
 373 01de FFF7FEFF 		bl	strstr
 374              	.LVL58:
 375 01e2 50B1     		cbz	r0, .L8
 120:main.c        ****                 LCD_Position(0,0);
 376              		.loc 1 120 0
 377 01e4 0021     		movs	r1, #0
 378 01e6 0846     		mov	r0, r1
 379 01e8 FFF7FEFF 		bl	LCD_Position
 380              	.LVL59:
 121:main.c        ****                 LCD_PrintString("POTENCIA FOCO:  ");
 381              		.loc 1 121 0
 382 01ec 2348     		ldr	r0, .L14+72
 383 01ee FFF7FEFF 		bl	LCD_PrintString
 384              	.LVL60:
 122:main.c        ****                 CyDelay(3000);
 385              		.loc 1 122 0
 386 01f2 40F6B830 		movw	r0, #3000
 387 01f6 FFF7FEFF 		bl	CyDelay
 388              	.LVL61:
 389              	.L8:
 123:main.c        ****             }
 124:main.c        ****             if(strstr(buffer,"VENTILADOR")!= NULL){//rojo
ARM GAS  C:\Users\adria\AppData\Local\Temp\cc9BMV37.s 			page 10


 390              		.loc 1 124 0
 391 01fa 2149     		ldr	r1, .L14+76
 392 01fc 1E48     		ldr	r0, .L14+68
 393 01fe FFF7FEFF 		bl	strstr
 394              	.LVL62:
 395 0202 50B1     		cbz	r0, .L9
 125:main.c        ****                 LCD_Position(0,0);
 396              		.loc 1 125 0
 397 0204 0021     		movs	r1, #0
 398 0206 0846     		mov	r0, r1
 399 0208 FFF7FEFF 		bl	LCD_Position
 400              	.LVL63:
 126:main.c        ****                 LCD_PrintString("POTENCIA VENTILADOR:  ");
 401              		.loc 1 126 0
 402 020c 1D48     		ldr	r0, .L14+80
 403 020e FFF7FEFF 		bl	LCD_PrintString
 404              	.LVL64:
 127:main.c        ****                 CyDelay(3000);
 405              		.loc 1 127 0
 406 0212 40F6B830 		movw	r0, #3000
 407 0216 FFF7FEFF 		bl	CyDelay
 408              	.LVL65:
 409              	.L9:
  38:main.c        ****     CyGlobalIntEnable;
 410              		.loc 1 38 0 discriminator 1
 411 021a 0023     		movs	r3, #0
 412 021c 03E0     		b	.L10
 413              	.LVL66:
 414              	.L11:
 415              	.LBB2:
 128:main.c        ****             }
 129:main.c        ****             
 130:main.c        ****             //ACTUALIZAMOS Plantas
 131:main.c        ****                 
 132:main.c        ****             //Limpiamos el buffer de lectura
 133:main.c        ****             for(int a=0;a<31;a++){
 134:main.c        ****                 buffer[a] = 0x00;
 416              		.loc 1 134 0 discriminator 3
 417 021e 0021     		movs	r1, #0
 418 0220 154A     		ldr	r2, .L14+68
 419 0222 D154     		strb	r1, [r2, r3]
 133:main.c        ****                 buffer[a] = 0x00;
 420              		.loc 1 133 0 discriminator 3
 421 0224 0133     		adds	r3, r3, #1
 422              	.LVL67:
 423              	.L10:
 133:main.c        ****                 buffer[a] = 0x00;
 424              		.loc 1 133 0 is_stmt 0 discriminator 1
 425 0226 1E2B     		cmp	r3, #30
 426 0228 F9DD     		ble	.L11
 427              	.LBE2:
 135:main.c        ****             }
 136:main.c        ****                 
 137:main.c        ****             i=0;//Seteamos
 428              		.loc 1 137 0 is_stmt 1
 429 022a 0022     		movs	r2, #0
 430 022c 034B     		ldr	r3, .L14+8
ARM GAS  C:\Users\adria\AppData\Local\Temp\cc9BMV37.s 			page 11


 431              	.LVL68:
 432 022e 1A60     		str	r2, [r3]
 433 0230 0BE7     		b	.L7
 434              	.L15:
 435 0232 00BF     		.align	2
 436              	.L14:
 437 0234 00000000 		.word	isr
 438 0238 00000000 		.word	sensor_bme680
 439 023c 00000000 		.word	.LANCHOR0
 440 0240 00000000 		.word	datos_bme680
 441 0244 00000000 		.word	.LC0
 442 0248 1F85EB51 		.word	1374389535
 443 024c 18000000 		.word	.LC2
 444 0250 2C000000 		.word	.LC3
 445 0254 D34D6210 		.word	274877907
 446 0258 40000000 		.word	.LC4
 447 025c 54000000 		.word	.LC5
 448 0260 68000000 		.word	.LC6
 449 0264 7C000000 		.word	.LC7
 450 0268 90000000 		.word	.LC8
 451 026c A4000000 		.word	.LC9
 452 0270 B8000000 		.word	.LC10
 453 0274 CC000000 		.word	.LC11
 454 0278 00000000 		.word	buffer
 455 027c D4000000 		.word	.LC12
 456 0280 E8000000 		.word	.LC13
 457 0284 F4000000 		.word	.LC14
 458 0288 14000000 		.word	.LC1
 459              		.cfi_endproc
 460              	.LFE65:
 461              		.size	main, .-main
 462              		.comm	buffer,32,4
 463              		.global	i
 464              		.global	flag
 465              		.global	address
 466              		.global	result
 467              		.global	datochu
 468              		.comm	datos_bme680,20,4
 469              		.global	error
 470              		.comm	sensor_bme680,88,4
 471              		.data
 472              		.type	address, %object
 473              		.size	address, 1
 474              	address:
 475 0000 76       		.byte	118
 476              		.section	.rodata.str1.4,"aMS",%progbits,1
 477              		.align	2
 478              	.LC0:
 479 0000 54656D70 		.ascii	"Temperatura:    \000"
 479      65726174 
 479      7572613A 
 479      20202020 
 479      00
 480 0011 000000   		.space	3
 481              	.LC1:
 482 0014 2E00     		.ascii	".\000"
 483 0016 0000     		.space	2
ARM GAS  C:\Users\adria\AppData\Local\Temp\cc9BMV37.s 			page 12


 484              	.LC2:
 485 0018 43202020 		.ascii	"C               \000"
 485      20202020 
 485      20202020 
 485      20202020 
 485      00
 486 0029 000000   		.space	3
 487              	.LC3:
 488 002c 48756D65 		.ascii	"Humedad:        \000"
 488      6461643A 
 488      20202020 
 488      20202020 
 488      00
 489 003d 000000   		.space	3
 490              	.LC4:
 491 0040 25202020 		.ascii	"%               \000"
 491      20202020 
 491      20202020 
 491      20202020 
 491      00
 492 0051 000000   		.space	3
 493              	.LC5:
 494 0054 50726573 		.ascii	"Presion atmos:  \000"
 494      696F6E20 
 494      61746D6F 
 494      733A2020 
 494      00
 495 0065 000000   		.space	3
 496              	.LC6:
 497 0068 68506120 		.ascii	"hPa             \000"
 497      20202020 
 497      20202020 
 497      20202020 
 497      00
 498 0079 000000   		.space	3
 499              	.LC7:
 500 007c 52657369 		.ascii	"Resistencia gas:\000"
 500      7374656E 
 500      63696120 
 500      6761733A 
 500      00
 501 008d 000000   		.space	3
 502              	.LC8:
 503 0090 204B6F68 		.ascii	" Kohm            \000"
 503      6D202020 
 503      20202020 
 503      20202020 
 503      2000
 504 00a2 0000     		.space	2
 505              	.LC9:
 506 00a4 54484552 		.ascii	"THERMOPAR          \000"
 506      4D4F5041 
 506      52202020 
 506      20202020 
 506      20202000 
 507              	.LC10:
 508 00b8 64656743 		.ascii	"degC               \000"
ARM GAS  C:\Users\adria\AppData\Local\Temp\cc9BMV37.s 			page 13


 508      20202020 
 508      20202020 
 508      20202020 
 508      20202000 
 509              	.LC11:
 510 00cc 464F434F 		.ascii	"FOCO\000"
 510      00
 511 00d1 000000   		.space	3
 512              	.LC12:
 513 00d4 504F5445 		.ascii	"POTENCIA FOCO:  \000"
 513      4E434941 
 513      20464F43 
 513      4F3A2020 
 513      00
 514 00e5 000000   		.space	3
 515              	.LC13:
 516 00e8 56454E54 		.ascii	"VENTILADOR\000"
 516      494C4144 
 516      4F5200
 517 00f3 00       		.space	1
 518              	.LC14:
 519 00f4 504F5445 		.ascii	"POTENCIA VENTILADOR:  \000"
 519      4E434941 
 519      2056454E 
 519      54494C41 
 519      444F523A 
 520              		.bss
 521              		.align	2
 522              		.set	.LANCHOR0,. + 0
 523              		.type	i, %object
 524              		.size	i, 4
 525              	i:
 526 0000 00000000 		.space	4
 527              		.type	flag, %object
 528              		.size	flag, 1
 529              	flag:
 530 0004 00       		.space	1
 531              		.type	error, %object
 532              		.size	error, 1
 533              	error:
 534 0005 00       		.space	1
 535              		.type	result, %object
 536              		.size	result, 1
 537              	result:
 538 0006 00       		.space	1
 539              		.type	datochu, %object
 540              		.size	datochu, 1
 541              	datochu:
 542 0007 00       		.space	1
 543              		.text
 544              	.Letext0:
 545              		.file 2 "c:\\program files (x86)\\cypress\\psoc creator\\4.4\\psoc creator\\import\\gnu\\arm\\5.4.
 546              		.file 3 "c:\\program files (x86)\\cypress\\psoc creator\\4.4\\psoc creator\\import\\gnu\\arm\\5.4.
 547              		.file 4 "D:\\mcu\\design-mpu\\source\\ejemplos\\BME680\\bme680_defs.h"
 548              		.file 5 "D:\\mcu\\design-mpu\\source\\ejemplos\\BME680\\bme680.h"
 549              		.file 6 "Generated_Source\\PSoC5/core_cm3.h"
 550              		.file 7 "Generated_Source\\PSoC5/isr.h"
ARM GAS  C:\Users\adria\AppData\Local\Temp\cc9BMV37.s 			page 14


 551              		.file 8 "Generated_Source\\PSoC5/UART.h"
 552              		.file 9 "Generated_Source\\PSoC5/UART_PC.h"
 553              		.file 10 "Generated_Source\\PSoC5/I2C.h"
 554              		.file 11 "Generated_Source\\PSoC5/SPIM.h"
 555              		.file 12 "..\\ESP_wifi_module.cydsn\\..\\..\\lcd_7seg\\Workspace01\\LCD.cydsn\\PSOC_LCD.h"
 556              		.file 13 "..\\ESP_wifi_module.cydsn\\espU1.h"
 557              		.file 14 "Generated_Source\\PSoC5/CyLib.h"
 558              		.file 15 "..\\MAX6675.cydsn\\max6675.h"
 559              		.file 16 "c:\\program files (x86)\\cypress\\psoc creator\\4.4\\psoc creator\\import\\gnu\\arm\\5.4