ARM GAS  C:\Users\adria\AppData\Local\Temp\ccnFiIhF.s 			page 1


   1              		.syntax unified
   2              		.cpu cortex-m3
   3              		.fpu softvfp
   4              		.eabi_attribute 20, 1
   5              		.eabi_attribute 21, 1
   6              		.eabi_attribute 23, 3
   7              		.eabi_attribute 24, 1
   8              		.eabi_attribute 25, 1
   9              		.eabi_attribute 26, 1
  10              		.eabi_attribute 30, 1
  11              		.eabi_attribute 34, 1
  12              		.eabi_attribute 18, 4
  13              		.thumb
  14              		.syntax unified
  15              		.file	"main.c"
  16              		.text
  17              	.Ltext0:
  18              		.cfi_sections	.debug_frame
  19              		.section	.text.main,"ax",%progbits
  20              		.align	2
  21              		.global	main
  22              		.thumb
  23              		.thumb_func
  24              		.type	main, %function
  25              	main:
  26              	.LFB64:
  27              		.file 1 "main.c"
   1:main.c        **** #include "project.h"
   2:main.c        **** #include "stdio.h"
   3:main.c        **** #include "..\..\..\psoc\lcd_7seg\Workspace01\LCD.cydsn\PSOC_LCD.h"//LCD
   4:main.c        **** #include "max6675.h"
   5:main.c        **** 
   6:main.c        **** int main(void)
   7:main.c        **** {
  28              		.loc 1 7 0
  29              		.cfi_startproc
  30              		@ args = 0, pretend = 0, frame = 16
  31              		@ frame_needed = 0, uses_anonymous_args = 0
  32 0000 30B5     		push	{r4, r5, lr}
  33              		.cfi_def_cfa_offset 12
  34              		.cfi_offset 4, -12
  35              		.cfi_offset 5, -8
  36              		.cfi_offset 14, -4
  37 0002 85B0     		sub	sp, sp, #20
  38              		.cfi_def_cfa_offset 32
   8:main.c        ****     CyGlobalIntEnable;
  39              		.loc 1 8 0
  40              		.syntax unified
  41              	@ 8 "main.c" 1
  42 0004 62B6     		CPSIE   i
  43              	@ 0 "" 2
   9:main.c        ****     UART_Start();
  44              		.loc 1 9 0
  45              		.thumb
  46              		.syntax unified
  47 0006 FFF7FEFF 		bl	UART_Start
  48              	.LVL0:
ARM GAS  C:\Users\adria\AppData\Local\Temp\ccnFiIhF.s 			page 2


  10:main.c        ****     UART_ClearTxBuffer();
  49              		.loc 1 10 0
  50 000a FFF7FEFF 		bl	UART_ClearTxBuffer
  51              	.LVL1:
  11:main.c        ****     LCD_Start();
  52              		.loc 1 11 0
  53 000e FFF7FEFF 		bl	LCD_Start
  54              	.LVL2:
  12:main.c        ****     SPIM_Start();
  55              		.loc 1 12 0
  56 0012 FFF7FEFF 		bl	SPIM_Start
  57              	.LVL3:
  58              	.L2:
  13:main.c        ****     
  14:main.c        ****     //Variables
  15:main.c        ****     uint16_t temp,error;//Variable alamacena la temperatura 
  16:main.c        ****     
  17:main.c        ****     char lec[16];//Buffer a mostrar en pantalla
  18:main.c        ****     
  19:main.c        ****     for(;;)
  20:main.c        ****     {
  21:main.c        ****         //SENSAMOS 
  22:main.c        ****         CyDelay(250);
  59              		.loc 1 22 0
  60 0016 FA20     		movs	r0, #250
  61 0018 FFF7FEFF 		bl	CyDelay
  62              	.LVL4:
  23:main.c        ****         error = MAX_INIT();
  63              		.loc 1 23 0
  64 001c FFF7FEFF 		bl	MAX_INIT
  65              	.LVL5:
  66 0020 0446     		mov	r4, r0
  67              	.LVL6:
  24:main.c        ****         temp = sens();
  68              		.loc 1 24 0
  69 0022 FFF7FEFF 		bl	sens
  70              	.LVL7:
  71 0026 0546     		mov	r5, r0
  72              	.LVL8:
  25:main.c        ****         
  26:main.c        ****         if (error == 0){
  73              		.loc 1 26 0
  74 0028 B4B9     		cbnz	r4, .L3
  27:main.c        ****             //Mostramos temp si no hay errror de comunicacion
  28:main.c        ****             LCD_Position(0,0);
  75              		.loc 1 28 0
  76 002a 0021     		movs	r1, #0
  77 002c 0846     		mov	r0, r1
  78 002e FFF7FEFF 		bl	LCD_Position
  79              	.LVL9:
  29:main.c        ****             LCD_PrintString("TEMPERATURA");
  80              		.loc 1 29 0
  81 0032 1448     		ldr	r0, .L6
  82 0034 FFF7FEFF 		bl	LCD_PrintString
  83              	.LVL10:
  30:main.c        ****             LCD_Position(1,0);
  84              		.loc 1 30 0
ARM GAS  C:\Users\adria\AppData\Local\Temp\ccnFiIhF.s 			page 3


  85 0038 0021     		movs	r1, #0
  86 003a 0120     		movs	r0, #1
  87 003c FFF7FEFF 		bl	LCD_Position
  88              	.LVL11:
  31:main.c        ****             LCD_PrintNumber(temp);
  89              		.loc 1 31 0
  90 0040 2846     		mov	r0, r5
  91 0042 FFF7FEFF 		bl	LCD_PrintNumber
  92              	.LVL12:
  32:main.c        ****             sprintf(lec,"%d\n\r",temp);
  93              		.loc 1 32 0
  94 0046 2A46     		mov	r2, r5
  95 0048 0F49     		ldr	r1, .L6+4
  96 004a 6846     		mov	r0, sp
  97 004c FFF7FEFF 		bl	sprintf
  98              	.LVL13:
  33:main.c        ****             UART_PutString(lec);
  99              		.loc 1 33 0
 100 0050 6846     		mov	r0, sp
 101 0052 FFF7FEFF 		bl	UART_PutString
 102              	.LVL14:
 103 0056 DEE7     		b	.L2
 104              	.L3:
  34:main.c        ****         }else{
  35:main.c        ****             //MOSTRAMOS ERROR 
  36:main.c        ****             LCD_ClearDisplay();
 105              		.loc 1 36 0
 106 0058 FFF7FEFF 		bl	LCD_ClearDisplay
 107              	.LVL15:
  37:main.c        ****             LCD_Position(0,0);
 108              		.loc 1 37 0
 109 005c 0021     		movs	r1, #0
 110 005e 0846     		mov	r0, r1
 111 0060 FFF7FEFF 		bl	LCD_Position
 112              	.LVL16:
  38:main.c        ****             LCD_PrintString("ERRORES:");
 113              		.loc 1 38 0
 114 0064 0948     		ldr	r0, .L6+8
 115 0066 FFF7FEFF 		bl	LCD_PrintString
 116              	.LVL17:
  39:main.c        ****             LCD_Position(1,0);
 117              		.loc 1 39 0
 118 006a 0021     		movs	r1, #0
 119 006c 0120     		movs	r0, #1
 120 006e FFF7FEFF 		bl	LCD_Position
 121              	.LVL18:
  40:main.c        ****             LCD_PrintHex8(error);
 122              		.loc 1 40 0
 123 0072 2046     		mov	r0, r4
 124 0074 FFF7FEFF 		bl	LCD_PrintHex8
 125              	.LVL19:
  41:main.c        ****             CyDelay(3000);
 126              		.loc 1 41 0
 127 0078 40F6B830 		movw	r0, #3000
 128 007c FFF7FEFF 		bl	CyDelay
 129              	.LVL20:
 130 0080 C9E7     		b	.L2
ARM GAS  C:\Users\adria\AppData\Local\Temp\ccnFiIhF.s 			page 4


 131              	.L7:
 132 0082 00BF     		.align	2
 133              	.L6:
 134 0084 00000000 		.word	.LC0
 135 0088 0C000000 		.word	.LC1
 136 008c 14000000 		.word	.LC2
 137              		.cfi_endproc
 138              	.LFE64:
 139              		.size	main, .-main
 140              		.section	.rodata.str1.4,"aMS",%progbits,1
 141              		.align	2
 142              	.LC0:
 143 0000 54454D50 		.ascii	"TEMPERATURA\000"
 143      45524154 
 143      55524100 
 144              	.LC1:
 145 000c 25640A0D 		.ascii	"%d\012\015\000"
 145      00
 146 0011 000000   		.space	3
 147              	.LC2:
 148 0014 4552524F 		.ascii	"ERRORES:\000"
 148      5245533A 
 148      00
 149              		.text
 150              	.Letext0:
 151              		.file 2 "c:\\program files (x86)\\cypress\\psoc creator\\4.4\\psoc creator\\import\\gnu\\arm\\5.4.
 152              		.file 3 "c:\\program files (x86)\\cypress\\psoc creator\\4.4\\psoc creator\\import\\gnu\\arm\\5.4.
 153              		.file 4 "Generated_Source\\PSoC5/UART.h"
 154              		.file 5 "..\\..\\..\\psoc\\lcd_7seg\\Workspace01\\LCD.cydsn\\PSOC_LCD.h"
 155              		.file 6 "Generated_Source\\PSoC5/SPIM.h"
 156              		.file 7 "Generated_Source\\PSoC5/CyLib.h"
 157              		.file 8 "max6675.h"
 158              		.file 9 "c:\\program files (x86)\\cypress\\psoc creator\\4.4\\psoc creator\\import\\gnu\\arm\\5.4.
 159              		.file 10 "Generated_Source\\PSoC5/core_cm3.h"