ARM GAS  C:\Users\adria\AppData\Local\Temp\ccJsQjop.s 			page 1


   1              		.syntax unified
   2              		.cpu cortex-m3
   3              		.fpu softvfp
   4              		.eabi_attribute 20, 1
   5              		.eabi_attribute 21, 1
   6              		.eabi_attribute 23, 3
   7              		.eabi_attribute 24, 1
   8              		.eabi_attribute 25, 1
   9              		.eabi_attribute 26, 1
  10              		.eabi_attribute 30, 1
  11              		.eabi_attribute 34, 1
  12              		.eabi_attribute 18, 4
  13              		.thumb
  14              		.syntax unified
  15              		.file	"MAX6675_.c"
  16              		.text
  17              	.Ltext0:
  18              		.cfi_sections	.debug_frame
  19              		.global	__aeabi_i2d
  20              		.global	__aeabi_dmul
  21              		.global	__aeabi_d2uiz
  22              		.global	__aeabi_i2f
  23              		.global	__aeabi_d2f
  24              		.global	__aeabi_fadd
  25              		.section	.text.SENS_max6675,"ax",%progbits
  26              		.align	2
  27              		.global	SENS_max6675
  28              		.thumb
  29              		.thumb_func
  30              		.type	SENS_max6675, %function
  31              	SENS_max6675:
  32              	.LFB63:
  33              		.file 1 "MAX6675_.c"
   1:MAX6675_.c    **** #include "MAX6675_.h"
   2:MAX6675_.c    **** 
   3:MAX6675_.c    **** void SENS_max6675(struct max6675* sensor){
  34              		.loc 1 3 0
  35              		.cfi_startproc
  36              		@ args = 0, pretend = 0, frame = 0
  37              		@ frame_needed = 0, uses_anonymous_args = 0
  38              	.LVL0:
  39 0000 70B5     		push	{r4, r5, r6, lr}
  40              		.cfi_def_cfa_offset 16
  41              		.cfi_offset 4, -16
  42              		.cfi_offset 5, -12
  43              		.cfi_offset 6, -8
  44              		.cfi_offset 14, -4
  45 0002 0646     		mov	r6, r0
   4:MAX6675_.c    **** 
   5:MAX6675_.c    ****     //LEEMOS LA PALABRA DIRECTAMENTE
   6:MAX6675_.c    ****     //Por comunicacion ISP
   7:MAX6675_.c    ****     SPIM_WriteTxData(0x0000);
  46              		.loc 1 7 0
  47 0004 0020     		movs	r0, #0
  48              	.LVL1:
  49 0006 FFF7FEFF 		bl	SPIM_WriteTxData
  50              	.LVL2:
ARM GAS  C:\Users\adria\AppData\Local\Temp\ccJsQjop.s 			page 2


   8:MAX6675_.c    ****     sensor->data.palabra  = SPIM_ReadRxData();
  51              		.loc 1 8 0
  52 000a FFF7FEFF 		bl	SPIM_ReadRxData
  53              	.LVL3:
  54 000e 3080     		strh	r0, [r6]	@ movhi
   9:MAX6675_.c    ****     
  10:MAX6675_.c    ****     
  11:MAX6675_.c    ****     //Tomamos la secciones de bits de verificacion
  12:MAX6675_.c    ****     sensor->data.errores = 0;
  55              		.loc 1 12 0
  56 0010 0023     		movs	r3, #0
  57 0012 B370     		strb	r3, [r6, #2]
  13:MAX6675_.c    ****     if((sensor->data.palabra & DUMMY >> 15) != 0){ //dummy=0
  58              		.loc 1 13 0
  59 0014 10F00103 		ands	r3, r0, #1
  60 0018 01D0     		beq	.L2
  14:MAX6675_.c    ****         sensor->data.errores |= 0x01;
  61              		.loc 1 14 0
  62 001a 0122     		movs	r2, #1
  63 001c B270     		strb	r2, [r6, #2]
  64              	.L2:
  15:MAX6675_.c    ****     };
  16:MAX6675_.c    ****     
  17:MAX6675_.c    ****     if((sensor->data.palabra & Th_input >> 2) != 0){
  65              		.loc 1 17 0
  66 001e 1BB1     		cbz	r3, .L3
  18:MAX6675_.c    ****         sensor->data.errores |= 0x02;
  67              		.loc 1 18 0
  68 0020 B278     		ldrb	r2, [r6, #2]	@ zero_extendqisi2
  69 0022 42F00202 		orr	r2, r2, #2
  70 0026 B270     		strb	r2, [r6, #2]
  71              	.L3:
  19:MAX6675_.c    ****     };
  20:MAX6675_.c    ****     
  21:MAX6675_.c    ****     if((sensor->data.palabra & ID >> 1) != 0){
  72              		.loc 1 21 0
  73 0028 1BB1     		cbz	r3, .L4
  22:MAX6675_.c    ****         sensor->data.errores |= 0x04;
  74              		.loc 1 22 0
  75 002a B378     		ldrb	r3, [r6, #2]	@ zero_extendqisi2
  76 002c 43F00403 		orr	r3, r3, #4
  77 0030 B370     		strb	r3, [r6, #2]
  78              	.L4:
  23:MAX6675_.c    ****     };
  24:MAX6675_.c    ****     
  25:MAX6675_.c    ****     
  26:MAX6675_.c    ****     //Si no hay errores, sensamos la temperatura
  27:MAX6675_.c    ****     if(sensor->data.errores > 0){
  79              		.loc 1 27 0
  80 0032 B378     		ldrb	r3, [r6, #2]	@ zero_extendqisi2
  81 0034 13B1     		cbz	r3, .L5
  28:MAX6675_.c    ****         sensor->data.temperatura = 0;
  82              		.loc 1 28 0
  83 0036 0023     		movs	r3, #0
  84 0038 B380     		strh	r3, [r6, #4]	@ movhi
  85 003a 70BD     		pop	{r4, r5, r6, pc}
  86              	.LVL4:
ARM GAS  C:\Users\adria\AppData\Local\Temp\ccJsQjop.s 			page 3


  87              	.L5:
  29:MAX6675_.c    ****     }else{
  30:MAX6675_.c    ****         //Tomamos la seccion de la temperatura
  31:MAX6675_.c    ****         
  32:MAX6675_.c    ****         sensor->data.temperatura = (sensor->data.palabra>>3)*0.25;
  88              		.loc 1 32 0
  89 003c C508     		lsrs	r5, r0, #3
  90 003e 2846     		mov	r0, r5
  91 0040 FFF7FEFF 		bl	__aeabi_i2d
  92              	.LVL5:
  93 0044 0022     		movs	r2, #0
  94 0046 164B     		ldr	r3, .L8+8
  95 0048 FFF7FEFF 		bl	__aeabi_dmul
  96              	.LVL6:
  97 004c FFF7FEFF 		bl	__aeabi_d2uiz
  98              	.LVL7:
  99 0050 80B2     		uxth	r0, r0
  33:MAX6675_.c    ****         sensor->data.temperatura <<=7;//parte entera
 100              		.loc 1 33 0
 101 0052 C401     		lsls	r4, r0, #7
 102 0054 A4B2     		uxth	r4, r4
  34:MAX6675_.c    ****         
  35:MAX6675_.c    ****         sensor->data.temperatura |= (((sensor->data.palabra>>3)-(sensor->data.palabra>>3)/4)*25);//
 103              		.loc 1 35 0
 104 0056 A5EB9505 		sub	r5, r5, r5, lsr #2
 105 005a 05EB8505 		add	r5, r5, r5, lsl #2
 106 005e 05EB8505 		add	r5, r5, r5, lsl #2
 107 0062 2C43     		orrs	r4, r4, r5
 108 0064 A4B2     		uxth	r4, r4
 109 0066 B480     		strh	r4, [r6, #4]	@ movhi
  36:MAX6675_.c    ****         
  37:MAX6675_.c    ****         sensor->data.temperatura_decimal = (float)(sensor->data.temperatura>>7) + (float)((sensor->
 110              		.loc 1 37 0
 111 0068 E009     		lsrs	r0, r4, #7
 112 006a FFF7FEFF 		bl	__aeabi_i2f
 113              	.LVL8:
 114 006e 0546     		mov	r5, r0
 115 0070 04F07F00 		and	r0, r4, #127
 116 0074 FFF7FEFF 		bl	__aeabi_i2d
 117              	.LVL9:
 118 0078 07A3     		adr	r3, .L8
 119 007a D3E90023 		ldrd	r2, [r3]
 120 007e FFF7FEFF 		bl	__aeabi_dmul
 121              	.LVL10:
 122 0082 FFF7FEFF 		bl	__aeabi_d2f
 123              	.LVL11:
 124 0086 0146     		mov	r1, r0
 125 0088 2846     		mov	r0, r5
 126 008a FFF7FEFF 		bl	__aeabi_fadd
 127              	.LVL12:
 128 008e B060     		str	r0, [r6, #8]	@ float
 129 0090 70BD     		pop	{r4, r5, r6, pc}
 130              	.LVL13:
 131              	.L9:
 132 0092 00BFAFF3 		.align	3
 132      0080
 133              	.L8:
ARM GAS  C:\Users\adria\AppData\Local\Temp\ccJsQjop.s 			page 4


 134 0098 7B14AE47 		.word	1202590843
 135 009c E17A843F 		.word	1065646817
 136 00a0 0000D03F 		.word	1070596096
 137              		.cfi_endproc
 138              	.LFE63:
 139              		.size	SENS_max6675, .-SENS_max6675
 140              		.text
 141              	.Letext0:
 142              		.file 2 "c:\\program files (x86)\\cypress\\psoc creator\\4.4\\psoc creator\\import\\gnu\\arm\\5.4.
 143              		.file 3 "c:\\program files (x86)\\cypress\\psoc creator\\4.4\\psoc creator\\import\\gnu\\arm\\5.4.
 144              		.file 4 "MAX6675_.h"
 145              		.file 5 "Generated_Source\\PSoC5/SPIM.h"
 146              		.file 6 "Generated_Source\\PSoC5/core_cm3.h"