ARM GAS  C:\Users\adria\AppData\Local\Temp\ccy5KznT.s 			page 1


   1              		.syntax unified
   2              		.cpu cortex-m3
   3              		.fpu softvfp
   4              		.eabi_attribute 20, 1
   5              		.eabi_attribute 21, 1
   6              		.eabi_attribute 23, 3
   7              		.eabi_attribute 24, 1
   8              		.eabi_attribute 25, 1
   9              		.eabi_attribute 26, 1
  10              		.eabi_attribute 30, 1
  11              		.eabi_attribute 34, 1
  12              		.eabi_attribute 18, 4
  13              		.thumb
  14              		.syntax unified
  15              		.file	"max6675.c"
  16              		.text
  17              	.Ltext0:
  18              		.cfi_sections	.debug_frame
  19              		.section	.text.MAX_INIT,"ax",%progbits
  20              		.align	2
  21              		.global	MAX_INIT
  22              		.thumb
  23              		.thumb_func
  24              		.type	MAX_INIT, %function
  25              	MAX_INIT:
  26              	.LFB63:
  27              		.file 1 "max6675.c"
   1:max6675.c     **** #include "max6675.h"
   2:max6675.c     **** #include "D:\GITHUB\Librerias_PSOC\Libreria_PSOC\LIB_psoc.h"
   3:max6675.c     **** 
   4:max6675.c     **** //oPTINE LOS BIST DE TEST
   5:max6675.c     **** uint8_t MAX_INIT(void){
  28              		.loc 1 5 0
  29              		.cfi_startproc
  30              		@ args = 0, pretend = 0, frame = 0
  31              		@ frame_needed = 0, uses_anonymous_args = 0
  32 0000 08B5     		push	{r3, lr}
  33              		.cfi_def_cfa_offset 8
  34              		.cfi_offset 3, -8
  35              		.cfi_offset 14, -4
  36              	.LVL0:
   6:max6675.c     ****     char ERROR=OK;// Si cero al final todo está bien
   7:max6675.c     ****     uint16_t bit[3] = {0x0000,0x0000,0x0000},word=0x0000;//Lectura recuperada del sensor
   8:max6675.c     ****     //Variable temporal de lectura
   9:max6675.c     ****     
  10:max6675.c     ****     //Por comunicacion ISP
  11:max6675.c     ****     SPIM_WriteTxData(0x0000);
  37              		.loc 1 11 0
  38 0002 0020     		movs	r0, #0
  39 0004 FFF7FEFF 		bl	SPIM_WriteTxData
  40              	.LVL1:
  12:max6675.c     ****     word = SPIM_ReadRxData();
  41              		.loc 1 12 0
  42 0008 FFF7FEFF 		bl	SPIM_ReadRxData
  43              	.LVL2:
  13:max6675.c     ****     
  14:max6675.c     ****     //Separamos los bits Dummy,Th_input,ID
ARM GAS  C:\Users\adria\AppData\Local\Temp\ccy5KznT.s 			page 2


  15:max6675.c     ****     bit[0] = (word & DUMMY) >> 14;
  44              		.loc 1 15 0
  45 000c 8313     		asrs	r3, r0, #14
  46 000e 03F00203 		and	r3, r3, #2
  47 0012 9BB2     		uxth	r3, r3
  16:max6675.c     ****     bit[1] = (word & Th_input) >> 2;
  48              		.loc 1 16 0
  49 0014 C0F38001 		ubfx	r1, r0, #2, #1
  17:max6675.c     ****     bit[2] = (word & ID) >> 1;
  50              		.loc 1 17 0
  51 0018 C0F34002 		ubfx	r2, r0, #1, #1
  18:max6675.c     ****     
  19:max6675.c     ****     //EVALUAMOS
  20:max6675.c     ****     if(bit[0] == 0){//Error en el Dummy signed??
  52              		.loc 1 20 0
  53 001c 03B1     		cbz	r3, .L2
  21:max6675.c     ****         ERROR = OK;
  22:max6675.c     ****     }else{
  23:max6675.c     ****         ERROR |= dummy;
  54              		.loc 1 23 0
  55 001e 0123     		movs	r3, #1
  56              	.L2:
  57              	.LVL3:
  24:max6675.c     ****     }
  25:max6675.c     ****     
  26:max6675.c     ****     if(bit[1] == 0){//Hay o no cupla conectada?
  58              		.loc 1 26 0
  59 0020 19B1     		cbz	r1, .L6
  27:max6675.c     ****         ERROR = OK;
  28:max6675.c     ****     }else{
  29:max6675.c     ****         ERROR |= Cupla;
  60              		.loc 1 29 0
  61 0022 43F00200 		orr	r0, r3, #2
  62              	.LVL4:
  63 0026 C0B2     		uxtb	r0, r0
  64              	.LVL5:
  65 0028 00E0     		b	.L3
  66              	.LVL6:
  67              	.L6:
  27:max6675.c     ****         ERROR = OK;
  68              		.loc 1 27 0
  69 002a 0020     		movs	r0, #0
  70              	.LVL7:
  71              	.L3:
  30:max6675.c     ****     }
  31:max6675.c     ****     
  32:max6675.c     ****     if(bit[2] == 0){//Id correcto?
  72              		.loc 1 32 0
  73 002c 12B1     		cbz	r2, .L7
  33:max6675.c     ****         ERROR = OK;
  34:max6675.c     ****     }else{
  35:max6675.c     ****         ERROR |= id;
  74              		.loc 1 35 0
  75 002e 40F00400 		orr	r0, r0, #4
  76              	.LVL8:
  77 0032 08BD     		pop	{r3, pc}
  78              	.L7:
ARM GAS  C:\Users\adria\AppData\Local\Temp\ccy5KznT.s 			page 3


  33:max6675.c     ****         ERROR = OK;
  79              		.loc 1 33 0
  80 0034 0020     		movs	r0, #0
  81              	.LVL9:
  36:max6675.c     ****     }
  37:max6675.c     ****     
  38:max6675.c     ****     return ERROR;
  39:max6675.c     **** }
  82              		.loc 1 39 0
  83 0036 08BD     		pop	{r3, pc}
  84              		.cfi_endproc
  85              	.LFE63:
  86              		.size	MAX_INIT, .-MAX_INIT
  87              		.section	.text.sens,"ax",%progbits
  88              		.align	2
  89              		.global	sens
  90              		.thumb
  91              		.thumb_func
  92              		.type	sens, %function
  93              	sens:
  94              	.LFB64:
  40:max6675.c     **** 
  41:max6675.c     **** //Captura de temperatura
  42:max6675.c     **** uint16_t sens(void){
  95              		.loc 1 42 0
  96              		.cfi_startproc
  97              		@ args = 0, pretend = 0, frame = 0
  98              		@ frame_needed = 0, uses_anonymous_args = 0
  99 0000 00B5     		push	{lr}
 100              		.cfi_def_cfa_offset 4
 101              		.cfi_offset 14, -4
 102 0002 83B0     		sub	sp, sp, #12
 103              		.cfi_def_cfa_offset 16
 104              	.LVL10:
  43:max6675.c     ****     uint16_t temp=0x0000,word=0x0000;//Lectura recuperada del sensor
  44:max6675.c     ****     //Variable temporal de lectura
  45:max6675.c     **** 
  46:max6675.c     ****     //Por comunicacion ISP
  47:max6675.c     ****     SPIM_WriteTxData(0x0000);
 105              		.loc 1 47 0
 106 0004 0020     		movs	r0, #0
 107 0006 FFF7FEFF 		bl	SPIM_WriteTxData
 108              	.LVL11:
  48:max6675.c     ****     word = SPIM_ReadRxData();
 109              		.loc 1 48 0
 110 000a FFF7FEFF 		bl	SPIM_ReadRxData
 111              	.LVL12:
  49:max6675.c     ****     
  50:max6675.c     ****     //Separamos los bits BIT14--BIT3
  51:max6675.c     ****     temp = word >> 3;
  52:max6675.c     ****     temp = map(temp,0,4095,0,1023);
 112              		.loc 1 52 0
 113 000e 40F2FF33 		movw	r3, #1023
 114 0012 0093     		str	r3, [sp]
 115 0014 0023     		movs	r3, #0
 116 0016 40F6FF72 		movw	r2, #4095
 117 001a 1946     		mov	r1, r3
ARM GAS  C:\Users\adria\AppData\Local\Temp\ccy5KznT.s 			page 4


 118 001c C0F3CF00 		ubfx	r0, r0, #3, #16
 119              	.LVL13:
 120 0020 FFF7FEFF 		bl	map
 121              	.LVL14:
  53:max6675.c     ****         
  54:max6675.c     ****     return temp;
  55:max6675.c     **** }
 122              		.loc 1 55 0
 123 0024 80B2     		uxth	r0, r0
 124 0026 03B0     		add	sp, sp, #12
 125              		.cfi_def_cfa_offset 4
 126              		@ sp needed
 127 0028 5DF804FB 		ldr	pc, [sp], #4
 128              		.cfi_endproc
 129              	.LFE64:
 130              		.size	sens, .-sens
 131              		.section	.text.raw,"ax",%progbits
 132              		.align	2
 133              		.global	raw
 134              		.thumb
 135              		.thumb_func
 136              		.type	raw, %function
 137              	raw:
 138              	.LFB65:
  56:max6675.c     **** 
  57:max6675.c     **** //Optine la palabra del sensor en raw
  58:max6675.c     **** uint16_t raw(void){
 139              		.loc 1 58 0
 140              		.cfi_startproc
 141              		@ args = 0, pretend = 0, frame = 0
 142              		@ frame_needed = 0, uses_anonymous_args = 0
 143 0000 08B5     		push	{r3, lr}
 144              		.cfi_def_cfa_offset 8
 145              		.cfi_offset 3, -8
 146              		.cfi_offset 14, -4
  59:max6675.c     ****     uint16_t word;//Lectura recuperada del sensor
  60:max6675.c     ****     
  61:max6675.c     ****     //Por comunicacion ISP
  62:max6675.c     ****     SPIM_WriteTxData(0x0000);
 147              		.loc 1 62 0
 148 0002 0020     		movs	r0, #0
 149 0004 FFF7FEFF 		bl	SPIM_WriteTxData
 150              	.LVL15:
  63:max6675.c     ****     word = SPIM_ReadRxData();
 151              		.loc 1 63 0
 152 0008 FFF7FEFF 		bl	SPIM_ReadRxData
 153              	.LVL16:
  64:max6675.c     ****     
  65:max6675.c     ****     return word;
  66:max6675.c     **** }
 154              		.loc 1 66 0
 155 000c 08BD     		pop	{r3, pc}
 156              		.cfi_endproc
 157              	.LFE65:
 158              		.size	raw, .-raw
 159 000e 00BF     		.text
 160              	.Letext0:
ARM GAS  C:\Users\adria\AppData\Local\Temp\ccy5KznT.s 			page 5


 161              		.file 2 "c:\\program files (x86)\\cypress\\psoc creator\\4.4\\psoc creator\\import\\gnu\\arm\\5.4.
 162              		.file 3 "c:\\program files (x86)\\cypress\\psoc creator\\4.4\\psoc creator\\import\\gnu\\arm\\5.4.
 163              		.file 4 "Generated_Source\\PSoC5/SPIM.h"
 164              		.file 5 "Generated_Source\\PSoC5/core_cm3.h"
 165              		.file 6 "D:\\GITHUB\\Librerias_PSOC\\Libreria_PSOC\\LIB_psoc.h"