ARM GAS  C:\Users\adria\AppData\Local\Temp\ccLPx42Z.s 			page 1


   1              		.syntax unified
   2              		.cpu cortex-m3
   3              		.fpu softvfp
   4              		.eabi_attribute 20, 1
   5              		.eabi_attribute 21, 1
   6              		.eabi_attribute 23, 3
   7              		.eabi_attribute 24, 1
   8              		.eabi_attribute 25, 1
   9              		.eabi_attribute 26, 1
  10              		.eabi_attribute 30, 1
  11              		.eabi_attribute 34, 1
  12              		.eabi_attribute 18, 4
  13              		.thumb
  14              		.syntax unified
  15              		.file	"AS5048B.c"
  16              		.text
  17              	.Ltext0:
  18              		.cfi_sections	.debug_frame
  19              		.section	.text.user_i2c_read,"ax",%progbits
  20              		.align	2
  21              		.thumb
  22              		.thumb_func
  23              		.type	user_i2c_read, %function
  24              	user_i2c_read:
  25              	.LFB63:
  26              		.file 1 "AS5048B.c"
   1:AS5048B.c     **** #include "AS5048B.h"
   2:AS5048B.c     **** 
   3:AS5048B.c     **** //Funciones de protocolo I2C
   4:AS5048B.c     **** static int8_t user_i2c_read(uint8_t dev_id, uint8_t reg_addr, uint8_t *reg_data, uint16_t len){
  27              		.loc 1 4 0
  28              		.cfi_startproc
  29              		@ args = 0, pretend = 0, frame = 0
  30              		@ frame_needed = 0, uses_anonymous_args = 0
  31              	.LVL0:
  32 0000 F8B5     		push	{r3, r4, r5, r6, r7, lr}
  33              		.cfi_def_cfa_offset 24
  34              		.cfi_offset 3, -24
  35              		.cfi_offset 4, -20
  36              		.cfi_offset 5, -16
  37              		.cfi_offset 6, -12
  38              		.cfi_offset 7, -8
  39              		.cfi_offset 14, -4
  40 0002 0446     		mov	r4, r0
  41 0004 0F46     		mov	r7, r1
  42 0006 1546     		mov	r5, r2
  43 0008 1E46     		mov	r6, r3
  44              	.LVL1:
   5:AS5048B.c     **** 
   6:AS5048B.c     ****     int8_t rslt = 0; /* Return 0 for Success, non-zero for failure */
   7:AS5048B.c     ****     uint16_t i = 0;
   8:AS5048B.c     **** 
   9:AS5048B.c     ****     /*
  10:AS5048B.c     ****      * The parameter dev_id can be used as a variable to store the I2C address of the device
  11:AS5048B.c     ****      */
  12:AS5048B.c     **** 
  13:AS5048B.c     ****     /*
ARM GAS  C:\Users\adria\AppData\Local\Temp\ccLPx42Z.s 			page 2


  14:AS5048B.c     ****      * Data on the bus should be like
  15:AS5048B.c     ****      * |------------+---------------------|
  16:AS5048B.c     ****      * | I2C action | Data                |
  17:AS5048B.c     ****      * |------------+---------------------|
  18:AS5048B.c     ****      * | Start      | -                   |
  19:AS5048B.c     ****      * | Write      | (reg_addr)          |
  20:AS5048B.c     ****      * | Stop       | -                   |
  21:AS5048B.c     ****      * | Start      | -                   |
  22:AS5048B.c     ****      * | Read       | (reg_data[0])       |
  23:AS5048B.c     ****      * | Read       | (....)              |
  24:AS5048B.c     ****      * | Read       | (reg_data[len - 1]) |
  25:AS5048B.c     ****      * | Stop       | -                   |
  26:AS5048B.c     ****      * |------------+---------------------|
  27:AS5048B.c     ****      */
  28:AS5048B.c     **** 
  29:AS5048B.c     ****     //psoc5
  30:AS5048B.c     ****     rslt = I2C_MasterSendStart(dev_id,I2C_WRITE_XFER_MODE);//mANDA COMANDO
  45              		.loc 1 30 0
  46 000a 0021     		movs	r1, #0
  47              	.LVL2:
  48 000c FFF7FEFF 		bl	I2C_MasterSendStart
  49              	.LVL3:
  31:AS5048B.c     ****     rslt = I2C_MasterWriteByte(reg_addr);//Envia registro
  50              		.loc 1 31 0
  51 0010 3846     		mov	r0, r7
  52 0012 FFF7FEFF 		bl	I2C_MasterWriteByte
  53              	.LVL4:
  32:AS5048B.c     ****     rslt = I2C_MasterSendRestart(dev_id,I2C_READ_XFER_MODE);//Paro para Leer datos
  54              		.loc 1 32 0
  55 0016 0121     		movs	r1, #1
  56 0018 2046     		mov	r0, r4
  57 001a FFF7FEFF 		bl	I2C_MasterSendRestart
  58              	.LVL5:
   7:AS5048B.c     **** 
  59              		.loc 1 7 0
  60 001e 0024     		movs	r4, #0
  33:AS5048B.c     ****     
  34:AS5048B.c     ****     while(i < (len - 1)) {
  61              		.loc 1 34 0
  62 0020 05E0     		b	.L2
  63              	.LVL6:
  64              	.L3:
  35:AS5048B.c     ****       
  36:AS5048B.c     ****         reg_data[i] = I2C_MasterReadByte(I2C_ACK_DATA);//ack
  65              		.loc 1 36 0
  66 0022 0120     		movs	r0, #1
  67 0024 FFF7FEFF 		bl	I2C_MasterReadByte
  68              	.LVL7:
  69 0028 2855     		strb	r0, [r5, r4]
  37:AS5048B.c     ****         i++;
  70              		.loc 1 37 0
  71 002a 0134     		adds	r4, r4, #1
  72              	.LVL8:
  73 002c A4B2     		uxth	r4, r4
  74              	.LVL9:
  75              	.L2:
  34:AS5048B.c     ****       
ARM GAS  C:\Users\adria\AppData\Local\Temp\ccLPx42Z.s 			page 3


  76              		.loc 1 34 0
  77 002e 731E     		subs	r3, r6, #1
  78 0030 9C42     		cmp	r4, r3
  79 0032 F6DB     		blt	.L3
  38:AS5048B.c     ****      
  39:AS5048B.c     ****     }
  40:AS5048B.c     ****     
  41:AS5048B.c     ****     reg_data[i] = I2C_MasterReadByte(I2C_NAK_DATA);//nak
  80              		.loc 1 41 0
  81 0034 0020     		movs	r0, #0
  82 0036 FFF7FEFF 		bl	I2C_MasterReadByte
  83              	.LVL10:
  84 003a 2855     		strb	r0, [r5, r4]
  42:AS5048B.c     ****     rslt = I2C_MasterSendStop();
  85              		.loc 1 42 0
  86 003c FFF7FEFF 		bl	I2C_MasterSendStop
  87              	.LVL11:
  43:AS5048B.c     ****     
  44:AS5048B.c     ****     return rslt;
  45:AS5048B.c     **** }
  88              		.loc 1 45 0
  89 0040 40B2     		sxtb	r0, r0
  90 0042 F8BD     		pop	{r3, r4, r5, r6, r7, pc}
  91              		.cfi_endproc
  92              	.LFE63:
  93              		.size	user_i2c_read, .-user_i2c_read
  94              		.section	.text.AS5048B_REGISTROS,"ax",%progbits
  95              		.align	2
  96              		.global	AS5048B_REGISTROS
  97              		.thumb
  98              		.thumb_func
  99              		.type	AS5048B_REGISTROS, %function
 100              	AS5048B_REGISTROS:
 101              	.LFB65:
  46:AS5048B.c     **** 
  47:AS5048B.c     **** static int8_t user_i2c_write(uint8_t dev_id, uint8_t reg_addr, uint8_t *reg_data, uint16_t len)
  48:AS5048B.c     **** {
  49:AS5048B.c     ****     int8_t rslt = 0; /* Return 0 for Success, non-zero for failure */
  50:AS5048B.c     ****     uint16_t i = 0;
  51:AS5048B.c     **** 
  52:AS5048B.c     ****     /*
  53:AS5048B.c     ****      * The parameter dev_id can be used as a variable to store the I2C address of the device
  54:AS5048B.c     ****      */
  55:AS5048B.c     **** 
  56:AS5048B.c     ****     /*
  57:AS5048B.c     ****      * Data on the bus should be like
  58:AS5048B.c     ****      * |------------+---------------------|
  59:AS5048B.c     ****      * | I2C action | Data                |
  60:AS5048B.c     ****      * |------------+---------------------|
  61:AS5048B.c     ****      * | Start      | -                   |
  62:AS5048B.c     ****      * | Write      | (reg_addr)          |
  63:AS5048B.c     ****      * | Write      | (reg_data[0])       |
  64:AS5048B.c     ****      * | Write      | (....)              |
  65:AS5048B.c     ****      * | Write      | (reg_data[len - 1]) |
  66:AS5048B.c     ****      * | Stop       | -                   |
  67:AS5048B.c     ****      * |------------+---------------------|
  68:AS5048B.c     ****      */
ARM GAS  C:\Users\adria\AppData\Local\Temp\ccLPx42Z.s 			page 4


  69:AS5048B.c     ****     
  70:AS5048B.c     ****     rslt = I2C_MasterSendStart(dev_id, I2C_WRITE_XFER_MODE);//rw =0  Escribimos comando
  71:AS5048B.c     ****     rslt = I2C_MasterWriteByte(reg_addr);//Mandamos dirección de registo para escribir en el
  72:AS5048B.c     ****     
  73:AS5048B.c     ****     while(i < len) {
  74:AS5048B.c     ****         
  75:AS5048B.c     ****         rslt = I2C_MasterWriteByte(*reg_data);
  76:AS5048B.c     ****         i++;
  77:AS5048B.c     ****         reg_data++;
  78:AS5048B.c     ****         
  79:AS5048B.c     ****     }
  80:AS5048B.c     ****     
  81:AS5048B.c     ****     rslt = I2C_MasterSendStop();
  82:AS5048B.c     ****     
  83:AS5048B.c     ****     return rslt;
  84:AS5048B.c     **** }
  85:AS5048B.c     **** 
  86:AS5048B.c     **** 
  87:AS5048B.c     **** void AS5048B_REGISTROS(struct AS5048B *registros){
 102              		.loc 1 87 0
 103              		.cfi_startproc
 104              		@ args = 0, pretend = 0, frame = 16
 105              		@ frame_needed = 0, uses_anonymous_args = 0
 106              	.LVL12:
 107 0000 10B5     		push	{r4, lr}
 108              		.cfi_def_cfa_offset 8
 109              		.cfi_offset 4, -8
 110              		.cfi_offset 14, -4
 111 0002 84B0     		sub	sp, sp, #16
 112              		.cfi_def_cfa_offset 24
 113 0004 0446     		mov	r4, r0
  88:AS5048B.c     ****     
  89:AS5048B.c     ****     uint8_t reg_data[10];
  90:AS5048B.c     ****     
  91:AS5048B.c     ****     user_i2c_read(Address_FISICO,Pro_control,reg_data,0);//Programming control
 114              		.loc 1 91 0
 115 0006 0023     		movs	r3, #0
 116 0008 01AA     		add	r2, sp, #4
 117 000a 0321     		movs	r1, #3
 118 000c 4120     		movs	r0, #65
 119              	.LVL13:
 120 000e FFF7FEFF 		bl	user_i2c_read
 121              	.LVL14:
  92:AS5048B.c     ****     user_i2c_read(Address_FISICO,Address,reg_data+1,2);//Registros 0x15 al 0x17  
 122              		.loc 1 92 0
 123 0012 0223     		movs	r3, #2
 124 0014 0DF10502 		add	r2, sp, #5
 125 0018 1521     		movs	r1, #21
 126 001a 4120     		movs	r0, #65
 127 001c FFF7FEFF 		bl	user_i2c_read
 128              	.LVL15:
  93:AS5048B.c     ****     user_i2c_read(Address_FISICO,Gain_control,reg_data+4,5);//Registros 0xFA al 0xFF 
 129              		.loc 1 93 0
 130 0020 0523     		movs	r3, #5
 131 0022 02AA     		add	r2, sp, #8
 132 0024 FA21     		movs	r1, #250
 133 0026 4120     		movs	r0, #65
ARM GAS  C:\Users\adria\AppData\Local\Temp\ccLPx42Z.s 			page 5


 134 0028 FFF7FEFF 		bl	user_i2c_read
 135              	.LVL16:
  94:AS5048B.c     ****     
  95:AS5048B.c     ****     //Pasamos todos lo consegido al bitfield
  96:AS5048B.c     ****     registros->registros.Programming_Control = reg_data[0];
 136              		.loc 1 96 0
 137 002c 9DF80420 		ldrb	r2, [sp, #4]	@ zero_extendqisi2
 138 0030 637A     		ldrb	r3, [r4, #9]	@ zero_extendqisi2
 139 0032 62F30603 		bfi	r3, r2, #0, #7
 140 0036 6372     		strb	r3, [r4, #9]
  97:AS5048B.c     ****     registros->registros.I2C_slave_address = reg_data[1];
 141              		.loc 1 97 0
 142 0038 9DF80520 		ldrb	r2, [sp, #5]	@ zero_extendqisi2
 143 003c 237A     		ldrb	r3, [r4, #8]	@ zero_extendqisi2
 144 003e 62F30403 		bfi	r3, r2, #0, #5
 145 0042 2372     		strb	r3, [r4, #8]
  98:AS5048B.c     ****     registros->registros.OTP_Register_Zero_Position_Hi = reg_data[2];
 146              		.loc 1 98 0
 147 0044 9DF80630 		ldrb	r3, [sp, #6]	@ zero_extendqisi2
 148 0048 E371     		strb	r3, [r4, #7]
  99:AS5048B.c     ****     registros->registros.OTP_Register_Zero_Position_Low_6_LSBs = reg_data[3];
 149              		.loc 1 99 0
 150 004a 9DF80720 		ldrb	r2, [sp, #7]	@ zero_extendqisi2
 151 004e A379     		ldrb	r3, [r4, #6]	@ zero_extendqisi2
 152 0050 62F30503 		bfi	r3, r2, #0, #6
 153 0054 A371     		strb	r3, [r4, #6]
 100:AS5048B.c     ****     registros->registros.Automatic_Gain_Control = reg_data[4];
 154              		.loc 1 100 0
 155 0056 9DF80830 		ldrb	r3, [sp, #8]	@ zero_extendqisi2
 156 005a 6371     		strb	r3, [r4, #5]
 101:AS5048B.c     ****     registros->registros.diagnostico = reg_data[5];
 157              		.loc 1 101 0
 158 005c 9DF80920 		ldrb	r2, [sp, #9]	@ zero_extendqisi2
 159 0060 2379     		ldrb	r3, [r4, #4]	@ zero_extendqisi2
 160 0062 62F30303 		bfi	r3, r2, #0, #4
 161 0066 2371     		strb	r3, [r4, #4]
 102:AS5048B.c     ****     registros->registros.magnitud_Hi = reg_data[6];
 162              		.loc 1 102 0
 163 0068 9DF80A30 		ldrb	r3, [sp, #10]	@ zero_extendqisi2
 164 006c E370     		strb	r3, [r4, #3]
 103:AS5048B.c     ****     registros->registros.magnitud_Lo = reg_data[7];
 165              		.loc 1 103 0
 166 006e 9DF80B20 		ldrb	r2, [sp, #11]	@ zero_extendqisi2
 167 0072 A378     		ldrb	r3, [r4, #2]	@ zero_extendqisi2
 168 0074 62F30503 		bfi	r3, r2, #0, #6
 169 0078 A370     		strb	r3, [r4, #2]
 104:AS5048B.c     ****     registros->registros.angulo_Hi = reg_data[8];
 170              		.loc 1 104 0
 171 007a 9DF80C30 		ldrb	r3, [sp, #12]	@ zero_extendqisi2
 172 007e 6370     		strb	r3, [r4, #1]
 105:AS5048B.c     ****     registros->registros.angulo_Lo= 50;
 173              		.loc 1 105 0
 174 0080 2378     		ldrb	r3, [r4]	@ zero_extendqisi2
 175 0082 3222     		movs	r2, #50
 176 0084 62F30503 		bfi	r3, r2, #0, #6
 177 0088 2370     		strb	r3, [r4]
 106:AS5048B.c     **** } ...
ARM GAS  C:\Users\adria\AppData\Local\Temp\ccLPx42Z.s 			page 6


 178              		.loc 1 106 0
 179 008a 04B0     		add	sp, sp, #16
 180              		.cfi_def_cfa_offset 8
 181              		@ sp needed
 182 008c 10BD     		pop	{r4, pc}
 183              		.cfi_endproc
 184              	.LFE65:
 185              		.size	AS5048B_REGISTROS, .-AS5048B_REGISTROS
 186 008e 00BF     		.text
 187              	.Letext0:
 188              		.file 2 "c:\\program files (x86)\\cypress\\psoc creator\\4.4\\psoc creator\\import\\gnu\\arm\\5.4.
 189              		.file 3 "c:\\program files (x86)\\cypress\\psoc creator\\4.4\\psoc creator\\import\\gnu\\arm\\5.4.
 190              		.file 4 "AS5048B.h"
 191              		.file 5 "Generated_Source\\PSoC5/I2C.h"
 192              		.file 6 "Generated_Source\\PSoC5/core_cm3.h"