ARM GAS  C:\Users\adria\AppData\Local\Temp\ccwyWHKx.s 			page 1


   1              		.syntax unified
   2              		.cpu cortex-m3
   3              		.fpu softvfp
   4              		.eabi_attribute 20, 1
   5              		.eabi_attribute 21, 1
   6              		.eabi_attribute 23, 3
   7              		.eabi_attribute 24, 1
   8              		.eabi_attribute 25, 1
   9              		.eabi_attribute 26, 1
  10              		.eabi_attribute 30, 1
  11              		.eabi_attribute 34, 1
  12              		.eabi_attribute 18, 4
  13              		.thumb
  14              		.syntax unified
  15              		.file	"main.c"
  16              		.text
  17              	.Ltext0:
  18              		.cfi_sections	.debug_frame
  19              		.section	.text.isr,"ax",%progbits
  20              		.align	2
  21              		.global	isr
  22              		.thumb
  23              		.thumb_func
  24              		.type	isr, %function
  25              	isr:
  26              	.LFB63:
  27              		.file 1 "main.c"
   1:main.c        **** #include "project.h"
   2:main.c        **** #include "L293.h"
   3:main.c        **** 
   4:main.c        **** #define Derecha 0x01
   5:main.c        **** #define Izquierda 0x02
   6:main.c        **** #define Mas 0x04
   7:main.c        **** #define Menos 0x08
   8:main.c        **** #define Quieto 0x80
   9:main.c        **** 
  10:main.c        **** /**************************************/
  11:main.c        **** uint8_t REG;
  12:main.c        **** uint8_t flag = 0x00;
  13:main.c        **** CY_ISR(isr){
  28              		.loc 1 13 0
  29              		.cfi_startproc
  30              		@ args = 0, pretend = 0, frame = 0
  31              		@ frame_needed = 0, uses_anonymous_args = 0
  32 0000 08B5     		push	{r3, lr}
  33              		.cfi_def_cfa_offset 8
  34              		.cfi_offset 3, -8
  35              		.cfi_offset 14, -4
  14:main.c        ****     isr_ClearPending();
  36              		.loc 1 14 0
  37 0002 FFF7FEFF 		bl	isr_ClearPending
  38              	.LVL0:
  15:main.c        ****     REG =  Control_manual_Read() - 0x80;
  39              		.loc 1 15 0
  40 0006 FFF7FEFF 		bl	Control_manual_Read
  41              	.LVL1:
  42 000a 8038     		subs	r0, r0, #128
ARM GAS  C:\Users\adria\AppData\Local\Temp\ccwyWHKx.s 			page 2


  43 000c 034B     		ldr	r3, .L3
  44 000e 1870     		strb	r0, [r3]
  16:main.c        ****     flag = ~flag;
  45              		.loc 1 16 0
  46 0010 034A     		ldr	r2, .L3+4
  47 0012 1378     		ldrb	r3, [r2]	@ zero_extendqisi2
  48 0014 DB43     		mvns	r3, r3
  49 0016 1370     		strb	r3, [r2]
  50 0018 08BD     		pop	{r3, pc}
  51              	.L4:
  52 001a 00BF     		.align	2
  53              	.L3:
  54 001c 00000000 		.word	REG
  55 0020 00000000 		.word	.LANCHOR0
  56              		.cfi_endproc
  57              	.LFE63:
  58              		.size	isr, .-isr
  59              		.section	.text.RUTINA,"ax",%progbits
  60              		.align	2
  61              		.global	RUTINA
  62              		.thumb
  63              		.thumb_func
  64              		.type	RUTINA, %function
  65              	RUTINA:
  66              	.LFB65:
  17:main.c        **** }
  18:main.c        **** 
  19:main.c        **** void RUTINA(uint8_t GIRO);
  20:main.c        **** 
  21:main.c        **** int main(void)
  22:main.c        **** {
  23:main.c        ****     CyGlobalIntEnable;
  24:main.c        ****     Control_manual_InterruptEnable();
  25:main.c        ****     isr_StartEx(isr);
  26:main.c        ****     isr_ClearPending();
  27:main.c        ****     
  28:main.c        ****     LED_VELOCIDAD_Start();
  29:main.c        ****     
  30:main.c        ****     //CONDICIONES INCIALES
  31:main.c        ****     uint8_t cpp = 0x00;//INICIAMOS EN VELOCIDAD CERO
  32:main.c        ****     Driver_RELAY_Write(PARO);//Hacemos el cambio de direccion en reles
  33:main.c        ****     PWM_Mosfet_Start();
  34:main.c        ****     PWM_Mosfet_WriteCompare(cpp);
  35:main.c        ****     LED_VELOCIDAD_Write7SegNumberDec(cpp,0,4,0);
  36:main.c        ****     
  37:main.c        ****     
  38:main.c        ****     
  39:main.c        ****     for(;;){
  40:main.c        ****         
  41:main.c        ****          // LOS CAMBIO DE IRECCIÓN SON POR INTERRUPCCIONES
  42:main.c        ****         if(flag){//Le apretó un boton?
  43:main.c        ****             flag = ~flag;//tiramos la bandera
  44:main.c        ****             switch (REG){//CUAL?
  45:main.c        ****                 case Derecha:
  46:main.c        ****                     //RUTINA DE CAMBIO DE DIRECCION
  47:main.c        ****                     RUTINA(GIRO_1);
  48:main.c        ****                     break;
ARM GAS  C:\Users\adria\AppData\Local\Temp\ccwyWHKx.s 			page 3


  49:main.c        ****                 case Izquierda:
  50:main.c        ****                     //RUTINA DE CAMBIO DE DIRECCION
  51:main.c        ****                     RUTINA(GIRO_2);
  52:main.c        ****                     break;
  53:main.c        ****                 case Quieto:
  54:main.c        ****                     //RUTINA DE PARO
  55:main.c        ****                     RUTINA(PARO);
  56:main.c        ****                     break;
  57:main.c        ****             }
  58:main.c        ****         }
  59:main.c        ****         
  60:main.c        ****         uint8_t reg = Control_manual_Read();
  61:main.c        ****         switch(reg){//LOS CAMBIOS DE VELOCIDAD SON POR POLLING
  62:main.c        ****             case Mas:
  63:main.c        ****                 if(cpp<=150){//La resolucion del pwm es de 255
  64:main.c        ****                     cpp+=5;
  65:main.c        ****                     PWM_Mosfet_WriteCompare(cpp);
  66:main.c        ****                     LED_VELOCIDAD_Write7SegNumberDec(cpp,0,4,0);
  67:main.c        ****                     CyDelay(500);
  68:main.c        ****                 }
  69:main.c        ****                 break;
  70:main.c        ****             case Menos:
  71:main.c        ****                  if(cpp>=1){//La resolucion del pwm es de 255
  72:main.c        ****                     cpp-=5;
  73:main.c        ****                     PWM_Mosfet_WriteCompare(cpp);
  74:main.c        ****                     LED_VELOCIDAD_Write7SegNumberDec(cpp,0,4,0);
  75:main.c        ****                     CyDelay(500);
  76:main.c        ****                 }   
  77:main.c        ****                 break;
  78:main.c        ****         }
  79:main.c        ****         
  80:main.c        ****     }
  81:main.c        **** }
  82:main.c        **** 
  83:main.c        **** void RUTINA(uint8_t GIRO){
  67              		.loc 1 83 0
  68              		.cfi_startproc
  69              		@ args = 0, pretend = 0, frame = 0
  70              		@ frame_needed = 0, uses_anonymous_args = 0
  71              	.LVL2:
  72 0000 70B5     		push	{r4, r5, r6, lr}
  73              		.cfi_def_cfa_offset 16
  74              		.cfi_offset 4, -16
  75              		.cfi_offset 5, -12
  76              		.cfi_offset 6, -8
  77              		.cfi_offset 14, -4
  78 0002 0646     		mov	r6, r0
  84:main.c        ****     
  85:main.c        ****     uint8_t cpp = PWM_Mosfet_ReadCompare();
  79              		.loc 1 85 0
  80 0004 FFF7FEFF 		bl	PWM_Mosfet_ReadCompare
  81              	.LVL3:
  82              	.LBB2:
  86:main.c        ****     
  87:main.c        ****     for(int i=cpp; i>0 ;i--){//Bajamos de velocidad
  83              		.loc 1 87 0
  84 0008 0546     		mov	r5, r0
ARM GAS  C:\Users\adria\AppData\Local\Temp\ccwyWHKx.s 			page 4


  85              	.LVL4:
  86 000a 0446     		mov	r4, r0
  87 000c 0DE0     		b	.L6
  88              	.LVL5:
  89              	.L7:
  88:main.c        ****         
  89:main.c        ****         PWM_Mosfet_WriteCompare(i);
  90              		.loc 1 89 0 discriminator 3
  91 000e E0B2     		uxtb	r0, r4
  92 0010 FFF7FEFF 		bl	PWM_Mosfet_WriteCompare
  93              	.LVL6:
  90:main.c        ****         LED_VELOCIDAD_Write7SegNumberDec(i,0,4,0);
  94              		.loc 1 90 0 discriminator 3
  95 0014 0023     		movs	r3, #0
  96 0016 0422     		movs	r2, #4
  97 0018 1946     		mov	r1, r3
  98 001a 2046     		mov	r0, r4
  99 001c FFF7FEFF 		bl	LED_VELOCIDAD_Write7SegNumberDec
 100              	.LVL7:
  91:main.c        ****         CyDelay(500);
 101              		.loc 1 91 0 discriminator 3
 102 0020 4FF4FA70 		mov	r0, #500
 103 0024 FFF7FEFF 		bl	CyDelay
 104              	.LVL8:
  87:main.c        ****         
 105              		.loc 1 87 0 discriminator 3
 106 0028 013C     		subs	r4, r4, #1
 107              	.LVL9:
 108              	.L6:
  87:main.c        ****         
 109              		.loc 1 87 0 is_stmt 0 discriminator 1
 110 002a 002C     		cmp	r4, #0
 111 002c EFDC     		bgt	.L7
 112              	.LBE2:
  92:main.c        ****     }
  93:main.c        ****     
  94:main.c        ****     Driver_RELAY_Write(GIRO);//Hacemos el cambio de direccion en reles
 113              		.loc 1 94 0 is_stmt 1
 114 002e 3046     		mov	r0, r6
 115 0030 FFF7FEFF 		bl	Driver_RELAY_Write
 116              	.LVL10:
 117              	.LBB3:
  95:main.c        ****     
  96:main.c        ****     for(int i=0; i<=cpp ;i++){//Subimos y regresamos a la velocidad anterior
 118              		.loc 1 96 0
 119 0034 0024     		movs	r4, #0
 120              	.LVL11:
 121 0036 0DE0     		b	.L8
 122              	.LVL12:
 123              	.L9:
  97:main.c        ****     
  98:main.c        ****     PWM_Mosfet_WriteCompare(i);
 124              		.loc 1 98 0 discriminator 3
 125 0038 E0B2     		uxtb	r0, r4
 126 003a FFF7FEFF 		bl	PWM_Mosfet_WriteCompare
 127              	.LVL13:
  99:main.c        ****     LED_VELOCIDAD_Write7SegNumberDec(i,0,4,0);
ARM GAS  C:\Users\adria\AppData\Local\Temp\ccwyWHKx.s 			page 5


 128              		.loc 1 99 0 discriminator 3
 129 003e 0023     		movs	r3, #0
 130 0040 0422     		movs	r2, #4
 131 0042 1946     		mov	r1, r3
 132 0044 2046     		mov	r0, r4
 133 0046 FFF7FEFF 		bl	LED_VELOCIDAD_Write7SegNumberDec
 134              	.LVL14:
 100:main.c        ****     CyDelay(500);
 135              		.loc 1 100 0 discriminator 3
 136 004a 4FF4FA70 		mov	r0, #500
 137 004e FFF7FEFF 		bl	CyDelay
 138              	.LVL15:
  96:main.c        ****     
 139              		.loc 1 96 0 discriminator 3
 140 0052 0134     		adds	r4, r4, #1
 141              	.LVL16:
 142              	.L8:
  96:main.c        ****     
 143              		.loc 1 96 0 is_stmt 0 discriminator 1
 144 0054 AC42     		cmp	r4, r5
 145 0056 EFDD     		ble	.L9
 146              	.LBE3:
 101:main.c        ****     }
 102:main.c        ****     
 103:main.c        **** };
 147              		.loc 1 103 0 is_stmt 1
 148 0058 70BD     		pop	{r4, r5, r6, pc}
 149              		.cfi_endproc
 150              	.LFE65:
 151              		.size	RUTINA, .-RUTINA
 152 005a 00BF     		.section	.text.main,"ax",%progbits
 153              		.align	2
 154              		.global	main
 155              		.thumb
 156              		.thumb_func
 157              		.type	main, %function
 158              	main:
 159              	.LFB64:
  22:main.c        ****     CyGlobalIntEnable;
 160              		.loc 1 22 0
 161              		.cfi_startproc
 162              		@ args = 0, pretend = 0, frame = 0
 163              		@ frame_needed = 0, uses_anonymous_args = 0
 164 0000 10B5     		push	{r4, lr}
 165              		.cfi_def_cfa_offset 8
 166              		.cfi_offset 4, -8
 167              		.cfi_offset 14, -4
  23:main.c        ****     Control_manual_InterruptEnable();
 168              		.loc 1 23 0
 169              		.syntax unified
 170              	@ 23 "main.c" 1
 171 0002 62B6     		CPSIE   i
 172              	@ 0 "" 2
  24:main.c        ****     isr_StartEx(isr);
 173              		.loc 1 24 0
 174              		.thumb
 175              		.syntax unified
ARM GAS  C:\Users\adria\AppData\Local\Temp\ccwyWHKx.s 			page 6


 176 0004 FFF7FEFF 		bl	Control_manual_InterruptEnable
 177              	.LVL17:
  25:main.c        ****     isr_ClearPending();
 178              		.loc 1 25 0
 179 0008 2C48     		ldr	r0, .L21
 180 000a FFF7FEFF 		bl	isr_StartEx
 181              	.LVL18:
  26:main.c        ****     
 182              		.loc 1 26 0
 183 000e FFF7FEFF 		bl	isr_ClearPending
 184              	.LVL19:
  28:main.c        ****     
 185              		.loc 1 28 0
 186 0012 FFF7FEFF 		bl	LED_VELOCIDAD_Start
 187              	.LVL20:
  32:main.c        ****     PWM_Mosfet_Start();
 188              		.loc 1 32 0
 189 0016 FF20     		movs	r0, #255
 190 0018 FFF7FEFF 		bl	Driver_RELAY_Write
 191              	.LVL21:
  33:main.c        ****     PWM_Mosfet_WriteCompare(cpp);
 192              		.loc 1 33 0
 193 001c FFF7FEFF 		bl	PWM_Mosfet_Start
 194              	.LVL22:
  34:main.c        ****     LED_VELOCIDAD_Write7SegNumberDec(cpp,0,4,0);
 195              		.loc 1 34 0
 196 0020 0020     		movs	r0, #0
 197 0022 FFF7FEFF 		bl	PWM_Mosfet_WriteCompare
 198              	.LVL23:
  35:main.c        ****     
 199              		.loc 1 35 0
 200 0026 0023     		movs	r3, #0
 201 0028 0422     		movs	r2, #4
 202 002a 1946     		mov	r1, r3
 203 002c 1846     		mov	r0, r3
 204 002e FFF7FEFF 		bl	LED_VELOCIDAD_Write7SegNumberDec
 205              	.LVL24:
  31:main.c        ****     Driver_RELAY_Write(PARO);//Hacemos el cambio de direccion en reles
 206              		.loc 1 31 0
 207 0032 0024     		movs	r4, #0
 208              	.LVL25:
 209              	.L12:
 210              	.LBB4:
  42:main.c        ****             flag = ~flag;//tiramos la bandera
 211              		.loc 1 42 0
 212 0034 224B     		ldr	r3, .L21+4
 213 0036 1B78     		ldrb	r3, [r3]	@ zero_extendqisi2
 214 0038 ABB1     		cbz	r3, .L14
  43:main.c        ****             switch (REG){//CUAL?
 215              		.loc 1 43 0
 216 003a DB43     		mvns	r3, r3
 217 003c 204A     		ldr	r2, .L21+4
 218 003e 1370     		strb	r3, [r2]
  44:main.c        ****                 case Derecha:
 219              		.loc 1 44 0
 220 0040 204B     		ldr	r3, .L21+8
 221 0042 1B78     		ldrb	r3, [r3]	@ zero_extendqisi2
ARM GAS  C:\Users\adria\AppData\Local\Temp\ccwyWHKx.s 			page 7


 222 0044 022B     		cmp	r3, #2
 223 0046 07D0     		beq	.L15
 224 0048 802B     		cmp	r3, #128
 225 004a 09D0     		beq	.L16
 226 004c 012B     		cmp	r3, #1
 227 004e 0AD1     		bne	.L14
  47:main.c        ****                     break;
 228              		.loc 1 47 0
 229 0050 0220     		movs	r0, #2
 230 0052 FFF7FEFF 		bl	RUTINA
 231              	.LVL26:
  48:main.c        ****                 case Izquierda:
 232              		.loc 1 48 0
 233 0056 06E0     		b	.L14
 234              	.L15:
  51:main.c        ****                     break;
 235              		.loc 1 51 0
 236 0058 0120     		movs	r0, #1
 237 005a FFF7FEFF 		bl	RUTINA
 238              	.LVL27:
  52:main.c        ****                 case Quieto:
 239              		.loc 1 52 0
 240 005e 02E0     		b	.L14
 241              	.L16:
  55:main.c        ****                     break;
 242              		.loc 1 55 0
 243 0060 FF20     		movs	r0, #255
 244 0062 FFF7FEFF 		bl	RUTINA
 245              	.LVL28:
 246              	.L14:
  60:main.c        ****         switch(reg){//LOS CAMBIOS DE VELOCIDAD SON POR POLLING
 247              		.loc 1 60 0
 248 0066 FFF7FEFF 		bl	Control_manual_Read
 249              	.LVL29:
  61:main.c        ****             case Mas:
 250              		.loc 1 61 0
 251 006a 0428     		cmp	r0, #4
 252 006c 02D0     		beq	.L18
 253 006e 0828     		cmp	r0, #8
 254 0070 12D0     		beq	.L19
 255 0072 DFE7     		b	.L12
 256              	.L18:
  63:main.c        ****                     cpp+=5;
 257              		.loc 1 63 0
 258 0074 962C     		cmp	r4, #150
 259 0076 DDD8     		bhi	.L12
  64:main.c        ****                     PWM_Mosfet_WriteCompare(cpp);
 260              		.loc 1 64 0
 261 0078 0534     		adds	r4, r4, #5
 262              	.LVL30:
 263 007a E4B2     		uxtb	r4, r4
 264              	.LVL31:
  65:main.c        ****                     LED_VELOCIDAD_Write7SegNumberDec(cpp,0,4,0);
 265              		.loc 1 65 0
 266 007c 2046     		mov	r0, r4
 267              	.LVL32:
 268 007e FFF7FEFF 		bl	PWM_Mosfet_WriteCompare
ARM GAS  C:\Users\adria\AppData\Local\Temp\ccwyWHKx.s 			page 8


 269              	.LVL33:
  66:main.c        ****                     CyDelay(500);
 270              		.loc 1 66 0
 271 0082 0023     		movs	r3, #0
 272 0084 0422     		movs	r2, #4
 273 0086 1946     		mov	r1, r3
 274 0088 2046     		mov	r0, r4
 275 008a FFF7FEFF 		bl	LED_VELOCIDAD_Write7SegNumberDec
 276              	.LVL34:
  67:main.c        ****                 }
 277              		.loc 1 67 0
 278 008e 4FF4FA70 		mov	r0, #500
 279 0092 FFF7FEFF 		bl	CyDelay
 280              	.LVL35:
 281 0096 CDE7     		b	.L12
 282              	.LVL36:
 283              	.L19:
  71:main.c        ****                     cpp-=5;
 284              		.loc 1 71 0
 285 0098 002C     		cmp	r4, #0
 286 009a CBD0     		beq	.L12
  72:main.c        ****                     PWM_Mosfet_WriteCompare(cpp);
 287              		.loc 1 72 0
 288 009c 053C     		subs	r4, r4, #5
 289              	.LVL37:
 290 009e E4B2     		uxtb	r4, r4
 291              	.LVL38:
  73:main.c        ****                     LED_VELOCIDAD_Write7SegNumberDec(cpp,0,4,0);
 292              		.loc 1 73 0
 293 00a0 2046     		mov	r0, r4
 294              	.LVL39:
 295 00a2 FFF7FEFF 		bl	PWM_Mosfet_WriteCompare
 296              	.LVL40:
  74:main.c        ****                     CyDelay(500);
 297              		.loc 1 74 0
 298 00a6 0023     		movs	r3, #0
 299 00a8 0422     		movs	r2, #4
 300 00aa 1946     		mov	r1, r3
 301 00ac 2046     		mov	r0, r4
 302 00ae FFF7FEFF 		bl	LED_VELOCIDAD_Write7SegNumberDec
 303              	.LVL41:
  75:main.c        ****                 }   
 304              		.loc 1 75 0
 305 00b2 4FF4FA70 		mov	r0, #500
 306 00b6 FFF7FEFF 		bl	CyDelay
 307              	.LVL42:
 308 00ba BBE7     		b	.L12
 309              	.L22:
 310              		.align	2
 311              	.L21:
 312 00bc 00000000 		.word	isr
 313 00c0 00000000 		.word	.LANCHOR0
 314 00c4 00000000 		.word	REG
 315              	.LBE4:
 316              		.cfi_endproc
 317              	.LFE64:
 318              		.size	main, .-main
ARM GAS  C:\Users\adria\AppData\Local\Temp\ccwyWHKx.s 			page 9


 319              		.global	flag
 320              		.comm	REG,1,1
 321              		.bss
 322              		.set	.LANCHOR0,. + 0
 323              		.type	flag, %object
 324              		.size	flag, 1
 325              	flag:
 326 0000 00       		.space	1
 327              		.text
 328              	.Letext0:
 329              		.file 2 "c:\\program files (x86)\\cypress\\psoc creator\\4.4\\psoc creator\\import\\gnu\\arm\\5.4.
 330              		.file 3 "c:\\program files (x86)\\cypress\\psoc creator\\4.4\\psoc creator\\import\\gnu\\arm\\5.4.
 331              		.file 4 "Generated_Source\\PSoC5/core_cm3.h"
 332              		.file 5 "Generated_Source\\PSoC5/isr.h"
 333              		.file 6 "Generated_Source\\PSoC5/Control_manual.h"
 334              		.file 7 "Generated_Source\\PSoC5/PWM_Mosfet.h"
 335              		.file 8 "Generated_Source\\PSoC5/LED_VELOCIDAD.h"
 336              		.file 9 "Generated_Source\\PSoC5/CyLib.h"
 337              		.file 10 "Generated_Source\\PSoC5/Driver_RELAY.h"