ARM GAS  C:\Users\adria\AppData\Local\Temp\ccM9vPua.s 			page 1


   1              		.syntax unified
   2              		.cpu cortex-m3
   3              		.fpu softvfp
   4              		.eabi_attribute 20, 1
   5              		.eabi_attribute 21, 1
   6              		.eabi_attribute 23, 3
   7              		.eabi_attribute 24, 1
   8              		.eabi_attribute 25, 1
   9              		.eabi_attribute 26, 1
  10              		.eabi_attribute 30, 1
  11              		.eabi_attribute 34, 1
  12              		.eabi_attribute 18, 4
  13              		.thumb
  14              		.syntax unified
  15              		.file	"Maniobras.c"
  16              		.text
  17              	.Ltext0:
  18              		.cfi_sections	.debug_frame
  19              		.section	.text.SENTIDO,"ax",%progbits
  20              		.align	2
  21              		.global	SENTIDO
  22              		.thumb
  23              		.thumb_func
  24              		.type	SENTIDO, %function
  25              	SENTIDO:
  26              	.LFB63:
  27              		.file 1 "Maniobras.c"
   1:Maniobras.c   **** /*
   2:Maniobras.c   **** 
   3:Maniobras.c   **** */
   4:Maniobras.c   **** #include <stdint.h>
   5:Maniobras.c   **** #include "Maniobras.h"
   6:Maniobras.c   **** #include "project.h"
   7:Maniobras.c   **** 
   8:Maniobras.c   **** //Función para cambio de giro
   9:Maniobras.c   **** /*
  10:Maniobras.c   ****     Protocólo para el cambio de dirección:
  11:Maniobras.c   ****     1-. (DISMINUIR VELOCIDAD GRADUALMENTE) luego Paro a total
  12:Maniobras.c   ****     2.- Paro media
  13:Maniobras.c   ****     3.- Nueva dirección luego(AUMENTA LA VELOCIDAD HASTA ALCANZAR LA ANTERIOR AL REALIZAR EL CAMBI
  14:Maniobras.c   ****     
  15:Maniobras.c   ****     Del registro de cotnrol en 8bit s¿tomamos solo los 3 menos significantes
  16:Maniobras.c   ****     
  17:Maniobras.c   ****     De las combinacion necesarios para controlar el sentido de rotación por parte del integrado
  18:Maniobras.c   ****     L293B como driver de los relays y del Mostfet que controla la velocidad del motor
  19:Maniobras.c   ****     
  20:Maniobras.c   ****     Contrl del sentido de giro *DEBIDO A LOS OPTOACOPLADORES ESTO ES LÓGICA NEGADA
  21:Maniobras.c   ****     2A|1A|EN
  22:Maniobras.c   ****     0  1  0  --> Gira derecha  2A-ON 1A-OFF
  23:Maniobras.c   ****     1  0  0  --> Gira Izquierda 1A-ON 1A-OFF
  24:Maniobras.c   ****     1  1  0  --> Paro a medias  1A=2A=ON
  25:Maniobras.c   ****     0  0  1  --> Paro total EN pone en altaimpedancia las salidad del L293B *2A Y 1A SON DONT CARE 
  26:Maniobras.c   **** */
  27:Maniobras.c   **** void SENTIDO(uint8_t Estado){
  28              		.loc 1 27 0
  29              		.cfi_startproc
  30              		@ args = 0, pretend = 0, frame = 0
ARM GAS  C:\Users\adria\AppData\Local\Temp\ccM9vPua.s 			page 2


  31              		@ frame_needed = 0, uses_anonymous_args = 0
  32              	.LVL0:
  33 0000 F8B5     		push	{r3, r4, r5, r6, r7, lr}
  34              		.cfi_def_cfa_offset 24
  35              		.cfi_offset 3, -24
  36              		.cfi_offset 4, -20
  37              		.cfi_offset 5, -16
  38              		.cfi_offset 6, -12
  39              		.cfi_offset 7, -8
  40              		.cfi_offset 14, -4
  41 0002 0746     		mov	r7, r0
  28:Maniobras.c   ****     
  29:Maniobras.c   ****     //LEEMOS CÓMO SON LAS SALIDAS ACTUALES
  30:Maniobras.c   ****      uint8_t Reg = Driver_RELAY_Read();
  42              		.loc 1 30 0
  43 0004 FFF7FEFF 		bl	Driver_RELAY_Read
  44              	.LVL1:
  45 0008 0646     		mov	r6, r0
  46              	.LVL2:
  31:Maniobras.c   ****     
  32:Maniobras.c   ****     //PASO UNO!!!!
  33:Maniobras.c   ****     //Deminuimos la velocidad
  34:Maniobras.c   ****     uint16_t CPP_1 = PWM_Mosfet_ReadCompare();//leemos cpp del momento
  47              		.loc 1 34 0
  48 000a FFF7FEFF 		bl	PWM_Mosfet_ReadCompare
  49              	.LVL3:
  50              	.LBB2:
  35:Maniobras.c   ****     for(int i=CPP_1;i>0;i--){
  51              		.loc 1 35 0
  52 000e 0546     		mov	r5, r0
  53              	.LVL4:
  54 0010 0446     		mov	r4, r0
  55 0012 06E0     		b	.L2
  56              	.LVL5:
  57              	.L3:
  36:Maniobras.c   ****         PWM_Mosfet_WriteCompare(i);
  58              		.loc 1 36 0 discriminator 3
  59 0014 A0B2     		uxth	r0, r4
  60 0016 FFF7FEFF 		bl	PWM_Mosfet_WriteCompare
  61              	.LVL6:
  37:Maniobras.c   ****         CyDelay(10
  62              		.loc 1 37 0 discriminator 3
  63 001a 0A20     		movs	r0, #10
  64 001c FFF7FEFF 		bl	CyDelay
  65              	.LVL7:
  35:Maniobras.c   ****     for(int i=CPP_1;i>0;i--){
  66              		.loc 1 35 0 discriminator 3
  67 0020 013C     		subs	r4, r4, #1
  68              	.LVL8:
  69              	.L2:
  35:Maniobras.c   ****     for(int i=CPP_1;i>0;i--){
  70              		.loc 1 35 0 is_stmt 0 discriminator 1
  71 0022 002C     		cmp	r4, #0
  72 0024 F6DC     		bgt	.L3
  73              	.LVL9:
  74              	.LBE2:
  38:Maniobras.c   ****         );//Pocura el cambio no tan de golpe
ARM GAS  C:\Users\adria\AppData\Local\Temp\ccM9vPua.s 			page 3


  39:Maniobras.c   ****     }
  40:Maniobras.c   ****     
  41:Maniobras.c   ****     //Enmascaramos
  42:Maniobras.c   ****     Reg |= paro_total;
  43:Maniobras.c   ****     
  44:Maniobras.c   ****     //PASO DOS!!!!
  45:Maniobras.c   ****     Reg |= paro_medio;
  75              		.loc 1 45 0 is_stmt 1
  76 0026 46F00700 		orr	r0, r6, #7
  77              	.LVL10:
  46:Maniobras.c   ****     
  47:Maniobras.c   ****     //PASO TRES!!!
  48:Maniobras.c   ****     Reg &= Estado;
  49:Maniobras.c   ****     Driver_RELAY_Write(Reg);//Actualizamos
  78              		.loc 1 49 0
  79 002a 3840     		ands	r0, r0, r7
  80              	.LVL11:
  81 002c FFF7FEFF 		bl	Driver_RELAY_Write
  82              	.LVL12:
  50:Maniobras.c   ****     CyDelay(10);
  83              		.loc 1 50 0
  84 0030 0A20     		movs	r0, #10
  85 0032 FFF7FEFF 		bl	CyDelay
  86              	.LVL13:
  51:Maniobras.c   ****     
  52:Maniobras.c   ****     //Subimos velocidad antes del cambio de estado
  53:Maniobras.c   ****     uint16_t CPP_2 = PWM_Mosfet_ReadCompare();//leemos cpp del momento velocidad lenta
  87              		.loc 1 53 0
  88 0036 FFF7FEFF 		bl	PWM_Mosfet_ReadCompare
  89              	.LVL14:
  90              	.LBB3:
  54:Maniobras.c   ****     for(int i=CPP_2;i<CPP_1;i++){
  91              		.loc 1 54 0
  92 003a 0446     		mov	r4, r0
  93              	.LVL15:
  94 003c 06E0     		b	.L4
  95              	.LVL16:
  96              	.L5:
  55:Maniobras.c   ****         PWM_Mosfet_WriteCompare(i);
  97              		.loc 1 55 0 discriminator 3
  98 003e A0B2     		uxth	r0, r4
  99 0040 FFF7FEFF 		bl	PWM_Mosfet_WriteCompare
 100              	.LVL17:
  56:Maniobras.c   ****         CyDelay(10);//Pocura el cambio no tan de golpe
 101              		.loc 1 56 0 discriminator 3
 102 0044 0A20     		movs	r0, #10
 103 0046 FFF7FEFF 		bl	CyDelay
 104              	.LVL18:
  54:Maniobras.c   ****     for(int i=CPP_2;i<CPP_1;i++){
 105              		.loc 1 54 0 discriminator 3
 106 004a 0134     		adds	r4, r4, #1
 107              	.LVL19:
 108              	.L4:
  54:Maniobras.c   ****     for(int i=CPP_2;i<CPP_1;i++){
 109              		.loc 1 54 0 is_stmt 0 discriminator 1
 110 004c AC42     		cmp	r4, r5
 111 004e F6DB     		blt	.L5
ARM GAS  C:\Users\adria\AppData\Local\Temp\ccM9vPua.s 			page 4


 112              	.LBE3:
  57:Maniobras.c   ****     }
  58:Maniobras.c   **** }
 113              		.loc 1 58 0 is_stmt 1
 114 0050 F8BD     		pop	{r3, r4, r5, r6, r7, pc}
 115              		.cfi_endproc
 116              	.LFE63:
 117              		.size	SENTIDO, .-SENTIDO
 118              		.global	__aeabi_i2d
 119              		.global	__aeabi_ddiv
 120              		.global	__aeabi_dmul
 121              		.global	__aeabi_d2uiz
 122 0052 00BF     		.section	.text.Velocidad,"ax",%progbits
 123              		.align	2
 124              		.global	Velocidad
 125              		.thumb
 126              		.thumb_func
 127              		.type	Velocidad, %function
 128              	Velocidad:
 129              	.LFB64:
  59:Maniobras.c   **** 
  60:Maniobras.c   **** //Función para modificar la velocidad
  61:Maniobras.c   **** /*
  62:Maniobras.c   ****     El control de velocidad va de 0 a 100
  63:Maniobras.c   ****     1.- Calculamos el conteo que representa la velocidad deaseada
  64:Maniobras.c   ****     2.- Checamos la velocidad actual 
  65:Maniobras.c   ****     3.- Evaluamos si tenemos que acelerar o desacelerar
  66:Maniobras.c   ****     3.-ACTUAMOS SEGÚN EL RESULTADO DE 3.-
  67:Maniobras.c   **** */
  68:Maniobras.c   **** void Velocidad(uint8_t porcentaje){
 130              		.loc 1 68 0
 131              		.cfi_startproc
 132              		@ args = 0, pretend = 0, frame = 0
 133              		@ frame_needed = 0, uses_anonymous_args = 0
 134              	.LVL20:
 135 0000 38B5     		push	{r3, r4, r5, lr}
 136              		.cfi_def_cfa_offset 16
 137              		.cfi_offset 3, -16
 138              		.cfi_offset 4, -12
 139              		.cfi_offset 5, -8
 140              		.cfi_offset 14, -4
  69:Maniobras.c   ****     
  70:Maniobras.c   ****     uint8_t vel_nueva = (porcentaje/100.0)*resolucion;//Velocidad está expresado en conteos
 141              		.loc 1 70 0
 142 0002 FFF7FEFF 		bl	__aeabi_i2d
 143              	.LVL21:
 144 0006 0022     		movs	r2, #0
 145 0008 144B     		ldr	r3, .L15
 146 000a FFF7FEFF 		bl	__aeabi_ddiv
 147              	.LVL22:
 148 000e 0022     		movs	r2, #0
 149 0010 134B     		ldr	r3, .L15+4
 150 0012 FFF7FEFF 		bl	__aeabi_dmul
 151              	.LVL23:
 152 0016 FFF7FEFF 		bl	__aeabi_d2uiz
 153              	.LVL24:
 154 001a C5B2     		uxtb	r5, r0
ARM GAS  C:\Users\adria\AppData\Local\Temp\ccM9vPua.s 			page 5


 155              	.LVL25:
  71:Maniobras.c   ****     uint16_t Vel_act = PWM_Mosfet_ReadCompare();//Velocidad actual que corre el motor
 156              		.loc 1 71 0
 157 001c FFF7FEFF 		bl	PWM_Mosfet_ReadCompare
 158              	.LVL26:
  72:Maniobras.c   ****     
  73:Maniobras.c   ****     if(vel_nueva>Vel_act)//Tenemos que acelerar
 159              		.loc 1 73 0
 160 0020 ABB2     		uxth	r3, r5
 161 0022 9842     		cmp	r0, r3
 162 0024 0BD2     		bcs	.L8
 163              	.LBB4:
  74:Maniobras.c   ****     {
  75:Maniobras.c   ****         for(int i=Vel_act;i<=vel_nueva;i++){
 164              		.loc 1 75 0
 165 0026 0446     		mov	r4, r0
 166              	.LVL27:
 167 0028 06E0     		b	.L9
 168              	.LVL28:
 169              	.L10:
  76:Maniobras.c   ****             PWM_Mosfet_WriteCompare(i);
 170              		.loc 1 76 0 discriminator 3
 171 002a A0B2     		uxth	r0, r4
 172 002c FFF7FEFF 		bl	PWM_Mosfet_WriteCompare
 173              	.LVL29:
  77:Maniobras.c   ****             CyDelay(10);//Pocura el cambio no tan de golpe
 174              		.loc 1 77 0 discriminator 3
 175 0030 0A20     		movs	r0, #10
 176 0032 FFF7FEFF 		bl	CyDelay
 177              	.LVL30:
  75:Maniobras.c   ****             PWM_Mosfet_WriteCompare(i);
 178              		.loc 1 75 0 discriminator 3
 179 0036 0134     		adds	r4, r4, #1
 180              	.LVL31:
 181              	.L9:
  75:Maniobras.c   ****             PWM_Mosfet_WriteCompare(i);
 182              		.loc 1 75 0 is_stmt 0 discriminator 1
 183 0038 AC42     		cmp	r4, r5
 184 003a F6DD     		ble	.L10
 185 003c 38BD     		pop	{r3, r4, r5, pc}
 186              	.LVL32:
 187              	.L8:
 188              	.LBE4:
  78:Maniobras.c   ****         }
  79:Maniobras.c   ****         
  80:Maniobras.c   ****     }else if(Vel_act>vel_nueva)//Tenemos que desacelerar
 189              		.loc 1 80 0 is_stmt 1
 190 003e 9842     		cmp	r0, r3
 191 0040 0AD9     		bls	.L7
 192              	.LBB5:
  81:Maniobras.c   ****     {
  82:Maniobras.c   ****         for(int i=Vel_act;i>vel_nueva;i--){
 193              		.loc 1 82 0
 194 0042 0446     		mov	r4, r0
 195              	.LVL33:
 196 0044 06E0     		b	.L12
 197              	.LVL34:
ARM GAS  C:\Users\adria\AppData\Local\Temp\ccM9vPua.s 			page 6


 198              	.L13:
  83:Maniobras.c   ****             PWM_Mosfet_WriteCompare(i);
 199              		.loc 1 83 0 discriminator 3
 200 0046 A0B2     		uxth	r0, r4
 201 0048 FFF7FEFF 		bl	PWM_Mosfet_WriteCompare
 202              	.LVL35:
  84:Maniobras.c   ****             CyDelay(10);//Pocura el cambio no tan de golpe
 203              		.loc 1 84 0 discriminator 3
 204 004c 0A20     		movs	r0, #10
 205 004e FFF7FEFF 		bl	CyDelay
 206              	.LVL36:
  82:Maniobras.c   ****             PWM_Mosfet_WriteCompare(i);
 207              		.loc 1 82 0 discriminator 3
 208 0052 013C     		subs	r4, r4, #1
 209              	.LVL37:
 210              	.L12:
  82:Maniobras.c   ****             PWM_Mosfet_WriteCompare(i);
 211              		.loc 1 82 0 is_stmt 0 discriminator 1
 212 0054 AC42     		cmp	r4, r5
 213 0056 F6DC     		bgt	.L13
 214              	.LVL38:
 215              	.L7:
 216 0058 38BD     		pop	{r3, r4, r5, pc}
 217              	.LVL39:
 218              	.L16:
 219 005a 00BF     		.align	2
 220              	.L15:
 221 005c 00005940 		.word	1079574528
 222 0060 00003040 		.word	1076887552
 223              	.LBE5:
 224              		.cfi_endproc
 225              	.LFE64:
 226              		.size	Velocidad, .-Velocidad
 227              		.text
 228              	.Letext0:
 229              		.file 2 "c:\\program files (x86)\\cypress\\psoc creator\\4.4\\psoc creator\\import\\gnu\\arm\\5.4.
 230              		.file 3 "c:\\program files (x86)\\cypress\\psoc creator\\4.4\\psoc creator\\import\\gnu\\arm\\5.4.
 231              		.file 4 "Generated_Source\\PSoC5/PWM_Mosfet.h"
 232              		.file 5 "Generated_Source\\PSoC5/CyLib.h"
 233              		.file 6 "Generated_Source\\PSoC5/Driver_RELAY.h"
 234              		.file 7 "Generated_Source\\PSoC5/core_cm3.h"