ARM GAS  C:\Users\adria\AppData\Local\Temp\ccKwLOu3.s 			page 1


   1              		.syntax unified
   2              		.cpu cortex-m3
   3              		.fpu softvfp
   4              		.eabi_attribute 20, 1
   5              		.eabi_attribute 21, 1
   6              		.eabi_attribute 23, 3
   7              		.eabi_attribute 24, 1
   8              		.eabi_attribute 25, 1
   9              		.eabi_attribute 26, 1
  10              		.eabi_attribute 30, 1
  11              		.eabi_attribute 34, 1
  12              		.eabi_attribute 18, 4
  13              		.thumb
  14              		.syntax unified
  15              		.file	"STEPM.c"
  16              		.text
  17              	.Ltext0:
  18              		.cfi_sections	.debug_frame
  19              		.section	.text.derecha,"ax",%progbits
  20              		.align	2
  21              		.global	derecha
  22              		.thumb
  23              		.thumb_func
  24              		.type	derecha, %function
  25              	derecha:
  26              	.LFB64:
  27              		.file 1 "STEPM.c"
   1:STEPM.c       **** #include "project.h"
   2:STEPM.c       **** #include "STEPM.h"
   3:STEPM.c       **** 
   4:STEPM.c       **** //Secuencia para realizar un paso
   5:STEPM.c       **** uint8_t secuencia[8]={
   6:STEPM.c       ****     0x08,
   7:STEPM.c       ****     0x0C,
   8:STEPM.c       ****     0x04,
   9:STEPM.c       ****     0x06,
  10:STEPM.c       ****     0x02,
  11:STEPM.c       ****     0x03,
  12:STEPM.c       ****     0x01,
  13:STEPM.c       ****     0x09,
  14:STEPM.c       **** };
  15:STEPM.c       **** 
  16:STEPM.c       **** 
  17:STEPM.c       **** //Función para realizar un corrimiento (Tomar una dirección y efectuar avance de rotación)
  18:STEPM.c       **** void Corrimiento(uint8_t DIR){
  19:STEPM.c       ****     
  20:STEPM.c       ****     switch (DIR){
  21:STEPM.c       ****         case PAR:
  22:STEPM.c       ****             STEP_MOTOR_driver_Write(0x00);
  23:STEPM.c       ****             break;
  24:STEPM.c       ****         case IZQ:
  25:STEPM.c       ****             izquierda();
  26:STEPM.c       ****             break;
  27:STEPM.c       ****         case DER:
  28:STEPM.c       ****             derecha();
  29:STEPM.c       ****             break;
  30:STEPM.c       ****     }
ARM GAS  C:\Users\adria\AppData\Local\Temp\ccKwLOu3.s 			page 2


  31:STEPM.c       ****     
  32:STEPM.c       **** };
  33:STEPM.c       **** //Subrutinas de direccion de corrimiento
  34:STEPM.c       **** void derecha(){
  28              		.loc 1 34 0
  29              		.cfi_startproc
  30              		@ args = 0, pretend = 0, frame = 0
  31              		@ frame_needed = 0, uses_anonymous_args = 0
  32 0000 10B5     		push	{r4, lr}
  33              		.cfi_def_cfa_offset 8
  34              		.cfi_offset 4, -8
  35              		.cfi_offset 14, -4
  36              	.LVL0:
  37              	.LBB2:
  35:STEPM.c       ****     for(int i=0;i<7;i++){
  38              		.loc 1 35 0
  39 0002 0024     		movs	r4, #0
  40 0004 07E0     		b	.L2
  41              	.LVL1:
  42              	.L3:
  36:STEPM.c       ****         STEP_MOTOR_driver_Write(secuencia[i]);
  43              		.loc 1 36 0 discriminator 3
  44 0006 054B     		ldr	r3, .L5
  45 0008 185D     		ldrb	r0, [r3, r4]	@ zero_extendqisi2
  46 000a FFF7FEFF 		bl	STEP_MOTOR_driver_Write
  47              	.LVL2:
  37:STEPM.c       ****         CyDelay(5);
  48              		.loc 1 37 0 discriminator 3
  49 000e 0520     		movs	r0, #5
  50 0010 FFF7FEFF 		bl	CyDelay
  51              	.LVL3:
  35:STEPM.c       ****     for(int i=0;i<7;i++){
  52              		.loc 1 35 0 discriminator 3
  53 0014 0134     		adds	r4, r4, #1
  54              	.LVL4:
  55              	.L2:
  35:STEPM.c       ****     for(int i=0;i<7;i++){
  56              		.loc 1 35 0 is_stmt 0 discriminator 1
  57 0016 062C     		cmp	r4, #6
  58 0018 F5DD     		ble	.L3
  59              	.LBE2:
  38:STEPM.c       ****     }
  39:STEPM.c       **** };
  60              		.loc 1 39 0 is_stmt 1
  61 001a 10BD     		pop	{r4, pc}
  62              	.LVL5:
  63              	.L6:
  64              		.align	2
  65              	.L5:
  66 001c 00000000 		.word	.LANCHOR0
  67              		.cfi_endproc
  68              	.LFE64:
  69              		.size	derecha, .-derecha
  70              		.section	.text.izquierda,"ax",%progbits
  71              		.align	2
  72              		.global	izquierda
  73              		.thumb
ARM GAS  C:\Users\adria\AppData\Local\Temp\ccKwLOu3.s 			page 3


  74              		.thumb_func
  75              		.type	izquierda, %function
  76              	izquierda:
  77              	.LFB65:
  40:STEPM.c       **** void izquierda(){
  78              		.loc 1 40 0
  79              		.cfi_startproc
  80              		@ args = 0, pretend = 0, frame = 0
  81              		@ frame_needed = 0, uses_anonymous_args = 0
  82 0000 10B5     		push	{r4, lr}
  83              		.cfi_def_cfa_offset 8
  84              		.cfi_offset 4, -8
  85              		.cfi_offset 14, -4
  86              	.LVL6:
  87              	.LBB3:
  41:STEPM.c       ****     for(int i=7;i>0;i--){
  88              		.loc 1 41 0
  89 0002 0724     		movs	r4, #7
  90 0004 07E0     		b	.L8
  91              	.LVL7:
  92              	.L9:
  42:STEPM.c       ****         STEP_MOTOR_driver_Write(secuencia[i]);
  93              		.loc 1 42 0 discriminator 3
  94 0006 054B     		ldr	r3, .L11
  95 0008 185D     		ldrb	r0, [r3, r4]	@ zero_extendqisi2
  96 000a FFF7FEFF 		bl	STEP_MOTOR_driver_Write
  97              	.LVL8:
  43:STEPM.c       ****         CyDelay(5);
  98              		.loc 1 43 0 discriminator 3
  99 000e 0520     		movs	r0, #5
 100 0010 FFF7FEFF 		bl	CyDelay
 101              	.LVL9:
  41:STEPM.c       ****     for(int i=7;i>0;i--){
 102              		.loc 1 41 0 discriminator 3
 103 0014 013C     		subs	r4, r4, #1
 104              	.LVL10:
 105              	.L8:
  41:STEPM.c       ****     for(int i=7;i>0;i--){
 106              		.loc 1 41 0 is_stmt 0 discriminator 1
 107 0016 002C     		cmp	r4, #0
 108 0018 F5DC     		bgt	.L9
 109              	.LBE3:
  44:STEPM.c       ****     }
  45:STEPM.c       **** };...
 110              		.loc 1 45 0 is_stmt 1
 111 001a 10BD     		pop	{r4, pc}
 112              	.LVL11:
 113              	.L12:
 114              		.align	2
 115              	.L11:
 116 001c 00000000 		.word	.LANCHOR0
 117              		.cfi_endproc
 118              	.LFE65:
 119              		.size	izquierda, .-izquierda
 120              		.section	.text.Corrimiento,"ax",%progbits
 121              		.align	2
 122              		.global	Corrimiento
ARM GAS  C:\Users\adria\AppData\Local\Temp\ccKwLOu3.s 			page 4


 123              		.thumb
 124              		.thumb_func
 125              		.type	Corrimiento, %function
 126              	Corrimiento:
 127              	.LFB63:
  18:STEPM.c       **** void Corrimiento(uint8_t DIR){
 128              		.loc 1 18 0
 129              		.cfi_startproc
 130              		@ args = 0, pretend = 0, frame = 0
 131              		@ frame_needed = 0, uses_anonymous_args = 0
 132              	.LVL12:
 133 0000 08B5     		push	{r3, lr}
 134              		.cfi_def_cfa_offset 8
 135              		.cfi_offset 3, -8
 136              		.cfi_offset 14, -4
  20:STEPM.c       ****     switch (DIR){
 137              		.loc 1 20 0
 138 0002 0228     		cmp	r0, #2
 139 0004 07D0     		beq	.L15
 140 0006 0428     		cmp	r0, #4
 141 0008 08D0     		beq	.L16
 142 000a 0128     		cmp	r0, #1
 143 000c 08D1     		bne	.L13
  22:STEPM.c       ****             STEP_MOTOR_driver_Write(0x00);
 144              		.loc 1 22 0
 145 000e 0020     		movs	r0, #0
 146              	.LVL13:
 147 0010 FFF7FEFF 		bl	STEP_MOTOR_driver_Write
 148              	.LVL14:
  23:STEPM.c       ****             break;
 149              		.loc 1 23 0
 150 0014 08BD     		pop	{r3, pc}
 151              	.LVL15:
 152              	.L15:
  25:STEPM.c       ****             izquierda();
 153              		.loc 1 25 0
 154 0016 FFF7FEFF 		bl	izquierda
 155              	.LVL16:
  26:STEPM.c       ****             break;
 156              		.loc 1 26 0
 157 001a 08BD     		pop	{r3, pc}
 158              	.LVL17:
 159              	.L16:
  28:STEPM.c       ****             derecha();
 160              		.loc 1 28 0
 161 001c FFF7FEFF 		bl	derecha
 162              	.LVL18:
 163              	.L13:
 164 0020 08BD     		pop	{r3, pc}
 165              		.cfi_endproc
 166              	.LFE63:
 167              		.size	Corrimiento, .-Corrimiento
 168              		.global	secuencia
 169 0022 00BF     		.data
 170              		.align	2
 171              		.set	.LANCHOR0,. + 0
 172              		.type	secuencia, %object
ARM GAS  C:\Users\adria\AppData\Local\Temp\ccKwLOu3.s 			page 5


 173              		.size	secuencia, 8
 174              	secuencia:
 175 0000 08       		.byte	8
 176 0001 0C       		.byte	12
 177 0002 04       		.byte	4
 178 0003 06       		.byte	6
 179 0004 02       		.byte	2
 180 0005 03       		.byte	3
 181 0006 01       		.byte	1
 182 0007 09       		.byte	9
 183              		.text
 184              	.Letext0:
 185              		.file 2 "c:\\program files (x86)\\cypress\\psoc creator\\4.4\\psoc creator\\import\\gnu\\arm\\5.4.
 186              		.file 3 "c:\\program files (x86)\\cypress\\psoc creator\\4.4\\psoc creator\\import\\gnu\\arm\\5.4.
 187              		.file 4 "Generated_Source\\PSoC5/core_cm3.h"
 188              		.file 5 "Generated_Source\\PSoC5/STEP_MOTOR_driver.h"
 189              		.file 6 "Generated_Source\\PSoC5/CyLib.h"