ARM GAS  C:\Users\adria\AppData\Local\Temp\ccMciK9l.s 			page 1


   1              		.syntax unified
   2              		.cpu cortex-m3
   3              		.fpu softvfp
   4              		.eabi_attribute 20, 1
   5              		.eabi_attribute 21, 1
   6              		.eabi_attribute 23, 3
   7              		.eabi_attribute 24, 1
   8              		.eabi_attribute 25, 1
   9              		.eabi_attribute 26, 1
  10              		.eabi_attribute 30, 1
  11              		.eabi_attribute 34, 1
  12              		.eabi_attribute 18, 4
  13              		.thumb
  14              		.syntax unified
  15              		.file	"main.c"
  16              		.text
  17              	.Ltext0:
  18              		.cfi_sections	.debug_frame
  19              		.global	__aeabi_i2f
  20              		.global	__aeabi_fmul
  21              		.global	__aeabi_f2iz
  22              		.section	.text.main,"ax",%progbits
  23              		.align	2
  24              		.global	main
  25              		.thumb
  26              		.thumb_func
  27              		.type	main, %function
  28              	main:
  29              	.LFB64:
  30              		.file 1 "main.c"
   1:main.c        **** 
   2:main.c        **** #include "project.h"
   3:main.c        **** #include <stdio.h>
   4:main.c        **** #include <stdbool.h>
   5:main.c        **** #include <Cal_pesos.h>
   6:main.c        **** 
   7:main.c        **** 
   8:main.c        **** //Variables para filtros
   9:main.c        **** #define ventana 3
  10:main.c        **** int cont=0;
  11:main.c        **** uint16 suma = 0;
  12:main.c        **** 
  13:main.c        **** //variables para el ADC
  14:main.c        **** int16 lec_binaria,lec_Volts;
  15:main.c        **** char8 Filtrado[5], NoFiltrado[5];//4 caracteres numéricos
  16:main.c        **** int16 array[ventana];//Inicializamos el array en 0
  17:main.c        **** int16 promedio=0;
  18:main.c        **** 
  19:main.c        **** int main(void)
  20:main.c        ****  {
  31              		.loc 1 20 0
  32              		.cfi_startproc
  33              		@ args = 0, pretend = 0, frame = 16
  34              		@ frame_needed = 0, uses_anonymous_args = 0
  21:main.c        ****     CyGlobalIntEnable; /* Enable global interrupts. */
  35              		.loc 1 21 0
  36              		.syntax unified
ARM GAS  C:\Users\adria\AppData\Local\Temp\ccMciK9l.s 			page 2


  37              	@ 21 "main.c" 1
  38 0000 62B6     		CPSIE   i
  39              	@ 0 "" 2
  40              	.LVL0:
  41              		.thumb
  42              		.syntax unified
  43              	.LBB2:
  22:main.c        ****     
  23:main.c        ****     for (int i=0; i<ventana; i++) {
  44              		.loc 1 23 0
  45 0002 0023     		movs	r3, #0
  46 0004 04E0     		b	.L2
  47              	.LVL1:
  48              	.L3:
  24:main.c        ****         array[i]=0;
  49              		.loc 1 24 0 discriminator 3
  50 0006 0021     		movs	r1, #0
  51 0008 324A     		ldr	r2, .L8
  52 000a 22F81310 		strh	r1, [r2, r3, lsl #1]	@ movhi
  23:main.c        ****         array[i]=0;
  53              		.loc 1 23 0 discriminator 3
  54 000e 0133     		adds	r3, r3, #1
  55              	.LVL2:
  56              	.L2:
  23:main.c        ****         array[i]=0;
  57              		.loc 1 23 0 is_stmt 0 discriminator 1
  58 0010 022B     		cmp	r3, #2
  59 0012 F8DD     		ble	.L3
  60              	.LBE2:
  20:main.c        ****     CyGlobalIntEnable; /* Enable global interrupts. */
  61              		.loc 1 20 0 is_stmt 1
  62 0014 F0B5     		push	{r4, r5, r6, r7, lr}
  63              		.cfi_def_cfa_offset 20
  64              		.cfi_offset 4, -20
  65              		.cfi_offset 5, -16
  66              		.cfi_offset 6, -12
  67              		.cfi_offset 7, -8
  68              		.cfi_offset 14, -4
  69 0016 85B0     		sub	sp, sp, #20
  70              		.cfi_def_cfa_offset 40
  71              	.LVL3:
  25:main.c        ****     }
  26:main.c        ****     
  27:main.c        ****     //Para el filtro ponderiado
  28:main.c        ****     //Parametros escogidos por el usuario para según el diseño de su filtro
  29:main.c        ****     float b = 0.8; // 0<b<1
  30:main.c        ****     float pesos[ventana];//array para guardar los pesos calculados
  31:main.c        ****     
  32:main.c        ****     P(ventana,b,pesos);
  72              		.loc 1 32 0
  73 0018 01AA     		add	r2, sp, #4
  74 001a 2F49     		ldr	r1, .L8+4
  75 001c 0320     		movs	r0, #3
  76 001e FFF7FEFF 		bl	P
  77              	.LVL4:
  33:main.c        ****     
  34:main.c        ****     UART_Start();
ARM GAS  C:\Users\adria\AppData\Local\Temp\ccMciK9l.s 			page 3


  78              		.loc 1 34 0
  79 0022 FFF7FEFF 		bl	UART_Start
  80              	.LVL5:
  35:main.c        ****     ADC_Start();
  81              		.loc 1 35 0
  82 0026 FFF7FEFF 		bl	ADC_Start
  83              	.LVL6:
  36:main.c        ****     ADC_StartConvert();
  84              		.loc 1 36 0
  85 002a FFF7FEFF 		bl	ADC_StartConvert
  86              	.LVL7:
  87 002e 29E0     		b	.L4
  88              	.L6:
  37:main.c        ****     
  38:main.c        ****     for(;;)
  39:main.c        ****     {
  40:main.c        ****         
  41:main.c        ****         //hacemos nueva lectura
  42:main.c        ****         while(ADC_IsEndConversion(0x00u)){//Verifica que se haya terminado una converción
  43:main.c        ****             
  44:main.c        ****             suma = suma - array[cont]; //Quitamos viejo elemento
  89              		.loc 1 44 0
  90 0030 284E     		ldr	r6, .L8
  91 0032 2A4C     		ldr	r4, .L8+8
  92 0034 2368     		ldr	r3, [r4]
  93 0036 36F91320 		ldrsh	r2, [r6, r3, lsl #1]
  94 003a A388     		ldrh	r3, [r4, #4]
  95 003c 9B1A     		subs	r3, r3, r2
  96 003e A380     		strh	r3, [r4, #4]	@ movhi
  45:main.c        ****             
  46:main.c        ****             lec_binaria = ADC_GetResult16();//Recupera valor en el regisrtro del SAR
  97              		.loc 1 46 0
  98 0040 FFF7FEFF 		bl	ADC_GetResult16
  99              	.LVL8:
 100 0044 264B     		ldr	r3, .L8+12
 101 0046 1880     		strh	r0, [r3]	@ movhi
  47:main.c        ****             lec_Volts = ADC_CountsTo_mVolts(lec_binaria);//Hace converción a mV
 102              		.loc 1 47 0
 103 0048 FFF7FEFF 		bl	ADC_CountsTo_mVolts
 104              	.LVL9:
 105 004c 254B     		ldr	r3, .L8+16
 106 004e 1880     		strh	r0, [r3]	@ movhi
  48:main.c        ****             array[cont] = pesos[cont]*lec_Volts;
 107              		.loc 1 48 0
 108 0050 2568     		ldr	r5, [r4]
 109 0052 04AB     		add	r3, sp, #16
 110 0054 03EB8503 		add	r3, r3, r5, lsl #2
 111 0058 53F80C7C 		ldr	r7, [r3, #-12]	@ float
 112 005c FFF7FEFF 		bl	__aeabi_i2f
 113              	.LVL10:
 114 0060 3946     		mov	r1, r7
 115 0062 FFF7FEFF 		bl	__aeabi_fmul
 116              	.LVL11:
 117 0066 FFF7FEFF 		bl	__aeabi_f2iz
 118              	.LVL12:
 119 006a 00B2     		sxth	r0, r0
 120 006c 26F81500 		strh	r0, [r6, r5, lsl #1]	@ movhi
ARM GAS  C:\Users\adria\AppData\Local\Temp\ccMciK9l.s 			page 4


  49:main.c        ****             
  50:main.c        ****             suma = suma + array[cont];;//agregamos dato a la suma
 121              		.loc 1 50 0
 122 0070 A388     		ldrh	r3, [r4, #4]
 123 0072 1844     		add	r0, r0, r3
 124 0074 A080     		strh	r0, [r4, #4]	@ movhi
  51:main.c        ****             cont++;
 125              		.loc 1 51 0
 126 0076 0135     		adds	r5, r5, #1
 127 0078 2560     		str	r5, [r4]
  52:main.c        ****             
  53:main.c        ****             if(cont>=ventana){
 128              		.loc 1 53 0
 129 007a 022D     		cmp	r5, #2
 130 007c 07DD     		ble	.L5
  54:main.c        ****                  cont=0;
 131              		.loc 1 54 0
 132 007e 0022     		movs	r2, #0
 133 0080 2260     		str	r2, [r4]
 134 0082 04E0     		b	.L5
 135              	.L4:
  42:main.c        ****             
 136              		.loc 1 42 0
 137 0084 0020     		movs	r0, #0
 138 0086 FFF7FEFF 		bl	ADC_IsEndConversion
 139              	.LVL13:
 140 008a 0028     		cmp	r0, #0
 141 008c D0D1     		bne	.L6
 142              	.L5:
  55:main.c        ****             }
  56:main.c        ****             
  57:main.c        ****             
  58:main.c        ****             break;
  59:main.c        ****         }
  60:main.c        ****         
  61:main.c        ****         
  62:main.c        ****         
  63:main.c        ****         //Enviamos lectura con ruido
  64:main.c        ****         sprintf(NoFiltrado,"%d", lec_Volts);
 143              		.loc 1 64 0
 144 008e 164D     		ldr	r5, .L8+20
 145 0090 164C     		ldr	r4, .L8+24
 146 0092 144B     		ldr	r3, .L8+16
 147 0094 B3F90020 		ldrsh	r2, [r3]
 148 0098 2946     		mov	r1, r5
 149 009a 2046     		mov	r0, r4
 150 009c FFF7FEFF 		bl	sprintf
 151              	.LVL14:
  65:main.c        ****         UART_PutChar('R');//Mandamos un espacio de caractier para separar
 152              		.loc 1 65 0
 153 00a0 5220     		movs	r0, #82
 154 00a2 FFF7FEFF 		bl	UART_PutChar
 155              	.LVL15:
  66:main.c        ****         UART_PutString(NoFiltrado);
 156              		.loc 1 66 0
 157 00a6 2046     		mov	r0, r4
 158 00a8 FFF7FEFF 		bl	UART_PutString
ARM GAS  C:\Users\adria\AppData\Local\Temp\ccMciK9l.s 			page 5


 159              	.LVL16:
  67:main.c        ****         UART_PutChar('r');//Mandamos un espacio de caractier para separar
 160              		.loc 1 67 0
 161 00ac 7220     		movs	r0, #114
 162 00ae FFF7FEFF 		bl	UART_PutChar
 163              	.LVL17:
  68:main.c        ****         
  69:main.c        ****         //Convertimos a char para ponerlo en un array de char
  70:main.c        ****         sprintf(Filtrado,"%d",suma);
 164              		.loc 1 70 0
 165 00b2 0F4C     		ldr	r4, .L8+28
 166 00b4 094B     		ldr	r3, .L8+8
 167 00b6 9A88     		ldrh	r2, [r3, #4]
 168 00b8 2946     		mov	r1, r5
 169 00ba 2046     		mov	r0, r4
 170 00bc FFF7FEFF 		bl	sprintf
 171              	.LVL18:
  71:main.c        ****         UART_PutChar('F');//Mandamos un F de caractier para separar
 172              		.loc 1 71 0
 173 00c0 4620     		movs	r0, #70
 174 00c2 FFF7FEFF 		bl	UART_PutChar
 175              	.LVL19:
  72:main.c        ****         UART_PutString(Filtrado);//Mandamos la info ya filtrada     
 176              		.loc 1 72 0
 177 00c6 2046     		mov	r0, r4
 178 00c8 FFF7FEFF 		bl	UART_PutString
 179              	.LVL20:
  73:main.c        ****         UART_PutString("f\r\n");//fin de la trama
 180              		.loc 1 73 0
 181 00cc 0948     		ldr	r0, .L8+32
 182 00ce FFF7FEFF 		bl	UART_PutString
 183              	.LVL21:
  74:main.c        ****         
  75:main.c        ****     }    
 184              		.loc 1 75 0
 185 00d2 D7E7     		b	.L4
 186              	.L9:
 187              		.align	2
 188              	.L8:
 189 00d4 00000000 		.word	array
 190 00d8 CDCC4C3F 		.word	1061997773
 191 00dc 00000000 		.word	.LANCHOR0
 192 00e0 00000000 		.word	lec_binaria
 193 00e4 00000000 		.word	lec_Volts
 194 00e8 00000000 		.word	.LC0
 195 00ec 00000000 		.word	NoFiltrado
 196 00f0 00000000 		.word	Filtrado
 197 00f4 04000000 		.word	.LC1
 198              		.cfi_endproc
 199              	.LFE64:
 200              		.size	main, .-main
 201              		.global	promedio
 202              		.comm	array,6,4
 203              		.comm	NoFiltrado,5,4
 204              		.comm	Filtrado,5,4
 205              		.comm	lec_Volts,2,2
 206              		.comm	lec_binaria,2,2
ARM GAS  C:\Users\adria\AppData\Local\Temp\ccMciK9l.s 			page 6


 207              		.global	suma
 208              		.global	cont
 209              		.section	.rodata.str1.4,"aMS",%progbits,1
 210              		.align	2
 211              	.LC0:
 212 0000 256400   		.ascii	"%d\000"
 213 0003 00       		.space	1
 214              	.LC1:
 215 0004 660D0A00 		.ascii	"f\015\012\000"
 216              		.bss
 217              		.align	2
 218              		.set	.LANCHOR0,. + 0
 219              		.type	cont, %object
 220              		.size	cont, 4
 221              	cont:
 222 0000 00000000 		.space	4
 223              		.type	suma, %object
 224              		.size	suma, 2
 225              	suma:
 226 0004 0000     		.space	2
 227              		.type	promedio, %object
 228              		.size	promedio, 2
 229              	promedio:
 230 0006 0000     		.space	2
 231              		.text
 232              	.Letext0:
 233              		.file 2 "c:\\program files (x86)\\cypress\\psoc creator\\4.4\\psoc creator\\import\\gnu\\arm\\5.4.
 234              		.file 3 "c:\\program files (x86)\\cypress\\psoc creator\\4.4\\psoc creator\\import\\gnu\\arm\\5.4.
 235              		.file 4 "Generated_Source\\PSoC5/cytypes.h"
 236              		.file 5 "Generated_Source\\PSoC5/core_cm3.h"
 237              		.file 6 "Generated_Source\\PSoC5/UART.h"
 238              		.file 7 "Generated_Source\\PSoC5/ADC.h"
 239              		.file 8 "c:\\program files (x86)\\cypress\\psoc creator\\4.4\\psoc creator\\import\\gnu\\arm\\5.4.
 240              		.file 9 "./Cal_pesos.h"