ARM GAS  C:\Users\adria\AppData\Local\Temp\ccxAJFCe.s 			page 1


   1              		.syntax unified
   2              		.cpu cortex-m3
   3              		.fpu softvfp
   4              		.eabi_attribute 20, 1
   5              		.eabi_attribute 21, 1
   6              		.eabi_attribute 23, 3
   7              		.eabi_attribute 24, 1
   8              		.eabi_attribute 25, 1
   9              		.eabi_attribute 26, 1
  10              		.eabi_attribute 30, 1
  11              		.eabi_attribute 34, 1
  12              		.eabi_attribute 18, 4
  13              		.thumb
  14              		.syntax unified
  15              		.file	"main.c"
  16              		.text
  17              	.Ltext0:
  18              		.cfi_sections	.debug_frame
  19              		.section	.text.contador,"ax",%progbits
  20              		.align	2
  21              		.global	contador
  22              		.thumb
  23              		.thumb_func
  24              		.type	contador, %function
  25              	contador:
  26              	.LFB63:
  27              		.file 1 "main.c"
   1:main.c        **** #include "project.h"
   2:main.c        **** #include "D:\GITHUB\Librerias_PSOC\Libreria_PSOC\LIB_psoc.h"
   3:main.c        **** #include "..\..\lcd_7seg\Workspace01\LCD.cydsn\PSOC_LCD.h"
   4:main.c        **** 
   5:main.c        **** #define DENOMINADOR 100
   6:main.c        **** 
   7:main.c        **** //Rutina de sumado
   8:main.c        **** uint16_t on = DENOMINADOR, acomulador = 0;
   9:main.c        **** CY_ISR(contador){
  28              		.loc 1 9 0
  29              		.cfi_startproc
  30              		@ args = 0, pretend = 0, frame = 0
  31              		@ frame_needed = 0, uses_anonymous_args = 0
  32 0000 08B5     		push	{r3, lr}
  33              		.cfi_def_cfa_offset 8
  34              		.cfi_offset 3, -8
  35              		.cfi_offset 14, -4
  10:main.c        ****     contador_ClearPending();// Limpieza de interrupción
  36              		.loc 1 10 0
  37 0002 FFF7FEFF 		bl	contador_ClearPending
  38              	.LVL0:
  11:main.c        ****     
  12:main.c        ****     acomulador++; //65535 bits máximos
  39              		.loc 1 12 0
  40 0006 0C4A     		ldr	r2, .L6
  41 0008 1388     		ldrh	r3, [r2]
  42 000a 0133     		adds	r3, r3, #1
  43 000c 9BB2     		uxth	r3, r3
  44 000e 1380     		strh	r3, [r2]	@ movhi
  13:main.c        ****     
ARM GAS  C:\Users\adria\AppData\Local\Temp\ccxAJFCe.s 			page 2


  14:main.c        ****     if(acomulador >= DENOMINADOR){
  45              		.loc 1 14 0
  46 0010 632B     		cmp	r3, #99
  47 0012 02D9     		bls	.L2
  15:main.c        ****         acomulador =0;
  48              		.loc 1 15 0
  49 0014 0022     		movs	r2, #0
  50 0016 084B     		ldr	r3, .L6
  51 0018 1A80     		strh	r2, [r3]	@ movhi
  52              	.L2:
  16:main.c        ****     }
  17:main.c        ****     
  18:main.c        ****     /*
  19:main.c        ****         Al ser un relevador de estado solido todo integrado,
  20:main.c        ****         no hay problema en no activar con pulsos-disparo
  21:main.c        ****     */
  22:main.c        ****     if(on<=acomulador){//ON 
  53              		.loc 1 22 0
  54 001a 084B     		ldr	r3, .L6+4
  55 001c 1A88     		ldrh	r2, [r3]
  56 001e 064B     		ldr	r3, .L6
  57 0020 1B88     		ldrh	r3, [r3]
  58 0022 9A42     		cmp	r2, r3
  59 0024 03D8     		bhi	.L3
  23:main.c        ****         
  24:main.c        ****         Actuadores_Write(0xFF);
  60              		.loc 1 24 0
  61 0026 FF20     		movs	r0, #255
  62 0028 FFF7FEFF 		bl	Actuadores_Write
  63              	.LVL1:
  64 002c 08BD     		pop	{r3, pc}
  65              	.L3:
  25:main.c        ****         
  26:main.c        ****     }else{//OFF
  27:main.c        ****         
  28:main.c        ****         Actuadores_Write(0x00);
  66              		.loc 1 28 0
  67 002e 0020     		movs	r0, #0
  68 0030 FFF7FEFF 		bl	Actuadores_Write
  69              	.LVL2:
  70 0034 08BD     		pop	{r3, pc}
  71              	.L7:
  72 0036 00BF     		.align	2
  73              	.L6:
  74 0038 00000000 		.word	.LANCHOR0
  75 003c 00000000 		.word	.LANCHOR1
  76              		.cfi_endproc
  77              	.LFE63:
  78              		.size	contador, .-contador
  79              		.section	.text.actualizar,"ax",%progbits
  80              		.align	2
  81              		.global	actualizar
  82              		.thumb
  83              		.thumb_func
  84              		.type	actualizar, %function
  85              	actualizar:
  86              	.LFB64:
ARM GAS  C:\Users\adria\AppData\Local\Temp\ccxAJFCe.s 			page 3


  29:main.c        ****     }
  30:main.c        ****         
  31:main.c        **** }
  32:main.c        **** 
  33:main.c        **** uint8_t Potencia = 0;
  34:main.c        **** CY_ISR(actualizar){
  87              		.loc 1 34 0
  88              		.cfi_startproc
  89              		@ args = 0, pretend = 0, frame = 0
  90              		@ frame_needed = 0, uses_anonymous_args = 0
  91 0000 00B5     		push	{lr}
  92              		.cfi_def_cfa_offset 4
  93              		.cfi_offset 14, -4
  94 0002 83B0     		sub	sp, sp, #12
  95              		.cfi_def_cfa_offset 16
  35:main.c        ****     actualizar_ClearPending();
  96              		.loc 1 35 0
  97 0004 FFF7FEFF 		bl	actualizar_ClearPending
  98              	.LVL3:
  36:main.c        ****     
  37:main.c        ****     on = map(Potencia,0,100,0,DENOMINADOR);//Se actualiza la proporcion ON/OFF
  99              		.loc 1 37 0
 100 0008 064B     		ldr	r3, .L10
 101 000a 9878     		ldrb	r0, [r3, #2]	@ zero_extendqisi2
 102 000c 6422     		movs	r2, #100
 103 000e 0092     		str	r2, [sp]
 104 0010 0023     		movs	r3, #0
 105 0012 1946     		mov	r1, r3
 106 0014 FFF7FEFF 		bl	map
 107              	.LVL4:
 108 0018 034B     		ldr	r3, .L10+4
 109 001a 1880     		strh	r0, [r3]	@ movhi
  38:main.c        **** }
 110              		.loc 1 38 0
 111 001c 03B0     		add	sp, sp, #12
 112              		.cfi_def_cfa_offset 4
 113              		@ sp needed
 114 001e 5DF804FB 		ldr	pc, [sp], #4
 115              	.L11:
 116 0022 00BF     		.align	2
 117              	.L10:
 118 0024 00000000 		.word	.LANCHOR0
 119 0028 00000000 		.word	.LANCHOR1
 120              		.cfi_endproc
 121              	.LFE64:
 122              		.size	actualizar, .-actualizar
 123              		.section	.text.main,"ax",%progbits
 124              		.align	2
 125              		.global	main
 126              		.thumb
 127              		.thumb_func
 128              		.type	main, %function
 129              	main:
 130              	.LFB65:
  39:main.c        **** 
  40:main.c        **** 
  41:main.c        **** int main(void)
ARM GAS  C:\Users\adria\AppData\Local\Temp\ccxAJFCe.s 			page 4


  42:main.c        **** {
 131              		.loc 1 42 0
 132              		.cfi_startproc
 133              		@ args = 0, pretend = 0, frame = 0
 134              		@ frame_needed = 0, uses_anonymous_args = 0
 135 0000 10B5     		push	{r4, lr}
 136              		.cfi_def_cfa_offset 8
 137              		.cfi_offset 4, -8
 138              		.cfi_offset 14, -4
  43:main.c        ****     CyGlobalIntEnable; /* Enable global interrupts. */
 139              		.loc 1 43 0
 140              		.syntax unified
 141              	@ 43 "main.c" 1
 142 0002 62B6     		CPSIE   i
 143              	@ 0 "" 2
  44:main.c        ****     
  45:main.c        ****     //Interrrupciones
  46:main.c        ****     contador_StartEx(contador);// Inicializar interrupción física
 144              		.loc 1 46 0
 145              		.thumb
 146              		.syntax unified
 147 0004 1E48     		ldr	r0, .L17
 148 0006 FFF7FEFF 		bl	contador_StartEx
 149              	.LVL5:
  47:main.c        ****     contador_ClearPending();  // Limpieza de interrupción
 150              		.loc 1 47 0
 151 000a FFF7FEFF 		bl	contador_ClearPending
 152              	.LVL6:
  48:main.c        ****     
  49:main.c        ****     actualizar_StartEx(actualizar);
 153              		.loc 1 49 0
 154 000e 1D48     		ldr	r0, .L17+4
 155 0010 FFF7FEFF 		bl	actualizar_StartEx
 156              	.LVL7:
  50:main.c        ****     actualizar_ClearPending();
 157              		.loc 1 50 0
 158 0014 FFF7FEFF 		bl	actualizar_ClearPending
 159              	.LVL8:
  51:main.c        ****     btns_InterruptEnable();
 160              		.loc 1 51 0
 161 0018 FFF7FEFF 		bl	btns_InterruptEnable
 162              	.LVL9:
  52:main.c        ****     
  53:main.c        ****     
  54:main.c        ****     //lcd CONFIG INICIAL
  55:main.c        ****     LCD_Start();
 163              		.loc 1 55 0
 164 001c FFF7FEFF 		bl	LCD_Start
 165              	.LVL10:
  56:main.c        ****     LCD_Position(0,0);
 166              		.loc 1 56 0
 167 0020 0021     		movs	r1, #0
 168 0022 0846     		mov	r0, r1
 169 0024 FFF7FEFF 		bl	LCD_Position
 170              	.LVL11:
  57:main.c        ****     LCD_PrintString("Potencia:");
 171              		.loc 1 57 0
ARM GAS  C:\Users\adria\AppData\Local\Temp\ccxAJFCe.s 			page 5


 172 0028 1748     		ldr	r0, .L17+8
 173 002a FFF7FEFF 		bl	LCD_PrintString
 174              	.LVL12:
 175              	.L15:
  58:main.c        ****     
  59:main.c        ****     uint8_t btns;
  60:main.c        ****     
  61:main.c        ****     for(;;)
  62:main.c        ****     {
  63:main.c        ****         btns = btns_Read();//checamos botones
 176              		.loc 1 63 0
 177 002e FFF7FEFF 		bl	btns_Read
 178              	.LVL13:
 179 0032 0446     		mov	r4, r0
 180              	.LVL14:
  64:main.c        ****         CyDelay(100);
 181              		.loc 1 64 0
 182 0034 6420     		movs	r0, #100
 183 0036 FFF7FEFF 		bl	CyDelay
 184              	.LVL15:
  65:main.c        ****         
  66:main.c        ****         //SUMAMOS O RESTAMOS SEGUN SE QUIERA EL USUARIO
  67:main.c        ****         if(btns & BIT0){
 185              		.loc 1 67 0
 186 003a 14F0010F 		tst	r4, #1
 187 003e 03D0     		beq	.L13
  68:main.c        ****             Potencia++;
 188              		.loc 1 68 0
 189 0040 124A     		ldr	r2, .L17+12
 190 0042 9378     		ldrb	r3, [r2, #2]	@ zero_extendqisi2
 191 0044 0133     		adds	r3, r3, #1
 192 0046 9370     		strb	r3, [r2, #2]
 193              	.L13:
  69:main.c        ****         }
  70:main.c        ****         
  71:main.c        ****         if((btns & BIT1)>>1){
 194              		.loc 1 71 0
 195 0048 14F0020F 		tst	r4, #2
 196 004c 03D0     		beq	.L14
  72:main.c        ****             Potencia--;
 197              		.loc 1 72 0
 198 004e 0F4A     		ldr	r2, .L17+12
 199 0050 9378     		ldrb	r3, [r2, #2]	@ zero_extendqisi2
 200 0052 013B     		subs	r3, r3, #1
 201 0054 9370     		strb	r3, [r2, #2]
 202              	.L14:
  73:main.c        ****         }
  74:main.c        ****         
  75:main.c        ****         //TRUNCAMOS SI SE SATURA EL ACTUADORS
  76:main.c        ****         Potencia = trunca(Potencia,0,100);
 203              		.loc 1 76 0
 204 0056 0D4C     		ldr	r4, .L17+12
 205              	.LVL16:
 206 0058 6422     		movs	r2, #100
 207 005a 0021     		movs	r1, #0
 208 005c A078     		ldrb	r0, [r4, #2]	@ zero_extendqisi2
 209 005e FFF7FEFF 		bl	trunca
ARM GAS  C:\Users\adria\AppData\Local\Temp\ccxAJFCe.s 			page 6


 210              	.LVL17:
 211 0062 A070     		strb	r0, [r4, #2]
  77:main.c        **** 
  78:main.c        ****         //Atualizamos el angulo de disparo
  79:main.c        ****         LCD_Position(1,0);
 212              		.loc 1 79 0
 213 0064 0021     		movs	r1, #0
 214 0066 0120     		movs	r0, #1
 215 0068 FFF7FEFF 		bl	LCD_Position
 216              	.LVL18:
  80:main.c        ****         LCD_PrintNumber(100-Potencia);
 217              		.loc 1 80 0
 218 006c A078     		ldrb	r0, [r4, #2]	@ zero_extendqisi2
 219 006e C0F16400 		rsb	r0, r0, #100
 220 0072 FFF7FEFF 		bl	LCD_PrintNumber
 221              	.LVL19:
  81:main.c        ****         LCD_PrintString("%              ");
 222              		.loc 1 81 0
 223 0076 0648     		ldr	r0, .L17+16
 224 0078 FFF7FEFF 		bl	LCD_PrintString
 225              	.LVL20:
  82:main.c        ****         
  83:main.c        ****     }
 226              		.loc 1 83 0
 227 007c D7E7     		b	.L15
 228              	.L18:
 229 007e 00BF     		.align	2
 230              	.L17:
 231 0080 00000000 		.word	contador
 232 0084 00000000 		.word	actualizar
 233 0088 00000000 		.word	.LC0
 234 008c 00000000 		.word	.LANCHOR0
 235 0090 0C000000 		.word	.LC1
 236              		.cfi_endproc
 237              	.LFE65:
 238              		.size	main, .-main
 239              		.global	Potencia
 240              		.global	acomulador
 241              		.global	on
 242              		.data
 243              		.align	1
 244              		.set	.LANCHOR1,. + 0
 245              		.type	on, %object
 246              		.size	on, 2
 247              	on:
 248 0000 6400     		.short	100
 249              		.section	.rodata.str1.4,"aMS",%progbits,1
 250              		.align	2
 251              	.LC0:
 252 0000 506F7465 		.ascii	"Potencia:\000"
 252      6E636961 
 252      3A00
 253 000a 0000     		.space	2
 254              	.LC1:
 255 000c 25202020 		.ascii	"%              \000"
 255      20202020 
 255      20202020 
ARM GAS  C:\Users\adria\AppData\Local\Temp\ccxAJFCe.s 			page 7


 255      20202000 
 256              		.bss
 257              		.align	1
 258              		.set	.LANCHOR0,. + 0
 259              		.type	acomulador, %object
 260              		.size	acomulador, 2
 261              	acomulador:
 262 0000 0000     		.space	2
 263              		.type	Potencia, %object
 264              		.size	Potencia, 1
 265              	Potencia:
 266 0002 00       		.space	1
 267              		.text
 268              	.Letext0:
 269              		.file 2 "c:\\program files (x86)\\cypress\\psoc creator\\4.4\\psoc creator\\import\\gnu\\arm\\5.4.
 270              		.file 3 "c:\\program files (x86)\\cypress\\psoc creator\\4.4\\psoc creator\\import\\gnu\\arm\\5.4.
 271              		.file 4 "Generated_Source\\PSoC5/core_cm3.h"
 272              		.file 5 "Generated_Source\\PSoC5/contador.h"
 273              		.file 6 "Generated_Source\\PSoC5/Actuadores.h"
 274              		.file 7 "Generated_Source\\PSoC5/actualizar.h"
 275              		.file 8 "Generated_Source\\PSoC5/btns.h"
 276              		.file 9 "..\\..\\lcd_7seg\\Workspace01\\LCD.cydsn\\PSOC_LCD.h"
 277              		.file 10 "Generated_Source\\PSoC5/CyLib.h"
 278              		.file 11 "D:\\GITHUB\\Librerias_PSOC\\Libreria_PSOC\\LIB_psoc.h"