ARM GAS  C:\Users\adria\AppData\Local\Temp\cc5MA72K.s 			page 1


   1              		.syntax unified
   2              		.cpu cortex-m3
   3              		.fpu softvfp
   4              		.eabi_attribute 20, 1
   5              		.eabi_attribute 21, 1
   6              		.eabi_attribute 23, 3
   7              		.eabi_attribute 24, 1
   8              		.eabi_attribute 25, 1
   9              		.eabi_attribute 26, 1
  10              		.eabi_attribute 30, 1
  11              		.eabi_attribute 34, 1
  12              		.eabi_attribute 18, 4
  13              		.thumb
  14              		.syntax unified
  15              		.file	"main.c"
  16              		.text
  17              	.Ltext0:
  18              		.cfi_sections	.debug_frame
  19              		.section	.text.isr,"ax",%progbits
  20              		.align	2
  21              		.global	isr
  22              		.thumb
  23              		.thumb_func
  24              		.type	isr, %function
  25              	isr:
  26              	.LFB64:
  27              		.file 1 "main.c"
   1:main.c        **** #include "project.h"
   2:main.c        **** #include "D:\GITHUB\Librerias_PSOC\Libreria_PSOC\LIB_psoc.h"
   3:main.c        **** #include "PSOC_LCD.h"   //Libreria lcd
   4:main.c        **** #include "string.h"     // Cadenas de texto
   5:main.c        **** #include "stdio.h"      // IO en general *sprintf*
   6:main.c        **** 
   7:main.c        **** //Rutina de interrrupción
   8:main.c        **** uint8_t flag = 0x00;//Bandera de interrupión de la uart
   9:main.c        **** CY_ISR(isr){
  28              		.loc 1 9 0
  29              		.cfi_startproc
  30              		@ args = 0, pretend = 0, frame = 0
  31              		@ frame_needed = 0, uses_anonymous_args = 0
  32 0000 08B5     		push	{r3, lr}
  33              		.cfi_def_cfa_offset 8
  34              		.cfi_offset 3, -8
  35              		.cfi_offset 14, -4
  10:main.c        ****     isr_ClearPending();  // Limpieza de interrupción
  36              		.loc 1 10 0
  37 0002 FFF7FEFF 		bl	isr_ClearPending
  38              	.LVL0:
  11:main.c        ****     flag |= BIT0;// Bandera de dato recibido  
  39              		.loc 1 11 0
  40 0006 034A     		ldr	r2, .L3
  41 0008 1378     		ldrb	r3, [r2]	@ zero_extendqisi2
  42 000a 43F00103 		orr	r3, r3, #1
  43 000e 1370     		strb	r3, [r2]
  44 0010 08BD     		pop	{r3, pc}
  45              	.L4:
  46 0012 00BF     		.align	2
ARM GAS  C:\Users\adria\AppData\Local\Temp\cc5MA72K.s 			page 2


  47              	.L3:
  48 0014 00000000 		.word	.LANCHOR0
  49              		.cfi_endproc
  50              	.LFE64:
  51              		.size	isr, .-isr
  52              		.section	.text.main,"ax",%progbits
  53              		.align	2
  54              		.global	main
  55              		.thumb
  56              		.thumb_func
  57              		.type	main, %function
  58              	main:
  59              	.LFB65:
  12:main.c        **** }
  13:main.c        **** 
  14:main.c        **** //Son 36 bytes por cantidad máxima del lcd 2*16 
  15:main.c        **** char buffer[32], buffer_renglon1[16],buffer_renglon2[16];//Buffer para lectura
  16:main.c        **** char *posicion;//Puntero pra eliminar elemento
  17:main.c        **** 
  18:main.c        **** int main(void)
  19:main.c        **** {
  60              		.loc 1 19 0
  61              		.cfi_startproc
  62              		@ args = 0, pretend = 0, frame = 0
  63              		@ frame_needed = 0, uses_anonymous_args = 0
  64 0000 F8B5     		push	{r3, r4, r5, r6, r7, lr}
  65              		.cfi_def_cfa_offset 24
  66              		.cfi_offset 3, -24
  67              		.cfi_offset 4, -20
  68              		.cfi_offset 5, -16
  69              		.cfi_offset 6, -12
  70              		.cfi_offset 7, -8
  71              		.cfi_offset 14, -4
  20:main.c        ****     //INTERRUPCIONES
  21:main.c        ****     CyGlobalIntEnable;
  72              		.loc 1 21 0
  73              		.syntax unified
  74              	@ 21 "main.c" 1
  75 0002 62B6     		CPSIE   i
  76              	@ 0 "" 2
  22:main.c        ****     isr_StartEx(isr);// Inicializar interrupción física
  77              		.loc 1 22 0
  78              		.thumb
  79              		.syntax unified
  80 0004 2F48     		ldr	r0, .L12
  81 0006 FFF7FEFF 		bl	isr_StartEx
  82              	.LVL1:
  23:main.c        ****     isr_ClearPending();// Limpiar por primera vez la interrupción
  83              		.loc 1 23 0
  84 000a FFF7FEFF 		bl	isr_ClearPending
  85              	.LVL2:
  24:main.c        ****     
  25:main.c        ****     //UART
  26:main.c        ****     UART_Start();// Corre UART
  86              		.loc 1 26 0
  87 000e FFF7FEFF 		bl	UART_Start
  88              	.LVL3:
ARM GAS  C:\Users\adria\AppData\Local\Temp\cc5MA72K.s 			page 3


  27:main.c        ****     UART_ClearRxBuffer();//Limpiamos el buffer del UART
  89              		.loc 1 27 0
  90 0012 FFF7FEFF 		bl	UART_ClearRxBuffer
  91              	.LVL4:
  28:main.c        ****     
  29:main.c        ****     //PERIFERICOS VARIOS
  30:main.c        ****     LED_Write(~BIT1);//Led verde de listo para comenzar
  92              		.loc 1 30 0
  93 0016 FD20     		movs	r0, #253
  94 0018 FFF7FEFF 		bl	LED_Write
  95              	.LVL5:
  31:main.c        ****     
  32:main.c        ****     //Inicializamos la pantalla
  33:main.c        ****     LCD_Start();
  96              		.loc 1 33 0
  97 001c FFF7FEFF 		bl	LCD_Start
  98              	.LVL6:
  34:main.c        ****     LCD_PrintString("Un saludo a la");
  99              		.loc 1 34 0
 100 0020 2948     		ldr	r0, .L12+4
 101 0022 FFF7FEFF 		bl	LCD_PrintString
 102              	.LVL7:
  35:main.c        ****     LCD_Position(1,0);
 103              		.loc 1 35 0
 104 0026 0021     		movs	r1, #0
 105 0028 0120     		movs	r0, #1
 106 002a FFF7FEFF 		bl	LCD_Position
 107              	.LVL8:
  36:main.c        ****     LCD_PrintString("grasa!!! WAZAAAA");
 108              		.loc 1 36 0
 109 002e 2748     		ldr	r0, .L12+8
 110 0030 FFF7FEFF 		bl	LCD_PrintString
 111              	.LVL9:
  37:main.c        ****     CyDelay(3000);
 112              		.loc 1 37 0
 113 0034 40F6B830 		movw	r0, #3000
 114 0038 FFF7FEFF 		bl	CyDelay
 115              	.LVL10:
  38:main.c        ****     LCD_ClearDisplay();
 116              		.loc 1 38 0
 117 003c FFF7FEFF 		bl	LCD_ClearDisplay
 118              	.LVL11:
 119              	.L10:
  19:main.c        ****     //INTERRUPCIONES
 120              		.loc 1 19 0
 121 0040 0024     		movs	r4, #0
 122              	.LVL12:
 123              	.L6:
  39:main.c        ****     
  40:main.c        ****     uint8_t i = 0;//variable auxiliar para la captura de info input del UART
  41:main.c        ****     for(;;)
  42:main.c        ****     {
  43:main.c        ****         //RUTINA PARA CAPTURAR EL DATO ENVIADO POR EL uart
  44:main.c        ****         if(flag == BIT0){//Se envió un mensaje por la UART
 124              		.loc 1 44 0
 125 0042 234B     		ldr	r3, .L12+12
 126 0044 1B78     		ldrb	r3, [r3]	@ zero_extendqisi2
ARM GAS  C:\Users\adria\AppData\Local\Temp\cc5MA72K.s 			page 4


 127 0046 012B     		cmp	r3, #1
 128 0048 FBD1     		bne	.L6
  45:main.c        ****             flag &= ~BIT0;//Tiramos la bandera
 129              		.loc 1 45 0
 130 004a 23F00103 		bic	r3, r3, #1
 131 004e 204A     		ldr	r2, .L12+12
 132 0050 1370     		strb	r3, [r2]
  46:main.c        ****             
  47:main.c        ****             buffer[i] =  UART_GetByte();//Agregamos al arreglo el ascci del caracter recibido
 133              		.loc 1 47 0
 134 0052 FFF7FEFF 		bl	UART_GetByte
 135              	.LVL13:
 136 0056 1F4B     		ldr	r3, .L12+16
 137 0058 1855     		strb	r0, [r3, r4]
  48:main.c        ****             i++;
 138              		.loc 1 48 0
 139 005a 0134     		adds	r4, r4, #1
 140              	.LVL14:
 141 005c E4B2     		uxtb	r4, r4
 142              	.LVL15:
  49:main.c        ****             
  50:main.c        ****             if(buffer[i-1] == '.') {//Cortamos al detectar una arroba
 143              		.loc 1 50 0
 144 005e 621E     		subs	r2, r4, #1
 145 0060 9B5C     		ldrb	r3, [r3, r2]	@ zero_extendqisi2
 146 0062 2E2B     		cmp	r3, #46
 147 0064 EDD1     		bne	.L6
  51:main.c        ****                 // Eliminamos el @ 
  52:main.c        ****                 LED_Write(~BIT0);//Encendemos rojo 
 148              		.loc 1 52 0
 149 0066 FE20     		movs	r0, #254
 150 0068 FFF7FEFF 		bl	LED_Write
 151              	.LVL16:
  53:main.c        ****                 
  54:main.c        ****                 // Copiamos el buffer al arreglo para imprimir en el lcd
  55:main.c        ****                 // Copiamos el buffer al arreglo para imprimir en el lcd
  56:main.c        ****                 strncpy(buffer_renglon1, buffer, 16); // Copiar elementos del 0 al 15 a buffer_reng
 152              		.loc 1 56 0
 153 006c 194F     		ldr	r7, .L12+16
 154 006e 1A4E     		ldr	r6, .L12+20
 155 0070 1022     		movs	r2, #16
 156 0072 3946     		mov	r1, r7
 157 0074 3046     		mov	r0, r6
 158 0076 FFF7FEFF 		bl	strncpy
 159              	.LVL17:
  57:main.c        ****                 buffer_renglon1[15] = '\0'; // Añadir el carácter nulo manualmente para terminar 
 160              		.loc 1 57 0
 161 007a 0024     		movs	r4, #0
 162              	.LVL18:
 163 007c F473     		strb	r4, [r6, #15]
  58:main.c        **** 
  59:main.c        ****                 strncpy(buffer_renglon2, buffer + 16, 16); // Copiar elementos del 16 al 31 a buffe
 164              		.loc 1 59 0
 165 007e 174D     		ldr	r5, .L12+24
 166 0080 1022     		movs	r2, #16
 167 0082 B918     		adds	r1, r7, r2
 168 0084 2846     		mov	r0, r5
ARM GAS  C:\Users\adria\AppData\Local\Temp\cc5MA72K.s 			page 5


 169 0086 FFF7FEFF 		bl	strncpy
 170              	.LVL19:
  60:main.c        ****                 buffer_renglon2[15] = '\0'; // Añadir el carácter nulo manualmente para terminar 
 171              		.loc 1 60 0
 172 008a EC73     		strb	r4, [r5, #15]
  61:main.c        ****                 
  62:main.c        ****                 //Imprimimos en el lcd
  63:main.c        ****                 LCD_ClearDisplay();
 173              		.loc 1 63 0
 174 008c FFF7FEFF 		bl	LCD_ClearDisplay
 175              	.LVL20:
  64:main.c        ****                 LCD_Position(0,0);
 176              		.loc 1 64 0
 177 0090 2146     		mov	r1, r4
 178 0092 2046     		mov	r0, r4
 179 0094 FFF7FEFF 		bl	LCD_Position
 180              	.LVL21:
  65:main.c        ****                 LCD_PrintString(buffer_renglon1);
 181              		.loc 1 65 0
 182 0098 3046     		mov	r0, r6
 183 009a FFF7FEFF 		bl	LCD_PrintString
 184              	.LVL22:
  66:main.c        ****                 LCD_Position(1,0);
 185              		.loc 1 66 0
 186 009e 2146     		mov	r1, r4
 187 00a0 0120     		movs	r0, #1
 188 00a2 FFF7FEFF 		bl	LCD_Position
 189              	.LVL23:
  67:main.c        ****                 LCD_PrintString(buffer_renglon2);
 190              		.loc 1 67 0
 191 00a6 2846     		mov	r0, r5
 192 00a8 FFF7FEFF 		bl	LCD_PrintString
 193              	.LVL24:
 194              	.LBB2:
  68:main.c        ****                 
  69:main.c        ****                 //Limpiamos el buffer de lectura
  70:main.c        ****                 for(int a=0;a<32;a++){
 195              		.loc 1 70 0
 196 00ac 2146     		mov	r1, r4
 197 00ae 03E0     		b	.L8
 198              	.LVL25:
 199              	.L9:
  71:main.c        ****                     buffer[a] = 0x00;
 200              		.loc 1 71 0 discriminator 3
 201 00b0 0022     		movs	r2, #0
 202 00b2 084B     		ldr	r3, .L12+16
 203 00b4 5A54     		strb	r2, [r3, r1]
  70:main.c        ****                     buffer[a] = 0x00;
 204              		.loc 1 70 0 discriminator 3
 205 00b6 0131     		adds	r1, r1, #1
 206              	.LVL26:
 207              	.L8:
  70:main.c        ****                     buffer[a] = 0x00;
 208              		.loc 1 70 0 is_stmt 0 discriminator 1
 209 00b8 1F29     		cmp	r1, #31
 210 00ba F9DD     		ble	.L9
 211              	.LVL27:
ARM GAS  C:\Users\adria\AppData\Local\Temp\cc5MA72K.s 			page 6


 212              	.LBE2:
  72:main.c        ****                 }
  73:main.c        ****                 
  74:main.c        ****                i=0;//Seteamos
  75:main.c        ****                LED_Write(~BIT2);//Encendemos azul como indicador de algo impreso  
 213              		.loc 1 75 0 is_stmt 1
 214 00bc FB20     		movs	r0, #251
 215 00be FFF7FEFF 		bl	LED_Write
 216              	.LVL28:
 217 00c2 BDE7     		b	.L10
 218              	.L13:
 219              		.align	2
 220              	.L12:
 221 00c4 00000000 		.word	isr
 222 00c8 00000000 		.word	.LC0
 223 00cc 10000000 		.word	.LC1
 224 00d0 00000000 		.word	.LANCHOR0
 225 00d4 00000000 		.word	buffer
 226 00d8 00000000 		.word	buffer_renglon1
 227 00dc 00000000 		.word	buffer_renglon2
 228              		.cfi_endproc
 229              	.LFE65:
 230              		.size	main, .-main
 231              		.comm	posicion,4,4
 232              		.comm	buffer_renglon2,16,4
 233              		.comm	buffer_renglon1,16,4
 234              		.comm	buffer,32,4
 235              		.global	flag
 236              		.section	.rodata.str1.4,"aMS",%progbits,1
 237              		.align	2
 238              	.LC0:
 239 0000 556E2073 		.ascii	"Un saludo a la\000"
 239      616C7564 
 239      6F206120 
 239      6C6100
 240 000f 00       		.space	1
 241              	.LC1:
 242 0010 67726173 		.ascii	"grasa!!! WAZAAAA\000"
 242      61212121 
 242      2057415A 
 242      41414141 
 242      00
 243              		.bss
 244              		.set	.LANCHOR0,. + 0
 245              		.type	flag, %object
 246              		.size	flag, 1
 247              	flag:
 248 0000 00       		.space	1
 249              		.text
 250              	.Letext0:
 251              		.file 2 "c:\\program files (x86)\\cypress\\psoc creator\\4.4\\psoc creator\\import\\gnu\\arm\\5.4.
 252              		.file 3 "c:\\program files (x86)\\cypress\\psoc creator\\4.4\\psoc creator\\import\\gnu\\arm\\5.4.
 253              		.file 4 "Generated_Source\\PSoC5/core_cm3.h"
 254              		.file 5 "Generated_Source\\PSoC5/isr.h"
 255              		.file 6 "Generated_Source\\PSoC5/UART.h"
 256              		.file 7 "Generated_Source\\PSoC5/LED.h"
 257              		.file 8 "PSOC_LCD.h"
ARM GAS  C:\Users\adria\AppData\Local\Temp\cc5MA72K.s 			page 7


 258              		.file 9 "Generated_Source\\PSoC5/CyLib.h"
 259              		.file 10 "c:\\program files (x86)\\cypress\\psoc creator\\4.4\\psoc creator\\import\\gnu\\arm\\5.4