ARM GAS  C:\Users\adria\AppData\Local\Temp\ccp4M7OT.s 			page 1


   1              		.syntax unified
   2              		.cpu cortex-m3
   3              		.fpu softvfp
   4              		.eabi_attribute 20, 1
   5              		.eabi_attribute 21, 1
   6              		.eabi_attribute 23, 3
   7              		.eabi_attribute 24, 1
   8              		.eabi_attribute 25, 1
   9              		.eabi_attribute 26, 1
  10              		.eabi_attribute 30, 1
  11              		.eabi_attribute 34, 1
  12              		.eabi_attribute 18, 4
  13              		.thumb
  14              		.syntax unified
  15              		.file	"UART.c"
  16              		.text
  17              	.Ltext0:
  18              		.cfi_sections	.debug_frame
  19              		.section	.text.UART_Enable,"ax",%progbits
  20              		.align	2
  21              		.global	UART_Enable
  22              		.thumb
  23              		.thumb_func
  24              		.type	UART_Enable, %function
  25              	UART_Enable:
  26              	.LFB2:
  27              		.file 1 "Generated_Source\\PSoC5\\UART.c"
   1:Generated_Source\PSoC5/UART.c **** /*******************************************************************************
   2:Generated_Source\PSoC5/UART.c **** * File Name: UART.c
   3:Generated_Source\PSoC5/UART.c **** * Version 2.50
   4:Generated_Source\PSoC5/UART.c **** *
   5:Generated_Source\PSoC5/UART.c **** * Description:
   6:Generated_Source\PSoC5/UART.c **** *  This file provides all API functionality of the UART component
   7:Generated_Source\PSoC5/UART.c **** *
   8:Generated_Source\PSoC5/UART.c **** * Note:
   9:Generated_Source\PSoC5/UART.c **** *
  10:Generated_Source\PSoC5/UART.c **** ********************************************************************************
  11:Generated_Source\PSoC5/UART.c **** * Copyright 2008-2015, Cypress Semiconductor Corporation.  All rights reserved.
  12:Generated_Source\PSoC5/UART.c **** * You may use this file only in accordance with the license, terms, conditions,
  13:Generated_Source\PSoC5/UART.c **** * disclaimers, and limitations in the end user license agreement accompanying
  14:Generated_Source\PSoC5/UART.c **** * the software package with which this file was provided.
  15:Generated_Source\PSoC5/UART.c **** *******************************************************************************/
  16:Generated_Source\PSoC5/UART.c **** 
  17:Generated_Source\PSoC5/UART.c **** #include "UART.h"
  18:Generated_Source\PSoC5/UART.c **** #if (UART_INTERNAL_CLOCK_USED)
  19:Generated_Source\PSoC5/UART.c ****     #include "UART_IntClock.h"
  20:Generated_Source\PSoC5/UART.c **** #endif /* End UART_INTERNAL_CLOCK_USED */
  21:Generated_Source\PSoC5/UART.c **** 
  22:Generated_Source\PSoC5/UART.c **** 
  23:Generated_Source\PSoC5/UART.c **** /***************************************
  24:Generated_Source\PSoC5/UART.c **** * Global data allocation
  25:Generated_Source\PSoC5/UART.c **** ***************************************/
  26:Generated_Source\PSoC5/UART.c **** 
  27:Generated_Source\PSoC5/UART.c **** uint8 UART_initVar = 0u;
  28:Generated_Source\PSoC5/UART.c **** 
  29:Generated_Source\PSoC5/UART.c **** #if (UART_TX_INTERRUPT_ENABLED && UART_TX_ENABLED)
  30:Generated_Source\PSoC5/UART.c ****     volatile uint8 UART_txBuffer[UART_TX_BUFFER_SIZE];
ARM GAS  C:\Users\adria\AppData\Local\Temp\ccp4M7OT.s 			page 2


  31:Generated_Source\PSoC5/UART.c ****     volatile uint8 UART_txBufferRead = 0u;
  32:Generated_Source\PSoC5/UART.c ****     uint8 UART_txBufferWrite = 0u;
  33:Generated_Source\PSoC5/UART.c **** #endif /* (UART_TX_INTERRUPT_ENABLED && UART_TX_ENABLED) */
  34:Generated_Source\PSoC5/UART.c **** 
  35:Generated_Source\PSoC5/UART.c **** #if (UART_RX_INTERRUPT_ENABLED && (UART_RX_ENABLED || UART_HD_ENABLED))
  36:Generated_Source\PSoC5/UART.c ****     uint8 UART_errorStatus = 0u;
  37:Generated_Source\PSoC5/UART.c ****     volatile uint8 UART_rxBuffer[UART_RX_BUFFER_SIZE];
  38:Generated_Source\PSoC5/UART.c ****     volatile uint8 UART_rxBufferRead  = 0u;
  39:Generated_Source\PSoC5/UART.c ****     volatile uint8 UART_rxBufferWrite = 0u;
  40:Generated_Source\PSoC5/UART.c ****     volatile uint8 UART_rxBufferLoopDetect = 0u;
  41:Generated_Source\PSoC5/UART.c ****     volatile uint8 UART_rxBufferOverflow   = 0u;
  42:Generated_Source\PSoC5/UART.c ****     #if (UART_RXHW_ADDRESS_ENABLED)
  43:Generated_Source\PSoC5/UART.c ****         volatile uint8 UART_rxAddressMode = UART_RX_ADDRESS_MODE;
  44:Generated_Source\PSoC5/UART.c ****         volatile uint8 UART_rxAddressDetected = 0u;
  45:Generated_Source\PSoC5/UART.c ****     #endif /* (UART_RXHW_ADDRESS_ENABLED) */
  46:Generated_Source\PSoC5/UART.c **** #endif /* (UART_RX_INTERRUPT_ENABLED && (UART_RX_ENABLED || UART_HD_ENABLED)) */
  47:Generated_Source\PSoC5/UART.c **** 
  48:Generated_Source\PSoC5/UART.c **** 
  49:Generated_Source\PSoC5/UART.c **** /*******************************************************************************
  50:Generated_Source\PSoC5/UART.c **** * Function Name: UART_Start
  51:Generated_Source\PSoC5/UART.c **** ********************************************************************************
  52:Generated_Source\PSoC5/UART.c **** *
  53:Generated_Source\PSoC5/UART.c **** * Summary:
  54:Generated_Source\PSoC5/UART.c **** *  This is the preferred method to begin component operation.
  55:Generated_Source\PSoC5/UART.c **** *  UART_Start() sets the initVar variable, calls the
  56:Generated_Source\PSoC5/UART.c **** *  UART_Init() function, and then calls the
  57:Generated_Source\PSoC5/UART.c **** *  UART_Enable() function.
  58:Generated_Source\PSoC5/UART.c **** *
  59:Generated_Source\PSoC5/UART.c **** * Parameters:
  60:Generated_Source\PSoC5/UART.c **** *  None.
  61:Generated_Source\PSoC5/UART.c **** *
  62:Generated_Source\PSoC5/UART.c **** * Return:
  63:Generated_Source\PSoC5/UART.c **** *  None.
  64:Generated_Source\PSoC5/UART.c **** *
  65:Generated_Source\PSoC5/UART.c **** * Global variables:
  66:Generated_Source\PSoC5/UART.c **** *  The UART_intiVar variable is used to indicate initial
  67:Generated_Source\PSoC5/UART.c **** *  configuration of this component. The variable is initialized to zero (0u)
  68:Generated_Source\PSoC5/UART.c **** *  and set to one (1u) the first time UART_Start() is called. This
  69:Generated_Source\PSoC5/UART.c **** *  allows for component initialization without re-initialization in all
  70:Generated_Source\PSoC5/UART.c **** *  subsequent calls to the UART_Start() routine.
  71:Generated_Source\PSoC5/UART.c **** *
  72:Generated_Source\PSoC5/UART.c **** * Reentrant:
  73:Generated_Source\PSoC5/UART.c **** *  No.
  74:Generated_Source\PSoC5/UART.c **** *
  75:Generated_Source\PSoC5/UART.c **** *******************************************************************************/
  76:Generated_Source\PSoC5/UART.c **** void UART_Start(void) 
  77:Generated_Source\PSoC5/UART.c **** {
  78:Generated_Source\PSoC5/UART.c ****     /* If not initialized then initialize all required hardware and software */
  79:Generated_Source\PSoC5/UART.c ****     if(UART_initVar == 0u)
  80:Generated_Source\PSoC5/UART.c ****     {
  81:Generated_Source\PSoC5/UART.c ****         UART_Init();
  82:Generated_Source\PSoC5/UART.c ****         UART_initVar = 1u;
  83:Generated_Source\PSoC5/UART.c ****     }
  84:Generated_Source\PSoC5/UART.c **** 
  85:Generated_Source\PSoC5/UART.c ****     UART_Enable();
  86:Generated_Source\PSoC5/UART.c **** }
  87:Generated_Source\PSoC5/UART.c **** 
ARM GAS  C:\Users\adria\AppData\Local\Temp\ccp4M7OT.s 			page 3


  88:Generated_Source\PSoC5/UART.c **** 
  89:Generated_Source\PSoC5/UART.c **** /*******************************************************************************
  90:Generated_Source\PSoC5/UART.c **** * Function Name: UART_Init
  91:Generated_Source\PSoC5/UART.c **** ********************************************************************************
  92:Generated_Source\PSoC5/UART.c **** *
  93:Generated_Source\PSoC5/UART.c **** * Summary:
  94:Generated_Source\PSoC5/UART.c **** *  Initializes or restores the component according to the customizer Configure
  95:Generated_Source\PSoC5/UART.c **** *  dialog settings. It is not necessary to call UART_Init() because
  96:Generated_Source\PSoC5/UART.c **** *  the UART_Start() API calls this function and is the preferred
  97:Generated_Source\PSoC5/UART.c **** *  method to begin component operation.
  98:Generated_Source\PSoC5/UART.c **** *
  99:Generated_Source\PSoC5/UART.c **** * Parameters:
 100:Generated_Source\PSoC5/UART.c **** *  None.
 101:Generated_Source\PSoC5/UART.c **** *
 102:Generated_Source\PSoC5/UART.c **** * Return:
 103:Generated_Source\PSoC5/UART.c **** *  None.
 104:Generated_Source\PSoC5/UART.c **** *
 105:Generated_Source\PSoC5/UART.c **** *******************************************************************************/
 106:Generated_Source\PSoC5/UART.c **** void UART_Init(void) 
 107:Generated_Source\PSoC5/UART.c **** {
 108:Generated_Source\PSoC5/UART.c ****     #if(UART_RX_ENABLED || UART_HD_ENABLED)
 109:Generated_Source\PSoC5/UART.c **** 
 110:Generated_Source\PSoC5/UART.c ****         #if (UART_RX_INTERRUPT_ENABLED)
 111:Generated_Source\PSoC5/UART.c ****             /* Set RX interrupt vector and priority */
 112:Generated_Source\PSoC5/UART.c ****             (void) CyIntSetVector(UART_RX_VECT_NUM, &UART_RXISR);
 113:Generated_Source\PSoC5/UART.c ****             CyIntSetPriority(UART_RX_VECT_NUM, UART_RX_PRIOR_NUM);
 114:Generated_Source\PSoC5/UART.c ****             UART_errorStatus = 0u;
 115:Generated_Source\PSoC5/UART.c ****         #endif /* (UART_RX_INTERRUPT_ENABLED) */
 116:Generated_Source\PSoC5/UART.c **** 
 117:Generated_Source\PSoC5/UART.c ****         #if (UART_RXHW_ADDRESS_ENABLED)
 118:Generated_Source\PSoC5/UART.c ****             UART_SetRxAddressMode(UART_RX_ADDRESS_MODE);
 119:Generated_Source\PSoC5/UART.c ****             UART_SetRxAddress1(UART_RX_HW_ADDRESS1);
 120:Generated_Source\PSoC5/UART.c ****             UART_SetRxAddress2(UART_RX_HW_ADDRESS2);
 121:Generated_Source\PSoC5/UART.c ****         #endif /* End UART_RXHW_ADDRESS_ENABLED */
 122:Generated_Source\PSoC5/UART.c **** 
 123:Generated_Source\PSoC5/UART.c ****         /* Init Count7 period */
 124:Generated_Source\PSoC5/UART.c ****         UART_RXBITCTR_PERIOD_REG = UART_RXBITCTR_INIT;
 125:Generated_Source\PSoC5/UART.c ****         /* Configure the Initial RX interrupt mask */
 126:Generated_Source\PSoC5/UART.c ****         UART_RXSTATUS_MASK_REG  = UART_INIT_RX_INTERRUPTS_MASK;
 127:Generated_Source\PSoC5/UART.c ****     #endif /* End UART_RX_ENABLED || UART_HD_ENABLED*/
 128:Generated_Source\PSoC5/UART.c **** 
 129:Generated_Source\PSoC5/UART.c ****     #if(UART_TX_ENABLED)
 130:Generated_Source\PSoC5/UART.c ****         #if (UART_TX_INTERRUPT_ENABLED)
 131:Generated_Source\PSoC5/UART.c ****             /* Set TX interrupt vector and priority */
 132:Generated_Source\PSoC5/UART.c ****             (void) CyIntSetVector(UART_TX_VECT_NUM, &UART_TXISR);
 133:Generated_Source\PSoC5/UART.c ****             CyIntSetPriority(UART_TX_VECT_NUM, UART_TX_PRIOR_NUM);
 134:Generated_Source\PSoC5/UART.c ****         #endif /* (UART_TX_INTERRUPT_ENABLED) */
 135:Generated_Source\PSoC5/UART.c **** 
 136:Generated_Source\PSoC5/UART.c ****         /* Write Counter Value for TX Bit Clk Generator*/
 137:Generated_Source\PSoC5/UART.c ****         #if (UART_TXCLKGEN_DP)
 138:Generated_Source\PSoC5/UART.c ****             UART_TXBITCLKGEN_CTR_REG = UART_BIT_CENTER;
 139:Generated_Source\PSoC5/UART.c ****             UART_TXBITCLKTX_COMPLETE_REG = ((UART_NUMBER_OF_DATA_BITS +
 140:Generated_Source\PSoC5/UART.c ****                         UART_NUMBER_OF_START_BIT) * UART_OVER_SAMPLE_COUNT) - 1u;
 141:Generated_Source\PSoC5/UART.c ****         #else
 142:Generated_Source\PSoC5/UART.c ****             UART_TXBITCTR_PERIOD_REG = ((UART_NUMBER_OF_DATA_BITS +
 143:Generated_Source\PSoC5/UART.c ****                         UART_NUMBER_OF_START_BIT) * UART_OVER_SAMPLE_8) - 1u;
 144:Generated_Source\PSoC5/UART.c ****         #endif /* End UART_TXCLKGEN_DP */
ARM GAS  C:\Users\adria\AppData\Local\Temp\ccp4M7OT.s 			page 4


 145:Generated_Source\PSoC5/UART.c **** 
 146:Generated_Source\PSoC5/UART.c ****         /* Configure the Initial TX interrupt mask */
 147:Generated_Source\PSoC5/UART.c ****         #if (UART_TX_INTERRUPT_ENABLED)
 148:Generated_Source\PSoC5/UART.c ****             UART_TXSTATUS_MASK_REG = UART_TX_STS_FIFO_EMPTY;
 149:Generated_Source\PSoC5/UART.c ****         #else
 150:Generated_Source\PSoC5/UART.c ****             UART_TXSTATUS_MASK_REG = UART_INIT_TX_INTERRUPTS_MASK;
 151:Generated_Source\PSoC5/UART.c ****         #endif /*End UART_TX_INTERRUPT_ENABLED*/
 152:Generated_Source\PSoC5/UART.c **** 
 153:Generated_Source\PSoC5/UART.c ****     #endif /* End UART_TX_ENABLED */
 154:Generated_Source\PSoC5/UART.c **** 
 155:Generated_Source\PSoC5/UART.c ****     #if(UART_PARITY_TYPE_SW)  /* Write Parity to Control Register */
 156:Generated_Source\PSoC5/UART.c ****         UART_WriteControlRegister( \
 157:Generated_Source\PSoC5/UART.c ****             (UART_ReadControlRegister() & (uint8)~UART_CTRL_PARITY_TYPE_MASK) | \
 158:Generated_Source\PSoC5/UART.c ****             (uint8)(UART_PARITY_TYPE << UART_CTRL_PARITY_TYPE0_SHIFT) );
 159:Generated_Source\PSoC5/UART.c ****     #endif /* End UART_PARITY_TYPE_SW */
 160:Generated_Source\PSoC5/UART.c **** }
 161:Generated_Source\PSoC5/UART.c **** 
 162:Generated_Source\PSoC5/UART.c **** 
 163:Generated_Source\PSoC5/UART.c **** /*******************************************************************************
 164:Generated_Source\PSoC5/UART.c **** * Function Name: UART_Enable
 165:Generated_Source\PSoC5/UART.c **** ********************************************************************************
 166:Generated_Source\PSoC5/UART.c **** *
 167:Generated_Source\PSoC5/UART.c **** * Summary:
 168:Generated_Source\PSoC5/UART.c **** *  Activates the hardware and begins component operation. It is not necessary
 169:Generated_Source\PSoC5/UART.c **** *  to call UART_Enable() because the UART_Start() API
 170:Generated_Source\PSoC5/UART.c **** *  calls this function, which is the preferred method to begin component
 171:Generated_Source\PSoC5/UART.c **** *  operation.
 172:Generated_Source\PSoC5/UART.c **** 
 173:Generated_Source\PSoC5/UART.c **** * Parameters:
 174:Generated_Source\PSoC5/UART.c **** *  None.
 175:Generated_Source\PSoC5/UART.c **** *
 176:Generated_Source\PSoC5/UART.c **** * Return:
 177:Generated_Source\PSoC5/UART.c **** *  None.
 178:Generated_Source\PSoC5/UART.c **** *
 179:Generated_Source\PSoC5/UART.c **** * Global Variables:
 180:Generated_Source\PSoC5/UART.c **** *  UART_rxAddressDetected - set to initial state (0).
 181:Generated_Source\PSoC5/UART.c **** *
 182:Generated_Source\PSoC5/UART.c **** *******************************************************************************/
 183:Generated_Source\PSoC5/UART.c **** void UART_Enable(void) 
 184:Generated_Source\PSoC5/UART.c **** {
  28              		.loc 1 184 0
  29              		.cfi_startproc
  30              		@ args = 0, pretend = 0, frame = 0
  31              		@ frame_needed = 0, uses_anonymous_args = 0
  32 0000 10B5     		push	{r4, lr}
  33              		.cfi_def_cfa_offset 8
  34              		.cfi_offset 4, -8
  35              		.cfi_offset 14, -4
 185:Generated_Source\PSoC5/UART.c ****     uint8 enableInterrupts;
 186:Generated_Source\PSoC5/UART.c ****     enableInterrupts = CyEnterCriticalSection();
  36              		.loc 1 186 0
  37 0002 FFF7FEFF 		bl	CyEnterCriticalSection
  38              	.LVL0:
  39 0006 0446     		mov	r4, r0
  40              	.LVL1:
 187:Generated_Source\PSoC5/UART.c **** 
 188:Generated_Source\PSoC5/UART.c ****     #if (UART_RX_ENABLED || UART_HD_ENABLED)
ARM GAS  C:\Users\adria\AppData\Local\Temp\ccp4M7OT.s 			page 5


 189:Generated_Source\PSoC5/UART.c ****         /* RX Counter (Count7) Enable */
 190:Generated_Source\PSoC5/UART.c ****         UART_RXBITCTR_CONTROL_REG |= UART_CNTR_ENABLE;
  41              		.loc 1 190 0
  42 0008 0A4A     		ldr	r2, .L3
  43 000a 1378     		ldrb	r3, [r2]	@ zero_extendqisi2
  44 000c 43F02003 		orr	r3, r3, #32
  45 0010 1370     		strb	r3, [r2]
 191:Generated_Source\PSoC5/UART.c **** 
 192:Generated_Source\PSoC5/UART.c ****         /* Enable the RX Interrupt */
 193:Generated_Source\PSoC5/UART.c ****         UART_RXSTATUS_ACTL_REG  |= UART_INT_ENABLE;
  46              		.loc 1 193 0
  47 0012 0232     		adds	r2, r2, #2
  48 0014 1378     		ldrb	r3, [r2]	@ zero_extendqisi2
  49 0016 43F01003 		orr	r3, r3, #16
  50 001a 1370     		strb	r3, [r2]
 194:Generated_Source\PSoC5/UART.c **** 
 195:Generated_Source\PSoC5/UART.c ****         #if (UART_RX_INTERRUPT_ENABLED)
 196:Generated_Source\PSoC5/UART.c ****             UART_EnableRxInt();
  51              		.loc 1 196 0
  52 001c 0122     		movs	r2, #1
  53 001e 064B     		ldr	r3, .L3+4
  54 0020 1A60     		str	r2, [r3]
 197:Generated_Source\PSoC5/UART.c **** 
 198:Generated_Source\PSoC5/UART.c ****             #if (UART_RXHW_ADDRESS_ENABLED)
 199:Generated_Source\PSoC5/UART.c ****                 UART_rxAddressDetected = 0u;
  55              		.loc 1 199 0
  56 0022 0022     		movs	r2, #0
  57 0024 054B     		ldr	r3, .L3+8
  58 0026 1A70     		strb	r2, [r3]
 200:Generated_Source\PSoC5/UART.c ****             #endif /* (UART_RXHW_ADDRESS_ENABLED) */
 201:Generated_Source\PSoC5/UART.c ****         #endif /* (UART_RX_INTERRUPT_ENABLED) */
 202:Generated_Source\PSoC5/UART.c ****     #endif /* (UART_RX_ENABLED || UART_HD_ENABLED) */
 203:Generated_Source\PSoC5/UART.c **** 
 204:Generated_Source\PSoC5/UART.c ****     #if(UART_TX_ENABLED)
 205:Generated_Source\PSoC5/UART.c ****         /* TX Counter (DP/Count7) Enable */
 206:Generated_Source\PSoC5/UART.c ****         #if(!UART_TXCLKGEN_DP)
 207:Generated_Source\PSoC5/UART.c ****             UART_TXBITCTR_CONTROL_REG |= UART_CNTR_ENABLE;
 208:Generated_Source\PSoC5/UART.c ****         #endif /* End UART_TXCLKGEN_DP */
 209:Generated_Source\PSoC5/UART.c **** 
 210:Generated_Source\PSoC5/UART.c ****         /* Enable the TX Interrupt */
 211:Generated_Source\PSoC5/UART.c ****         UART_TXSTATUS_ACTL_REG |= UART_INT_ENABLE;
 212:Generated_Source\PSoC5/UART.c ****         #if (UART_TX_INTERRUPT_ENABLED)
 213:Generated_Source\PSoC5/UART.c ****             UART_ClearPendingTxInt(); /* Clear history of TX_NOT_EMPTY */
 214:Generated_Source\PSoC5/UART.c ****             UART_EnableTxInt();
 215:Generated_Source\PSoC5/UART.c ****         #endif /* (UART_TX_INTERRUPT_ENABLED) */
 216:Generated_Source\PSoC5/UART.c ****      #endif /* (UART_TX_INTERRUPT_ENABLED) */
 217:Generated_Source\PSoC5/UART.c **** 
 218:Generated_Source\PSoC5/UART.c ****     #if (UART_INTERNAL_CLOCK_USED)
 219:Generated_Source\PSoC5/UART.c ****         UART_IntClock_Start();  /* Enable the clock */
  59              		.loc 1 219 0
  60 0028 FFF7FEFF 		bl	UART_IntClock_Start
  61              	.LVL2:
 220:Generated_Source\PSoC5/UART.c ****     #endif /* (UART_INTERNAL_CLOCK_USED) */
 221:Generated_Source\PSoC5/UART.c **** 
 222:Generated_Source\PSoC5/UART.c ****     CyExitCriticalSection(enableInterrupts);
  62              		.loc 1 222 0
  63 002c 2046     		mov	r0, r4
ARM GAS  C:\Users\adria\AppData\Local\Temp\ccp4M7OT.s 			page 6


  64 002e FFF7FEFF 		bl	CyExitCriticalSection
  65              	.LVL3:
  66 0032 10BD     		pop	{r4, pc}
  67              	.LVL4:
  68              	.L4:
  69              		.align	2
  70              	.L3:
  71 0034 99640040 		.word	1073767577
  72 0038 00E100E0 		.word	-536813312
  73 003c 00000000 		.word	.LANCHOR0
  74              		.cfi_endproc
  75              	.LFE2:
  76              		.size	UART_Enable, .-UART_Enable
  77              		.section	.text.UART_Stop,"ax",%progbits
  78              		.align	2
  79              		.global	UART_Stop
  80              		.thumb
  81              		.thumb_func
  82              		.type	UART_Stop, %function
  83              	UART_Stop:
  84              	.LFB3:
 223:Generated_Source\PSoC5/UART.c **** }
 224:Generated_Source\PSoC5/UART.c **** 
 225:Generated_Source\PSoC5/UART.c **** 
 226:Generated_Source\PSoC5/UART.c **** /*******************************************************************************
 227:Generated_Source\PSoC5/UART.c **** * Function Name: UART_Stop
 228:Generated_Source\PSoC5/UART.c **** ********************************************************************************
 229:Generated_Source\PSoC5/UART.c **** *
 230:Generated_Source\PSoC5/UART.c **** * Summary:
 231:Generated_Source\PSoC5/UART.c **** *  Disables the UART operation.
 232:Generated_Source\PSoC5/UART.c **** *
 233:Generated_Source\PSoC5/UART.c **** * Parameters:
 234:Generated_Source\PSoC5/UART.c **** *  None.
 235:Generated_Source\PSoC5/UART.c **** *
 236:Generated_Source\PSoC5/UART.c **** * Return:
 237:Generated_Source\PSoC5/UART.c **** *  None.
 238:Generated_Source\PSoC5/UART.c **** *
 239:Generated_Source\PSoC5/UART.c **** *******************************************************************************/
 240:Generated_Source\PSoC5/UART.c **** void UART_Stop(void) 
 241:Generated_Source\PSoC5/UART.c **** {
  85              		.loc 1 241 0
  86              		.cfi_startproc
  87              		@ args = 0, pretend = 0, frame = 0
  88              		@ frame_needed = 0, uses_anonymous_args = 0
  89 0000 10B5     		push	{r4, lr}
  90              		.cfi_def_cfa_offset 8
  91              		.cfi_offset 4, -8
  92              		.cfi_offset 14, -4
 242:Generated_Source\PSoC5/UART.c ****     uint8 enableInterrupts;
 243:Generated_Source\PSoC5/UART.c ****     enableInterrupts = CyEnterCriticalSection();
  93              		.loc 1 243 0
  94 0002 FFF7FEFF 		bl	CyEnterCriticalSection
  95              	.LVL5:
  96 0006 0446     		mov	r4, r0
  97              	.LVL6:
 244:Generated_Source\PSoC5/UART.c **** 
 245:Generated_Source\PSoC5/UART.c ****     /* Write Bit Counter Disable */
ARM GAS  C:\Users\adria\AppData\Local\Temp\ccp4M7OT.s 			page 7


 246:Generated_Source\PSoC5/UART.c ****     #if (UART_RX_ENABLED || UART_HD_ENABLED)
 247:Generated_Source\PSoC5/UART.c ****         UART_RXBITCTR_CONTROL_REG &= (uint8) ~UART_CNTR_ENABLE;
  98              		.loc 1 247 0
  99 0008 094A     		ldr	r2, .L7
 100 000a 1378     		ldrb	r3, [r2]	@ zero_extendqisi2
 101 000c 03F0DF03 		and	r3, r3, #223
 102 0010 1370     		strb	r3, [r2]
 248:Generated_Source\PSoC5/UART.c ****     #endif /* (UART_RX_ENABLED || UART_HD_ENABLED) */
 249:Generated_Source\PSoC5/UART.c **** 
 250:Generated_Source\PSoC5/UART.c ****     #if (UART_TX_ENABLED)
 251:Generated_Source\PSoC5/UART.c ****         #if(!UART_TXCLKGEN_DP)
 252:Generated_Source\PSoC5/UART.c ****             UART_TXBITCTR_CONTROL_REG &= (uint8) ~UART_CNTR_ENABLE;
 253:Generated_Source\PSoC5/UART.c ****         #endif /* (!UART_TXCLKGEN_DP) */
 254:Generated_Source\PSoC5/UART.c ****     #endif /* (UART_TX_ENABLED) */
 255:Generated_Source\PSoC5/UART.c **** 
 256:Generated_Source\PSoC5/UART.c ****     #if (UART_INTERNAL_CLOCK_USED)
 257:Generated_Source\PSoC5/UART.c ****         UART_IntClock_Stop();   /* Disable the clock */
 103              		.loc 1 257 0
 104 0012 FFF7FEFF 		bl	UART_IntClock_Stop
 105              	.LVL7:
 258:Generated_Source\PSoC5/UART.c ****     #endif /* (UART_INTERNAL_CLOCK_USED) */
 259:Generated_Source\PSoC5/UART.c **** 
 260:Generated_Source\PSoC5/UART.c ****     /* Disable internal interrupt component */
 261:Generated_Source\PSoC5/UART.c ****     #if (UART_RX_ENABLED || UART_HD_ENABLED)
 262:Generated_Source\PSoC5/UART.c ****         UART_RXSTATUS_ACTL_REG  &= (uint8) ~UART_INT_ENABLE;
 106              		.loc 1 262 0
 107 0016 074A     		ldr	r2, .L7+4
 108 0018 1378     		ldrb	r3, [r2]	@ zero_extendqisi2
 109 001a 03F0EF03 		and	r3, r3, #239
 110 001e 1370     		strb	r3, [r2]
 263:Generated_Source\PSoC5/UART.c **** 
 264:Generated_Source\PSoC5/UART.c ****         #if (UART_RX_INTERRUPT_ENABLED)
 265:Generated_Source\PSoC5/UART.c ****             UART_DisableRxInt();
 111              		.loc 1 265 0
 112 0020 0122     		movs	r2, #1
 113 0022 054B     		ldr	r3, .L7+8
 114 0024 1A60     		str	r2, [r3]
 266:Generated_Source\PSoC5/UART.c ****         #endif /* (UART_RX_INTERRUPT_ENABLED) */
 267:Generated_Source\PSoC5/UART.c ****     #endif /* (UART_RX_ENABLED || UART_HD_ENABLED) */
 268:Generated_Source\PSoC5/UART.c **** 
 269:Generated_Source\PSoC5/UART.c ****     #if (UART_TX_ENABLED)
 270:Generated_Source\PSoC5/UART.c ****         UART_TXSTATUS_ACTL_REG &= (uint8) ~UART_INT_ENABLE;
 271:Generated_Source\PSoC5/UART.c **** 
 272:Generated_Source\PSoC5/UART.c ****         #if (UART_TX_INTERRUPT_ENABLED)
 273:Generated_Source\PSoC5/UART.c ****             UART_DisableTxInt();
 274:Generated_Source\PSoC5/UART.c ****         #endif /* (UART_TX_INTERRUPT_ENABLED) */
 275:Generated_Source\PSoC5/UART.c ****     #endif /* (UART_TX_ENABLED) */
 276:Generated_Source\PSoC5/UART.c **** 
 277:Generated_Source\PSoC5/UART.c ****     CyExitCriticalSection(enableInterrupts);
 115              		.loc 1 277 0
 116 0026 2046     		mov	r0, r4
 117 0028 FFF7FEFF 		bl	CyExitCriticalSection
 118              	.LVL8:
 119 002c 10BD     		pop	{r4, pc}
 120              	.LVL9:
 121              	.L8:
 122 002e 00BF     		.align	2
ARM GAS  C:\Users\adria\AppData\Local\Temp\ccp4M7OT.s 			page 8


 123              	.L7:
 124 0030 99640040 		.word	1073767577
 125 0034 9B640040 		.word	1073767579
 126 0038 80E100E0 		.word	-536813184
 127              		.cfi_endproc
 128              	.LFE3:
 129              		.size	UART_Stop, .-UART_Stop
 130              		.section	.text.UART_ReadControlRegister,"ax",%progbits
 131              		.align	2
 132              		.global	UART_ReadControlRegister
 133              		.thumb
 134              		.thumb_func
 135              		.type	UART_ReadControlRegister, %function
 136              	UART_ReadControlRegister:
 137              	.LFB4:
 278:Generated_Source\PSoC5/UART.c **** }
 279:Generated_Source\PSoC5/UART.c **** 
 280:Generated_Source\PSoC5/UART.c **** 
 281:Generated_Source\PSoC5/UART.c **** /*******************************************************************************
 282:Generated_Source\PSoC5/UART.c **** * Function Name: UART_ReadControlRegister
 283:Generated_Source\PSoC5/UART.c **** ********************************************************************************
 284:Generated_Source\PSoC5/UART.c **** *
 285:Generated_Source\PSoC5/UART.c **** * Summary:
 286:Generated_Source\PSoC5/UART.c **** *  Returns the current value of the control register.
 287:Generated_Source\PSoC5/UART.c **** *
 288:Generated_Source\PSoC5/UART.c **** * Parameters:
 289:Generated_Source\PSoC5/UART.c **** *  None.
 290:Generated_Source\PSoC5/UART.c **** *
 291:Generated_Source\PSoC5/UART.c **** * Return:
 292:Generated_Source\PSoC5/UART.c **** *  Contents of the control register.
 293:Generated_Source\PSoC5/UART.c **** *
 294:Generated_Source\PSoC5/UART.c **** *******************************************************************************/
 295:Generated_Source\PSoC5/UART.c **** uint8 UART_ReadControlRegister(void) 
 296:Generated_Source\PSoC5/UART.c **** {
 138              		.loc 1 296 0
 139              		.cfi_startproc
 140              		@ args = 0, pretend = 0, frame = 0
 141              		@ frame_needed = 0, uses_anonymous_args = 0
 142              		@ link register save eliminated.
 297:Generated_Source\PSoC5/UART.c ****     #if (UART_CONTROL_REG_REMOVED)
 298:Generated_Source\PSoC5/UART.c ****         return(0u);
 299:Generated_Source\PSoC5/UART.c ****     #else
 300:Generated_Source\PSoC5/UART.c ****         return(UART_CONTROL_REG);
 143              		.loc 1 300 0
 144 0000 014B     		ldr	r3, .L10
 145 0002 1878     		ldrb	r0, [r3]	@ zero_extendqisi2
 301:Generated_Source\PSoC5/UART.c ****     #endif /* (UART_CONTROL_REG_REMOVED) */
 302:Generated_Source\PSoC5/UART.c **** }
 146              		.loc 1 302 0
 147 0004 7047     		bx	lr
 148              	.L11:
 149 0006 00BF     		.align	2
 150              	.L10:
 151 0008 78650040 		.word	1073767800
 152              		.cfi_endproc
 153              	.LFE4:
 154              		.size	UART_ReadControlRegister, .-UART_ReadControlRegister
ARM GAS  C:\Users\adria\AppData\Local\Temp\ccp4M7OT.s 			page 9


 155              		.section	.text.UART_WriteControlRegister,"ax",%progbits
 156              		.align	2
 157              		.global	UART_WriteControlRegister
 158              		.thumb
 159              		.thumb_func
 160              		.type	UART_WriteControlRegister, %function
 161              	UART_WriteControlRegister:
 162              	.LFB5:
 303:Generated_Source\PSoC5/UART.c **** 
 304:Generated_Source\PSoC5/UART.c **** 
 305:Generated_Source\PSoC5/UART.c **** /*******************************************************************************
 306:Generated_Source\PSoC5/UART.c **** * Function Name: UART_WriteControlRegister
 307:Generated_Source\PSoC5/UART.c **** ********************************************************************************
 308:Generated_Source\PSoC5/UART.c **** *
 309:Generated_Source\PSoC5/UART.c **** * Summary:
 310:Generated_Source\PSoC5/UART.c **** *  Writes an 8-bit value into the control register
 311:Generated_Source\PSoC5/UART.c **** *
 312:Generated_Source\PSoC5/UART.c **** * Parameters:
 313:Generated_Source\PSoC5/UART.c **** *  control:  control register value
 314:Generated_Source\PSoC5/UART.c **** *
 315:Generated_Source\PSoC5/UART.c **** * Return:
 316:Generated_Source\PSoC5/UART.c **** *  None.
 317:Generated_Source\PSoC5/UART.c **** *
 318:Generated_Source\PSoC5/UART.c **** *******************************************************************************/
 319:Generated_Source\PSoC5/UART.c **** void  UART_WriteControlRegister(uint8 control) 
 320:Generated_Source\PSoC5/UART.c **** {
 163              		.loc 1 320 0
 164              		.cfi_startproc
 165              		@ args = 0, pretend = 0, frame = 0
 166              		@ frame_needed = 0, uses_anonymous_args = 0
 167              		@ link register save eliminated.
 168              	.LVL10:
 321:Generated_Source\PSoC5/UART.c ****     #if (UART_CONTROL_REG_REMOVED)
 322:Generated_Source\PSoC5/UART.c ****         if(0u != control)
 323:Generated_Source\PSoC5/UART.c ****         {
 324:Generated_Source\PSoC5/UART.c ****             /* Suppress compiler warning */
 325:Generated_Source\PSoC5/UART.c ****         }
 326:Generated_Source\PSoC5/UART.c ****     #else
 327:Generated_Source\PSoC5/UART.c ****        UART_CONTROL_REG = control;
 169              		.loc 1 327 0
 170 0000 014B     		ldr	r3, .L13
 171 0002 1870     		strb	r0, [r3]
 172 0004 7047     		bx	lr
 173              	.L14:
 174 0006 00BF     		.align	2
 175              	.L13:
 176 0008 78650040 		.word	1073767800
 177              		.cfi_endproc
 178              	.LFE5:
 179              		.size	UART_WriteControlRegister, .-UART_WriteControlRegister
 180              		.section	.text.UART_SetRxInterruptMode,"ax",%progbits
 181              		.align	2
 182              		.global	UART_SetRxInterruptMode
 183              		.thumb
 184              		.thumb_func
 185              		.type	UART_SetRxInterruptMode, %function
 186              	UART_SetRxInterruptMode:
ARM GAS  C:\Users\adria\AppData\Local\Temp\ccp4M7OT.s 			page 10


 187              	.LFB6:
 328:Generated_Source\PSoC5/UART.c ****     #endif /* (UART_CONTROL_REG_REMOVED) */
 329:Generated_Source\PSoC5/UART.c **** }
 330:Generated_Source\PSoC5/UART.c **** 
 331:Generated_Source\PSoC5/UART.c **** 
 332:Generated_Source\PSoC5/UART.c **** #if(UART_RX_ENABLED || UART_HD_ENABLED)
 333:Generated_Source\PSoC5/UART.c ****     /*******************************************************************************
 334:Generated_Source\PSoC5/UART.c ****     * Function Name: UART_SetRxInterruptMode
 335:Generated_Source\PSoC5/UART.c ****     ********************************************************************************
 336:Generated_Source\PSoC5/UART.c ****     *
 337:Generated_Source\PSoC5/UART.c ****     * Summary:
 338:Generated_Source\PSoC5/UART.c ****     *  Configures the RX interrupt sources enabled.
 339:Generated_Source\PSoC5/UART.c ****     *
 340:Generated_Source\PSoC5/UART.c ****     * Parameters:
 341:Generated_Source\PSoC5/UART.c ****     *  IntSrc:  Bit field containing the RX interrupts to enable. Based on the 
 342:Generated_Source\PSoC5/UART.c ****     *  bit-field arrangement of the status register. This value must be a 
 343:Generated_Source\PSoC5/UART.c ****     *  combination of status register bit-masks shown below:
 344:Generated_Source\PSoC5/UART.c ****     *      UART_RX_STS_FIFO_NOTEMPTY    Interrupt on byte received.
 345:Generated_Source\PSoC5/UART.c ****     *      UART_RX_STS_PAR_ERROR        Interrupt on parity error.
 346:Generated_Source\PSoC5/UART.c ****     *      UART_RX_STS_STOP_ERROR       Interrupt on stop error.
 347:Generated_Source\PSoC5/UART.c ****     *      UART_RX_STS_BREAK            Interrupt on break.
 348:Generated_Source\PSoC5/UART.c ****     *      UART_RX_STS_OVERRUN          Interrupt on overrun error.
 349:Generated_Source\PSoC5/UART.c ****     *      UART_RX_STS_ADDR_MATCH       Interrupt on address match.
 350:Generated_Source\PSoC5/UART.c ****     *      UART_RX_STS_MRKSPC           Interrupt on address detect.
 351:Generated_Source\PSoC5/UART.c ****     *
 352:Generated_Source\PSoC5/UART.c ****     * Return:
 353:Generated_Source\PSoC5/UART.c ****     *  None.
 354:Generated_Source\PSoC5/UART.c ****     *
 355:Generated_Source\PSoC5/UART.c ****     * Theory:
 356:Generated_Source\PSoC5/UART.c ****     *  Enables the output of specific status bits to the interrupt controller
 357:Generated_Source\PSoC5/UART.c ****     *
 358:Generated_Source\PSoC5/UART.c ****     *******************************************************************************/
 359:Generated_Source\PSoC5/UART.c ****     void UART_SetRxInterruptMode(uint8 intSrc) 
 360:Generated_Source\PSoC5/UART.c ****     {
 188              		.loc 1 360 0
 189              		.cfi_startproc
 190              		@ args = 0, pretend = 0, frame = 0
 191              		@ frame_needed = 0, uses_anonymous_args = 0
 192              		@ link register save eliminated.
 193              	.LVL11:
 361:Generated_Source\PSoC5/UART.c ****         UART_RXSTATUS_MASK_REG  = intSrc;
 194              		.loc 1 361 0
 195 0000 014B     		ldr	r3, .L16
 196 0002 1870     		strb	r0, [r3]
 197 0004 7047     		bx	lr
 198              	.L17:
 199 0006 00BF     		.align	2
 200              	.L16:
 201 0008 8B640040 		.word	1073767563
 202              		.cfi_endproc
 203              	.LFE6:
 204              		.size	UART_SetRxInterruptMode, .-UART_SetRxInterruptMode
 205              		.section	.text.UART_ReadRxData,"ax",%progbits
 206              		.align	2
 207              		.global	UART_ReadRxData
 208              		.thumb
 209              		.thumb_func
ARM GAS  C:\Users\adria\AppData\Local\Temp\ccp4M7OT.s 			page 11


 210              		.type	UART_ReadRxData, %function
 211              	UART_ReadRxData:
 212              	.LFB7:
 362:Generated_Source\PSoC5/UART.c ****     }
 363:Generated_Source\PSoC5/UART.c **** 
 364:Generated_Source\PSoC5/UART.c **** 
 365:Generated_Source\PSoC5/UART.c ****     /*******************************************************************************
 366:Generated_Source\PSoC5/UART.c ****     * Function Name: UART_ReadRxData
 367:Generated_Source\PSoC5/UART.c ****     ********************************************************************************
 368:Generated_Source\PSoC5/UART.c ****     *
 369:Generated_Source\PSoC5/UART.c ****     * Summary:
 370:Generated_Source\PSoC5/UART.c ****     *  Returns the next byte of received data. This function returns data without
 371:Generated_Source\PSoC5/UART.c ****     *  checking the status. You must check the status separately.
 372:Generated_Source\PSoC5/UART.c ****     *
 373:Generated_Source\PSoC5/UART.c ****     * Parameters:
 374:Generated_Source\PSoC5/UART.c ****     *  None.
 375:Generated_Source\PSoC5/UART.c ****     *
 376:Generated_Source\PSoC5/UART.c ****     * Return:
 377:Generated_Source\PSoC5/UART.c ****     *  Received data from RX register
 378:Generated_Source\PSoC5/UART.c ****     *
 379:Generated_Source\PSoC5/UART.c ****     * Global Variables:
 380:Generated_Source\PSoC5/UART.c ****     *  UART_rxBuffer - RAM buffer pointer for save received data.
 381:Generated_Source\PSoC5/UART.c ****     *  UART_rxBufferWrite - cyclic index for write to rxBuffer,
 382:Generated_Source\PSoC5/UART.c ****     *     checked to identify new data.
 383:Generated_Source\PSoC5/UART.c ****     *  UART_rxBufferRead - cyclic index for read from rxBuffer,
 384:Generated_Source\PSoC5/UART.c ****     *     incremented after each byte has been read from buffer.
 385:Generated_Source\PSoC5/UART.c ****     *  UART_rxBufferLoopDetect - cleared if loop condition was detected
 386:Generated_Source\PSoC5/UART.c ****     *     in RX ISR.
 387:Generated_Source\PSoC5/UART.c ****     *
 388:Generated_Source\PSoC5/UART.c ****     * Reentrant:
 389:Generated_Source\PSoC5/UART.c ****     *  No.
 390:Generated_Source\PSoC5/UART.c ****     *
 391:Generated_Source\PSoC5/UART.c ****     *******************************************************************************/
 392:Generated_Source\PSoC5/UART.c ****     uint8 UART_ReadRxData(void) 
 393:Generated_Source\PSoC5/UART.c ****     {
 213              		.loc 1 393 0
 214              		.cfi_startproc
 215              		@ args = 0, pretend = 0, frame = 0
 216              		@ frame_needed = 0, uses_anonymous_args = 0
 217              		@ link register save eliminated.
 394:Generated_Source\PSoC5/UART.c ****         uint8 rxData;
 395:Generated_Source\PSoC5/UART.c **** 
 396:Generated_Source\PSoC5/UART.c ****     #if (UART_RX_INTERRUPT_ENABLED)
 397:Generated_Source\PSoC5/UART.c **** 
 398:Generated_Source\PSoC5/UART.c ****         uint8 locRxBufferRead;
 399:Generated_Source\PSoC5/UART.c ****         uint8 locRxBufferWrite;
 400:Generated_Source\PSoC5/UART.c **** 
 401:Generated_Source\PSoC5/UART.c ****         /* Protect variables that could change on interrupt */
 402:Generated_Source\PSoC5/UART.c ****         UART_DisableRxInt();
 218              		.loc 1 402 0
 219 0000 0122     		movs	r2, #1
 220 0002 134B     		ldr	r3, .L24
 221 0004 1A60     		str	r2, [r3]
 403:Generated_Source\PSoC5/UART.c **** 
 404:Generated_Source\PSoC5/UART.c ****         locRxBufferRead  = UART_rxBufferRead;
 222              		.loc 1 404 0
 223 0006 134A     		ldr	r2, .L24+4
ARM GAS  C:\Users\adria\AppData\Local\Temp\ccp4M7OT.s 			page 12


 224 0008 5378     		ldrb	r3, [r2, #1]	@ zero_extendqisi2
 225 000a DBB2     		uxtb	r3, r3
 226              	.LVL12:
 405:Generated_Source\PSoC5/UART.c ****         locRxBufferWrite = UART_rxBufferWrite;
 227              		.loc 1 405 0
 228 000c 9178     		ldrb	r1, [r2, #2]	@ zero_extendqisi2
 229 000e C9B2     		uxtb	r1, r1
 230              	.LVL13:
 406:Generated_Source\PSoC5/UART.c **** 
 407:Generated_Source\PSoC5/UART.c ****         if( (UART_rxBufferLoopDetect != 0u) || (locRxBufferRead != locRxBufferWrite) )
 231              		.loc 1 407 0
 232 0010 D278     		ldrb	r2, [r2, #3]	@ zero_extendqisi2
 233 0012 12F0FF0F 		tst	r2, #255
 234 0016 01D1     		bne	.L19
 235              		.loc 1 407 0 is_stmt 0 discriminator 1
 236 0018 8B42     		cmp	r3, r1
 237 001a 11D0     		beq	.L20
 238              	.L19:
 408:Generated_Source\PSoC5/UART.c ****         {
 409:Generated_Source\PSoC5/UART.c ****             rxData = UART_rxBuffer[locRxBufferRead];
 239              		.loc 1 409 0 is_stmt 1
 240 001c 0E4A     		ldr	r2, .L24+8
 241 001e D05C     		ldrb	r0, [r2, r3]	@ zero_extendqisi2
 242 0020 C0B2     		uxtb	r0, r0
 243              	.LVL14:
 410:Generated_Source\PSoC5/UART.c ****             locRxBufferRead++;
 244              		.loc 1 410 0
 245 0022 0133     		adds	r3, r3, #1
 246              	.LVL15:
 247 0024 DBB2     		uxtb	r3, r3
 248              	.LVL16:
 411:Generated_Source\PSoC5/UART.c **** 
 412:Generated_Source\PSoC5/UART.c ****             if(locRxBufferRead >= UART_RX_BUFFER_SIZE)
 249              		.loc 1 412 0
 250 0026 0F2B     		cmp	r3, #15
 251 0028 00D9     		bls	.L21
 413:Generated_Source\PSoC5/UART.c ****             {
 414:Generated_Source\PSoC5/UART.c ****                 locRxBufferRead = 0u;
 252              		.loc 1 414 0
 253 002a 0023     		movs	r3, #0
 254              	.LVL17:
 255              	.L21:
 415:Generated_Source\PSoC5/UART.c ****             }
 416:Generated_Source\PSoC5/UART.c ****             /* Update the real pointer */
 417:Generated_Source\PSoC5/UART.c ****             UART_rxBufferRead = locRxBufferRead;
 256              		.loc 1 417 0
 257 002c 094A     		ldr	r2, .L24+4
 258 002e 5370     		strb	r3, [r2, #1]
 418:Generated_Source\PSoC5/UART.c **** 
 419:Generated_Source\PSoC5/UART.c ****             if(UART_rxBufferLoopDetect != 0u)
 259              		.loc 1 419 0
 260 0030 D378     		ldrb	r3, [r2, #3]	@ zero_extendqisi2
 261              	.LVL18:
 262 0032 13F0FF0F 		tst	r3, #255
 263 0036 06D0     		beq	.L22
 420:Generated_Source\PSoC5/UART.c ****             {
 421:Generated_Source\PSoC5/UART.c ****                 UART_rxBufferLoopDetect = 0u;
ARM GAS  C:\Users\adria\AppData\Local\Temp\ccp4M7OT.s 			page 13


 264              		.loc 1 421 0
 265 0038 0022     		movs	r2, #0
 266 003a 064B     		ldr	r3, .L24+4
 267 003c DA70     		strb	r2, [r3, #3]
 268              	.LVL19:
 269 003e 02E0     		b	.L22
 270              	.LVL20:
 271              	.L20:
 422:Generated_Source\PSoC5/UART.c ****                 #if ((UART_RX_INTERRUPT_ENABLED) && (UART_FLOW_CONTROL != 0u))
 423:Generated_Source\PSoC5/UART.c ****                     /* When Hardware Flow Control selected - return RX mask */
 424:Generated_Source\PSoC5/UART.c ****                     #if( UART_HD_ENABLED )
 425:Generated_Source\PSoC5/UART.c ****                         if((UART_CONTROL_REG & UART_CTRL_HD_SEND) == 0u)
 426:Generated_Source\PSoC5/UART.c ****                         {   /* In Half duplex mode return RX mask only in RX
 427:Generated_Source\PSoC5/UART.c ****                             *  configuration set, otherwise
 428:Generated_Source\PSoC5/UART.c ****                             *  mask will be returned in LoadRxConfig() API.
 429:Generated_Source\PSoC5/UART.c ****                             */
 430:Generated_Source\PSoC5/UART.c ****                             UART_RXSTATUS_MASK_REG  |= UART_RX_STS_FIFO_NOTEMPTY;
 431:Generated_Source\PSoC5/UART.c ****                         }
 432:Generated_Source\PSoC5/UART.c ****                     #else
 433:Generated_Source\PSoC5/UART.c ****                         UART_RXSTATUS_MASK_REG  |= UART_RX_STS_FIFO_NOTEMPTY;
 434:Generated_Source\PSoC5/UART.c ****                     #endif /* end UART_HD_ENABLED */
 435:Generated_Source\PSoC5/UART.c ****                 #endif /* ((UART_RX_INTERRUPT_ENABLED) && (UART_FLOW_CONTROL != 0u)) */
 436:Generated_Source\PSoC5/UART.c ****             }
 437:Generated_Source\PSoC5/UART.c ****         }
 438:Generated_Source\PSoC5/UART.c ****         else
 439:Generated_Source\PSoC5/UART.c ****         {   /* Needs to check status for RX_STS_FIFO_NOTEMPTY bit */
 440:Generated_Source\PSoC5/UART.c ****             rxData = UART_RXDATA_REG;
 272              		.loc 1 440 0
 273 0040 064B     		ldr	r3, .L24+12
 274              	.LVL21:
 275 0042 1878     		ldrb	r0, [r3]	@ zero_extendqisi2
 276 0044 C0B2     		uxtb	r0, r0
 277              	.LVL22:
 278              	.L22:
 441:Generated_Source\PSoC5/UART.c ****         }
 442:Generated_Source\PSoC5/UART.c **** 
 443:Generated_Source\PSoC5/UART.c ****         UART_EnableRxInt();
 279              		.loc 1 443 0
 280 0046 0122     		movs	r2, #1
 281 0048 054B     		ldr	r3, .L24+16
 282 004a 1A60     		str	r2, [r3]
 444:Generated_Source\PSoC5/UART.c **** 
 445:Generated_Source\PSoC5/UART.c ****     #else
 446:Generated_Source\PSoC5/UART.c **** 
 447:Generated_Source\PSoC5/UART.c ****         /* Needs to check status for RX_STS_FIFO_NOTEMPTY bit */
 448:Generated_Source\PSoC5/UART.c ****         rxData = UART_RXDATA_REG;
 449:Generated_Source\PSoC5/UART.c **** 
 450:Generated_Source\PSoC5/UART.c ****     #endif /* (UART_RX_INTERRUPT_ENABLED) */
 451:Generated_Source\PSoC5/UART.c **** 
 452:Generated_Source\PSoC5/UART.c ****         return(rxData);
 453:Generated_Source\PSoC5/UART.c ****     }
 283              		.loc 1 453 0
 284 004c 7047     		bx	lr
 285              	.L25:
 286 004e 00BF     		.align	2
 287              	.L24:
 288 0050 80E100E0 		.word	-536813184
ARM GAS  C:\Users\adria\AppData\Local\Temp\ccp4M7OT.s 			page 14


 289 0054 00000000 		.word	.LANCHOR0
 290 0058 00000000 		.word	UART_rxBuffer
 291 005c 48650040 		.word	1073767752
 292 0060 00E100E0 		.word	-536813312
 293              		.cfi_endproc
 294              	.LFE7:
 295              		.size	UART_ReadRxData, .-UART_ReadRxData
 296              		.section	.text.UART_ReadRxStatus,"ax",%progbits
 297              		.align	2
 298              		.global	UART_ReadRxStatus
 299              		.thumb
 300              		.thumb_func
 301              		.type	UART_ReadRxStatus, %function
 302              	UART_ReadRxStatus:
 303              	.LFB8:
 454:Generated_Source\PSoC5/UART.c **** 
 455:Generated_Source\PSoC5/UART.c **** 
 456:Generated_Source\PSoC5/UART.c ****     /*******************************************************************************
 457:Generated_Source\PSoC5/UART.c ****     * Function Name: UART_ReadRxStatus
 458:Generated_Source\PSoC5/UART.c ****     ********************************************************************************
 459:Generated_Source\PSoC5/UART.c ****     *
 460:Generated_Source\PSoC5/UART.c ****     * Summary:
 461:Generated_Source\PSoC5/UART.c ****     *  Returns the current state of the receiver status register and the software
 462:Generated_Source\PSoC5/UART.c ****     *  buffer overflow status.
 463:Generated_Source\PSoC5/UART.c ****     *
 464:Generated_Source\PSoC5/UART.c ****     * Parameters:
 465:Generated_Source\PSoC5/UART.c ****     *  None.
 466:Generated_Source\PSoC5/UART.c ****     *
 467:Generated_Source\PSoC5/UART.c ****     * Return:
 468:Generated_Source\PSoC5/UART.c ****     *  Current state of the status register.
 469:Generated_Source\PSoC5/UART.c ****     *
 470:Generated_Source\PSoC5/UART.c ****     * Side Effect:
 471:Generated_Source\PSoC5/UART.c ****     *  All status register bits are clear-on-read except
 472:Generated_Source\PSoC5/UART.c ****     *  UART_RX_STS_FIFO_NOTEMPTY.
 473:Generated_Source\PSoC5/UART.c ****     *  UART_RX_STS_FIFO_NOTEMPTY clears immediately after RX data
 474:Generated_Source\PSoC5/UART.c ****     *  register read.
 475:Generated_Source\PSoC5/UART.c ****     *
 476:Generated_Source\PSoC5/UART.c ****     * Global Variables:
 477:Generated_Source\PSoC5/UART.c ****     *  UART_rxBufferOverflow - used to indicate overload condition.
 478:Generated_Source\PSoC5/UART.c ****     *   It set to one in RX interrupt when there isn't free space in
 479:Generated_Source\PSoC5/UART.c ****     *   UART_rxBufferRead to write new data. This condition returned
 480:Generated_Source\PSoC5/UART.c ****     *   and cleared to zero by this API as an
 481:Generated_Source\PSoC5/UART.c ****     *   UART_RX_STS_SOFT_BUFF_OVER bit along with RX Status register
 482:Generated_Source\PSoC5/UART.c ****     *   bits.
 483:Generated_Source\PSoC5/UART.c ****     *
 484:Generated_Source\PSoC5/UART.c ****     *******************************************************************************/
 485:Generated_Source\PSoC5/UART.c ****     uint8 UART_ReadRxStatus(void) 
 486:Generated_Source\PSoC5/UART.c ****     {
 304              		.loc 1 486 0
 305              		.cfi_startproc
 306              		@ args = 0, pretend = 0, frame = 0
 307              		@ frame_needed = 0, uses_anonymous_args = 0
 308              		@ link register save eliminated.
 487:Generated_Source\PSoC5/UART.c ****         uint8 status;
 488:Generated_Source\PSoC5/UART.c **** 
 489:Generated_Source\PSoC5/UART.c ****         status = UART_RXSTATUS_REG & UART_RX_HW_MASK;
 309              		.loc 1 489 0
ARM GAS  C:\Users\adria\AppData\Local\Temp\ccp4M7OT.s 			page 15


 310 0000 074B     		ldr	r3, .L28
 311 0002 1878     		ldrb	r0, [r3]	@ zero_extendqisi2
 312 0004 00F07F00 		and	r0, r0, #127
 313              	.LVL23:
 490:Generated_Source\PSoC5/UART.c **** 
 491:Generated_Source\PSoC5/UART.c ****     #if (UART_RX_INTERRUPT_ENABLED)
 492:Generated_Source\PSoC5/UART.c ****         if(UART_rxBufferOverflow != 0u)
 314              		.loc 1 492 0
 315 0008 064B     		ldr	r3, .L28+4
 316 000a 1B79     		ldrb	r3, [r3, #4]	@ zero_extendqisi2
 317 000c 13F0FF0F 		tst	r3, #255
 318 0010 04D0     		beq	.L27
 493:Generated_Source\PSoC5/UART.c ****         {
 494:Generated_Source\PSoC5/UART.c ****             status |= UART_RX_STS_SOFT_BUFF_OVER;
 319              		.loc 1 494 0
 320 0012 40F08000 		orr	r0, r0, #128
 321              	.LVL24:
 495:Generated_Source\PSoC5/UART.c ****             UART_rxBufferOverflow = 0u;
 322              		.loc 1 495 0
 323 0016 0022     		movs	r2, #0
 324 0018 024B     		ldr	r3, .L28+4
 325 001a 1A71     		strb	r2, [r3, #4]
 326              	.L27:
 496:Generated_Source\PSoC5/UART.c ****         }
 497:Generated_Source\PSoC5/UART.c ****     #endif /* (UART_RX_INTERRUPT_ENABLED) */
 498:Generated_Source\PSoC5/UART.c **** 
 499:Generated_Source\PSoC5/UART.c ****         return(status);
 500:Generated_Source\PSoC5/UART.c ****     }
 327              		.loc 1 500 0
 328 001c 7047     		bx	lr
 329              	.L29:
 330 001e 00BF     		.align	2
 331              	.L28:
 332 0020 6B640040 		.word	1073767531
 333 0024 00000000 		.word	.LANCHOR0
 334              		.cfi_endproc
 335              	.LFE8:
 336              		.size	UART_ReadRxStatus, .-UART_ReadRxStatus
 337              		.section	.text.UART_GetChar,"ax",%progbits
 338              		.align	2
 339              		.global	UART_GetChar
 340              		.thumb
 341              		.thumb_func
 342              		.type	UART_GetChar, %function
 343              	UART_GetChar:
 344              	.LFB9:
 501:Generated_Source\PSoC5/UART.c **** 
 502:Generated_Source\PSoC5/UART.c **** 
 503:Generated_Source\PSoC5/UART.c ****     /*******************************************************************************
 504:Generated_Source\PSoC5/UART.c ****     * Function Name: UART_GetChar
 505:Generated_Source\PSoC5/UART.c ****     ********************************************************************************
 506:Generated_Source\PSoC5/UART.c ****     *
 507:Generated_Source\PSoC5/UART.c ****     * Summary:
 508:Generated_Source\PSoC5/UART.c ****     *  Returns the last received byte of data. UART_GetChar() is
 509:Generated_Source\PSoC5/UART.c ****     *  designed for ASCII characters and returns a uint8 where 1 to 255 are values
 510:Generated_Source\PSoC5/UART.c ****     *  for valid characters and 0 indicates an error occurred or no data is present.
 511:Generated_Source\PSoC5/UART.c ****     *
ARM GAS  C:\Users\adria\AppData\Local\Temp\ccp4M7OT.s 			page 16


 512:Generated_Source\PSoC5/UART.c ****     * Parameters:
 513:Generated_Source\PSoC5/UART.c ****     *  None.
 514:Generated_Source\PSoC5/UART.c ****     *
 515:Generated_Source\PSoC5/UART.c ****     * Return:
 516:Generated_Source\PSoC5/UART.c ****     *  Character read from UART RX buffer. ASCII characters from 1 to 255 are valid.
 517:Generated_Source\PSoC5/UART.c ****     *  A returned zero signifies an error condition or no data available.
 518:Generated_Source\PSoC5/UART.c ****     *
 519:Generated_Source\PSoC5/UART.c ****     * Global Variables:
 520:Generated_Source\PSoC5/UART.c ****     *  UART_rxBuffer - RAM buffer pointer for save received data.
 521:Generated_Source\PSoC5/UART.c ****     *  UART_rxBufferWrite - cyclic index for write to rxBuffer,
 522:Generated_Source\PSoC5/UART.c ****     *     checked to identify new data.
 523:Generated_Source\PSoC5/UART.c ****     *  UART_rxBufferRead - cyclic index for read from rxBuffer,
 524:Generated_Source\PSoC5/UART.c ****     *     incremented after each byte has been read from buffer.
 525:Generated_Source\PSoC5/UART.c ****     *  UART_rxBufferLoopDetect - cleared if loop condition was detected
 526:Generated_Source\PSoC5/UART.c ****     *     in RX ISR.
 527:Generated_Source\PSoC5/UART.c ****     *
 528:Generated_Source\PSoC5/UART.c ****     * Reentrant:
 529:Generated_Source\PSoC5/UART.c ****     *  No.
 530:Generated_Source\PSoC5/UART.c ****     *
 531:Generated_Source\PSoC5/UART.c ****     *******************************************************************************/
 532:Generated_Source\PSoC5/UART.c ****     uint8 UART_GetChar(void) 
 533:Generated_Source\PSoC5/UART.c ****     {
 345              		.loc 1 533 0
 346              		.cfi_startproc
 347              		@ args = 0, pretend = 0, frame = 0
 348              		@ frame_needed = 0, uses_anonymous_args = 0
 349              		@ link register save eliminated.
 350              	.LVL25:
 534:Generated_Source\PSoC5/UART.c ****         uint8 rxData = 0u;
 535:Generated_Source\PSoC5/UART.c ****         uint8 rxStatus;
 536:Generated_Source\PSoC5/UART.c **** 
 537:Generated_Source\PSoC5/UART.c ****     #if (UART_RX_INTERRUPT_ENABLED)
 538:Generated_Source\PSoC5/UART.c ****         uint8 locRxBufferRead;
 539:Generated_Source\PSoC5/UART.c ****         uint8 locRxBufferWrite;
 540:Generated_Source\PSoC5/UART.c **** 
 541:Generated_Source\PSoC5/UART.c ****         /* Protect variables that could change on interrupt */
 542:Generated_Source\PSoC5/UART.c ****         UART_DisableRxInt();
 351              		.loc 1 542 0
 352 0000 0122     		movs	r2, #1
 353 0002 194B     		ldr	r3, .L38
 354 0004 1A60     		str	r2, [r3]
 543:Generated_Source\PSoC5/UART.c **** 
 544:Generated_Source\PSoC5/UART.c ****         locRxBufferRead  = UART_rxBufferRead;
 355              		.loc 1 544 0
 356 0006 194A     		ldr	r2, .L38+4
 357 0008 5378     		ldrb	r3, [r2, #1]	@ zero_extendqisi2
 358 000a DBB2     		uxtb	r3, r3
 359              	.LVL26:
 545:Generated_Source\PSoC5/UART.c ****         locRxBufferWrite = UART_rxBufferWrite;
 360              		.loc 1 545 0
 361 000c 9178     		ldrb	r1, [r2, #2]	@ zero_extendqisi2
 362 000e C9B2     		uxtb	r1, r1
 363              	.LVL27:
 546:Generated_Source\PSoC5/UART.c **** 
 547:Generated_Source\PSoC5/UART.c ****         if( (UART_rxBufferLoopDetect != 0u) || (locRxBufferRead != locRxBufferWrite) )
 364              		.loc 1 547 0
 365 0010 D278     		ldrb	r2, [r2, #3]	@ zero_extendqisi2
ARM GAS  C:\Users\adria\AppData\Local\Temp\ccp4M7OT.s 			page 17


 366 0012 12F0FF0F 		tst	r2, #255
 367 0016 01D1     		bne	.L31
 368              		.loc 1 547 0 is_stmt 0 discriminator 1
 369 0018 8B42     		cmp	r3, r1
 370 001a 11D0     		beq	.L32
 371              	.L31:
 548:Generated_Source\PSoC5/UART.c ****         {
 549:Generated_Source\PSoC5/UART.c ****             rxData = UART_rxBuffer[locRxBufferRead];
 372              		.loc 1 549 0 is_stmt 1
 373 001c 144A     		ldr	r2, .L38+8
 374 001e D05C     		ldrb	r0, [r2, r3]	@ zero_extendqisi2
 375 0020 C0B2     		uxtb	r0, r0
 376              	.LVL28:
 550:Generated_Source\PSoC5/UART.c ****             locRxBufferRead++;
 377              		.loc 1 550 0
 378 0022 0133     		adds	r3, r3, #1
 379              	.LVL29:
 380 0024 DBB2     		uxtb	r3, r3
 381              	.LVL30:
 551:Generated_Source\PSoC5/UART.c ****             if(locRxBufferRead >= UART_RX_BUFFER_SIZE)
 382              		.loc 1 551 0
 383 0026 0F2B     		cmp	r3, #15
 384 0028 00D9     		bls	.L33
 552:Generated_Source\PSoC5/UART.c ****             {
 553:Generated_Source\PSoC5/UART.c ****                 locRxBufferRead = 0u;
 385              		.loc 1 553 0
 386 002a 0023     		movs	r3, #0
 387              	.LVL31:
 388              	.L33:
 554:Generated_Source\PSoC5/UART.c ****             }
 555:Generated_Source\PSoC5/UART.c ****             /* Update the real pointer */
 556:Generated_Source\PSoC5/UART.c ****             UART_rxBufferRead = locRxBufferRead;
 389              		.loc 1 556 0
 390 002c 0F4A     		ldr	r2, .L38+4
 391 002e 5370     		strb	r3, [r2, #1]
 557:Generated_Source\PSoC5/UART.c **** 
 558:Generated_Source\PSoC5/UART.c ****             if(UART_rxBufferLoopDetect != 0u)
 392              		.loc 1 558 0
 393 0030 D378     		ldrb	r3, [r2, #3]	@ zero_extendqisi2
 394              	.LVL32:
 395 0032 13F0FF0F 		tst	r3, #255
 396 0036 13D0     		beq	.L34
 559:Generated_Source\PSoC5/UART.c ****             {
 560:Generated_Source\PSoC5/UART.c ****                 UART_rxBufferLoopDetect = 0u;
 397              		.loc 1 560 0
 398 0038 0022     		movs	r2, #0
 399 003a 0C4B     		ldr	r3, .L38+4
 400 003c DA70     		strb	r2, [r3, #3]
 401              	.LVL33:
 402 003e 0FE0     		b	.L34
 403              	.LVL34:
 404              	.L32:
 561:Generated_Source\PSoC5/UART.c ****                 #if( (UART_RX_INTERRUPT_ENABLED) && (UART_FLOW_CONTROL != 0u) )
 562:Generated_Source\PSoC5/UART.c ****                     /* When Hardware Flow Control selected - return RX mask */
 563:Generated_Source\PSoC5/UART.c ****                     #if( UART_HD_ENABLED )
 564:Generated_Source\PSoC5/UART.c ****                         if((UART_CONTROL_REG & UART_CTRL_HD_SEND) == 0u)
 565:Generated_Source\PSoC5/UART.c ****                         {   /* In Half duplex mode return RX mask only if
ARM GAS  C:\Users\adria\AppData\Local\Temp\ccp4M7OT.s 			page 18


 566:Generated_Source\PSoC5/UART.c ****                             *  RX configuration set, otherwise
 567:Generated_Source\PSoC5/UART.c ****                             *  mask will be returned in LoadRxConfig() API.
 568:Generated_Source\PSoC5/UART.c ****                             */
 569:Generated_Source\PSoC5/UART.c ****                             UART_RXSTATUS_MASK_REG |= UART_RX_STS_FIFO_NOTEMPTY;
 570:Generated_Source\PSoC5/UART.c ****                         }
 571:Generated_Source\PSoC5/UART.c ****                     #else
 572:Generated_Source\PSoC5/UART.c ****                         UART_RXSTATUS_MASK_REG |= UART_RX_STS_FIFO_NOTEMPTY;
 573:Generated_Source\PSoC5/UART.c ****                     #endif /* end UART_HD_ENABLED */
 574:Generated_Source\PSoC5/UART.c ****                 #endif /* UART_RX_INTERRUPT_ENABLED and Hardware flow control*/
 575:Generated_Source\PSoC5/UART.c ****             }
 576:Generated_Source\PSoC5/UART.c **** 
 577:Generated_Source\PSoC5/UART.c ****         }
 578:Generated_Source\PSoC5/UART.c ****         else
 579:Generated_Source\PSoC5/UART.c ****         {   rxStatus = UART_RXSTATUS_REG;
 405              		.loc 1 579 0
 406 0040 0C4B     		ldr	r3, .L38+12
 407              	.LVL35:
 408 0042 1B78     		ldrb	r3, [r3]	@ zero_extendqisi2
 409 0044 DBB2     		uxtb	r3, r3
 410              	.LVL36:
 580:Generated_Source\PSoC5/UART.c ****             if((rxStatus & UART_RX_STS_FIFO_NOTEMPTY) != 0u)
 411              		.loc 1 580 0
 412 0046 13F0200F 		tst	r3, #32
 413 004a 06D0     		beq	.L36
 581:Generated_Source\PSoC5/UART.c ****             {   /* Read received data from FIFO */
 582:Generated_Source\PSoC5/UART.c ****                 rxData = UART_RXDATA_REG;
 414              		.loc 1 582 0
 415 004c 0A4A     		ldr	r2, .L38+16
 416 004e 1078     		ldrb	r0, [r2]	@ zero_extendqisi2
 417 0050 C0B2     		uxtb	r0, r0
 418              	.LVL37:
 583:Generated_Source\PSoC5/UART.c ****                 /*Check status on error*/
 584:Generated_Source\PSoC5/UART.c ****                 if((rxStatus & (UART_RX_STS_BREAK | UART_RX_STS_PAR_ERROR |
 419              		.loc 1 584 0
 420 0052 13F01E0F 		tst	r3, #30
 421 0056 02D1     		bne	.L37
 422 0058 02E0     		b	.L34
 423              	.LVL38:
 424              	.L36:
 534:Generated_Source\PSoC5/UART.c ****         uint8 rxStatus;
 425              		.loc 1 534 0
 426 005a 0020     		movs	r0, #0
 427 005c 00E0     		b	.L34
 428              	.LVL39:
 429              	.L37:
 585:Generated_Source\PSoC5/UART.c ****                                 UART_RX_STS_STOP_ERROR | UART_RX_STS_OVERRUN)) != 0u)
 586:Generated_Source\PSoC5/UART.c ****                 {
 587:Generated_Source\PSoC5/UART.c ****                     rxData = 0u;
 430              		.loc 1 587 0
 431 005e 0020     		movs	r0, #0
 432              	.LVL40:
 433              	.L34:
 588:Generated_Source\PSoC5/UART.c ****                 }
 589:Generated_Source\PSoC5/UART.c ****             }
 590:Generated_Source\PSoC5/UART.c ****         }
 591:Generated_Source\PSoC5/UART.c **** 
 592:Generated_Source\PSoC5/UART.c ****         UART_EnableRxInt();
ARM GAS  C:\Users\adria\AppData\Local\Temp\ccp4M7OT.s 			page 19


 434              		.loc 1 592 0
 435 0060 0122     		movs	r2, #1
 436 0062 064B     		ldr	r3, .L38+20
 437 0064 1A60     		str	r2, [r3]
 593:Generated_Source\PSoC5/UART.c **** 
 594:Generated_Source\PSoC5/UART.c ****     #else
 595:Generated_Source\PSoC5/UART.c **** 
 596:Generated_Source\PSoC5/UART.c ****         rxStatus =UART_RXSTATUS_REG;
 597:Generated_Source\PSoC5/UART.c ****         if((rxStatus & UART_RX_STS_FIFO_NOTEMPTY) != 0u)
 598:Generated_Source\PSoC5/UART.c ****         {
 599:Generated_Source\PSoC5/UART.c ****             /* Read received data from FIFO */
 600:Generated_Source\PSoC5/UART.c ****             rxData = UART_RXDATA_REG;
 601:Generated_Source\PSoC5/UART.c **** 
 602:Generated_Source\PSoC5/UART.c ****             /*Check status on error*/
 603:Generated_Source\PSoC5/UART.c ****             if((rxStatus & (UART_RX_STS_BREAK | UART_RX_STS_PAR_ERROR |
 604:Generated_Source\PSoC5/UART.c ****                             UART_RX_STS_STOP_ERROR | UART_RX_STS_OVERRUN)) != 0u)
 605:Generated_Source\PSoC5/UART.c ****             {
 606:Generated_Source\PSoC5/UART.c ****                 rxData = 0u;
 607:Generated_Source\PSoC5/UART.c ****             }
 608:Generated_Source\PSoC5/UART.c ****         }
 609:Generated_Source\PSoC5/UART.c ****     #endif /* (UART_RX_INTERRUPT_ENABLED) */
 610:Generated_Source\PSoC5/UART.c **** 
 611:Generated_Source\PSoC5/UART.c ****         return(rxData);
 612:Generated_Source\PSoC5/UART.c ****     }
 438              		.loc 1 612 0
 439 0066 7047     		bx	lr
 440              	.L39:
 441              		.align	2
 442              	.L38:
 443 0068 80E100E0 		.word	-536813184
 444 006c 00000000 		.word	.LANCHOR0
 445 0070 00000000 		.word	UART_rxBuffer
 446 0074 6B640040 		.word	1073767531
 447 0078 48650040 		.word	1073767752
 448 007c 00E100E0 		.word	-536813312
 449              		.cfi_endproc
 450              	.LFE9:
 451              		.size	UART_GetChar, .-UART_GetChar
 452              		.section	.text.UART_GetByte,"ax",%progbits
 453              		.align	2
 454              		.global	UART_GetByte
 455              		.thumb
 456              		.thumb_func
 457              		.type	UART_GetByte, %function
 458              	UART_GetByte:
 459              	.LFB10:
 613:Generated_Source\PSoC5/UART.c **** 
 614:Generated_Source\PSoC5/UART.c **** 
 615:Generated_Source\PSoC5/UART.c ****     /*******************************************************************************
 616:Generated_Source\PSoC5/UART.c ****     * Function Name: UART_GetByte
 617:Generated_Source\PSoC5/UART.c ****     ********************************************************************************
 618:Generated_Source\PSoC5/UART.c ****     *
 619:Generated_Source\PSoC5/UART.c ****     * Summary:
 620:Generated_Source\PSoC5/UART.c ****     *  Reads UART RX buffer immediately, returns received character and error
 621:Generated_Source\PSoC5/UART.c ****     *  condition.
 622:Generated_Source\PSoC5/UART.c ****     *
 623:Generated_Source\PSoC5/UART.c ****     * Parameters:
ARM GAS  C:\Users\adria\AppData\Local\Temp\ccp4M7OT.s 			page 20


 624:Generated_Source\PSoC5/UART.c ****     *  None.
 625:Generated_Source\PSoC5/UART.c ****     *
 626:Generated_Source\PSoC5/UART.c ****     * Return:
 627:Generated_Source\PSoC5/UART.c ****     *  MSB contains status and LSB contains UART RX data. If the MSB is nonzero,
 628:Generated_Source\PSoC5/UART.c ****     *  an error has occurred.
 629:Generated_Source\PSoC5/UART.c ****     *
 630:Generated_Source\PSoC5/UART.c ****     * Reentrant:
 631:Generated_Source\PSoC5/UART.c ****     *  No.
 632:Generated_Source\PSoC5/UART.c ****     *
 633:Generated_Source\PSoC5/UART.c ****     *******************************************************************************/
 634:Generated_Source\PSoC5/UART.c ****     uint16 UART_GetByte(void) 
 635:Generated_Source\PSoC5/UART.c ****     {
 460              		.loc 1 635 0
 461              		.cfi_startproc
 462              		@ args = 0, pretend = 0, frame = 0
 463              		@ frame_needed = 0, uses_anonymous_args = 0
 464 0000 10B5     		push	{r4, lr}
 465              		.cfi_def_cfa_offset 8
 466              		.cfi_offset 4, -8
 467              		.cfi_offset 14, -4
 636:Generated_Source\PSoC5/UART.c ****         
 637:Generated_Source\PSoC5/UART.c ****     #if (UART_RX_INTERRUPT_ENABLED)
 638:Generated_Source\PSoC5/UART.c ****         uint16 locErrorStatus;
 639:Generated_Source\PSoC5/UART.c ****         /* Protect variables that could change on interrupt */
 640:Generated_Source\PSoC5/UART.c ****         UART_DisableRxInt();
 468              		.loc 1 640 0
 469 0002 0123     		movs	r3, #1
 470 0004 064A     		ldr	r2, .L42
 471 0006 1360     		str	r3, [r2]
 641:Generated_Source\PSoC5/UART.c ****         locErrorStatus = (uint16)UART_errorStatus;
 472              		.loc 1 641 0
 473 0008 064A     		ldr	r2, .L42+4
 474 000a 5479     		ldrb	r4, [r2, #5]	@ zero_extendqisi2
 475              	.LVL41:
 642:Generated_Source\PSoC5/UART.c ****         UART_errorStatus = 0u;
 476              		.loc 1 642 0
 477 000c 0021     		movs	r1, #0
 478 000e 5171     		strb	r1, [r2, #5]
 643:Generated_Source\PSoC5/UART.c ****         UART_EnableRxInt();
 479              		.loc 1 643 0
 480 0010 054A     		ldr	r2, .L42+8
 481 0012 1360     		str	r3, [r2]
 644:Generated_Source\PSoC5/UART.c ****         return ( (uint16)(locErrorStatus << 8u) | UART_ReadRxData() );
 482              		.loc 1 644 0
 483 0014 2402     		lsls	r4, r4, #8
 484              	.LVL42:
 485 0016 FFF7FEFF 		bl	UART_ReadRxData
 486              	.LVL43:
 487 001a 2043     		orrs	r0, r0, r4
 645:Generated_Source\PSoC5/UART.c ****     #else
 646:Generated_Source\PSoC5/UART.c ****         return ( ((uint16)UART_ReadRxStatus() << 8u) | UART_ReadRxData() );
 647:Generated_Source\PSoC5/UART.c ****     #endif /* UART_RX_INTERRUPT_ENABLED */
 648:Generated_Source\PSoC5/UART.c ****         
 649:Generated_Source\PSoC5/UART.c ****     }
 488              		.loc 1 649 0
 489 001c 80B2     		uxth	r0, r0
 490 001e 10BD     		pop	{r4, pc}
ARM GAS  C:\Users\adria\AppData\Local\Temp\ccp4M7OT.s 			page 21


 491              	.L43:
 492              		.align	2
 493              	.L42:
 494 0020 80E100E0 		.word	-536813184
 495 0024 00000000 		.word	.LANCHOR0
 496 0028 00E100E0 		.word	-536813312
 497              		.cfi_endproc
 498              	.LFE10:
 499              		.size	UART_GetByte, .-UART_GetByte
 500              		.section	.text.UART_GetRxBufferSize,"ax",%progbits
 501              		.align	2
 502              		.global	UART_GetRxBufferSize
 503              		.thumb
 504              		.thumb_func
 505              		.type	UART_GetRxBufferSize, %function
 506              	UART_GetRxBufferSize:
 507              	.LFB11:
 650:Generated_Source\PSoC5/UART.c **** 
 651:Generated_Source\PSoC5/UART.c **** 
 652:Generated_Source\PSoC5/UART.c ****     /*******************************************************************************
 653:Generated_Source\PSoC5/UART.c ****     * Function Name: UART_GetRxBufferSize
 654:Generated_Source\PSoC5/UART.c ****     ********************************************************************************
 655:Generated_Source\PSoC5/UART.c ****     *
 656:Generated_Source\PSoC5/UART.c ****     * Summary:
 657:Generated_Source\PSoC5/UART.c ****     *  Returns the number of received bytes available in the RX buffer.
 658:Generated_Source\PSoC5/UART.c ****     *  * RX software buffer is disabled (RX Buffer Size parameter is equal to 4): 
 659:Generated_Source\PSoC5/UART.c ****     *    returns 0 for empty RX FIFO or 1 for not empty RX FIFO.
 660:Generated_Source\PSoC5/UART.c ****     *  * RX software buffer is enabled: returns the number of bytes available in 
 661:Generated_Source\PSoC5/UART.c ****     *    the RX software buffer. Bytes available in the RX FIFO do not take to 
 662:Generated_Source\PSoC5/UART.c ****     *    account.
 663:Generated_Source\PSoC5/UART.c ****     *
 664:Generated_Source\PSoC5/UART.c ****     * Parameters:
 665:Generated_Source\PSoC5/UART.c ****     *  None.
 666:Generated_Source\PSoC5/UART.c ****     *
 667:Generated_Source\PSoC5/UART.c ****     * Return:
 668:Generated_Source\PSoC5/UART.c ****     *  uint8: Number of bytes in the RX buffer. 
 669:Generated_Source\PSoC5/UART.c ****     *    Return value type depends on RX Buffer Size parameter.
 670:Generated_Source\PSoC5/UART.c ****     *
 671:Generated_Source\PSoC5/UART.c ****     * Global Variables:
 672:Generated_Source\PSoC5/UART.c ****     *  UART_rxBufferWrite - used to calculate left bytes.
 673:Generated_Source\PSoC5/UART.c ****     *  UART_rxBufferRead - used to calculate left bytes.
 674:Generated_Source\PSoC5/UART.c ****     *  UART_rxBufferLoopDetect - checked to decide left bytes amount.
 675:Generated_Source\PSoC5/UART.c ****     *
 676:Generated_Source\PSoC5/UART.c ****     * Reentrant:
 677:Generated_Source\PSoC5/UART.c ****     *  No.
 678:Generated_Source\PSoC5/UART.c ****     *
 679:Generated_Source\PSoC5/UART.c ****     * Theory:
 680:Generated_Source\PSoC5/UART.c ****     *  Allows the user to find out how full the RX Buffer is.
 681:Generated_Source\PSoC5/UART.c ****     *
 682:Generated_Source\PSoC5/UART.c ****     *******************************************************************************/
 683:Generated_Source\PSoC5/UART.c ****     uint8 UART_GetRxBufferSize(void)
 684:Generated_Source\PSoC5/UART.c ****                                                             
 685:Generated_Source\PSoC5/UART.c ****     {
 508              		.loc 1 685 0
 509              		.cfi_startproc
 510              		@ args = 0, pretend = 0, frame = 0
 511              		@ frame_needed = 0, uses_anonymous_args = 0
ARM GAS  C:\Users\adria\AppData\Local\Temp\ccp4M7OT.s 			page 22


 512              		@ link register save eliminated.
 686:Generated_Source\PSoC5/UART.c ****         uint8 size;
 687:Generated_Source\PSoC5/UART.c **** 
 688:Generated_Source\PSoC5/UART.c ****     #if (UART_RX_INTERRUPT_ENABLED)
 689:Generated_Source\PSoC5/UART.c **** 
 690:Generated_Source\PSoC5/UART.c ****         /* Protect variables that could change on interrupt */
 691:Generated_Source\PSoC5/UART.c ****         UART_DisableRxInt();
 513              		.loc 1 691 0
 514 0000 0122     		movs	r2, #1
 515 0002 144B     		ldr	r3, .L49
 516 0004 1A60     		str	r2, [r3]
 692:Generated_Source\PSoC5/UART.c **** 
 693:Generated_Source\PSoC5/UART.c ****         if(UART_rxBufferRead == UART_rxBufferWrite)
 517              		.loc 1 693 0
 518 0006 144B     		ldr	r3, .L49+4
 519 0008 5A78     		ldrb	r2, [r3, #1]	@ zero_extendqisi2
 520 000a D2B2     		uxtb	r2, r2
 521 000c 9B78     		ldrb	r3, [r3, #2]	@ zero_extendqisi2
 522 000e DBB2     		uxtb	r3, r3
 523 0010 9A42     		cmp	r2, r3
 524 0012 06D1     		bne	.L45
 694:Generated_Source\PSoC5/UART.c ****         {
 695:Generated_Source\PSoC5/UART.c ****             if(UART_rxBufferLoopDetect != 0u)
 525              		.loc 1 695 0
 526 0014 104B     		ldr	r3, .L49+4
 527 0016 DB78     		ldrb	r3, [r3, #3]	@ zero_extendqisi2
 528 0018 13F0FF0F 		tst	r3, #255
 529 001c 15D0     		beq	.L48
 696:Generated_Source\PSoC5/UART.c ****             {
 697:Generated_Source\PSoC5/UART.c ****                 size = UART_RX_BUFFER_SIZE;
 530              		.loc 1 697 0
 531 001e 1020     		movs	r0, #16
 532 0020 14E0     		b	.L46
 533              	.L45:
 698:Generated_Source\PSoC5/UART.c ****             }
 699:Generated_Source\PSoC5/UART.c ****             else
 700:Generated_Source\PSoC5/UART.c ****             {
 701:Generated_Source\PSoC5/UART.c ****                 size = 0u;
 702:Generated_Source\PSoC5/UART.c ****             }
 703:Generated_Source\PSoC5/UART.c ****         }
 704:Generated_Source\PSoC5/UART.c ****         else if(UART_rxBufferRead < UART_rxBufferWrite)
 534              		.loc 1 704 0
 535 0022 0D4B     		ldr	r3, .L49+4
 536 0024 5A78     		ldrb	r2, [r3, #1]	@ zero_extendqisi2
 537 0026 D2B2     		uxtb	r2, r2
 538 0028 9B78     		ldrb	r3, [r3, #2]	@ zero_extendqisi2
 539 002a DBB2     		uxtb	r3, r3
 540 002c 9A42     		cmp	r2, r3
 541 002e 05D2     		bcs	.L47
 705:Generated_Source\PSoC5/UART.c ****         {
 706:Generated_Source\PSoC5/UART.c ****             size = (UART_rxBufferWrite - UART_rxBufferRead);
 542              		.loc 1 706 0
 543 0030 094A     		ldr	r2, .L49+4
 544 0032 9378     		ldrb	r3, [r2, #2]	@ zero_extendqisi2
 545 0034 5078     		ldrb	r0, [r2, #1]	@ zero_extendqisi2
 546 0036 181A     		subs	r0, r3, r0
 547 0038 C0B2     		uxtb	r0, r0
ARM GAS  C:\Users\adria\AppData\Local\Temp\ccp4M7OT.s 			page 23


 548              	.LVL44:
 549 003a 07E0     		b	.L46
 550              	.LVL45:
 551              	.L47:
 707:Generated_Source\PSoC5/UART.c ****         }
 708:Generated_Source\PSoC5/UART.c ****         else
 709:Generated_Source\PSoC5/UART.c ****         {
 710:Generated_Source\PSoC5/UART.c ****             size = (UART_RX_BUFFER_SIZE - UART_rxBufferRead) + UART_rxBufferWrite;
 552              		.loc 1 710 0
 553 003c 064A     		ldr	r2, .L49+4
 554 003e 9378     		ldrb	r3, [r2, #2]	@ zero_extendqisi2
 555 0040 5078     		ldrb	r0, [r2, #1]	@ zero_extendqisi2
 556 0042 181A     		subs	r0, r3, r0
 557 0044 1030     		adds	r0, r0, #16
 558 0046 C0B2     		uxtb	r0, r0
 559              	.LVL46:
 560 0048 00E0     		b	.L46
 561              	.LVL47:
 562              	.L48:
 701:Generated_Source\PSoC5/UART.c ****             }
 563              		.loc 1 701 0
 564 004a 0020     		movs	r0, #0
 565              	.L46:
 566              	.LVL48:
 711:Generated_Source\PSoC5/UART.c ****         }
 712:Generated_Source\PSoC5/UART.c **** 
 713:Generated_Source\PSoC5/UART.c ****         UART_EnableRxInt();
 567              		.loc 1 713 0
 568 004c 0122     		movs	r2, #1
 569 004e 034B     		ldr	r3, .L49+8
 570 0050 1A60     		str	r2, [r3]
 714:Generated_Source\PSoC5/UART.c **** 
 715:Generated_Source\PSoC5/UART.c ****     #else
 716:Generated_Source\PSoC5/UART.c **** 
 717:Generated_Source\PSoC5/UART.c ****         /* We can only know if there is data in the fifo. */
 718:Generated_Source\PSoC5/UART.c ****         size = ((UART_RXSTATUS_REG & UART_RX_STS_FIFO_NOTEMPTY) != 0u) ? 1u : 0u;
 719:Generated_Source\PSoC5/UART.c **** 
 720:Generated_Source\PSoC5/UART.c ****     #endif /* (UART_RX_INTERRUPT_ENABLED) */
 721:Generated_Source\PSoC5/UART.c **** 
 722:Generated_Source\PSoC5/UART.c ****         return(size);
 723:Generated_Source\PSoC5/UART.c ****     }
 571              		.loc 1 723 0
 572 0052 7047     		bx	lr
 573              	.L50:
 574              		.align	2
 575              	.L49:
 576 0054 80E100E0 		.word	-536813184
 577 0058 00000000 		.word	.LANCHOR0
 578 005c 00E100E0 		.word	-536813312
 579              		.cfi_endproc
 580              	.LFE11:
 581              		.size	UART_GetRxBufferSize, .-UART_GetRxBufferSize
 582              		.section	.text.UART_ClearRxBuffer,"ax",%progbits
 583              		.align	2
 584              		.global	UART_ClearRxBuffer
 585              		.thumb
 586              		.thumb_func
ARM GAS  C:\Users\adria\AppData\Local\Temp\ccp4M7OT.s 			page 24


 587              		.type	UART_ClearRxBuffer, %function
 588              	UART_ClearRxBuffer:
 589              	.LFB12:
 724:Generated_Source\PSoC5/UART.c **** 
 725:Generated_Source\PSoC5/UART.c **** 
 726:Generated_Source\PSoC5/UART.c ****     /*******************************************************************************
 727:Generated_Source\PSoC5/UART.c ****     * Function Name: UART_ClearRxBuffer
 728:Generated_Source\PSoC5/UART.c ****     ********************************************************************************
 729:Generated_Source\PSoC5/UART.c ****     *
 730:Generated_Source\PSoC5/UART.c ****     * Summary:
 731:Generated_Source\PSoC5/UART.c ****     *  Clears the receiver memory buffer and hardware RX FIFO of all received data.
 732:Generated_Source\PSoC5/UART.c ****     *
 733:Generated_Source\PSoC5/UART.c ****     * Parameters:
 734:Generated_Source\PSoC5/UART.c ****     *  None.
 735:Generated_Source\PSoC5/UART.c ****     *
 736:Generated_Source\PSoC5/UART.c ****     * Return:
 737:Generated_Source\PSoC5/UART.c ****     *  None.
 738:Generated_Source\PSoC5/UART.c ****     *
 739:Generated_Source\PSoC5/UART.c ****     * Global Variables:
 740:Generated_Source\PSoC5/UART.c ****     *  UART_rxBufferWrite - cleared to zero.
 741:Generated_Source\PSoC5/UART.c ****     *  UART_rxBufferRead - cleared to zero.
 742:Generated_Source\PSoC5/UART.c ****     *  UART_rxBufferLoopDetect - cleared to zero.
 743:Generated_Source\PSoC5/UART.c ****     *  UART_rxBufferOverflow - cleared to zero.
 744:Generated_Source\PSoC5/UART.c ****     *
 745:Generated_Source\PSoC5/UART.c ****     * Reentrant:
 746:Generated_Source\PSoC5/UART.c ****     *  No.
 747:Generated_Source\PSoC5/UART.c ****     *
 748:Generated_Source\PSoC5/UART.c ****     * Theory:
 749:Generated_Source\PSoC5/UART.c ****     *  Setting the pointers to zero makes the system believe there is no data to
 750:Generated_Source\PSoC5/UART.c ****     *  read and writing will resume at address 0 overwriting any data that may
 751:Generated_Source\PSoC5/UART.c ****     *  have remained in the RAM.
 752:Generated_Source\PSoC5/UART.c ****     *
 753:Generated_Source\PSoC5/UART.c ****     * Side Effects:
 754:Generated_Source\PSoC5/UART.c ****     *  Any received data not read from the RAM or FIFO buffer will be lost.
 755:Generated_Source\PSoC5/UART.c ****     *
 756:Generated_Source\PSoC5/UART.c ****     *******************************************************************************/
 757:Generated_Source\PSoC5/UART.c ****     void UART_ClearRxBuffer(void) 
 758:Generated_Source\PSoC5/UART.c ****     {
 590              		.loc 1 758 0
 591              		.cfi_startproc
 592              		@ args = 0, pretend = 0, frame = 0
 593              		@ frame_needed = 0, uses_anonymous_args = 0
 594 0000 08B5     		push	{r3, lr}
 595              		.cfi_def_cfa_offset 8
 596              		.cfi_offset 3, -8
 597              		.cfi_offset 14, -4
 759:Generated_Source\PSoC5/UART.c ****         uint8 enableInterrupts;
 760:Generated_Source\PSoC5/UART.c **** 
 761:Generated_Source\PSoC5/UART.c ****         /* Clear the HW FIFO */
 762:Generated_Source\PSoC5/UART.c ****         enableInterrupts = CyEnterCriticalSection();
 598              		.loc 1 762 0
 599 0002 FFF7FEFF 		bl	CyEnterCriticalSection
 600              	.LVL49:
 763:Generated_Source\PSoC5/UART.c ****         UART_RXDATA_AUX_CTL_REG |= (uint8)  UART_RX_FIFO_CLR;
 601              		.loc 1 763 0
 602 0006 0B4B     		ldr	r3, .L53
 603 0008 1A78     		ldrb	r2, [r3]	@ zero_extendqisi2
ARM GAS  C:\Users\adria\AppData\Local\Temp\ccp4M7OT.s 			page 25


 604 000a 42F00102 		orr	r2, r2, #1
 605 000e 1A70     		strb	r2, [r3]
 764:Generated_Source\PSoC5/UART.c ****         UART_RXDATA_AUX_CTL_REG &= (uint8) ~UART_RX_FIFO_CLR;
 606              		.loc 1 764 0
 607 0010 1A78     		ldrb	r2, [r3]	@ zero_extendqisi2
 608 0012 02F0FE02 		and	r2, r2, #254
 609 0016 1A70     		strb	r2, [r3]
 765:Generated_Source\PSoC5/UART.c ****         CyExitCriticalSection(enableInterrupts);
 610              		.loc 1 765 0
 611 0018 FFF7FEFF 		bl	CyExitCriticalSection
 612              	.LVL50:
 766:Generated_Source\PSoC5/UART.c **** 
 767:Generated_Source\PSoC5/UART.c ****     #if (UART_RX_INTERRUPT_ENABLED)
 768:Generated_Source\PSoC5/UART.c **** 
 769:Generated_Source\PSoC5/UART.c ****         /* Protect variables that could change on interrupt. */
 770:Generated_Source\PSoC5/UART.c ****         UART_DisableRxInt();
 613              		.loc 1 770 0
 614 001c 0121     		movs	r1, #1
 615 001e 064B     		ldr	r3, .L53+4
 616 0020 1960     		str	r1, [r3]
 771:Generated_Source\PSoC5/UART.c **** 
 772:Generated_Source\PSoC5/UART.c ****         UART_rxBufferRead = 0u;
 617              		.loc 1 772 0
 618 0022 064B     		ldr	r3, .L53+8
 619 0024 0022     		movs	r2, #0
 620 0026 5A70     		strb	r2, [r3, #1]
 773:Generated_Source\PSoC5/UART.c ****         UART_rxBufferWrite = 0u;
 621              		.loc 1 773 0
 622 0028 9A70     		strb	r2, [r3, #2]
 774:Generated_Source\PSoC5/UART.c ****         UART_rxBufferLoopDetect = 0u;
 623              		.loc 1 774 0
 624 002a DA70     		strb	r2, [r3, #3]
 775:Generated_Source\PSoC5/UART.c ****         UART_rxBufferOverflow = 0u;
 625              		.loc 1 775 0
 626 002c 1A71     		strb	r2, [r3, #4]
 776:Generated_Source\PSoC5/UART.c **** 
 777:Generated_Source\PSoC5/UART.c ****         UART_EnableRxInt();
 627              		.loc 1 777 0
 628 002e 044B     		ldr	r3, .L53+12
 629 0030 1960     		str	r1, [r3]
 630 0032 08BD     		pop	{r3, pc}
 631              	.L54:
 632              		.align	2
 633              	.L53:
 634 0034 98650040 		.word	1073767832
 635 0038 80E100E0 		.word	-536813184
 636 003c 00000000 		.word	.LANCHOR0
 637 0040 00E100E0 		.word	-536813312
 638              		.cfi_endproc
 639              	.LFE12:
 640              		.size	UART_ClearRxBuffer, .-UART_ClearRxBuffer
 641              		.section	.text.UART_SetRxAddressMode,"ax",%progbits
 642              		.align	2
 643              		.global	UART_SetRxAddressMode
 644              		.thumb
 645              		.thumb_func
 646              		.type	UART_SetRxAddressMode, %function
ARM GAS  C:\Users\adria\AppData\Local\Temp\ccp4M7OT.s 			page 26


 647              	UART_SetRxAddressMode:
 648              	.LFB13:
 778:Generated_Source\PSoC5/UART.c **** 
 779:Generated_Source\PSoC5/UART.c ****     #endif /* (UART_RX_INTERRUPT_ENABLED) */
 780:Generated_Source\PSoC5/UART.c **** 
 781:Generated_Source\PSoC5/UART.c ****     }
 782:Generated_Source\PSoC5/UART.c **** 
 783:Generated_Source\PSoC5/UART.c **** 
 784:Generated_Source\PSoC5/UART.c ****     /*******************************************************************************
 785:Generated_Source\PSoC5/UART.c ****     * Function Name: UART_SetRxAddressMode
 786:Generated_Source\PSoC5/UART.c ****     ********************************************************************************
 787:Generated_Source\PSoC5/UART.c ****     *
 788:Generated_Source\PSoC5/UART.c ****     * Summary:
 789:Generated_Source\PSoC5/UART.c ****     *  Sets the software controlled Addressing mode used by the RX portion of the
 790:Generated_Source\PSoC5/UART.c ****     *  UART.
 791:Generated_Source\PSoC5/UART.c ****     *
 792:Generated_Source\PSoC5/UART.c ****     * Parameters:
 793:Generated_Source\PSoC5/UART.c ****     *  addressMode: Enumerated value indicating the mode of RX addressing
 794:Generated_Source\PSoC5/UART.c ****     *  UART__B_UART__AM_SW_BYTE_BYTE -  Software Byte-by-Byte address
 795:Generated_Source\PSoC5/UART.c ****     *                                               detection
 796:Generated_Source\PSoC5/UART.c ****     *  UART__B_UART__AM_SW_DETECT_TO_BUFFER - Software Detect to Buffer
 797:Generated_Source\PSoC5/UART.c ****     *                                               address detection
 798:Generated_Source\PSoC5/UART.c ****     *  UART__B_UART__AM_HW_BYTE_BY_BYTE - Hardware Byte-by-Byte address
 799:Generated_Source\PSoC5/UART.c ****     *                                               detection
 800:Generated_Source\PSoC5/UART.c ****     *  UART__B_UART__AM_HW_DETECT_TO_BUFFER - Hardware Detect to Buffer
 801:Generated_Source\PSoC5/UART.c ****     *                                               address detection
 802:Generated_Source\PSoC5/UART.c ****     *  UART__B_UART__AM_NONE - No address detection
 803:Generated_Source\PSoC5/UART.c ****     *
 804:Generated_Source\PSoC5/UART.c ****     * Return:
 805:Generated_Source\PSoC5/UART.c ****     *  None.
 806:Generated_Source\PSoC5/UART.c ****     *
 807:Generated_Source\PSoC5/UART.c ****     * Global Variables:
 808:Generated_Source\PSoC5/UART.c ****     *  UART_rxAddressMode - the parameter stored in this variable for
 809:Generated_Source\PSoC5/UART.c ****     *   the farther usage in RX ISR.
 810:Generated_Source\PSoC5/UART.c ****     *  UART_rxAddressDetected - set to initial state (0).
 811:Generated_Source\PSoC5/UART.c ****     *
 812:Generated_Source\PSoC5/UART.c ****     *******************************************************************************/
 813:Generated_Source\PSoC5/UART.c ****     void UART_SetRxAddressMode(uint8 addressMode)
 814:Generated_Source\PSoC5/UART.c ****                                                         
 815:Generated_Source\PSoC5/UART.c ****     {
 649              		.loc 1 815 0
 650              		.cfi_startproc
 651              		@ args = 0, pretend = 0, frame = 0
 652              		@ frame_needed = 0, uses_anonymous_args = 0
 653              		@ link register save eliminated.
 654              	.LVL51:
 816:Generated_Source\PSoC5/UART.c ****         #if(UART_RXHW_ADDRESS_ENABLED)
 817:Generated_Source\PSoC5/UART.c ****             #if(UART_CONTROL_REG_REMOVED)
 818:Generated_Source\PSoC5/UART.c ****                 if(0u != addressMode)
 819:Generated_Source\PSoC5/UART.c ****                 {
 820:Generated_Source\PSoC5/UART.c ****                     /* Suppress compiler warning */
 821:Generated_Source\PSoC5/UART.c ****                 }
 822:Generated_Source\PSoC5/UART.c ****             #else /* UART_CONTROL_REG_REMOVED */
 823:Generated_Source\PSoC5/UART.c ****                 uint8 tmpCtrl;
 824:Generated_Source\PSoC5/UART.c ****                 tmpCtrl = UART_CONTROL_REG & (uint8)~UART_CTRL_RXADDR_MODE_MASK;
 655              		.loc 1 824 0
 656 0000 0649     		ldr	r1, .L56
ARM GAS  C:\Users\adria\AppData\Local\Temp\ccp4M7OT.s 			page 27


 657 0002 0B78     		ldrb	r3, [r1]	@ zero_extendqisi2
 658 0004 03F01F02 		and	r2, r3, #31
 659              	.LVL52:
 825:Generated_Source\PSoC5/UART.c ****                 tmpCtrl |= (uint8)(addressMode << UART_CTRL_RXADDR_MODE0_SHIFT);
 660              		.loc 1 825 0
 661 0008 4301     		lsls	r3, r0, #5
 662 000a DBB2     		uxtb	r3, r3
 663 000c 1343     		orrs	r3, r3, r2
 664              	.LVL53:
 826:Generated_Source\PSoC5/UART.c ****                 UART_CONTROL_REG = tmpCtrl;
 665              		.loc 1 826 0
 666 000e 0B70     		strb	r3, [r1]
 827:Generated_Source\PSoC5/UART.c **** 
 828:Generated_Source\PSoC5/UART.c ****                 #if(UART_RX_INTERRUPT_ENABLED && \
 829:Generated_Source\PSoC5/UART.c ****                    (UART_RXBUFFERSIZE > UART_FIFO_LENGTH) )
 830:Generated_Source\PSoC5/UART.c ****                     UART_rxAddressMode = addressMode;
 667              		.loc 1 830 0
 668 0010 034B     		ldr	r3, .L56+4
 669              	.LVL54:
 670 0012 1870     		strb	r0, [r3]
 671              	.LVL55:
 831:Generated_Source\PSoC5/UART.c ****                     UART_rxAddressDetected = 0u;
 672              		.loc 1 831 0
 673 0014 0022     		movs	r2, #0
 674              	.LVL56:
 675 0016 034B     		ldr	r3, .L56+8
 676 0018 1A70     		strb	r2, [r3]
 677 001a 7047     		bx	lr
 678              	.L57:
 679              		.align	2
 680              	.L56:
 681 001c 78650040 		.word	1073767800
 682 0020 00000000 		.word	.LANCHOR1
 683 0024 00000000 		.word	.LANCHOR0
 684              		.cfi_endproc
 685              	.LFE13:
 686              		.size	UART_SetRxAddressMode, .-UART_SetRxAddressMode
 687              		.section	.text.UART_SetRxAddress1,"ax",%progbits
 688              		.align	2
 689              		.global	UART_SetRxAddress1
 690              		.thumb
 691              		.thumb_func
 692              		.type	UART_SetRxAddress1, %function
 693              	UART_SetRxAddress1:
 694              	.LFB14:
 832:Generated_Source\PSoC5/UART.c ****                 #endif /* End UART_RXBUFFERSIZE > UART_FIFO_LENGTH*/
 833:Generated_Source\PSoC5/UART.c ****             #endif /* End UART_CONTROL_REG_REMOVED */
 834:Generated_Source\PSoC5/UART.c ****         #else /* UART_RXHW_ADDRESS_ENABLED */
 835:Generated_Source\PSoC5/UART.c ****             if(0u != addressMode)
 836:Generated_Source\PSoC5/UART.c ****             {
 837:Generated_Source\PSoC5/UART.c ****                 /* Suppress compiler warning */
 838:Generated_Source\PSoC5/UART.c ****             }
 839:Generated_Source\PSoC5/UART.c ****         #endif /* End UART_RXHW_ADDRESS_ENABLED */
 840:Generated_Source\PSoC5/UART.c ****     }
 841:Generated_Source\PSoC5/UART.c **** 
 842:Generated_Source\PSoC5/UART.c **** 
 843:Generated_Source\PSoC5/UART.c ****     /*******************************************************************************
ARM GAS  C:\Users\adria\AppData\Local\Temp\ccp4M7OT.s 			page 28


 844:Generated_Source\PSoC5/UART.c ****     * Function Name: UART_SetRxAddress1
 845:Generated_Source\PSoC5/UART.c ****     ********************************************************************************
 846:Generated_Source\PSoC5/UART.c ****     *
 847:Generated_Source\PSoC5/UART.c ****     * Summary:
 848:Generated_Source\PSoC5/UART.c ****     *  Sets the first of two hardware-detectable receiver addresses.
 849:Generated_Source\PSoC5/UART.c ****     *
 850:Generated_Source\PSoC5/UART.c ****     * Parameters:
 851:Generated_Source\PSoC5/UART.c ****     *  address: Address #1 for hardware address detection.
 852:Generated_Source\PSoC5/UART.c ****     *
 853:Generated_Source\PSoC5/UART.c ****     * Return:
 854:Generated_Source\PSoC5/UART.c ****     *  None.
 855:Generated_Source\PSoC5/UART.c ****     *
 856:Generated_Source\PSoC5/UART.c ****     *******************************************************************************/
 857:Generated_Source\PSoC5/UART.c ****     void UART_SetRxAddress1(uint8 address) 
 858:Generated_Source\PSoC5/UART.c ****     {
 695              		.loc 1 858 0
 696              		.cfi_startproc
 697              		@ args = 0, pretend = 0, frame = 0
 698              		@ frame_needed = 0, uses_anonymous_args = 0
 699              		@ link register save eliminated.
 700              	.LVL57:
 859:Generated_Source\PSoC5/UART.c ****         UART_RXADDRESS1_REG = address;
 701              		.loc 1 859 0
 702 0000 014B     		ldr	r3, .L59
 703 0002 1870     		strb	r0, [r3]
 704 0004 7047     		bx	lr
 705              	.L60:
 706 0006 00BF     		.align	2
 707              	.L59:
 708 0008 28650040 		.word	1073767720
 709              		.cfi_endproc
 710              	.LFE14:
 711              		.size	UART_SetRxAddress1, .-UART_SetRxAddress1
 712              		.section	.text.UART_SetRxAddress2,"ax",%progbits
 713              		.align	2
 714              		.global	UART_SetRxAddress2
 715              		.thumb
 716              		.thumb_func
 717              		.type	UART_SetRxAddress2, %function
 718              	UART_SetRxAddress2:
 719              	.LFB15:
 860:Generated_Source\PSoC5/UART.c ****     }
 861:Generated_Source\PSoC5/UART.c **** 
 862:Generated_Source\PSoC5/UART.c **** 
 863:Generated_Source\PSoC5/UART.c ****     /*******************************************************************************
 864:Generated_Source\PSoC5/UART.c ****     * Function Name: UART_SetRxAddress2
 865:Generated_Source\PSoC5/UART.c ****     ********************************************************************************
 866:Generated_Source\PSoC5/UART.c ****     *
 867:Generated_Source\PSoC5/UART.c ****     * Summary:
 868:Generated_Source\PSoC5/UART.c ****     *  Sets the second of two hardware-detectable receiver addresses.
 869:Generated_Source\PSoC5/UART.c ****     *
 870:Generated_Source\PSoC5/UART.c ****     * Parameters:
 871:Generated_Source\PSoC5/UART.c ****     *  address: Address #2 for hardware address detection.
 872:Generated_Source\PSoC5/UART.c ****     *
 873:Generated_Source\PSoC5/UART.c ****     * Return:
 874:Generated_Source\PSoC5/UART.c ****     *  None.
 875:Generated_Source\PSoC5/UART.c ****     *
ARM GAS  C:\Users\adria\AppData\Local\Temp\ccp4M7OT.s 			page 29


 876:Generated_Source\PSoC5/UART.c ****     *******************************************************************************/
 877:Generated_Source\PSoC5/UART.c ****     void UART_SetRxAddress2(uint8 address) 
 878:Generated_Source\PSoC5/UART.c ****     {
 720              		.loc 1 878 0
 721              		.cfi_startproc
 722              		@ args = 0, pretend = 0, frame = 0
 723              		@ frame_needed = 0, uses_anonymous_args = 0
 724              		@ link register save eliminated.
 725              	.LVL58:
 879:Generated_Source\PSoC5/UART.c ****         UART_RXADDRESS2_REG = address;
 726              		.loc 1 879 0
 727 0000 014B     		ldr	r3, .L62
 728 0002 1870     		strb	r0, [r3]
 729 0004 7047     		bx	lr
 730              	.L63:
 731 0006 00BF     		.align	2
 732              	.L62:
 733 0008 38650040 		.word	1073767736
 734              		.cfi_endproc
 735              	.LFE15:
 736              		.size	UART_SetRxAddress2, .-UART_SetRxAddress2
 737              		.section	.text.UART_Init,"ax",%progbits
 738              		.align	2
 739              		.global	UART_Init
 740              		.thumb
 741              		.thumb_func
 742              		.type	UART_Init, %function
 743              	UART_Init:
 744              	.LFB1:
 107:Generated_Source\PSoC5/UART.c ****     #if(UART_RX_ENABLED || UART_HD_ENABLED)
 745              		.loc 1 107 0
 746              		.cfi_startproc
 747              		@ args = 0, pretend = 0, frame = 0
 748              		@ frame_needed = 0, uses_anonymous_args = 0
 749 0000 10B5     		push	{r4, lr}
 750              		.cfi_def_cfa_offset 8
 751              		.cfi_offset 4, -8
 752              		.cfi_offset 14, -4
 112:Generated_Source\PSoC5/UART.c ****             CyIntSetPriority(UART_RX_VECT_NUM, UART_RX_PRIOR_NUM);
 753              		.loc 1 112 0
 754 0002 0D49     		ldr	r1, .L66
 755 0004 0020     		movs	r0, #0
 756 0006 FFF7FEFF 		bl	CyIntSetVector
 757              	.LVL59:
 113:Generated_Source\PSoC5/UART.c ****             UART_errorStatus = 0u;
 758              		.loc 1 113 0
 759 000a 0721     		movs	r1, #7
 760 000c 0020     		movs	r0, #0
 761 000e FFF7FEFF 		bl	CyIntSetPriority
 762              	.LVL60:
 114:Generated_Source\PSoC5/UART.c ****         #endif /* (UART_RX_INTERRUPT_ENABLED) */
 763              		.loc 1 114 0
 764 0012 0024     		movs	r4, #0
 765 0014 094B     		ldr	r3, .L66+4
 766 0016 5C71     		strb	r4, [r3, #5]
 118:Generated_Source\PSoC5/UART.c ****             UART_SetRxAddress1(UART_RX_HW_ADDRESS1);
 767              		.loc 1 118 0
ARM GAS  C:\Users\adria\AppData\Local\Temp\ccp4M7OT.s 			page 30


 768 0018 0120     		movs	r0, #1
 769 001a FFF7FEFF 		bl	UART_SetRxAddressMode
 770              	.LVL61:
 119:Generated_Source\PSoC5/UART.c ****             UART_SetRxAddress2(UART_RX_HW_ADDRESS2);
 771              		.loc 1 119 0
 772 001e 2046     		mov	r0, r4
 773 0020 FFF7FEFF 		bl	UART_SetRxAddress1
 774              	.LVL62:
 120:Generated_Source\PSoC5/UART.c ****         #endif /* End UART_RXHW_ADDRESS_ENABLED */
 775              		.loc 1 120 0
 776 0024 2046     		mov	r0, r4
 777 0026 FFF7FEFF 		bl	UART_SetRxAddress2
 778              	.LVL63:
 124:Generated_Source\PSoC5/UART.c ****         /* Configure the Initial RX interrupt mask */
 779              		.loc 1 124 0
 780 002a 7222     		movs	r2, #114
 781 002c 044B     		ldr	r3, .L66+8
 782 002e 1A70     		strb	r2, [r3]
 126:Generated_Source\PSoC5/UART.c ****     #endif /* End UART_RX_ENABLED || UART_HD_ENABLED*/
 783              		.loc 1 126 0
 784 0030 2022     		movs	r2, #32
 785 0032 0233     		adds	r3, r3, #2
 786 0034 1A70     		strb	r2, [r3]
 787 0036 10BD     		pop	{r4, pc}
 788              	.L67:
 789              		.align	2
 790              	.L66:
 791 0038 00000000 		.word	UART_RXISR
 792 003c 00000000 		.word	.LANCHOR0
 793 0040 89640040 		.word	1073767561
 794              		.cfi_endproc
 795              	.LFE1:
 796              		.size	UART_Init, .-UART_Init
 797              		.section	.text.UART_Start,"ax",%progbits
 798              		.align	2
 799              		.global	UART_Start
 800              		.thumb
 801              		.thumb_func
 802              		.type	UART_Start, %function
 803              	UART_Start:
 804              	.LFB0:
  77:Generated_Source\PSoC5/UART.c ****     /* If not initialized then initialize all required hardware and software */
 805              		.loc 1 77 0
 806              		.cfi_startproc
 807              		@ args = 0, pretend = 0, frame = 0
 808              		@ frame_needed = 0, uses_anonymous_args = 0
 809 0000 08B5     		push	{r3, lr}
 810              		.cfi_def_cfa_offset 8
 811              		.cfi_offset 3, -8
 812              		.cfi_offset 14, -4
  79:Generated_Source\PSoC5/UART.c ****     {
 813              		.loc 1 79 0
 814 0002 054B     		ldr	r3, .L71
 815 0004 9B79     		ldrb	r3, [r3, #6]	@ zero_extendqisi2
 816 0006 23B9     		cbnz	r3, .L69
  81:Generated_Source\PSoC5/UART.c ****         UART_initVar = 1u;
 817              		.loc 1 81 0
ARM GAS  C:\Users\adria\AppData\Local\Temp\ccp4M7OT.s 			page 31


 818 0008 FFF7FEFF 		bl	UART_Init
 819              	.LVL64:
  82:Generated_Source\PSoC5/UART.c ****     }
 820              		.loc 1 82 0
 821 000c 0122     		movs	r2, #1
 822 000e 024B     		ldr	r3, .L71
 823 0010 9A71     		strb	r2, [r3, #6]
 824              	.L69:
  85:Generated_Source\PSoC5/UART.c **** }
 825              		.loc 1 85 0
 826 0012 FFF7FEFF 		bl	UART_Enable
 827              	.LVL65:
 828 0016 08BD     		pop	{r3, pc}
 829              	.L72:
 830              		.align	2
 831              	.L71:
 832 0018 00000000 		.word	.LANCHOR0
 833              		.cfi_endproc
 834              	.LFE0:
 835              		.size	UART_Start, .-UART_Start
 836              		.global	UART_rxAddressDetected
 837              		.global	UART_rxAddressMode
 838              		.global	UART_rxBufferOverflow
 839              		.global	UART_rxBufferLoopDetect
 840              		.global	UART_rxBufferWrite
 841              		.global	UART_rxBufferRead
 842              		.comm	UART_rxBuffer,16,4
 843              		.global	UART_errorStatus
 844              		.global	UART_initVar
 845              		.data
 846              		.set	.LANCHOR1,. + 0
 847              		.type	UART_rxAddressMode, %object
 848              		.size	UART_rxAddressMode, 1
 849              	UART_rxAddressMode:
 850 0000 01       		.byte	1
 851              		.bss
 852              		.set	.LANCHOR0,. + 0
 853              		.type	UART_rxAddressDetected, %object
 854              		.size	UART_rxAddressDetected, 1
 855              	UART_rxAddressDetected:
 856 0000 00       		.space	1
 857              		.type	UART_rxBufferRead, %object
 858              		.size	UART_rxBufferRead, 1
 859              	UART_rxBufferRead:
 860 0001 00       		.space	1
 861              		.type	UART_rxBufferWrite, %object
 862              		.size	UART_rxBufferWrite, 1
 863              	UART_rxBufferWrite:
 864 0002 00       		.space	1
 865              		.type	UART_rxBufferLoopDetect, %object
 866              		.size	UART_rxBufferLoopDetect, 1
 867              	UART_rxBufferLoopDetect:
 868 0003 00       		.space	1
 869              		.type	UART_rxBufferOverflow, %object
 870              		.size	UART_rxBufferOverflow, 1
 871              	UART_rxBufferOverflow:
 872 0004 00       		.space	1
ARM GAS  C:\Users\adria\AppData\Local\Temp\ccp4M7OT.s 			page 32


 873              		.type	UART_errorStatus, %object
 874              		.size	UART_errorStatus, 1
 875              	UART_errorStatus:
 876 0005 00       		.space	1
 877              		.type	UART_initVar, %object
 878              		.size	UART_initVar, 1
 879              	UART_initVar:
 880 0006 00       		.space	1
 881              		.text
 882              	.Letext0:
 883              		.file 2 "Generated_Source\\PSoC5\\cytypes.h"
 884              		.file 3 "Generated_Source\\PSoC5\\CyLib.h"
 885              		.file 4 "Generated_Source\\PSoC5\\UART_IntClock.h"