ARM GAS  C:\Users\adria\AppData\Local\Temp\ccd3hYJz.s 			page 1


   1              		.syntax unified
   2              		.cpu cortex-m3
   3              		.fpu softvfp
   4              		.eabi_attribute 20, 1
   5              		.eabi_attribute 21, 1
   6              		.eabi_attribute 23, 3
   7              		.eabi_attribute 24, 1
   8              		.eabi_attribute 25, 1
   9              		.eabi_attribute 26, 1
  10              		.eabi_attribute 30, 1
  11              		.eabi_attribute 34, 1
  12              		.eabi_attribute 18, 4
  13              		.thumb
  14              		.syntax unified
  15              		.file	"main.c"
  16              		.text
  17              	.Ltext0:
  18              		.cfi_sections	.debug_frame
  19              		.section	.text.sensado,"ax",%progbits
  20              		.align	2
  21              		.global	sensado
  22              		.thumb
  23              		.thumb_func
  24              		.type	sensado, %function
  25              	sensado:
  26              	.LFB67:
  27              		.file 1 "main.c"
   1:main.c        **** //Librerias de C nativas
   2:main.c        **** #include "project.h"
   3:main.c        **** #include "stdio.h"
   4:main.c        **** #include "math.h"
   5:main.c        **** 
   6:main.c        **** //Librerias propias
   7:main.c        **** #include "D:\GITHUB\Librerias_PSOC\Libreria_PSOC\LIB_psoc.c"
   8:main.c        **** #include "..\..\PROYECTO_IOT\MAX6675.cydsn\MAX6675_.h"
   9:main.c        **** #include "..\..\FINAL_vilchis\PID_anticolision.cydsn\filtros.h"
  10:main.c        **** #include "..\..\FINAL_vilchis\PID_anticolision.cydsn\PID.h"
  11:main.c        **** 
  12:main.c        **** /*
  13:main.c        **** 
  14:main.c        ****     Rutinas para interactuar con el PID Labwiev interfaz
  15:main.c        **** 
  16:main.c        **** */
  17:main.c        **** 
  18:main.c        **** //Subrutina de la interrupcion para sampling
  19:main.c        **** uint8_t sens_flag = ~BIT0;
  20:main.c        **** CY_ISR(sensado){
  28              		.loc 1 20 0
  29              		.cfi_startproc
  30              		@ args = 0, pretend = 0, frame = 0
  31              		@ frame_needed = 0, uses_anonymous_args = 0
  32 0000 08B5     		push	{r3, lr}
  33              		.cfi_def_cfa_offset 8
  34              		.cfi_offset 3, -8
  35              		.cfi_offset 14, -4
  21:main.c        ****     sensado_ClearPending();
  36              		.loc 1 21 0
ARM GAS  C:\Users\adria\AppData\Local\Temp\ccd3hYJz.s 			page 2


  37 0002 FFF7FEFF 		bl	sensado_ClearPending
  38              	.LVL0:
  22:main.c        ****     
  23:main.c        ****     sens_flag = BIT0;
  39              		.loc 1 23 0
  40 0006 0122     		movs	r2, #1
  41 0008 014B     		ldr	r3, .L3
  42 000a 1A70     		strb	r2, [r3]
  43 000c 08BD     		pop	{r3, pc}
  44              	.L4:
  45 000e 00BF     		.align	2
  46              	.L3:
  47 0010 00000000 		.word	.LANCHOR0
  48              		.cfi_endproc
  49              	.LFE67:
  50              		.size	sensado, .-sensado
  51              		.section	.text.interfaz,"ax",%progbits
  52              		.align	2
  53              		.global	interfaz
  54              		.thumb
  55              		.thumb_func
  56              		.type	interfaz, %function
  57              	interfaz:
  58              	.LFB68:
  24:main.c        **** }
  25:main.c        **** 
  26:main.c        **** //Subrutina para interactuar con Labwiev
  27:main.c        **** uint8_t interfaz_lab = ~BIT0;
  28:main.c        **** CY_ISR(interfaz){
  59              		.loc 1 28 0
  60              		.cfi_startproc
  61              		@ args = 0, pretend = 0, frame = 0
  62              		@ frame_needed = 0, uses_anonymous_args = 0
  63 0000 08B5     		push	{r3, lr}
  64              		.cfi_def_cfa_offset 8
  65              		.cfi_offset 3, -8
  66              		.cfi_offset 14, -4
  29:main.c        ****     interfaz_ClearPending();
  67              		.loc 1 29 0
  68 0002 FFF7FEFF 		bl	interfaz_ClearPending
  69              	.LVL1:
  30:main.c        ****     
  31:main.c        ****     interfaz_lab = BIT0;
  70              		.loc 1 31 0
  71 0006 0122     		movs	r2, #1
  72 0008 014B     		ldr	r3, .L7
  73 000a 5A70     		strb	r2, [r3, #1]
  74 000c 08BD     		pop	{r3, pc}
  75              	.L8:
  76 000e 00BF     		.align	2
  77              	.L7:
  78 0010 00000000 		.word	.LANCHOR0
  79              		.cfi_endproc
  80              	.LFE68:
  81              		.size	interfaz, .-interfaz
  82              		.section	.text.contador_0,"ax",%progbits
  83              		.align	2
ARM GAS  C:\Users\adria\AppData\Local\Temp\ccd3hYJz.s 			page 3


  84              		.global	contador_0
  85              		.thumb
  86              		.thumb_func
  87              		.type	contador_0, %function
  88              	contador_0:
  89              	.LFB69:
  32:main.c        **** }
  33:main.c        **** 
  34:main.c        **** /*
  35:main.c        **** 
  36:main.c        **** Varibles auxiliares para el control
  37:main.c        **** 
  38:main.c        **** */
  39:main.c        **** 
  40:main.c        **** #define DENOMINADOR 100
  41:main.c        **** uint8_t Actuadores_reg = 0;//Registro de estado de los actuadores
  42:main.c        **** 
  43:main.c        **** //Rutina de sumado para actuador 0
  44:main.c        **** uint16_t acomulador_0 = 0, on_0 = DENOMINADOR;
  45:main.c        **** CY_ISR(contador_0){
  90              		.loc 1 45 0
  91              		.cfi_startproc
  92              		@ args = 0, pretend = 0, frame = 0
  93              		@ frame_needed = 0, uses_anonymous_args = 0
  94 0000 08B5     		push	{r3, lr}
  95              		.cfi_def_cfa_offset 8
  96              		.cfi_offset 3, -8
  97              		.cfi_offset 14, -4
  46:main.c        ****     contador_0_ClearPending();// Limpieza de interrupción
  98              		.loc 1 46 0
  99 0002 FFF7FEFF 		bl	contador_0_ClearPending
 100              	.LVL2:
  47:main.c        ****     
  48:main.c        ****     acomulador_0++; //65535 bits máximos
 101              		.loc 1 48 0
 102 0006 0E4A     		ldr	r2, .L14
 103 0008 1388     		ldrh	r3, [r2]
 104 000a 0133     		adds	r3, r3, #1
 105 000c 9BB2     		uxth	r3, r3
 106 000e 1380     		strh	r3, [r2]	@ movhi
  49:main.c        ****     
  50:main.c        ****     if(acomulador_0 >= DENOMINADOR){
 107              		.loc 1 50 0
 108 0010 632B     		cmp	r3, #99
 109 0012 02D9     		bls	.L10
  51:main.c        ****         acomulador_0 =0;
 110              		.loc 1 51 0
 111 0014 0022     		movs	r2, #0
 112 0016 0A4B     		ldr	r3, .L14
 113 0018 1A80     		strh	r2, [r3]	@ movhi
 114              	.L10:
  52:main.c        ****     }
  53:main.c        ****     
  54:main.c        ****     /*
  55:main.c        ****         Al ser un relevador de estado solido todo integrado,
  56:main.c        ****         no hay problema en no activar con pulsos-disparo
  57:main.c        ****     */
ARM GAS  C:\Users\adria\AppData\Local\Temp\ccd3hYJz.s 			page 4


  58:main.c        ****     
  59:main.c        ****     Actuadores_reg = Actuadores_Read();//Leemos estadoa ctual de los disparos
 115              		.loc 1 59 0
 116 001a FFF7FEFF 		bl	Actuadores_Read
 117              	.LVL3:
 118 001e 084B     		ldr	r3, .L14
 119 0020 9870     		strb	r0, [r3, #2]
  60:main.c        ****     if(on_0 <= acomulador_0){//ON 
 120              		.loc 1 60 0
 121 0022 084A     		ldr	r2, .L14+4
 122 0024 5288     		ldrh	r2, [r2, #2]
 123 0026 1B88     		ldrh	r3, [r3]
 124 0028 9A42     		cmp	r2, r3
 125 002a 04D8     		bhi	.L11
  61:main.c        ****     
  62:main.c        ****         Actuadores_Write(Actuadores_reg | BIT0);
 126              		.loc 1 62 0
 127 002c 40F00100 		orr	r0, r0, #1
 128 0030 FFF7FEFF 		bl	Actuadores_Write
 129              	.LVL4:
 130 0034 08BD     		pop	{r3, pc}
 131              	.L11:
  63:main.c        ****             
  64:main.c        ****     }else{//OFF
  65:main.c        ****         
  66:main.c        ****         Actuadores_Write(Actuadores_reg & (~BIT0));
 132              		.loc 1 66 0
 133 0036 00F0FE00 		and	r0, r0, #254
 134 003a FFF7FEFF 		bl	Actuadores_Write
 135              	.LVL5:
 136 003e 08BD     		pop	{r3, pc}
 137              	.L15:
 138              		.align	2
 139              	.L14:
 140 0040 00000000 		.word	.LANCHOR1
 141 0044 00000000 		.word	.LANCHOR0
 142              		.cfi_endproc
 143              	.LFE69:
 144              		.size	contador_0, .-contador_0
 145              		.section	.text.contador_1,"ax",%progbits
 146              		.align	2
 147              		.global	contador_1
 148              		.thumb
 149              		.thumb_func
 150              		.type	contador_1, %function
 151              	contador_1:
 152              	.LFB70:
  67:main.c        ****     }
  68:main.c        ****         
  69:main.c        **** }
  70:main.c        **** 
  71:main.c        **** //Rutina de sumado para actuador 1
  72:main.c        **** uint16_t acomulador_1 = 0, on_1 = 0;
  73:main.c        **** CY_ISR(contador_1){
 153              		.loc 1 73 0
 154              		.cfi_startproc
 155              		@ args = 0, pretend = 0, frame = 0
ARM GAS  C:\Users\adria\AppData\Local\Temp\ccd3hYJz.s 			page 5


 156              		@ frame_needed = 0, uses_anonymous_args = 0
 157 0000 08B5     		push	{r3, lr}
 158              		.cfi_def_cfa_offset 8
 159              		.cfi_offset 3, -8
 160              		.cfi_offset 14, -4
  74:main.c        ****     contador_1_ClearPending();// Limpieza de interrupción
 161              		.loc 1 74 0
 162 0002 FFF7FEFF 		bl	contador_1_ClearPending
 163              	.LVL6:
  75:main.c        ****     
  76:main.c        ****     acomulador_1++; //65535 bits máximos
 164              		.loc 1 76 0
 165 0006 0E4A     		ldr	r2, .L21
 166 0008 9388     		ldrh	r3, [r2, #4]
 167 000a 0133     		adds	r3, r3, #1
 168 000c 9BB2     		uxth	r3, r3
 169 000e 9380     		strh	r3, [r2, #4]	@ movhi
  77:main.c        ****     
  78:main.c        ****     if(acomulador_1 >= DENOMINADOR){
 170              		.loc 1 78 0
 171 0010 632B     		cmp	r3, #99
 172 0012 02D9     		bls	.L17
  79:main.c        ****         acomulador_1 =0;
 173              		.loc 1 79 0
 174 0014 0022     		movs	r2, #0
 175 0016 0A4B     		ldr	r3, .L21
 176 0018 9A80     		strh	r2, [r3, #4]	@ movhi
 177              	.L17:
  80:main.c        ****     }
  81:main.c        ****     
  82:main.c        ****     /*
  83:main.c        ****         Al ser un relevador de estado solido todo integrado,
  84:main.c        ****         no hay problema en no activar con pulsos-disparo
  85:main.c        ****     */
  86:main.c        ****     
  87:main.c        ****     Actuadores_reg = Actuadores_Read();//Leemos estadoa ctual de los disparos
 178              		.loc 1 87 0
 179 001a FFF7FEFF 		bl	Actuadores_Read
 180              	.LVL7:
 181 001e 084B     		ldr	r3, .L21
 182 0020 9870     		strb	r0, [r3, #2]
  88:main.c        ****     if(on_1 <= acomulador_1){//ON 
 183              		.loc 1 88 0
 184 0022 DA88     		ldrh	r2, [r3, #6]
 185 0024 9B88     		ldrh	r3, [r3, #4]
 186 0026 9A42     		cmp	r2, r3
 187 0028 04D8     		bhi	.L18
  89:main.c        ****     
  90:main.c        ****         Actuadores_Write(Actuadores_reg | BIT1);
 188              		.loc 1 90 0
 189 002a 40F00200 		orr	r0, r0, #2
 190 002e FFF7FEFF 		bl	Actuadores_Write
 191              	.LVL8:
 192 0032 08BD     		pop	{r3, pc}
 193              	.L18:
  91:main.c        ****             
  92:main.c        ****     }else{//OFF
ARM GAS  C:\Users\adria\AppData\Local\Temp\ccd3hYJz.s 			page 6


  93:main.c        ****         
  94:main.c        ****         Actuadores_Write(Actuadores_reg & (~BIT1));
 194              		.loc 1 94 0
 195 0034 00F0FD00 		and	r0, r0, #253
 196 0038 FFF7FEFF 		bl	Actuadores_Write
 197              	.LVL9:
 198 003c 08BD     		pop	{r3, pc}
 199              	.L22:
 200 003e 00BF     		.align	2
 201              	.L21:
 202 0040 00000000 		.word	.LANCHOR1
 203              		.cfi_endproc
 204              	.LFE70:
 205              		.size	contador_1, .-contador_1
 206              		.section	.text.map,"ax",%progbits
 207              		.align	2
 208              		.global	map
 209              		.thumb
 210              		.thumb_func
 211              		.type	map, %function
 212              	map:
 213              	.LFB64:
 214              		.file 2 "D:\\GITHUB\\Librerias_PSOC\\Libreria_PSOC\\LIB_psoc.c"
   1:D:\GITHUB\Librerias_PSOC\Libreria_PSOC\LIB_psoc.c **** #include "LIB_psoc.h"
   2:D:\GITHUB\Librerias_PSOC\Libreria_PSOC\LIB_psoc.c **** 
   3:D:\GITHUB\Librerias_PSOC\Libreria_PSOC\LIB_psoc.c **** long map(long x, long in_min, long in_max, long out_min, long out_max) {
 215              		.loc 2 3 0
 216              		.cfi_startproc
 217              		@ args = 4, pretend = 0, frame = 0
 218              		@ frame_needed = 0, uses_anonymous_args = 0
 219              		@ link register save eliminated.
 220              	.LVL10:
 221 0000 10B4     		push	{r4}
 222              		.cfi_def_cfa_offset 4
 223              		.cfi_offset 4, -4
   4:D:\GITHUB\Librerias_PSOC\Libreria_PSOC\LIB_psoc.c ****   return (x - in_min) * (out_max - out_min) / (in_max - in_min) + out_min;
 224              		.loc 2 4 0
 225 0002 401A     		subs	r0, r0, r1
 226              	.LVL11:
 227 0004 019C     		ldr	r4, [sp, #4]
 228 0006 E41A     		subs	r4, r4, r3
 229 0008 04FB00F0 		mul	r0, r4, r0
 230 000c 521A     		subs	r2, r2, r1
 231              	.LVL12:
 232 000e 90FBF2F0 		sdiv	r0, r0, r2
   5:D:\GITHUB\Librerias_PSOC\Libreria_PSOC\LIB_psoc.c **** }
 233              		.loc 2 5 0
 234 0012 1844     		add	r0, r0, r3
 235 0014 10BC     		pop	{r4}
 236              		.cfi_restore 4
 237              		.cfi_def_cfa_offset 0
 238              	.LVL13:
 239 0016 7047     		bx	lr
 240              		.cfi_endproc
 241              	.LFE64:
 242              		.size	map, .-map
 243              		.global	__aeabi_ui2f
ARM GAS  C:\Users\adria\AppData\Local\Temp\ccd3hYJz.s 			page 7


 244              		.global	__aeabi_fsub
 245              		.global	__aeabi_fmul
 246              		.global	__aeabi_fdiv
 247              		.global	__aeabi_fadd
 248              		.section	.text.mapFloat,"ax",%progbits
 249              		.align	2
 250              		.global	mapFloat
 251              		.thumb
 252              		.thumb_func
 253              		.type	mapFloat, %function
 254              	mapFloat:
 255              	.LFB65:
   6:D:\GITHUB\Librerias_PSOC\Libreria_PSOC\LIB_psoc.c **** 
   7:D:\GITHUB\Librerias_PSOC\Libreria_PSOC\LIB_psoc.c **** float mapFloat(unsigned long x, unsigned long in_min, unsigned long in_max, float out_min, float ou
 256              		.loc 2 7 0
 257              		.cfi_startproc
 258              		@ args = 4, pretend = 0, frame = 0
 259              		@ frame_needed = 0, uses_anonymous_args = 0
 260              	.LVL14:
 261 0000 F8B5     		push	{r3, r4, r5, r6, r7, lr}
 262              		.cfi_def_cfa_offset 24
 263              		.cfi_offset 3, -24
 264              		.cfi_offset 4, -20
 265              		.cfi_offset 5, -16
 266              		.cfi_offset 6, -12
 267              		.cfi_offset 7, -8
 268              		.cfi_offset 14, -4
 269 0002 0D46     		mov	r5, r1
 270 0004 1746     		mov	r7, r2
 271 0006 1C46     		mov	r4, r3
   8:D:\GITHUB\Librerias_PSOC\Libreria_PSOC\LIB_psoc.c ****     return (float)(x - in_min) * (out_max - out_min) / (float)(in_max - in_min) + out_min;
 272              		.loc 2 8 0
 273 0008 401A     		subs	r0, r0, r1
 274              	.LVL15:
 275 000a FFF7FEFF 		bl	__aeabi_ui2f
 276              	.LVL16:
 277 000e 0646     		mov	r6, r0
 278 0010 2146     		mov	r1, r4
 279 0012 0698     		ldr	r0, [sp, #24]	@ float
 280 0014 FFF7FEFF 		bl	__aeabi_fsub
 281              	.LVL17:
 282 0018 0146     		mov	r1, r0
 283 001a 3046     		mov	r0, r6
 284 001c FFF7FEFF 		bl	__aeabi_fmul
 285              	.LVL18:
 286 0020 0646     		mov	r6, r0
 287 0022 781B     		subs	r0, r7, r5
 288 0024 FFF7FEFF 		bl	__aeabi_ui2f
 289              	.LVL19:
 290 0028 0146     		mov	r1, r0
 291 002a 3046     		mov	r0, r6
 292 002c FFF7FEFF 		bl	__aeabi_fdiv
 293              	.LVL20:
 294 0030 0146     		mov	r1, r0
 295 0032 2046     		mov	r0, r4
 296 0034 FFF7FEFF 		bl	__aeabi_fadd
 297              	.LVL21:
ARM GAS  C:\Users\adria\AppData\Local\Temp\ccd3hYJz.s 			page 8


   9:D:\GITHUB\Librerias_PSOC\Libreria_PSOC\LIB_psoc.c **** }
 298              		.loc 2 9 0
 299 0038 F8BD     		pop	{r3, r4, r5, r6, r7, pc}
 300              		.cfi_endproc
 301              	.LFE65:
 302              		.size	mapFloat, .-mapFloat
 303 003a 00BF     		.section	.text.trunca,"ax",%progbits
 304              		.align	2
 305              		.global	trunca
 306              		.thumb
 307              		.thumb_func
 308              		.type	trunca, %function
 309              	trunca:
 310              	.LFB66:
  10:D:\GITHUB\Librerias_PSOC\Libreria_PSOC\LIB_psoc.c **** 
  11:D:\GITHUB\Librerias_PSOC\Libreria_PSOC\LIB_psoc.c **** uint8_t trunca(uint16_t numero, uint16_t min, uint16_t max){
 311              		.loc 2 11 0
 312              		.cfi_startproc
 313              		@ args = 0, pretend = 0, frame = 0
 314              		@ frame_needed = 0, uses_anonymous_args = 0
 315              		@ link register save eliminated.
 316              	.LVL22:
  12:D:\GITHUB\Librerias_PSOC\Libreria_PSOC\LIB_psoc.c ****     
  13:D:\GITHUB\Librerias_PSOC\Libreria_PSOC\LIB_psoc.c ****     if (numero > max) {
 317              		.loc 2 13 0
 318 0000 9042     		cmp	r0, r2
 319 0002 01D9     		bls	.L28
  14:D:\GITHUB\Librerias_PSOC\Libreria_PSOC\LIB_psoc.c ****         return max;
 320              		.loc 2 14 0
 321 0004 D0B2     		uxtb	r0, r2
 322              	.LVL23:
 323 0006 7047     		bx	lr
 324              	.LVL24:
 325              	.L28:
  15:D:\GITHUB\Librerias_PSOC\Libreria_PSOC\LIB_psoc.c ****     } 
  16:D:\GITHUB\Librerias_PSOC\Libreria_PSOC\LIB_psoc.c ****     
  17:D:\GITHUB\Librerias_PSOC\Libreria_PSOC\LIB_psoc.c ****     else if (numero <= min) {
 326              		.loc 2 17 0
 327 0008 8842     		cmp	r0, r1
 328 000a 01D8     		bhi	.L30
  18:D:\GITHUB\Librerias_PSOC\Libreria_PSOC\LIB_psoc.c ****         return min;
 329              		.loc 2 18 0
 330 000c C8B2     		uxtb	r0, r1
 331              	.LVL25:
 332 000e 7047     		bx	lr
 333              	.LVL26:
 334              	.L30:
  19:D:\GITHUB\Librerias_PSOC\Libreria_PSOC\LIB_psoc.c ****     }
  20:D:\GITHUB\Librerias_PSOC\Libreria_PSOC\LIB_psoc.c ****     
  21:D:\GITHUB\Librerias_PSOC\Libreria_PSOC\LIB_psoc.c ****     else {
  22:D:\GITHUB\Librerias_PSOC\Libreria_PSOC\LIB_psoc.c ****         return (uint8_t)numero;
 335              		.loc 2 22 0
 336 0010 C0B2     		uxtb	r0, r0
 337              	.LVL27:
  23:D:\GITHUB\Librerias_PSOC\Libreria_PSOC\LIB_psoc.c ****     }
  24:D:\GITHUB\Librerias_PSOC\Libreria_PSOC\LIB_psoc.c **** }...
 338              		.loc 2 24 0
ARM GAS  C:\Users\adria\AppData\Local\Temp\ccd3hYJz.s 			page 9


 339 0012 7047     		bx	lr
 340              		.cfi_endproc
 341              	.LFE66:
 342              		.size	trunca, .-trunca
 343              		.global	__aeabi_f2uiz
 344              		.global	__aeabi_ui2d
 345              		.global	__aeabi_i2d
 346              		.global	__aeabi_dmul
 347              		.global	__aeabi_f2d
 348              		.global	__aeabi_dadd
 349              		.global	__aeabi_d2f
 350              		.global	__aeabi_i2f
 351              		.section	.text.main,"ax",%progbits
 352              		.align	2
 353              		.global	main
 354              		.thumb
 355              		.thumb_func
 356              		.type	main, %function
 357              	main:
 358              	.LFB71:
  95:main.c        ****     }
  96:main.c        ****         
  97:main.c        **** }
  98:main.c        **** 
  99:main.c        **** 
 100:main.c        **** int main(void)
 101:main.c        **** {
 359              		.loc 1 101 0
 360              		.cfi_startproc
 361              		@ args = 0, pretend = 0, frame = 144
 362              		@ frame_needed = 0, uses_anonymous_args = 0
 363 0000 2DE9F04F 		push	{r4, r5, r6, r7, r8, r9, r10, fp, lr}
 364              		.cfi_def_cfa_offset 36
 365              		.cfi_offset 4, -36
 366              		.cfi_offset 5, -32
 367              		.cfi_offset 6, -28
 368              		.cfi_offset 7, -24
 369              		.cfi_offset 8, -20
 370              		.cfi_offset 9, -16
 371              		.cfi_offset 10, -12
 372              		.cfi_offset 11, -8
 373              		.cfi_offset 14, -4
 374 0004 A5B0     		sub	sp, sp, #148
 375              		.cfi_def_cfa_offset 184
 102:main.c        ****     CyGlobalIntEnable;
 376              		.loc 1 102 0
 377              		.syntax unified
 378              	@ 102 "main.c" 1
 379 0006 62B6     		CPSIE   i
 380              	@ 0 "" 2
 103:main.c        ****     //Perifericos
 104:main.c        ****     Sampling_Start();// Compas de sensado
 381              		.loc 1 104 0
 382              		.thumb
 383              		.syntax unified
 384 0008 FFF7FEFF 		bl	Sampling_Start
 385              	.LVL28:
ARM GAS  C:\Users\adria\AppData\Local\Temp\ccd3hYJz.s 			page 10


 105:main.c        ****     UART_Start();//Comunicacion por serial
 386              		.loc 1 105 0
 387 000c FFF7FEFF 		bl	UART_Start
 388              	.LVL29:
 106:main.c        ****     UART_ClearRxBuffer();
 389              		.loc 1 106 0
 390 0010 FFF7FEFF 		bl	UART_ClearRxBuffer
 391              	.LVL30:
 107:main.c        ****     UART_ClearTxBuffer();
 392              		.loc 1 107 0
 393 0014 FFF7FEFF 		bl	UART_ClearTxBuffer
 394              	.LVL31:
 108:main.c        ****     SPIM_Start();
 395              		.loc 1 108 0
 396 0018 FFF7FEFF 		bl	SPIM_Start
 397              	.LVL32:
 109:main.c        ****     
 110:main.c        ****     //Interrrupciones
 111:main.c        ****     contador_0_StartEx(contador_0);// Inicializar interrupción física
 398              		.loc 1 111 0
 399 001c BE48     		ldr	r0, .L63
 400 001e FFF7FEFF 		bl	contador_0_StartEx
 401              	.LVL33:
 112:main.c        ****     contador_0_ClearPending();  // Limpieza de interrupción
 402              		.loc 1 112 0
 403 0022 FFF7FEFF 		bl	contador_0_ClearPending
 404              	.LVL34:
 113:main.c        ****     contador_1_StartEx(contador_1);
 405              		.loc 1 113 0
 406 0026 BD48     		ldr	r0, .L63+4
 407 0028 FFF7FEFF 		bl	contador_1_StartEx
 408              	.LVL35:
 114:main.c        ****     contador_1_ClearPending();
 409              		.loc 1 114 0
 410 002c FFF7FEFF 		bl	contador_1_ClearPending
 411              	.LVL36:
 115:main.c        ****     sensado_StartEx(sensado);//Interrucion para el sampling
 412              		.loc 1 115 0
 413 0030 BB48     		ldr	r0, .L63+8
 414 0032 FFF7FEFF 		bl	sensado_StartEx
 415              	.LVL37:
 116:main.c        ****     sensado_ClearPending();
 416              		.loc 1 116 0
 417 0036 FFF7FEFF 		bl	sensado_ClearPending
 418              	.LVL38:
 117:main.c        ****     interfaz_StartEx(interfaz);//Interrucion para la comunicacion con el labwiev
 419              		.loc 1 117 0
 420 003a BA48     		ldr	r0, .L63+12
 421 003c FFF7FEFF 		bl	interfaz_StartEx
 422              	.LVL39:
 118:main.c        ****     interfaz_ClearPending();
 423              		.loc 1 118 0
 424 0040 FFF7FEFF 		bl	interfaz_ClearPending
 425              	.LVL40:
 119:main.c        ****     
 120:main.c        ****     //INICIALIZAMOS FILTRO PRMEDIADOR
 121:main.c        ****     PromediadorMovil FILTRO;
ARM GAS  C:\Users\adria\AppData\Local\Temp\ccd3hYJz.s 			page 11


 122:main.c        ****     inicializarPromediadorMovil(&FILTRO);
 426              		.loc 1 122 0
 427 0044 1AA8     		add	r0, sp, #104
 428 0046 FFF7FEFF 		bl	inicializarPromediadorMovil
 429              	.LVL41:
 123:main.c        ****     
 124:main.c        ****     //Sensor
 125:main.c        ****     struct max6675 thermocupla; //Sensor themocupla MAX6675
 126:main.c        ****     
 127:main.c        ****     //Escogemos un periodo de muestreo
 128:main.c        ****     /*
 129:main.c        ****     Con reloj de 10khz y 2^16 de periodo máximo
 130:main.c        ****     el periodo de muestreo va de 200us-6.554s
 131:main.c        ****     
 132:main.c        ****     1bit es 100us
 133:main.c        ****     */
 134:main.c        ****     Sampling_WritePeriod(2000);
 430              		.loc 1 134 0
 431 004a 4FF4FA60 		mov	r0, #2000
 432 004e FFF7FEFF 		bl	Sampling_WritePeriod
 433              	.LVL42:
 135:main.c        ****     
 136:main.c        ****     /***
 137:main.c        ****     
 138:main.c        ****     PID PID PID PID PID PID PID PID PID PID PID PID
 139:main.c        ****     Configuración preliminar de conrtol PID
 140:main.c        ****     
 141:main.c        ****     ***/
 142:main.c        ****     PIDController pid_instancia_variables;
 143:main.c        ****     
 144:main.c        ****     //constantes del controlador
 145:main.c        ****     pid_instancia_variables.Kp = 0;
 434              		.loc 1 145 0
 435 0052 0023     		movs	r3, #0
 436 0054 0993     		str	r3, [sp, #36]	@ float
 146:main.c        ****     pid_instancia_variables.Ki = 0;
 437              		.loc 1 146 0
 438 0056 0A93     		str	r3, [sp, #40]	@ float
 147:main.c        ****     pid_instancia_variables.Kd = 0;
 439              		.loc 1 147 0
 440 0058 0B93     		str	r3, [sp, #44]	@ float
 148:main.c        ****     
 149:main.c        ****     pid_instancia_variables.tau = 0.25;//filtro pasabaja derivativo
 441              		.loc 1 149 0
 442 005a 4FF07A52 		mov	r2, #1048576000
 443 005e 0C92     		str	r2, [sp, #48]	@ float
 150:main.c        ****     
 151:main.c        ****     pid_instancia_variables.limMin = 0; //Limites del actuador
 444              		.loc 1 151 0
 445 0060 0D93     		str	r3, [sp, #52]	@ float
 152:main.c        ****     pid_instancia_variables.limMax = 100;
 446              		.loc 1 152 0
 447 0062 B14B     		ldr	r3, .L63+16
 448 0064 0E93     		str	r3, [sp, #56]	@ float
 153:main.c        ****     
 154:main.c        ****     pid_instancia_variables.limMinInt = -50;//Limites del integrador WIND-UP/
 449              		.loc 1 154 0
ARM GAS  C:\Users\adria\AppData\Local\Temp\ccd3hYJz.s 			page 12


 450 0066 B14B     		ldr	r3, .L63+20
 451 0068 0F93     		str	r3, [sp, #60]	@ float
 155:main.c        ****     pid_instancia_variables.limMaxInt = 50;
 452              		.loc 1 155 0
 453 006a B14B     		ldr	r3, .L63+24
 454 006c 1093     		str	r3, [sp, #64]	@ float
 156:main.c        ****     
 157:main.c        ****     pid_instancia_variables.T = 0.2;//Periodo de muestreo en segundos
 455              		.loc 1 157 0
 456 006e B14B     		ldr	r3, .L63+28
 457 0070 1193     		str	r3, [sp, #68]	@ float
 158:main.c        ****      
 159:main.c        ****     PIDController_Init(&pid_instancia_variables);//Inicializamos constantes y variables
 458              		.loc 1 159 0
 459 0072 09A8     		add	r0, sp, #36
 460 0074 FFF7FEFF 		bl	PIDController_Init
 461              	.LVL43:
 160:main.c        ****    
 161:main.c        ****     //Auxiliares
 162:main.c        ****     uint8_t out = 0;
 163:main.c        ****     float temperatura = 0.0;
 164:main.c        ****     float setpoint = 25.0;//Temperatura ambiente
 165:main.c        ****    
 166:main.c        ****     //Variables para el parseo de informacion
 167:main.c        ****     char buffer_Tx[16],buffer_Rx[16];
 168:main.c        ****     uint8_t i = 0; //contador para leer el buffer
 462              		.loc 1 168 0
 463 0078 0025     		movs	r5, #0
 164:main.c        ****    
 464              		.loc 1 164 0
 465 007a AF4E     		ldr	r6, .L63+32
 466              	.LVL44:
 467              	.L34:
 169:main.c        ****     int x;//contador auxiliar para parsear
 170:main.c        ****     uint8_t enteros;
 171:main.c        ****     /// Parseo con punto decimal como caracter 
 172:main.c        ****     char *posicion;// Utilizar la función strchr para encontrar la posición del carácter
 173:main.c        ****     int posicionEnCadena;     
 174:main.c        ****     
 175:main.c        ****     for(;;)
 176:main.c        ****     {
 177:main.c        ****         if(sens_flag == BIT0){//RUTINA PRINCIPAR DEL SISTEMA DE CONTROL
 468              		.loc 1 177 0
 469 007c AF4B     		ldr	r3, .L63+36
 470 007e 1B78     		ldrb	r3, [r3]	@ zero_extendqisi2
 471 0080 012B     		cmp	r3, #1
 472 0082 34D1     		bne	.L33
 178:main.c        ****             sens_flag = ~BIT0;
 473              		.loc 1 178 0
 474 0084 AD4C     		ldr	r4, .L63+36
 475 0086 FE23     		movs	r3, #254
 476 0088 2370     		strb	r3, [r4]
 179:main.c        ****             
 180:main.c        ****             //Sensamos
 181:main.c        ****             SENS_max6675(&thermocupla);
 477              		.loc 1 181 0
 478 008a 17A8     		add	r0, sp, #92
ARM GAS  C:\Users\adria\AppData\Local\Temp\ccd3hYJz.s 			page 13


 479 008c FFF7FEFF 		bl	SENS_max6675
 480              	.LVL45:
 182:main.c        ****             
 183:main.c        ****             //Filtro
 184:main.c        ****             agregarValor(&FILTRO,thermocupla.data.temperatura_decimal);
 481              		.loc 1 184 0
 482 0090 1998     		ldr	r0, [sp, #100]	@ float
 483 0092 FFF7FEFF 		bl	__aeabi_f2uiz
 484              	.LVL46:
 485 0096 81B2     		uxth	r1, r0
 486 0098 1AA8     		add	r0, sp, #104
 487 009a FFF7FEFF 		bl	agregarValor
 488              	.LVL47:
 185:main.c        ****             temperatura = obtenerPromedioMovil(&FILTRO); // SEÑAL FILTRADA
 489              		.loc 1 185 0
 490 009e 1AA8     		add	r0, sp, #104
 491 00a0 FFF7FEFF 		bl	obtenerPromedioMovil
 492              	.LVL48:
 493 00a4 8046     		mov	r8, r0
 494 00a6 FFF7FEFF 		bl	__aeabi_ui2f
 495              	.LVL49:
 496 00aa 0746     		mov	r7, r0
 497              	.LVL50:
 186:main.c        ****             
 187:main.c        ****             //Para labwiev
 188:main.c        ****             sprintf(buffer_Tx,"S%ds",(int)temperatura);
 498              		.loc 1 188 0
 499 00ac 4246     		mov	r2, r8
 500 00ae A449     		ldr	r1, .L63+40
 501 00b0 05A8     		add	r0, sp, #20
 502              	.LVL51:
 503 00b2 FFF7FEFF 		bl	sprintf
 504              	.LVL52:
 189:main.c        ****             UART_PutString(buffer_Tx);//SENSADO
 505              		.loc 1 189 0
 506 00b6 05A8     		add	r0, sp, #20
 507 00b8 FFF7FEFF 		bl	UART_PutString
 508              	.LVL53:
 190:main.c        ****                 
 191:main.c        ****             //Controlador PID   
 192:main.c        ****             PIDController_Update(&pid_instancia_variables,setpoint,temperatura); 
 509              		.loc 1 192 0
 510 00bc 3A46     		mov	r2, r7
 511 00be 3146     		mov	r1, r6
 512 00c0 09A8     		add	r0, sp, #36
 513 00c2 FFF7FEFF 		bl	PIDController_Update
 514              	.LVL54:
 193:main.c        ****             
 194:main.c        ****             //Actualizacion de Actuador
 195:main.c        ****             out = 100 - (uint8_t)pid_instancia_variables.out;
 515              		.loc 1 195 0
 516 00c6 1698     		ldr	r0, [sp, #88]	@ float
 517 00c8 FFF7FEFF 		bl	__aeabi_f2uiz
 518              	.LVL55:
 519 00cc C0B2     		uxtb	r0, r0
 520 00ce C0F16402 		rsb	r2, r0, #100
 521 00d2 D2B2     		uxtb	r2, r2
ARM GAS  C:\Users\adria\AppData\Local\Temp\ccd3hYJz.s 			page 14


 522              	.LVL56:
 196:main.c        ****             on_0 = (uint8_t)out;
 523              		.loc 1 196 0
 524 00d4 93B2     		uxth	r3, r2
 525 00d6 6380     		strh	r3, [r4, #2]	@ movhi
 197:main.c        ****             on_1 = (uint8_t)out;
 526              		.loc 1 197 0
 527 00d8 9A49     		ldr	r1, .L63+44
 528 00da CB80     		strh	r3, [r1, #6]	@ movhi
 198:main.c        ****             
 199:main.c        ****             //Para labwiev
 200:main.c        ****             sprintf(buffer_Tx,"A%da",100 - out);
 529              		.loc 1 200 0
 530 00dc C2F16402 		rsb	r2, r2, #100
 531              	.LVL57:
 532 00e0 9949     		ldr	r1, .L63+48
 533 00e2 05A8     		add	r0, sp, #20
 534              	.LVL58:
 535 00e4 FFF7FEFF 		bl	sprintf
 536              	.LVL59:
 201:main.c        ****             UART_PutString(buffer_Tx);//ACTUADOR
 537              		.loc 1 201 0
 538 00e8 05A8     		add	r0, sp, #20
 539 00ea FFF7FEFF 		bl	UART_PutString
 540              	.LVL60:
 541              	.L33:
 202:main.c        ****         
 203:main.c        ****         }
 204:main.c        ****         
 205:main.c        ****         if(interfaz_lab == BIT0){//RUTINA DE ACTUALIZADO DE VARIBLES
 542              		.loc 1 205 0
 543 00ee 934B     		ldr	r3, .L63+36
 544 00f0 5B78     		ldrb	r3, [r3, #1]	@ zero_extendqisi2
 545 00f2 012B     		cmp	r3, #1
 546 00f4 C2D1     		bne	.L34
 206:main.c        ****             interfaz_lab = ~BIT0;
 547              		.loc 1 206 0
 548 00f6 FE22     		movs	r2, #254
 549 00f8 904B     		ldr	r3, .L63+36
 550 00fa 5A70     		strb	r2, [r3, #1]
 207:main.c        ****             
 208:main.c        ****             buffer_Rx[i] =  UART_GetByte();//Agregamos al arreglo el ascci del caracter recibido
 551              		.loc 1 208 0
 552 00fc FFF7FEFF 		bl	UART_GetByte
 553              	.LVL61:
 554 0100 24AB     		add	r3, sp, #144
 555 0102 2B44     		add	r3, r3, r5
 556 0104 03F88C0C 		strb	r0, [r3, #-140]
 209:main.c        ****             i++;
 557              		.loc 1 209 0
 558 0108 0135     		adds	r5, r5, #1
 559              	.LVL62:
 560 010a EDB2     		uxtb	r5, r5
 561              	.LVL63:
 210:main.c        ****             
 211:main.c        ****             if(buffer_Rx[i-1] == 'S'){ //REBIZAMOS EL BUFFER SETPOINT
 562              		.loc 1 211 0
ARM GAS  C:\Users\adria\AppData\Local\Temp\ccd3hYJz.s 			page 15


 563 010c 2F46     		mov	r7, r5
 564 010e 6B1E     		subs	r3, r5, #1
 565 0110 24AA     		add	r2, sp, #144
 566 0112 1344     		add	r3, r3, r2
 567 0114 13F88C3C 		ldrb	r3, [r3, #-140]	@ zero_extendqisi2
 568 0118 532B     		cmp	r3, #83
 569 011a 39D1     		bne	.L36
 570 011c 27E0     		b	.L61
 571              	.LVL64:
 572              	.L37:
 212:main.c        ****                 setpoint = 0;                    // Limpiar valor de SP
 213:main.c        ****                         
 214:main.c        ****                 //Parseamos
 215:main.c        ****                 x = -2;
 216:main.c        ****                 enteros = 0;
 217:main.c        ****                 while ((i+x)>=0){
 218:main.c        ****                 
 219:main.c        ****                     setpoint += (buffer_Rx[i+x] - 0x30) * pow(10.0,enteros);
 573              		.loc 1 219 0
 574 011e 24AA     		add	r2, sp, #144
 575 0120 1344     		add	r3, r3, r2
 576 0122 13F88CAC 		ldrb	r10, [r3, #-140]	@ zero_extendqisi2
 577 0126 AAF1300A 		sub	r10, r10, #48
 578 012a 2046     		mov	r0, r4
 579 012c FFF7FEFF 		bl	__aeabi_ui2d
 580              	.LVL65:
 581 0130 0246     		mov	r2, r0
 582 0132 0B46     		mov	r3, r1
 583 0134 0020     		movs	r0, #0
 584 0136 8549     		ldr	r1, .L63+52
 585 0138 FFF7FEFF 		bl	pow
 586              	.LVL66:
 587 013c 8046     		mov	r8, r0
 588 013e 8946     		mov	r9, r1
 589 0140 5046     		mov	r0, r10
 590 0142 FFF7FEFF 		bl	__aeabi_i2d
 591              	.LVL67:
 592 0146 4246     		mov	r2, r8
 593 0148 4B46     		mov	r3, r9
 594 014a FFF7FEFF 		bl	__aeabi_dmul
 595              	.LVL68:
 596 014e 8046     		mov	r8, r0
 597 0150 8946     		mov	r9, r1
 598 0152 3046     		mov	r0, r6
 599 0154 FFF7FEFF 		bl	__aeabi_f2d
 600              	.LVL69:
 601 0158 4246     		mov	r2, r8
 602 015a 4B46     		mov	r3, r9
 603 015c FFF7FEFF 		bl	__aeabi_dadd
 604              	.LVL70:
 605 0160 FFF7FEFF 		bl	__aeabi_d2f
 606              	.LVL71:
 607 0164 0646     		mov	r6, r0
 608              	.LVL72:
 220:main.c        ****                     
 221:main.c        ****                     x--;//Recorremos una posicion del string
 609              		.loc 1 221 0
ARM GAS  C:\Users\adria\AppData\Local\Temp\ccd3hYJz.s 			page 16


 610 0166 013D     		subs	r5, r5, #1
 611              	.LVL73:
 222:main.c        ****                     enteros++;
 612              		.loc 1 222 0
 613 0168 0134     		adds	r4, r4, #1
 614              	.LVL74:
 615 016a E4B2     		uxtb	r4, r4
 616              	.LVL75:
 617 016c 03E0     		b	.L35
 618              	.LVL76:
 619              	.L61:
 620 016e 0024     		movs	r4, #0
 621 0170 6FF00105 		mvn	r5, #1
 622              	.LVL77:
 623 0174 0026     		movs	r6, #0
 624              	.LVL78:
 625              	.L35:
 217:main.c        ****                 
 626              		.loc 1 217 0
 627 0176 EB19     		adds	r3, r5, r7
 628 0178 D1D5     		bpl	.L37
 629 017a 0023     		movs	r3, #0
 630 017c 05E0     		b	.L38
 631              	.LVL79:
 632              	.L39:
 633              	.LBB2:
 223:main.c        ****                 }
 224:main.c        ****                 
 225:main.c        ****                 i=0;  
 226:main.c        ****                 
 227:main.c        ****                 for(int i=0;i<16;i++){//limpiamos buffer
 228:main.c        ****                     buffer_Rx[i] = 0;
 634              		.loc 1 228 0 discriminator 3
 635 017e 24AA     		add	r2, sp, #144
 636 0180 1A44     		add	r2, r2, r3
 637 0182 0021     		movs	r1, #0
 638 0184 02F88C1C 		strb	r1, [r2, #-140]
 227:main.c        ****                     buffer_Rx[i] = 0;
 639              		.loc 1 227 0 discriminator 3
 640 0188 0133     		adds	r3, r3, #1
 641              	.LVL80:
 642              	.L38:
 227:main.c        ****                     buffer_Rx[i] = 0;
 643              		.loc 1 227 0 is_stmt 0 discriminator 1
 644 018a 0F2B     		cmp	r3, #15
 645 018c F7DD     		ble	.L39
 646              	.LBE2:
 225:main.c        ****                 
 647              		.loc 1 225 0 is_stmt 1
 648 018e 0025     		movs	r5, #0
 649              	.LVL81:
 650              	.L36:
 229:main.c        ****                 }
 230:main.c        ****                 
 231:main.c        ****             }
 232:main.c        ****             
 233:main.c        ****         if(buffer_Rx[i-1] == 'P'){ //REBIZAMOS EL KP
ARM GAS  C:\Users\adria\AppData\Local\Temp\ccd3hYJz.s 			page 17


 651              		.loc 1 233 0
 652 0190 A846     		mov	r8, r5
 653 0192 6B1E     		subs	r3, r5, #1
 654 0194 24AA     		add	r2, sp, #144
 655 0196 1344     		add	r3, r3, r2
 656 0198 13F88C3C 		ldrb	r3, [r3, #-140]	@ zero_extendqisi2
 657 019c 502B     		cmp	r3, #80
 658 019e 5DD1     		bne	.L40
 234:main.c        ****             pid_instancia_variables.Kp = 0;                    // Limpiar valor de SP
 659              		.loc 1 234 0
 660 01a0 0023     		movs	r3, #0
 661 01a2 0993     		str	r3, [sp, #36]	@ float
 662              	.LVL82:
 235:main.c        ****             
 236:main.c        ****             //Parseamos
 237:main.c        ****             x = -2;
 238:main.c        ****             
 239:main.c        ****             //Encontramos la posicion del punto dentro de la cadena
 240:main.c        ****             posicion = strchr(buffer_Rx, '.');
 663              		.loc 1 240 0
 664 01a4 0DF10409 		add	r9, sp, #4
 665 01a8 2E21     		movs	r1, #46
 666 01aa 4846     		mov	r0, r9
 667 01ac FFF7FEFF 		bl	strchr
 668              	.LVL83:
 241:main.c        ****             posicionEnCadena = posicion - buffer_Rx;
 669              		.loc 1 241 0
 670 01b0 C9EB0009 		rsb	r9, r9, r0
 671              	.LVL84:
 237:main.c        ****             
 672              		.loc 1 237 0
 673 01b4 6FF00104 		mvn	r4, #1
 242:main.c        ****             
 243:main.c        ****             while (buffer_Rx[i+x] != '.'){//Miestras sea la parte decimal
 674              		.loc 1 243 0
 675 01b8 24E0     		b	.L41
 676              	.LVL85:
 677              	.L42:
 244:main.c        ****             
 245:main.c        **** 
 246:main.c        ****                 pid_instancia_variables.Kp += (buffer_Rx[i+x] - 0x30) * powf(0.1,(float)i+x-posicio
 678              		.loc 1 246 0
 679 01ba A0F13007 		sub	r7, r0, #48
 680 01be 2846     		mov	r0, r5
 681 01c0 FFF7FEFF 		bl	__aeabi_ui2f
 682              	.LVL86:
 683 01c4 8246     		mov	r10, r0
 684 01c6 2046     		mov	r0, r4
 685 01c8 FFF7FEFF 		bl	__aeabi_i2f
 686              	.LVL87:
 687 01cc 5146     		mov	r1, r10
 688 01ce FFF7FEFF 		bl	__aeabi_fadd
 689              	.LVL88:
 690 01d2 8246     		mov	r10, r0
 691 01d4 4846     		mov	r0, r9
 692 01d6 FFF7FEFF 		bl	__aeabi_i2f
 693              	.LVL89:
ARM GAS  C:\Users\adria\AppData\Local\Temp\ccd3hYJz.s 			page 18


 694 01da 0146     		mov	r1, r0
 695 01dc 5046     		mov	r0, r10
 696 01de FFF7FEFF 		bl	__aeabi_fsub
 697              	.LVL90:
 698 01e2 0146     		mov	r1, r0
 699 01e4 5A48     		ldr	r0, .L63+56
 700 01e6 FFF7FEFF 		bl	powf
 701              	.LVL91:
 702 01ea 8246     		mov	r10, r0
 703 01ec 3846     		mov	r0, r7
 704 01ee FFF7FEFF 		bl	__aeabi_i2f
 705              	.LVL92:
 706 01f2 5146     		mov	r1, r10
 707 01f4 FFF7FEFF 		bl	__aeabi_fmul
 708              	.LVL93:
 709 01f8 0146     		mov	r1, r0
 710 01fa 0998     		ldr	r0, [sp, #36]	@ float
 711 01fc FFF7FEFF 		bl	__aeabi_fadd
 712              	.LVL94:
 713 0200 0990     		str	r0, [sp, #36]	@ float
 247:main.c        ****                 
 248:main.c        ****                 x--;//Recorremos una posicion del string
 714              		.loc 1 248 0
 715 0202 013C     		subs	r4, r4, #1
 716              	.LVL95:
 717              	.L41:
 243:main.c        ****             
 718              		.loc 1 243 0
 719 0204 04EB0803 		add	r3, r4, r8
 720 0208 24AA     		add	r2, sp, #144
 721 020a 1344     		add	r3, r3, r2
 722 020c 13F88C0C 		ldrb	r0, [r3, #-140]	@ zero_extendqisi2
 723 0210 2E28     		cmp	r0, #46
 724 0212 D2D1     		bne	.L42
 725              	.LVL96:
 249:main.c        ****             }
 250:main.c        ****             
 251:main.c        ****             enteros = 0;
 252:main.c        ****             x--;//Nos saltamos el punto 
 726              		.loc 1 252 0
 727 0214 013C     		subs	r4, r4, #1
 728              	.LVL97:
 253:main.c        ****             while ((i+x)>=0){//Pate entera
 729              		.loc 1 253 0
 730 0216 13E0     		b	.L43
 731              	.L44:
 254:main.c        ****             
 255:main.c        ****                 pid_instancia_variables.Kp += (buffer_Rx[i+x] - 0x30) * pow(10.0,enteros);
 732              		.loc 1 255 0
 733 0218 24AA     		add	r2, sp, #144
 734 021a 1344     		add	r3, r3, r2
 735 021c 13F88C0C 		ldrb	r0, [r3, #-140]	@ zero_extendqisi2
 736 0220 3038     		subs	r0, r0, #48
 737 0222 FFF7FEFF 		bl	__aeabi_i2d
 738              	.LVL98:
 739 0226 8246     		mov	r10, r0
 740 0228 8B46     		mov	fp, r1
ARM GAS  C:\Users\adria\AppData\Local\Temp\ccd3hYJz.s 			page 19


 741 022a 0998     		ldr	r0, [sp, #36]	@ float
 742 022c FFF7FEFF 		bl	__aeabi_f2d
 743              	.LVL99:
 744 0230 5246     		mov	r2, r10
 745 0232 5B46     		mov	r3, fp
 746 0234 FFF7FEFF 		bl	__aeabi_dadd
 747              	.LVL100:
 748 0238 FFF7FEFF 		bl	__aeabi_d2f
 749              	.LVL101:
 750 023c 0990     		str	r0, [sp, #36]	@ float
 256:main.c        ****                 
 257:main.c        ****                 x--;//Recorremos una posicion del string
 751              		.loc 1 257 0
 752 023e 013C     		subs	r4, r4, #1
 753              	.LVL102:
 754              	.L43:
 253:main.c        ****             
 755              		.loc 1 253 0
 756 0240 14EB0803 		adds	r3, r4, r8
 757 0244 E8D5     		bpl	.L44
 758 0246 0023     		movs	r3, #0
 759 0248 05E0     		b	.L45
 760              	.LVL103:
 761              	.L46:
 762              	.LBB3:
 258:main.c        ****             }
 259:main.c        ****             
 260:main.c        ****             i=0;  
 261:main.c        ****             
 262:main.c        ****             for(int i=0;i<16;i++){//limpiamos buffer
 263:main.c        ****                 buffer_Rx[i] = 0;
 763              		.loc 1 263 0 discriminator 3
 764 024a 24AA     		add	r2, sp, #144
 765 024c 1A44     		add	r2, r2, r3
 766 024e 0021     		movs	r1, #0
 767 0250 02F88C1C 		strb	r1, [r2, #-140]
 262:main.c        ****                 buffer_Rx[i] = 0;
 768              		.loc 1 262 0 discriminator 3
 769 0254 0133     		adds	r3, r3, #1
 770              	.LVL104:
 771              	.L45:
 262:main.c        ****                 buffer_Rx[i] = 0;
 772              		.loc 1 262 0 is_stmt 0 discriminator 1
 773 0256 0F2B     		cmp	r3, #15
 774 0258 F7DD     		ble	.L46
 775              	.LBE3:
 260:main.c        ****             
 776              		.loc 1 260 0 is_stmt 1
 777 025a 0025     		movs	r5, #0
 778              	.LVL105:
 779              	.L40:
 264:main.c        ****             }
 265:main.c        ****         }
 266:main.c        ****             
 267:main.c        ****         if(buffer_Rx[i-1] == 'I'){ //REBIZAMOS EL KI
 780              		.loc 1 267 0
 781 025c A846     		mov	r8, r5
ARM GAS  C:\Users\adria\AppData\Local\Temp\ccd3hYJz.s 			page 20


 782 025e 6B1E     		subs	r3, r5, #1
 783 0260 24AA     		add	r2, sp, #144
 784 0262 1344     		add	r3, r3, r2
 785 0264 13F88C3C 		ldrb	r3, [r3, #-140]	@ zero_extendqisi2
 786 0268 492B     		cmp	r3, #73
 787 026a 7CD1     		bne	.L47
 268:main.c        ****             pid_instancia_variables.Ki = 0;
 788              		.loc 1 268 0
 789 026c 0023     		movs	r3, #0
 790 026e 0A93     		str	r3, [sp, #40]	@ float
 791              	.LVL106:
 269:main.c        ****             
 270:main.c        ****             //Parseamos
 271:main.c        ****             x = -2;
 272:main.c        ****             
 273:main.c        ****             //Encontramos la posicion del punto dentro de la cadena
 274:main.c        ****             posicion = strchr(buffer_Rx, '.');
 792              		.loc 1 274 0
 793 0270 0DF10409 		add	r9, sp, #4
 794 0274 2E21     		movs	r1, #46
 795 0276 4846     		mov	r0, r9
 796 0278 FFF7FEFF 		bl	strchr
 797              	.LVL107:
 275:main.c        ****             posicionEnCadena = posicion - buffer_Rx;
 798              		.loc 1 275 0
 799 027c C9EB0009 		rsb	r9, r9, r0
 800              	.LVL108:
 271:main.c        ****             
 801              		.loc 1 271 0
 802 0280 6FF00104 		mvn	r4, #1
 276:main.c        ****             
 277:main.c        ****             while (buffer_Rx[i+x] != '.'){//Miestras sea la parte decimal
 803              		.loc 1 277 0
 804 0284 24E0     		b	.L48
 805              	.LVL109:
 806              	.L49:
 278:main.c        ****             
 279:main.c        **** 
 280:main.c        ****                 pid_instancia_variables.Ki += (buffer_Rx[i+x] - 0x30) * powf(0.1,(float)i+x-posicio
 807              		.loc 1 280 0
 808 0286 A0F13007 		sub	r7, r0, #48
 809 028a 2846     		mov	r0, r5
 810 028c FFF7FEFF 		bl	__aeabi_ui2f
 811              	.LVL110:
 812 0290 8246     		mov	r10, r0
 813 0292 2046     		mov	r0, r4
 814 0294 FFF7FEFF 		bl	__aeabi_i2f
 815              	.LVL111:
 816 0298 5146     		mov	r1, r10
 817 029a FFF7FEFF 		bl	__aeabi_fadd
 818              	.LVL112:
 819 029e 8246     		mov	r10, r0
 820 02a0 4846     		mov	r0, r9
 821 02a2 FFF7FEFF 		bl	__aeabi_i2f
 822              	.LVL113:
 823 02a6 0146     		mov	r1, r0
 824 02a8 5046     		mov	r0, r10
ARM GAS  C:\Users\adria\AppData\Local\Temp\ccd3hYJz.s 			page 21


 825 02aa FFF7FEFF 		bl	__aeabi_fsub
 826              	.LVL114:
 827 02ae 0146     		mov	r1, r0
 828 02b0 2748     		ldr	r0, .L63+56
 829 02b2 FFF7FEFF 		bl	powf
 830              	.LVL115:
 831 02b6 8246     		mov	r10, r0
 832 02b8 3846     		mov	r0, r7
 833 02ba FFF7FEFF 		bl	__aeabi_i2f
 834              	.LVL116:
 835 02be 5146     		mov	r1, r10
 836 02c0 FFF7FEFF 		bl	__aeabi_fmul
 837              	.LVL117:
 838 02c4 0146     		mov	r1, r0
 839 02c6 0A98     		ldr	r0, [sp, #40]	@ float
 840 02c8 FFF7FEFF 		bl	__aeabi_fadd
 841              	.LVL118:
 842 02cc 0A90     		str	r0, [sp, #40]	@ float
 281:main.c        ****                 
 282:main.c        ****                 x--;//Recorremos una posicion del string
 843              		.loc 1 282 0
 844 02ce 013C     		subs	r4, r4, #1
 845              	.LVL119:
 846              	.L48:
 277:main.c        ****             
 847              		.loc 1 277 0
 848 02d0 04EB0803 		add	r3, r4, r8
 849 02d4 24AA     		add	r2, sp, #144
 850 02d6 1344     		add	r3, r3, r2
 851 02d8 13F88C0C 		ldrb	r0, [r3, #-140]	@ zero_extendqisi2
 852 02dc 2E28     		cmp	r0, #46
 853 02de D2D1     		bne	.L49
 854              	.LVL120:
 283:main.c        ****             }
 284:main.c        ****             
 285:main.c        ****             enteros = 0;
 286:main.c        ****             x--;//Nos saltamos el punto 
 855              		.loc 1 286 0
 856 02e0 013C     		subs	r4, r4, #1
 857              	.LVL121:
 287:main.c        ****             while ((i+x)>=0){//Pate entera
 858              		.loc 1 287 0
 859 02e2 13E0     		b	.L50
 860              	.L51:
 288:main.c        ****             
 289:main.c        ****                 pid_instancia_variables.Ki += (buffer_Rx[i+x] - 0x30) * pow(10.0,enteros);
 861              		.loc 1 289 0
 862 02e4 24AA     		add	r2, sp, #144
 863 02e6 1344     		add	r3, r3, r2
 864 02e8 13F88C0C 		ldrb	r0, [r3, #-140]	@ zero_extendqisi2
 865 02ec 3038     		subs	r0, r0, #48
 866 02ee FFF7FEFF 		bl	__aeabi_i2d
 867              	.LVL122:
 868 02f2 8246     		mov	r10, r0
 869 02f4 8B46     		mov	fp, r1
 870 02f6 0A98     		ldr	r0, [sp, #40]	@ float
 871 02f8 FFF7FEFF 		bl	__aeabi_f2d
ARM GAS  C:\Users\adria\AppData\Local\Temp\ccd3hYJz.s 			page 22


 872              	.LVL123:
 873 02fc 5246     		mov	r2, r10
 874 02fe 5B46     		mov	r3, fp
 875 0300 FFF7FEFF 		bl	__aeabi_dadd
 876              	.LVL124:
 877 0304 FFF7FEFF 		bl	__aeabi_d2f
 878              	.LVL125:
 879 0308 0A90     		str	r0, [sp, #40]	@ float
 290:main.c        ****                 
 291:main.c        ****                 x--;//Recorremos una posicion del string
 880              		.loc 1 291 0
 881 030a 013C     		subs	r4, r4, #1
 882              	.LVL126:
 883              	.L50:
 287:main.c        ****             
 884              		.loc 1 287 0
 885 030c 14EB0803 		adds	r3, r4, r8
 886 0310 E8D5     		bpl	.L51
 887 0312 0023     		movs	r3, #0
 888 0314 24E0     		b	.L52
 889              	.L64:
 890 0316 00BF     		.align	2
 891              	.L63:
 892 0318 00000000 		.word	contador_0
 893 031c 00000000 		.word	contador_1
 894 0320 00000000 		.word	sensado
 895 0324 00000000 		.word	interfaz
 896 0328 0000C842 		.word	1120403456
 897 032c 000048C2 		.word	-1035468800
 898 0330 00004842 		.word	1112014848
 899 0334 CDCC4C3E 		.word	1045220557
 900 0338 0000C841 		.word	1103626240
 901 033c 00000000 		.word	.LANCHOR0
 902 0340 00000000 		.word	.LC0
 903 0344 00000000 		.word	.LANCHOR1
 904 0348 08000000 		.word	.LC1
 905 034c 00002440 		.word	1076101120
 906 0350 CDCCCC3D 		.word	1036831949
 907              	.LVL127:
 908              	.L53:
 909              	.LBB4:
 292:main.c        ****             }
 293:main.c        ****             
 294:main.c        ****             i=0;
 295:main.c        ****             
 296:main.c        ****             for(int i=0;i<16;i++){//limpiamos buffer
 297:main.c        ****                 buffer_Rx[i] = 0;
 910              		.loc 1 297 0 discriminator 3
 911 0354 24AA     		add	r2, sp, #144
 912 0356 1A44     		add	r2, r2, r3
 913 0358 0021     		movs	r1, #0
 914 035a 02F88C1C 		strb	r1, [r2, #-140]
 296:main.c        ****                 buffer_Rx[i] = 0;
 915              		.loc 1 296 0 discriminator 3
 916 035e 0133     		adds	r3, r3, #1
 917              	.LVL128:
 918              	.L52:
ARM GAS  C:\Users\adria\AppData\Local\Temp\ccd3hYJz.s 			page 23


 296:main.c        ****                 buffer_Rx[i] = 0;
 919              		.loc 1 296 0 is_stmt 0 discriminator 1
 920 0360 0F2B     		cmp	r3, #15
 921 0362 F7DD     		ble	.L53
 922              	.LBE4:
 294:main.c        ****             
 923              		.loc 1 294 0 is_stmt 1
 924 0364 0025     		movs	r5, #0
 925              	.LVL129:
 926              	.L47:
 298:main.c        ****             }
 299:main.c        ****         }
 300:main.c        ****             
 301:main.c        ****         if(buffer_Rx[i-1] == 'D'){ //REBIZAMOS EL KD
 927              		.loc 1 301 0
 928 0366 A846     		mov	r8, r5
 929 0368 6B1E     		subs	r3, r5, #1
 930 036a 24AA     		add	r2, sp, #144
 931 036c 1344     		add	r3, r3, r2
 932 036e 13F88C3C 		ldrb	r3, [r3, #-140]	@ zero_extendqisi2
 933 0372 442B     		cmp	r3, #68
 934 0374 7FF482AE 		bne	.L34
 302:main.c        ****             pid_instancia_variables.Kd = 0;
 935              		.loc 1 302 0
 936 0378 0023     		movs	r3, #0
 937 037a 0B93     		str	r3, [sp, #44]	@ float
 938              	.LVL130:
 303:main.c        ****             
 304:main.c        ****             //Parseamos
 305:main.c        ****             x = -2;
 306:main.c        ****             
 307:main.c        ****             //Encontramos la posicion del punto dentro de la cadena
 308:main.c        ****             posicion = strchr(buffer_Rx, '.');
 939              		.loc 1 308 0
 940 037c 0DF10409 		add	r9, sp, #4
 941 0380 2E21     		movs	r1, #46
 942 0382 4846     		mov	r0, r9
 943 0384 FFF7FEFF 		bl	strchr
 944              	.LVL131:
 309:main.c        ****             posicionEnCadena = posicion - buffer_Rx;
 945              		.loc 1 309 0
 946 0388 C9EB0009 		rsb	r9, r9, r0
 947              	.LVL132:
 305:main.c        ****             
 948              		.loc 1 305 0
 949 038c 6FF00104 		mvn	r4, #1
 310:main.c        ****             
 311:main.c        ****             while (buffer_Rx[i+x] != '.'){//Miestras sea la parte decimal
 950              		.loc 1 311 0
 951 0390 24E0     		b	.L55
 952              	.LVL133:
 953              	.L56:
 312:main.c        ****             
 313:main.c        **** 
 314:main.c        ****                 pid_instancia_variables.Kd += (buffer_Rx[i+x] - 0x30) * powf(0.1,(float)i+x-posicio
 954              		.loc 1 314 0
 955 0392 A0F13007 		sub	r7, r0, #48
ARM GAS  C:\Users\adria\AppData\Local\Temp\ccd3hYJz.s 			page 24


 956 0396 2846     		mov	r0, r5
 957 0398 FFF7FEFF 		bl	__aeabi_ui2f
 958              	.LVL134:
 959 039c 8246     		mov	r10, r0
 960 039e 2046     		mov	r0, r4
 961 03a0 FFF7FEFF 		bl	__aeabi_i2f
 962              	.LVL135:
 963 03a4 5146     		mov	r1, r10
 964 03a6 FFF7FEFF 		bl	__aeabi_fadd
 965              	.LVL136:
 966 03aa 8246     		mov	r10, r0
 967 03ac 4846     		mov	r0, r9
 968 03ae FFF7FEFF 		bl	__aeabi_i2f
 969              	.LVL137:
 970 03b2 0146     		mov	r1, r0
 971 03b4 5046     		mov	r0, r10
 972 03b6 FFF7FEFF 		bl	__aeabi_fsub
 973              	.LVL138:
 974 03ba 0146     		mov	r1, r0
 975 03bc 1E48     		ldr	r0, .L65
 976 03be FFF7FEFF 		bl	powf
 977              	.LVL139:
 978 03c2 8246     		mov	r10, r0
 979 03c4 3846     		mov	r0, r7
 980 03c6 FFF7FEFF 		bl	__aeabi_i2f
 981              	.LVL140:
 982 03ca 5146     		mov	r1, r10
 983 03cc FFF7FEFF 		bl	__aeabi_fmul
 984              	.LVL141:
 985 03d0 0146     		mov	r1, r0
 986 03d2 0B98     		ldr	r0, [sp, #44]	@ float
 987 03d4 FFF7FEFF 		bl	__aeabi_fadd
 988              	.LVL142:
 989 03d8 0B90     		str	r0, [sp, #44]	@ float
 315:main.c        ****                 
 316:main.c        ****                 x--;//Recorremos una posicion del string
 990              		.loc 1 316 0
 991 03da 013C     		subs	r4, r4, #1
 992              	.LVL143:
 993              	.L55:
 311:main.c        ****             
 994              		.loc 1 311 0
 995 03dc 04EB0803 		add	r3, r4, r8
 996 03e0 24AA     		add	r2, sp, #144
 997 03e2 1344     		add	r3, r3, r2
 998 03e4 13F88C0C 		ldrb	r0, [r3, #-140]	@ zero_extendqisi2
 999 03e8 2E28     		cmp	r0, #46
 1000 03ea D2D1     		bne	.L56
 1001              	.LVL144:
 317:main.c        ****             }
 318:main.c        ****             
 319:main.c        ****             enteros = 0;
 320:main.c        ****             x--;//Nos saltamos el punto 
 1002              		.loc 1 320 0
 1003 03ec 013C     		subs	r4, r4, #1
 1004              	.LVL145:
 321:main.c        ****             while ((i+x)>=0){//Pate entera
ARM GAS  C:\Users\adria\AppData\Local\Temp\ccd3hYJz.s 			page 25


 1005              		.loc 1 321 0
 1006 03ee 13E0     		b	.L57
 1007              	.L58:
 322:main.c        ****             
 323:main.c        ****                 pid_instancia_variables.Kd += (buffer_Rx[i+x] - 0x30) * pow(10.0,enteros);
 1008              		.loc 1 323 0
 1009 03f0 24AA     		add	r2, sp, #144
 1010 03f2 1344     		add	r3, r3, r2
 1011 03f4 13F88C0C 		ldrb	r0, [r3, #-140]	@ zero_extendqisi2
 1012 03f8 3038     		subs	r0, r0, #48
 1013 03fa FFF7FEFF 		bl	__aeabi_i2d
 1014              	.LVL146:
 1015 03fe 8246     		mov	r10, r0
 1016 0400 8B46     		mov	fp, r1
 1017 0402 0B98     		ldr	r0, [sp, #44]	@ float
 1018 0404 FFF7FEFF 		bl	__aeabi_f2d
 1019              	.LVL147:
 1020 0408 5246     		mov	r2, r10
 1021 040a 5B46     		mov	r3, fp
 1022 040c FFF7FEFF 		bl	__aeabi_dadd
 1023              	.LVL148:
 1024 0410 FFF7FEFF 		bl	__aeabi_d2f
 1025              	.LVL149:
 1026 0414 0B90     		str	r0, [sp, #44]	@ float
 324:main.c        ****                 
 325:main.c        ****                 x--;//Recorremos una posicion del string
 1027              		.loc 1 325 0
 1028 0416 013C     		subs	r4, r4, #1
 1029              	.LVL150:
 1030              	.L57:
 321:main.c        ****             
 1031              		.loc 1 321 0
 1032 0418 14EB0803 		adds	r3, r4, r8
 1033 041c E8D5     		bpl	.L58
 1034 041e 0023     		movs	r3, #0
 1035 0420 05E0     		b	.L59
 1036              	.LVL151:
 1037              	.L60:
 1038              	.LBB5:
 326:main.c        ****             }
 327:main.c        ****             
 328:main.c        ****             i=0;
 329:main.c        ****             
 330:main.c        ****             for(int i=0;i<16;i++){//limpiamos buffer
 331:main.c        ****                 buffer_Rx[i] = 0;
 1039              		.loc 1 331 0 discriminator 3
 1040 0422 24AA     		add	r2, sp, #144
 1041 0424 1A44     		add	r2, r2, r3
 1042 0426 0021     		movs	r1, #0
 1043 0428 02F88C1C 		strb	r1, [r2, #-140]
 330:main.c        ****                 buffer_Rx[i] = 0;
 1044              		.loc 1 330 0 discriminator 3
 1045 042c 0133     		adds	r3, r3, #1
 1046              	.LVL152:
 1047              	.L59:
 330:main.c        ****                 buffer_Rx[i] = 0;
 1048              		.loc 1 330 0 is_stmt 0 discriminator 1
ARM GAS  C:\Users\adria\AppData\Local\Temp\ccd3hYJz.s 			page 26


 1049 042e 0F2B     		cmp	r3, #15
 1050 0430 F7DD     		ble	.L60
 1051              	.LBE5:
 328:main.c        ****             
 1052              		.loc 1 328 0 is_stmt 1
 1053 0432 0025     		movs	r5, #0
 1054              	.LVL153:
 1055 0434 22E6     		b	.L34
 1056              	.L66:
 1057 0436 00BF     		.align	2
 1058              	.L65:
 1059 0438 CDCCCC3D 		.word	1036831949
 1060              		.cfi_endproc
 1061              	.LFE71:
 1062              		.size	main, .-main
 1063              		.global	on_1
 1064              		.global	acomulador_1
 1065              		.global	on_0
 1066              		.global	acomulador_0
 1067              		.global	Actuadores_reg
 1068              		.global	interfaz_lab
 1069              		.global	sens_flag
 1070              		.data
 1071              		.align	1
 1072              		.set	.LANCHOR0,. + 0
 1073              		.type	sens_flag, %object
 1074              		.size	sens_flag, 1
 1075              	sens_flag:
 1076 0000 FE       		.byte	-2
 1077              		.type	interfaz_lab, %object
 1078              		.size	interfaz_lab, 1
 1079              	interfaz_lab:
 1080 0001 FE       		.byte	-2
 1081              		.type	on_0, %object
 1082              		.size	on_0, 2
 1083              	on_0:
 1084 0002 6400     		.short	100
 1085              		.section	.rodata.str1.4,"aMS",%progbits,1
 1086              		.align	2
 1087              	.LC0:
 1088 0000 53256473 		.ascii	"S%ds\000"
 1088      00
 1089 0005 000000   		.space	3
 1090              	.LC1:
 1091 0008 41256461 		.ascii	"A%da\000"
 1091      00
 1092              		.bss
 1093              		.align	1
 1094              		.set	.LANCHOR1,. + 0
 1095              		.type	acomulador_0, %object
 1096              		.size	acomulador_0, 2
 1097              	acomulador_0:
 1098 0000 0000     		.space	2
 1099              		.type	Actuadores_reg, %object
 1100              		.size	Actuadores_reg, 1
 1101              	Actuadores_reg:
 1102 0002 00       		.space	1
ARM GAS  C:\Users\adria\AppData\Local\Temp\ccd3hYJz.s 			page 27


 1103 0003 00       		.space	1
 1104              		.type	acomulador_1, %object
 1105              		.size	acomulador_1, 2
 1106              	acomulador_1:
 1107 0004 0000     		.space	2
 1108              		.type	on_1, %object
 1109              		.size	on_1, 2
 1110              	on_1:
 1111 0006 0000     		.space	2
 1112              		.text
 1113              	.Letext0:
 1114              		.file 3 "c:\\program files (x86)\\cypress\\psoc creator\\4.4\\psoc creator\\import\\gnu\\arm\\5.4.
 1115              		.file 4 "c:\\program files (x86)\\cypress\\psoc creator\\4.4\\psoc creator\\import\\gnu\\arm\\5.4.
 1116              		.file 5 "..\\..\\PROYECTO_IOT\\MAX6675.cydsn\\MAX6675_.h"
 1117              		.file 6 "..\\..\\FINAL_vilchis\\PID_anticolision.cydsn\\filtros.h"
 1118              		.file 7 "..\\..\\FINAL_vilchis\\PID_anticolision.cydsn\\PID.h"
 1119              		.file 8 "Generated_Source\\PSoC5/core_cm3.h"
 1120              		.file 9 "Generated_Source\\PSoC5/sensado.h"
 1121              		.file 10 "Generated_Source\\PSoC5/interfaz.h"
 1122              		.file 11 "Generated_Source\\PSoC5/contador_0.h"
 1123              		.file 12 "Generated_Source\\PSoC5/Actuadores.h"
 1124              		.file 13 "Generated_Source\\PSoC5/contador_1.h"
 1125              		.file 14 "Generated_Source\\PSoC5/Sampling.h"
 1126              		.file 15 "Generated_Source\\PSoC5/UART.h"
 1127              		.file 16 "Generated_Source\\PSoC5/SPIM.h"
 1128              		.file 17 "c:\\program files (x86)\\cypress\\psoc creator\\4.4\\psoc creator\\import\\gnu\\arm\\5.4
 1129              		.file 18 "c:\\program files (x86)\\cypress\\psoc creator\\4.4\\psoc creator\\import\\gnu\\arm\\5.4
 1130              		.file 19 "c:\\program files (x86)\\cypress\\psoc creator\\4.4\\psoc creator\\import\\gnu\\arm\\5.4