ARM GAS  C:\Users\adria\AppData\Local\Temp\ccvNNUda.s 			page 1


   1              		.syntax unified
   2              		.cpu cortex-m3
   3              		.fpu softvfp
   4              		.eabi_attribute 20, 1
   5              		.eabi_attribute 21, 1
   6              		.eabi_attribute 23, 3
   7              		.eabi_attribute 24, 1
   8              		.eabi_attribute 25, 1
   9              		.eabi_attribute 26, 1
  10              		.eabi_attribute 30, 1
  11              		.eabi_attribute 34, 1
  12              		.eabi_attribute 18, 4
  13              		.thumb
  14              		.syntax unified
  15              		.file	"main.c"
  16              		.text
  17              	.Ltext0:
  18              		.cfi_sections	.debug_frame
  19              		.section	.text.main,"ax",%progbits
  20              		.align	2
  21              		.global	main
  22              		.thumb
  23              		.thumb_func
  24              		.type	main, %function
  25              	main:
  26              	.LFB64:
  27              		.file 1 "main.c"
   1:main.c        **** 
   2:main.c        **** #include "project.h"
   3:main.c        **** #include <stdio.h>
   4:main.c        **** 
   5:main.c        **** int main(void)
   6:main.c        ****  {
  28              		.loc 1 6 0
  29              		.cfi_startproc
  30              		@ args = 0, pretend = 0, frame = 40
  31              		@ frame_needed = 0, uses_anonymous_args = 0
  32 0000 30B5     		push	{r4, r5, lr}
  33              		.cfi_def_cfa_offset 12
  34              		.cfi_offset 4, -12
  35              		.cfi_offset 5, -8
  36              		.cfi_offset 14, -4
  37 0002 8BB0     		sub	sp, sp, #44
  38              		.cfi_def_cfa_offset 56
   7:main.c        ****     CyGlobalIntEnable; /* Enable global interrupts. */
  39              		.loc 1 7 0
  40              		.syntax unified
  41              	@ 7 "main.c" 1
  42 0004 62B6     		CPSIE   i
  43              	@ 0 "" 2
  44              	.LVL0:
   8:main.c        ****     
   9:main.c        ****     //Variables para filtros
  10:main.c        ****     int16 cont=0,ventana = 15;
  11:main.c        ****     int16 suma = 0;
  12:main.c        ****     
  13:main.c        ****     //variables para el ADC
ARM GAS  C:\Users\adria\AppData\Local\Temp\ccvNNUda.s 			page 2


  14:main.c        ****     int16 lec_binaria,lec_Volts;
  15:main.c        ****     char8 Filtrado[4], NoFiltrado[4];//4 caracteres numéricos
  16:main.c        ****     int16 array[ventana];//Inicializamos el array en 0
  17:main.c        ****     
  18:main.c        ****     UART_Start();
  45              		.loc 1 18 0
  46              		.thumb
  47              		.syntax unified
  48 0006 FFF7FEFF 		bl	UART_Start
  49              	.LVL1:
  19:main.c        ****     ADC_Start();
  50              		.loc 1 19 0
  51 000a FFF7FEFF 		bl	ADC_Start
  52              	.LVL2:
  20:main.c        ****     ADC_StartConvert();
  53              		.loc 1 20 0
  54 000e FFF7FEFF 		bl	ADC_StartConvert
  55              	.LVL3:
  10:main.c        ****     int16 suma = 0;
  56              		.loc 1 10 0
  57 0012 0024     		movs	r4, #0
  58 0014 1DE0     		b	.L2
  59              	.LVL4:
  60              	.L4:
  21:main.c        ****     
  22:main.c        ****     for(;;)
  23:main.c        ****     {
  24:main.c        ****         
  25:main.c        ****         while(cont<ventana){
  26:main.c        ****             
  27:main.c        ****             if(ADC_IsEndConversion(0x00u)){//Verifica que se haya terminado una converción
  61              		.loc 1 27 0
  62 0016 0020     		movs	r0, #0
  63 0018 FFF7FEFF 		bl	ADC_IsEndConversion
  64              	.LVL5:
  65 001c C8B1     		cbz	r0, .L2
  28:main.c        ****            
  29:main.c        ****                 lec_binaria = ADC_GetResult16();//Recupera valor en el regisrtro del SAR
  66              		.loc 1 29 0
  67 001e FFF7FEFF 		bl	ADC_GetResult16
  68              	.LVL6:
  30:main.c        ****                 lec_Volts = ADC_CountsTo_mVolts(lec_binaria);//Hace converción a mV
  69              		.loc 1 30 0
  70 0022 FFF7FEFF 		bl	ADC_CountsTo_mVolts
  71              	.LVL7:
  72 0026 0546     		mov	r5, r0
  73              	.LVL8:
  31:main.c        ****                 
  32:main.c        ****                 //Enviamos lectura con ruido
  33:main.c        ****                 sprintf(NoFiltrado,"%d", lec_Volts);
  74              		.loc 1 33 0
  75 0028 0246     		mov	r2, r0
  76 002a 1C49     		ldr	r1, .L8
  77 002c 6846     		mov	r0, sp
  78              	.LVL9:
  79 002e FFF7FEFF 		bl	sprintf
  80              	.LVL10:
ARM GAS  C:\Users\adria\AppData\Local\Temp\ccvNNUda.s 			page 3


  34:main.c        ****                 UART_PutChar('R');//Mandamos un espacio de caractier para separar
  81              		.loc 1 34 0
  82 0032 5220     		movs	r0, #82
  83 0034 FFF7FEFF 		bl	UART_PutChar
  84              	.LVL11:
  35:main.c        ****                 UART_PutString(NoFiltrado);
  85              		.loc 1 35 0
  86 0038 6846     		mov	r0, sp
  87 003a FFF7FEFF 		bl	UART_PutString
  88              	.LVL12:
  36:main.c        ****                 UART_PutChar('r');//Mandamos un espacio de caractier para separar
  89              		.loc 1 36 0
  90 003e 7220     		movs	r0, #114
  91 0040 FFF7FEFF 		bl	UART_PutChar
  92              	.LVL13:
  37:main.c        ****                 
  38:main.c        ****                 //Agregamos resultado al array
  39:main.c        ****                 array[cont] = lec_Volts;
  93              		.loc 1 39 0
  94 0044 0AAB     		add	r3, sp, #40
  95 0046 03EB4403 		add	r3, r3, r4, lsl #1
  96 004a 23F8205C 		strh	r5, [r3, #-32]	@ movhi
  40:main.c        **** 
  41:main.c        ****                 //Sumamos al contador por cada dato que recuperemos
  42:main.c        ****                 cont++;
  97              		.loc 1 42 0
  98 004e 0134     		adds	r4, r4, #1
  99              	.LVL14:
 100 0050 24B2     		sxth	r4, r4
 101              	.LVL15:
 102              	.L2:
  25:main.c        ****             
 103              		.loc 1 25 0
 104 0052 0E2C     		cmp	r4, #14
 105 0054 DFDD     		ble	.L4
 106 0056 0020     		movs	r0, #0
 107 0058 0246     		mov	r2, r0
 108 005a 0EE0     		b	.L5
 109              	.LVL16:
 110              	.L6:
 111              	.LBB2:
  43:main.c        ****             }
  44:main.c        ****             
  45:main.c        ****         }cont=0;
  46:main.c        ****         
  47:main.c        ****         //Sacamos suma y promedio de la ventana. Aplicamos el filtro
  48:main.c        ****         suma=0;  
  49:main.c        ****         for(int i=0; i<ventana ;i++){
  50:main.c        ****             suma += array[i]/ventana;
 112              		.loc 1 50 0 discriminator 3
 113 005c 0AAB     		add	r3, sp, #40
 114 005e 03EB4003 		add	r3, r3, r0, lsl #1
 115 0062 33F9203C 		ldrsh	r3, [r3, #-32]
 116 0066 0E49     		ldr	r1, .L8+4
 117 0068 81FB0341 		smull	r4, r1, r1, r3
 118 006c 1944     		add	r1, r1, r3
 119 006e DB17     		asrs	r3, r3, #31
ARM GAS  C:\Users\adria\AppData\Local\Temp\ccvNNUda.s 			page 4


 120 0070 C3EBE103 		rsb	r3, r3, r1, asr #3
 121 0074 1A44     		add	r2, r2, r3
 122              	.LVL17:
 123 0076 12B2     		sxth	r2, r2
 124              	.LVL18:
  49:main.c        ****             suma += array[i]/ventana;
 125              		.loc 1 49 0 discriminator 3
 126 0078 0130     		adds	r0, r0, #1
 127              	.LVL19:
 128              	.L5:
  49:main.c        ****             suma += array[i]/ventana;
 129              		.loc 1 49 0 is_stmt 0 discriminator 1
 130 007a 0E28     		cmp	r0, #14
 131 007c EEDD     		ble	.L6
 132              	.LBE2:
  51:main.c        ****         }
  52:main.c        ****         
  53:main.c        ****         //Convertimos a char para ponerlo en un array de char
  54:main.c        ****         sprintf(Filtrado,"%d",suma);
 133              		.loc 1 54 0 is_stmt 1
 134 007e 0749     		ldr	r1, .L8
 135 0080 01A8     		add	r0, sp, #4
 136              	.LVL20:
 137 0082 FFF7FEFF 		bl	sprintf
 138              	.LVL21:
  55:main.c        ****         
  56:main.c        ****         UART_PutChar('F');//Mandamos un F de caractier para separar
 139              		.loc 1 56 0
 140 0086 4620     		movs	r0, #70
 141 0088 FFF7FEFF 		bl	UART_PutChar
 142              	.LVL22:
  57:main.c        ****         UART_PutString(Filtrado);//Mandamos la info ya filtrada     
 143              		.loc 1 57 0
 144 008c 01A8     		add	r0, sp, #4
 145 008e FFF7FEFF 		bl	UART_PutString
 146              	.LVL23:
  58:main.c        ****         UART_PutString("f\r\n");//fin de la trama    
 147              		.loc 1 58 0
 148 0092 0448     		ldr	r0, .L8+8
 149 0094 FFF7FEFF 		bl	UART_PutString
 150              	.LVL24:
  45:main.c        ****         
 151              		.loc 1 45 0
 152 0098 0024     		movs	r4, #0
  59:main.c        ****     }    
 153              		.loc 1 59 0
 154 009a DAE7     		b	.L2
 155              	.L9:
 156              		.align	2
 157              	.L8:
 158 009c 00000000 		.word	.LC0
 159 00a0 89888888 		.word	-2004318071
 160 00a4 04000000 		.word	.LC1
 161              		.cfi_endproc
 162              	.LFE64:
 163              		.size	main, .-main
 164              		.section	.rodata.str1.4,"aMS",%progbits,1
ARM GAS  C:\Users\adria\AppData\Local\Temp\ccvNNUda.s 			page 5


 165              		.align	2
 166              	.LC0:
 167 0000 256400   		.ascii	"%d\000"
 168 0003 00       		.space	1
 169              	.LC1:
 170 0004 660D0A00 		.ascii	"f\015\012\000"
 171              		.text
 172              	.Letext0:
 173              		.file 2 "c:\\program files (x86)\\cypress\\psoc creator\\4.4\\psoc creator\\import\\gnu\\arm\\5.4.
 174              		.file 3 "c:\\program files (x86)\\cypress\\psoc creator\\4.4\\psoc creator\\import\\gnu\\arm\\5.4.
 175              		.file 4 "Generated_Source\\PSoC5/cytypes.h"
 176              		.file 5 "Generated_Source\\PSoC5/UART.h"
 177              		.file 6 "Generated_Source\\PSoC5/ADC.h"
 178              		.file 7 "c:\\program files (x86)\\cypress\\psoc creator\\4.4\\psoc creator\\import\\gnu\\arm\\5.4.
 179              		.file 8 "Generated_Source\\PSoC5/core_cm3.h"