ARM GAS  C:\Users\adria\AppData\Local\Temp\ccz3th6N.s 			page 1


   1              		.syntax unified
   2              		.cpu cortex-m3
   3              		.fpu softvfp
   4              		.eabi_attribute 20, 1
   5              		.eabi_attribute 21, 1
   6              		.eabi_attribute 23, 3
   7              		.eabi_attribute 24, 1
   8              		.eabi_attribute 25, 1
   9              		.eabi_attribute 26, 1
  10              		.eabi_attribute 30, 1
  11              		.eabi_attribute 34, 1
  12              		.eabi_attribute 18, 4
  13              		.thumb
  14              		.syntax unified
  15              		.file	"main.c"
  16              		.text
  17              	.Ltext0:
  18              		.cfi_sections	.debug_frame
  19              		.section	.text.wifi,"ax",%progbits
  20              		.align	2
  21              		.global	wifi
  22              		.thumb
  23              		.thumb_func
  24              		.type	wifi, %function
  25              	wifi:
  26              	.LFB63:
  27              		.file 1 "main.c"
   1:main.c        **** #include "project.h"
   2:main.c        **** #include "D:\GITHUB\Librerias_PSOC\Libreria_PSOC\LIB_psoc.h"
   3:main.c        **** #include "..\..\..\psoc\lcd_7seg\Workspace01\LCD.cydsn\PSOC_LCD.h"
   4:main.c        **** 
   5:main.c        **** uint8_t flag = ~BIT0;
   6:main.c        **** //Subrutina de interrupcción
   7:main.c        **** CY_ISR(wifi){
  28              		.loc 1 7 0
  29              		.cfi_startproc
  30              		@ args = 0, pretend = 0, frame = 0
  31              		@ frame_needed = 0, uses_anonymous_args = 0
  32              		@ link register save eliminated.
   8:main.c        ****     flag |= BIT0;// Bandera de dato recibido  
  33              		.loc 1 8 0
  34 0000 024A     		ldr	r2, .L2
  35 0002 1378     		ldrb	r3, [r2]	@ zero_extendqisi2
  36 0004 43F00103 		orr	r3, r3, #1
  37 0008 1370     		strb	r3, [r2]
  38 000a 7047     		bx	lr
  39              	.L3:
  40              		.align	2
  41              	.L2:
  42 000c 00000000 		.word	.LANCHOR0
  43              		.cfi_endproc
  44              	.LFE63:
  45              		.size	wifi, .-wifi
  46              		.section	.text.main,"ax",%progbits
  47              		.align	2
  48              		.global	main
  49              		.thumb
ARM GAS  C:\Users\adria\AppData\Local\Temp\ccz3th6N.s 			page 2


  50              		.thumb_func
  51              		.type	main, %function
  52              	main:
  53              	.LFB64:
   9:main.c        **** }
  10:main.c        **** 
  11:main.c        **** //Variables de lectura de los sensores
  12:main.c        **** uint8_t TEM=0,PRE=0,HUM=0,AIR=0,CUPLA=0;
  13:main.c        **** 
  14:main.c        **** int main(void)
  15:main.c        **** {
  54              		.loc 1 15 0
  55              		.cfi_startproc
  56              		@ args = 0, pretend = 0, frame = 0
  57              		@ frame_needed = 0, uses_anonymous_args = 0
  58 0000 70B5     		push	{r4, r5, r6, lr}
  59              		.cfi_def_cfa_offset 16
  60              		.cfi_offset 4, -16
  61              		.cfi_offset 5, -12
  62              		.cfi_offset 6, -8
  63              		.cfi_offset 14, -4
  16:main.c        ****     CyGlobalIntEnable;
  64              		.loc 1 16 0
  65              		.syntax unified
  66              	@ 16 "main.c" 1
  67 0002 62B6     		CPSIE   i
  68              	@ 0 "" 2
  17:main.c        ****     //inicializamos el hardware del PSoC
  18:main.c        ****     UART_Start();
  69              		.loc 1 18 0
  70              		.thumb
  71              		.syntax unified
  72 0004 FFF7FEFF 		bl	UART_Start
  73              	.LVL0:
  19:main.c        ****     UART_ClearRxBuffer();
  74              		.loc 1 19 0
  75 0008 FFF7FEFF 		bl	UART_ClearRxBuffer
  76              	.LVL1:
  20:main.c        ****     
  21:main.c        ****     //Interrupciones del llamado del modulo Wifi
  22:main.c        ****     wifi_StartEx(wifi);
  77              		.loc 1 22 0
  78 000c 1C48     		ldr	r0, .L14
  79 000e FFF7FEFF 		bl	wifi_StartEx
  80              	.LVL2:
  23:main.c        ****     wifi_ClearPending();
  81              		.loc 1 23 0
  82 0012 FFF7FEFF 		bl	wifi_ClearPending
  83              	.LVL3:
  24:main.c        ****     
  25:main.c        ****     //Actuadores
  26:main.c        ****     PWM_Start();
  84              		.loc 1 26 0
  85 0016 FFF7FEFF 		bl	PWM_Start
  86              	.LVL4:
  27:main.c        ****     PWM_WriteCompare(0);//Inicializamos en potencia 0
  87              		.loc 1 27 0
ARM GAS  C:\Users\adria\AppData\Local\Temp\ccz3th6N.s 			page 3


  88 001a 0020     		movs	r0, #0
  89 001c FFF7FEFF 		bl	PWM_WriteCompare
  90              	.LVL5:
  28:main.c        ****     Counter_Start();
  91              		.loc 1 28 0
  92 0020 FFF7FEFF 		bl	Counter_Start
  93              	.LVL6:
  29:main.c        ****     Counter_WriteCompare(252);//Inicializamos en potencia 0
  94              		.loc 1 29 0
  95 0024 FC20     		movs	r0, #252
  96 0026 FFF7FEFF 		bl	Counter_WriteCompare
  97              	.LVL7:
  98              	.LBB2:
  30:main.c        ****     
  31:main.c        ****     //RUTINA DE PRUEBA DE CONTROL POR FASE Y VENTILADOR
  32:main.c        ****     //Rutina de prueba para concoer el estado de todo el sistema
  33:main.c        ****     for(int i=0;i<5;i++){
  99              		.loc 1 33 0
 100 002a 0026     		movs	r6, #0
 101 002c 1EE0     		b	.L5
 102              	.LVL8:
 103              	.L6:
 104              	.LBB3:
  34:main.c        ****         for(int i=255;i>=0;i--){
  35:main.c        ****             Counter_WriteCompare(i);
 105              		.loc 1 35 0 discriminator 3
 106 002e E5B2     		uxtb	r5, r4
 107 0030 2846     		mov	r0, r5
 108 0032 FFF7FEFF 		bl	Counter_WriteCompare
 109              	.LVL9:
  36:main.c        ****             PWM_WriteCompare(i);
 110              		.loc 1 36 0 discriminator 3
 111 0036 2846     		mov	r0, r5
 112 0038 FFF7FEFF 		bl	PWM_WriteCompare
 113              	.LVL10:
  37:main.c        ****             CyDelay(25);
 114              		.loc 1 37 0 discriminator 3
 115 003c 1920     		movs	r0, #25
 116 003e FFF7FEFF 		bl	CyDelay
 117              	.LVL11:
  34:main.c        ****         for(int i=255;i>=0;i--){
 118              		.loc 1 34 0 discriminator 3
 119 0042 013C     		subs	r4, r4, #1
 120              	.LVL12:
 121 0044 00E0     		b	.L9
 122              	.LVL13:
 123              	.L12:
 124              	.LBE3:
 125 0046 FF24     		movs	r4, #255
 126              	.L9:
 127              	.LVL14:
 128              	.LBB4:
  34:main.c        ****         for(int i=255;i>=0;i--){
 129              		.loc 1 34 0 is_stmt 0 discriminator 1
 130 0048 002C     		cmp	r4, #0
 131 004a F0DA     		bge	.L6
 132 004c 0024     		movs	r4, #0
ARM GAS  C:\Users\adria\AppData\Local\Temp\ccz3th6N.s 			page 4


 133              	.LVL15:
 134 004e 0AE0     		b	.L7
 135              	.LVL16:
 136              	.L8:
 137              	.LBE4:
 138              	.LBB5:
  38:main.c        ****         }
  39:main.c        ****         for(int i=0;i<=255;i++){
  40:main.c        ****             Counter_WriteCompare(i);
 139              		.loc 1 40 0 is_stmt 1 discriminator 3
 140 0050 E5B2     		uxtb	r5, r4
 141 0052 2846     		mov	r0, r5
 142 0054 FFF7FEFF 		bl	Counter_WriteCompare
 143              	.LVL17:
  41:main.c        ****             PWM_WriteCompare(i);
 144              		.loc 1 41 0 discriminator 3
 145 0058 2846     		mov	r0, r5
 146 005a FFF7FEFF 		bl	PWM_WriteCompare
 147              	.LVL18:
  42:main.c        ****             CyDelay(25);
 148              		.loc 1 42 0 discriminator 3
 149 005e 1920     		movs	r0, #25
 150 0060 FFF7FEFF 		bl	CyDelay
 151              	.LVL19:
  39:main.c        ****             Counter_WriteCompare(i);
 152              		.loc 1 39 0 discriminator 3
 153 0064 0134     		adds	r4, r4, #1
 154              	.LVL20:
 155              	.L7:
  39:main.c        ****             Counter_WriteCompare(i);
 156              		.loc 1 39 0 is_stmt 0 discriminator 1
 157 0066 FF2C     		cmp	r4, #255
 158 0068 F2DD     		ble	.L8
 159              	.LBE5:
  33:main.c        ****         for(int i=255;i>=0;i--){
 160              		.loc 1 33 0 is_stmt 1 discriminator 2
 161 006a 0136     		adds	r6, r6, #1
 162              	.LVL21:
 163              	.L5:
  33:main.c        ****         for(int i=255;i>=0;i--){
 164              		.loc 1 33 0 is_stmt 0 discriminator 1
 165 006c 042E     		cmp	r6, #4
 166 006e EADD     		ble	.L12
 167              	.L10:
 168              	.LBE2:
  43:main.c        ****         }
  44:main.c        ****     }
  45:main.c        ****     
  46:main.c        ****     char potencia = 0;//Variable de potencia
  47:main.c        ****     uint8_t actuador = 0;
  48:main.c        ****     for(;;)
  49:main.c        ****     {
  50:main.c        ****         
  51:main.c        ****         //Rutina input del dashboard
  52:main.c        ****         if(flag == 0xFF){//Detectamos si la bandera esytá levantada
 169              		.loc 1 52 0 is_stmt 1
 170 0070 044B     		ldr	r3, .L14+4
ARM GAS  C:\Users\adria\AppData\Local\Temp\ccz3th6N.s 			page 5


 171 0072 1B78     		ldrb	r3, [r3]	@ zero_extendqisi2
 172 0074 FF2B     		cmp	r3, #255
 173 0076 FBD1     		bne	.L10
  53:main.c        ****             flag = ~BIT0;//Tiramos la bandera
 174              		.loc 1 53 0
 175 0078 FE22     		movs	r2, #254
 176 007a 024B     		ldr	r3, .L14+4
 177 007c 1A70     		strb	r2, [r3]
 178 007e F7E7     		b	.L10
 179              	.L15:
 180              		.align	2
 181              	.L14:
 182 0080 00000000 		.word	wifi
 183 0084 00000000 		.word	.LANCHOR0
 184              		.cfi_endproc
 185              	.LFE64:
 186              		.size	main, .-main
 187              		.global	CUPLA
 188              		.global	AIR
 189              		.global	HUM
 190              		.global	PRE
 191              		.global	TEM
 192              		.global	flag
 193              		.data
 194              		.set	.LANCHOR0,. + 0
 195              		.type	flag, %object
 196              		.size	flag, 1
 197              	flag:
 198 0000 FE       		.byte	-2
 199              		.bss
 200              		.type	CUPLA, %object
 201              		.size	CUPLA, 1
 202              	CUPLA:
 203 0000 00       		.space	1
 204              		.type	AIR, %object
 205              		.size	AIR, 1
 206              	AIR:
 207 0001 00       		.space	1
 208              		.type	HUM, %object
 209              		.size	HUM, 1
 210              	HUM:
 211 0002 00       		.space	1
 212              		.type	PRE, %object
 213              		.size	PRE, 1
 214              	PRE:
 215 0003 00       		.space	1
 216              		.type	TEM, %object
 217              		.size	TEM, 1
 218              	TEM:
 219 0004 00       		.space	1
 220              		.text
 221              	.Letext0:
 222              		.file 2 "c:\\program files (x86)\\cypress\\psoc creator\\4.4\\psoc creator\\import\\gnu\\arm\\5.4.
 223              		.file 3 "c:\\program files (x86)\\cypress\\psoc creator\\4.4\\psoc creator\\import\\gnu\\arm\\5.4.
 224              		.file 4 "Generated_Source\\PSoC5/core_cm3.h"
 225              		.file 5 "Generated_Source\\PSoC5/Counter.h"
 226              		.file 6 "Generated_Source\\PSoC5/PWM.h"
ARM GAS  C:\Users\adria\AppData\Local\Temp\ccz3th6N.s 			page 6


 227              		.file 7 "Generated_Source\\PSoC5/CyLib.h"
 228              		.file 8 "Generated_Source\\PSoC5/UART.h"
 229              		.file 9 "Generated_Source\\PSoC5/wifi.h"