ARM GAS  C:\Users\adria\AppData\Local\Temp\ccURo4Ea.s 			page 1


   1              		.syntax unified
   2              		.cpu cortex-m3
   3              		.fpu softvfp
   4              		.eabi_attribute 20, 1
   5              		.eabi_attribute 21, 1
   6              		.eabi_attribute 23, 3
   7              		.eabi_attribute 24, 1
   8              		.eabi_attribute 25, 1
   9              		.eabi_attribute 26, 1
  10              		.eabi_attribute 30, 1
  11              		.eabi_attribute 34, 1
  12              		.eabi_attribute 18, 4
  13              		.thumb
  14              		.syntax unified
  15              		.file	"main.c"
  16              		.text
  17              	.Ltext0:
  18              		.cfi_sections	.debug_frame
  19              		.section	.text.sensado,"ax",%progbits
  20              		.align	2
  21              		.global	sensado
  22              		.thumb
  23              		.thumb_func
  24              		.type	sensado, %function
  25              	sensado:
  26              	.LFB64:
  27              		.file 1 "main.c"
   1:main.c        **** #include "project.h"
   2:main.c        **** #include "stdio.h"
   3:main.c        **** #include "math.h"
   4:main.c        **** 
   5:main.c        **** #include "..\..\FINAL_vilchis\PID_anticolision.cydsn\filtros.h"
   6:main.c        **** #include "..\..\PROYECTO_IOT\MAX6675.cydsn\MAX6675_.h"
   7:main.c        **** #include "..\..\FINAL_vilchis\PID_anticolision.cydsn\PID.h"
   8:main.c        **** #include "D:\GITHUB\Librerias_PSOC\Libreria_PSOC\LIB_psoc.h"
   9:main.c        **** #include "..\..\lcd_7seg\Workspace01\LCD.cydsn\PSOC_LCD.h"
  10:main.c        **** 
  11:main.c        **** //Subrutina de la interrupcion para sampling
  12:main.c        **** uint8_t sens_flag = ~BIT0;
  13:main.c        **** CY_ISR(sensado){
  28              		.loc 1 13 0
  29              		.cfi_startproc
  30              		@ args = 0, pretend = 0, frame = 0
  31              		@ frame_needed = 0, uses_anonymous_args = 0
  32 0000 08B5     		push	{r3, lr}
  33              		.cfi_def_cfa_offset 8
  34              		.cfi_offset 3, -8
  35              		.cfi_offset 14, -4
  14:main.c        ****     sensado_ClearPending();
  36              		.loc 1 14 0
  37 0002 FFF7FEFF 		bl	sensado_ClearPending
  38              	.LVL0:
  15:main.c        ****     
  16:main.c        ****     sens_flag = BIT0;
  39              		.loc 1 16 0
  40 0006 0122     		movs	r2, #1
  41 0008 014B     		ldr	r3, .L3
ARM GAS  C:\Users\adria\AppData\Local\Temp\ccURo4Ea.s 			page 2


  42 000a 1A70     		strb	r2, [r3]
  43 000c 08BD     		pop	{r3, pc}
  44              	.L4:
  45 000e 00BF     		.align	2
  46              	.L3:
  47 0010 00000000 		.word	.LANCHOR0
  48              		.cfi_endproc
  49              	.LFE64:
  50              		.size	sensado, .-sensado
  51              		.section	.text.interfaz,"ax",%progbits
  52              		.align	2
  53              		.global	interfaz
  54              		.thumb
  55              		.thumb_func
  56              		.type	interfaz, %function
  57              	interfaz:
  58              	.LFB65:
  17:main.c        **** }
  18:main.c        **** 
  19:main.c        **** //Subrutina para interactuar con Labwiev
  20:main.c        **** uint8_t interfaz_lab = ~BIT0;
  21:main.c        **** CY_ISR(interfaz){
  59              		.loc 1 21 0
  60              		.cfi_startproc
  61              		@ args = 0, pretend = 0, frame = 0
  62              		@ frame_needed = 0, uses_anonymous_args = 0
  63 0000 08B5     		push	{r3, lr}
  64              		.cfi_def_cfa_offset 8
  65              		.cfi_offset 3, -8
  66              		.cfi_offset 14, -4
  22:main.c        ****     interfaz_ClearPending();
  67              		.loc 1 22 0
  68 0002 FFF7FEFF 		bl	interfaz_ClearPending
  69              	.LVL1:
  23:main.c        ****     
  24:main.c        ****     interfaz_lab = BIT0;
  70              		.loc 1 24 0
  71 0006 0122     		movs	r2, #1
  72 0008 014B     		ldr	r3, .L7
  73 000a 5A70     		strb	r2, [r3, #1]
  74 000c 08BD     		pop	{r3, pc}
  75              	.L8:
  76 000e 00BF     		.align	2
  77              	.L7:
  78 0010 00000000 		.word	.LANCHOR0
  79              		.cfi_endproc
  80              	.LFE65:
  81              		.size	interfaz, .-interfaz
  82              		.section	.text.DIS_0,"ax",%progbits
  83              		.align	2
  84              		.global	DIS_0
  85              		.thumb
  86              		.thumb_func
  87              		.type	DIS_0, %function
  88              	DIS_0:
  89              	.LFB66:
  25:main.c        **** }
ARM GAS  C:\Users\adria\AppData\Local\Temp\ccURo4Ea.s 			page 3


  26:main.c        **** 
  27:main.c        **** /*
  28:main.c        ****     RUTINAS DE DISPARA PARA LOS CONTROLES POR FASE
  29:main.c        **** */
  30:main.c        **** uint8_t Disparadores_reg=0;
  31:main.c        **** 
  32:main.c        **** CY_ISR(DIS_0){
  90              		.loc 1 32 0
  91              		.cfi_startproc
  92              		@ args = 0, pretend = 0, frame = 0
  93              		@ frame_needed = 0, uses_anonymous_args = 0
  94 0000 10B5     		push	{r4, lr}
  95              		.cfi_def_cfa_offset 8
  96              		.cfi_offset 4, -8
  97              		.cfi_offset 14, -4
  33:main.c        ****     DIS_0_ClearPending();
  98              		.loc 1 33 0
  99 0002 FFF7FEFF 		bl	DIS_0_ClearPending
 100              	.LVL2:
  34:main.c        ****     
  35:main.c        ****     Disparadores_reg = DISPARADORES_Read();//Leemos estadoa ctual de los disparos
 101              		.loc 1 35 0
 102 0006 FFF7FEFF 		bl	DISPARADORES_Read
 103              	.LVL3:
 104 000a 074C     		ldr	r4, .L11
 105 000c 2070     		strb	r0, [r4]
  36:main.c        ****     
  37:main.c        ****     DISPARADORES_Write(Disparadores_reg | BIT0);
 106              		.loc 1 37 0
 107 000e 40F00100 		orr	r0, r0, #1
 108 0012 FFF7FEFF 		bl	DISPARADORES_Write
 109              	.LVL4:
  38:main.c        ****     CyDelayUs(10);
 110              		.loc 1 38 0
 111 0016 0A20     		movs	r0, #10
 112 0018 FFF7FEFF 		bl	CyDelayUs
 113              	.LVL5:
  39:main.c        ****     DISPARADORES_Write(Disparadores_reg & (~BIT0));
 114              		.loc 1 39 0
 115 001c 2078     		ldrb	r0, [r4]	@ zero_extendqisi2
 116 001e 00F0FE00 		and	r0, r0, #254
 117 0022 FFF7FEFF 		bl	DISPARADORES_Write
 118              	.LVL6:
 119 0026 10BD     		pop	{r4, pc}
 120              	.L12:
 121              		.align	2
 122              	.L11:
 123 0028 00000000 		.word	.LANCHOR1
 124              		.cfi_endproc
 125              	.LFE66:
 126              		.size	DIS_0, .-DIS_0
 127              		.section	.text.DIS_1,"ax",%progbits
 128              		.align	2
 129              		.global	DIS_1
 130              		.thumb
 131              		.thumb_func
 132              		.type	DIS_1, %function
ARM GAS  C:\Users\adria\AppData\Local\Temp\ccURo4Ea.s 			page 4


 133              	DIS_1:
 134              	.LFB67:
  40:main.c        ****     
  41:main.c        **** }
  42:main.c        **** 
  43:main.c        **** CY_ISR(DIS_1){
 135              		.loc 1 43 0
 136              		.cfi_startproc
 137              		@ args = 0, pretend = 0, frame = 0
 138              		@ frame_needed = 0, uses_anonymous_args = 0
 139 0000 10B5     		push	{r4, lr}
 140              		.cfi_def_cfa_offset 8
 141              		.cfi_offset 4, -8
 142              		.cfi_offset 14, -4
  44:main.c        ****     DIS_1_ClearPending();
 143              		.loc 1 44 0
 144 0002 FFF7FEFF 		bl	DIS_1_ClearPending
 145              	.LVL7:
  45:main.c        ****     
  46:main.c        ****     Disparadores_reg = DISPARADORES_Read();//Leemos estadoa ctual de los disparos
 146              		.loc 1 46 0
 147 0006 FFF7FEFF 		bl	DISPARADORES_Read
 148              	.LVL8:
 149 000a 074C     		ldr	r4, .L15
 150 000c 2070     		strb	r0, [r4]
  47:main.c        ****     
  48:main.c        ****     DISPARADORES_Write(Disparadores_reg | BIT1);
 151              		.loc 1 48 0
 152 000e 40F00200 		orr	r0, r0, #2
 153 0012 FFF7FEFF 		bl	DISPARADORES_Write
 154              	.LVL9:
  49:main.c        ****     CyDelayUs(10);
 155              		.loc 1 49 0
 156 0016 0A20     		movs	r0, #10
 157 0018 FFF7FEFF 		bl	CyDelayUs
 158              	.LVL10:
  50:main.c        ****     DISPARADORES_Write(Disparadores_reg & (~BIT1));
 159              		.loc 1 50 0
 160 001c 2078     		ldrb	r0, [r4]	@ zero_extendqisi2
 161 001e 00F0FD00 		and	r0, r0, #253
 162 0022 FFF7FEFF 		bl	DISPARADORES_Write
 163              	.LVL11:
 164 0026 10BD     		pop	{r4, pc}
 165              	.L16:
 166              		.align	2
 167              	.L15:
 168 0028 00000000 		.word	.LANCHOR1
 169              		.cfi_endproc
 170              	.LFE67:
 171              		.size	DIS_1, .-DIS_1
 172              		.section	.text.DIS_2,"ax",%progbits
 173              		.align	2
 174              		.global	DIS_2
 175              		.thumb
 176              		.thumb_func
 177              		.type	DIS_2, %function
 178              	DIS_2:
ARM GAS  C:\Users\adria\AppData\Local\Temp\ccURo4Ea.s 			page 5


 179              	.LFB68:
  51:main.c        ****     
  52:main.c        **** }
  53:main.c        **** 
  54:main.c        **** CY_ISR(DIS_2){
 180              		.loc 1 54 0
 181              		.cfi_startproc
 182              		@ args = 0, pretend = 0, frame = 0
 183              		@ frame_needed = 0, uses_anonymous_args = 0
 184 0000 10B5     		push	{r4, lr}
 185              		.cfi_def_cfa_offset 8
 186              		.cfi_offset 4, -8
 187              		.cfi_offset 14, -4
  55:main.c        ****     DIS_2_ClearPending();
 188              		.loc 1 55 0
 189 0002 FFF7FEFF 		bl	DIS_2_ClearPending
 190              	.LVL12:
  56:main.c        ****     
  57:main.c        ****     Disparadores_reg = DISPARADORES_Read();//Leemos estadoa ctual de los disparos
 191              		.loc 1 57 0
 192 0006 FFF7FEFF 		bl	DISPARADORES_Read
 193              	.LVL13:
 194 000a 074C     		ldr	r4, .L19
 195 000c 2070     		strb	r0, [r4]
  58:main.c        ****     
  59:main.c        ****     DISPARADORES_Write(Disparadores_reg | BIT2);
 196              		.loc 1 59 0
 197 000e 40F00400 		orr	r0, r0, #4
 198 0012 FFF7FEFF 		bl	DISPARADORES_Write
 199              	.LVL14:
  60:main.c        ****     CyDelayUs(10);
 200              		.loc 1 60 0
 201 0016 0A20     		movs	r0, #10
 202 0018 FFF7FEFF 		bl	CyDelayUs
 203              	.LVL15:
  61:main.c        ****     DISPARADORES_Write(Disparadores_reg & (~BIT2));
 204              		.loc 1 61 0
 205 001c 2078     		ldrb	r0, [r4]	@ zero_extendqisi2
 206 001e 00F0FB00 		and	r0, r0, #251
 207 0022 FFF7FEFF 		bl	DISPARADORES_Write
 208              	.LVL16:
 209 0026 10BD     		pop	{r4, pc}
 210              	.L20:
 211              		.align	2
 212              	.L19:
 213 0028 00000000 		.word	.LANCHOR1
 214              		.cfi_endproc
 215              	.LFE68:
 216              		.size	DIS_2, .-DIS_2
 217              		.global	__aeabi_ui2f
 218              		.global	__aeabi_f2uiz
 219              		.global	__aeabi_ui2d
 220              		.global	__aeabi_i2d
 221              		.global	__aeabi_dmul
 222              		.global	__aeabi_f2d
 223              		.global	__aeabi_dadd
 224              		.global	__aeabi_d2f
ARM GAS  C:\Users\adria\AppData\Local\Temp\ccURo4Ea.s 			page 6


 225              		.global	__aeabi_i2f
 226              		.global	__aeabi_fadd
 227              		.global	__aeabi_fsub
 228              		.global	__aeabi_fmul
 229              		.section	.text.main,"ax",%progbits
 230              		.align	2
 231              		.global	main
 232              		.thumb
 233              		.thumb_func
 234              		.type	main, %function
 235              	main:
 236              	.LFB69:
  62:main.c        ****     
  63:main.c        **** }
  64:main.c        **** 
  65:main.c        **** 
  66:main.c        **** int main(void)
  67:main.c        **** {
 237              		.loc 1 67 0
 238              		.cfi_startproc
 239              		@ args = 0, pretend = 0, frame = 144
 240              		@ frame_needed = 0, uses_anonymous_args = 0
 241 0000 2DE9F04F 		push	{r4, r5, r6, r7, r8, r9, r10, fp, lr}
 242              		.cfi_def_cfa_offset 36
 243              		.cfi_offset 4, -36
 244              		.cfi_offset 5, -32
 245              		.cfi_offset 6, -28
 246              		.cfi_offset 7, -24
 247              		.cfi_offset 8, -20
 248              		.cfi_offset 9, -16
 249              		.cfi_offset 10, -12
 250              		.cfi_offset 11, -8
 251              		.cfi_offset 14, -4
 252 0004 A7B0     		sub	sp, sp, #156
 253              		.cfi_def_cfa_offset 192
  68:main.c        ****     CyGlobalIntEnable; /* Enable global interrupts. */
 254              		.loc 1 68 0
 255              		.syntax unified
 256              	@ 68 "main.c" 1
 257 0006 62B6     		CPSIE   i
 258              	@ 0 "" 2
  69:main.c        ****     /*
  70:main.c        ****       Perifericos
  71:main.c        ****     */
  72:main.c        ****     Timer_0_Start();//Actuadores
 259              		.loc 1 72 0
 260              		.thumb
 261              		.syntax unified
 262 0008 FFF7FEFF 		bl	Timer_0_Start
 263              	.LVL17:
  73:main.c        ****     Timer_1_Start();
 264              		.loc 1 73 0
 265 000c FFF7FEFF 		bl	Timer_1_Start
 266              	.LVL18:
  74:main.c        ****     Timer_2_Start();
 267              		.loc 1 74 0
 268 0010 FFF7FEFF 		bl	Timer_2_Start
ARM GAS  C:\Users\adria\AppData\Local\Temp\ccURo4Ea.s 			page 7


 269              	.LVL19:
  75:main.c        ****     Sampling_Start();//Compas de muestreo
 270              		.loc 1 75 0
 271 0014 FFF7FEFF 		bl	Sampling_Start
 272              	.LVL20:
  76:main.c        ****     UART_Start();//Uart para comunicacion con el usuario-Labwiev
 273              		.loc 1 76 0
 274 0018 FFF7FEFF 		bl	UART_Start
 275              	.LVL21:
  77:main.c        ****     UART_ClearRxBuffer();
 276              		.loc 1 77 0
 277 001c FFF7FEFF 		bl	UART_ClearRxBuffer
 278              	.LVL22:
  78:main.c        ****     UART_ClearTxBuffer();
 279              		.loc 1 78 0
 280 0020 FFF7FEFF 		bl	UART_ClearTxBuffer
 281              	.LVL23:
  79:main.c        ****     SPIM_Start();//Comunicacion con el sensor
 282              		.loc 1 79 0
 283 0024 FFF7FEFF 		bl	SPIM_Start
 284              	.LVL24:
  80:main.c        ****     LCD_Start();//Pantalla lcd
 285              		.loc 1 80 0
 286 0028 FFF7FEFF 		bl	LCD_Start
 287              	.LVL25:
  81:main.c        ****     LCD_ClearDisplay();    
 288              		.loc 1 81 0
 289 002c FFF7FEFF 		bl	LCD_ClearDisplay
 290              	.LVL26:
  82:main.c        ****     
  83:main.c        ****     /*
  84:main.c        ****         Interrupcciones
  85:main.c        ****     */
  86:main.c        ****     sensado_StartEx(sensado); //Para el sambpling
 291              		.loc 1 86 0
 292 0030 B448     		ldr	r0, .L53
 293 0032 FFF7FEFF 		bl	sensado_StartEx
 294              	.LVL27:
  87:main.c        ****     sensado_ClearPending();
 295              		.loc 1 87 0
 296 0036 FFF7FEFF 		bl	sensado_ClearPending
 297              	.LVL28:
  88:main.c        ****     interfaz_StartEx(interfaz);//Para la comunicion con la interfaz de labwiev
 298              		.loc 1 88 0
 299 003a B348     		ldr	r0, .L53+4
 300 003c FFF7FEFF 		bl	interfaz_StartEx
 301              	.LVL29:
  89:main.c        ****     interfaz_ClearPending();
 302              		.loc 1 89 0
 303 0040 FFF7FEFF 		bl	interfaz_ClearPending
 304              	.LVL30:
  90:main.c        ****     DIS_0_StartEx(DIS_0);// interrupciones para el diparon en el control por fase
 305              		.loc 1 90 0
 306 0044 B148     		ldr	r0, .L53+8
 307 0046 FFF7FEFF 		bl	DIS_0_StartEx
 308              	.LVL31:
  91:main.c        ****     DIS_0_ClearPending();
ARM GAS  C:\Users\adria\AppData\Local\Temp\ccURo4Ea.s 			page 8


 309              		.loc 1 91 0
 310 004a FFF7FEFF 		bl	DIS_0_ClearPending
 311              	.LVL32:
  92:main.c        ****     DIS_1_StartEx(DIS_1);// interrupciones para el diparon en el control por fase
 312              		.loc 1 92 0
 313 004e B048     		ldr	r0, .L53+12
 314 0050 FFF7FEFF 		bl	DIS_1_StartEx
 315              	.LVL33:
  93:main.c        ****     DIS_1_ClearPending();
 316              		.loc 1 93 0
 317 0054 FFF7FEFF 		bl	DIS_1_ClearPending
 318              	.LVL34:
  94:main.c        ****     DIS_2_StartEx(DIS_2);// interrupciones para el diparon en el control por fase
 319              		.loc 1 94 0
 320 0058 AE48     		ldr	r0, .L53+16
 321 005a FFF7FEFF 		bl	DIS_2_StartEx
 322              	.LVL35:
  95:main.c        ****     DIS_2_ClearPending();
 323              		.loc 1 95 0
 324 005e FFF7FEFF 		bl	DIS_2_ClearPending
 325              	.LVL36:
  96:main.c        ****     
  97:main.c        ****     //Escogemos un periodo de muestreo
  98:main.c        ****     /*
  99:main.c        ****     Con reloj de 10khz y 2^16 de periodo máximo
 100:main.c        ****     el periodo de muestreo va de 200us-6.554s
 101:main.c        ****     
 102:main.c        ****     1bit es 100us
 103:main.c        ****     */
 104:main.c        ****     Sampling_WritePeriod(10000);
 326              		.loc 1 104 0
 327 0062 42F21070 		movw	r0, #10000
 328 0066 FFF7FEFF 		bl	Sampling_WritePeriod
 329              	.LVL37:
 105:main.c        ****     
 106:main.c        ****     /***
 107:main.c        ****     
 108:main.c        ****     PID PID PID PID PID PID PID PID PID PID PID PID
 109:main.c        ****     Configuración preliminar de conrtol PID
 110:main.c        ****     
 111:main.c        ****     ***/
 112:main.c        ****     PIDController pid_instancia_variables;
 113:main.c        ****     
 114:main.c        ****     //constantes del controlador
 115:main.c        ****     pid_instancia_variables.Kp = 0;
 330              		.loc 1 115 0
 331 006a 0023     		movs	r3, #0
 332 006c 1893     		str	r3, [sp, #96]	@ float
 116:main.c        ****     pid_instancia_variables.Ki = 0;
 333              		.loc 1 116 0
 334 006e 1993     		str	r3, [sp, #100]	@ float
 117:main.c        ****     pid_instancia_variables.Kd = 0;
 335              		.loc 1 117 0
 336 0070 1A93     		str	r3, [sp, #104]	@ float
 118:main.c        ****     
 119:main.c        ****     pid_instancia_variables.tau = 0.25;//filtro pasabaja derivativo
 337              		.loc 1 119 0
ARM GAS  C:\Users\adria\AppData\Local\Temp\ccURo4Ea.s 			page 9


 338 0072 4FF07A52 		mov	r2, #1048576000
 339 0076 1B92     		str	r2, [sp, #108]	@ float
 120:main.c        ****     
 121:main.c        ****     pid_instancia_variables.limMin = 15; //Limites del actuador
 340              		.loc 1 121 0
 341 0078 A74A     		ldr	r2, .L53+20
 342 007a 1C92     		str	r2, [sp, #112]	@ float
 122:main.c        ****     pid_instancia_variables.limMax = 180;
 343              		.loc 1 122 0
 344 007c A74A     		ldr	r2, .L53+24
 345 007e 1D92     		str	r2, [sp, #116]	@ float
 123:main.c        ****     
 124:main.c        ****     pid_instancia_variables.limMinInt = 0;//Limites del integrador WIND-UP/
 346              		.loc 1 124 0
 347 0080 1E93     		str	r3, [sp, #120]	@ float
 125:main.c        ****     pid_instancia_variables.limMaxInt = 150;
 348              		.loc 1 125 0
 349 0082 A74B     		ldr	r3, .L53+28
 350 0084 1F93     		str	r3, [sp, #124]	@ float
 126:main.c        ****     
 127:main.c        ****     pid_instancia_variables.T = 1;//Periodo de muestreo en segundos
 351              		.loc 1 127 0
 352 0086 4FF07E53 		mov	r3, #1065353216
 353 008a 2093     		str	r3, [sp, #128]	@ float
 128:main.c        ****      
 129:main.c        ****     PIDController_Init(&pid_instancia_variables);//Inicializamos constantes y variables
 354              		.loc 1 129 0
 355 008c 18A8     		add	r0, sp, #96
 356 008e FFF7FEFF 		bl	PIDController_Init
 357              	.LVL38:
 130:main.c        ****     
 131:main.c        ****     //INICIALIZAMOS FILTRO PRMEDIADOR
 132:main.c        ****     PromediadorMovil FILTRO;
 133:main.c        ****     inicializarPromediadorMovil(&FILTRO);
 358              		.loc 1 133 0
 359 0092 0EA8     		add	r0, sp, #56
 360 0094 FFF7FEFF 		bl	inicializarPromediadorMovil
 361              	.LVL39:
 134:main.c        ****    
 135:main.c        ****     //Inicializamos sensor themopar
 136:main.c        ****     struct max6675 thermocupla; //Sensor themocupla MAX6675
 137:main.c        ****     
 138:main.c        ****     //Auxiliares
 139:main.c        ****     uint8_t out = 0;
 140:main.c        ****     float temperatura = 0.0;
 141:main.c        ****     float setpoint = 25.0;//Temperatura ambiente
 142:main.c        ****    
 143:main.c        ****     //Variables para el parseo de informacion
 144:main.c        ****     char buffer_Tx[16],buffer_Rx[16];
 145:main.c        ****     uint8_t i = 0; //contador para leer el buffer
 362              		.loc 1 145 0
 363 0098 0025     		movs	r5, #0
 141:main.c        ****    
 364              		.loc 1 141 0
 365 009a A24E     		ldr	r6, .L53+32
 366              	.LVL40:
 367              	.L24:
ARM GAS  C:\Users\adria\AppData\Local\Temp\ccURo4Ea.s 			page 10


 146:main.c        ****     int x;//contador auxiliar para parsear
 147:main.c        ****     uint8_t enteros;
 148:main.c        ****     /// Parseo con punto decimal como caracter 
 149:main.c        ****     char *posicion;// Utilizar la función strchr para encontrar la posición del carácter
 150:main.c        ****     int posicionEnCadena;     
 151:main.c        ****     
 152:main.c        ****     for(;;)
 153:main.c        ****     {
 154:main.c        ****         if(sens_flag == BIT0){//RUTINA PRINCIPAR DEL SISTEMA DE CONTROL
 368              		.loc 1 154 0
 369 009c A24B     		ldr	r3, .L53+36
 370 009e 1B78     		ldrb	r3, [r3]	@ zero_extendqisi2
 371 00a0 012B     		cmp	r3, #1
 372 00a2 54D1     		bne	.L23
 155:main.c        ****             sens_flag = ~BIT0;
 373              		.loc 1 155 0
 374 00a4 FE22     		movs	r2, #254
 375 00a6 A04B     		ldr	r3, .L53+36
 376 00a8 1A70     		strb	r2, [r3]
 156:main.c        ****             
 157:main.c        ****             //Sensamos
 158:main.c        ****             SENS_max6675(&thermocupla);
 377              		.loc 1 158 0
 378 00aa 0BA8     		add	r0, sp, #44
 379 00ac FFF7FEFF 		bl	SENS_max6675
 380              	.LVL41:
 159:main.c        ****             
 160:main.c        ****             //Filtro
 161:main.c        ****             agregarValor(&FILTRO,thermocupla.data.temperatura>>7);
 381              		.loc 1 161 0
 382 00b0 BDF83010 		ldrh	r1, [sp, #48]
 383 00b4 C909     		lsrs	r1, r1, #7
 384 00b6 0EA8     		add	r0, sp, #56
 385 00b8 FFF7FEFF 		bl	agregarValor
 386              	.LVL42:
 162:main.c        ****             temperatura = (float)obtenerPromedioMovil(&FILTRO); // SEÑAL FILTRADA
 387              		.loc 1 162 0
 388 00bc 0EA8     		add	r0, sp, #56
 389 00be FFF7FEFF 		bl	obtenerPromedioMovil
 390              	.LVL43:
 391 00c2 0446     		mov	r4, r0
 392 00c4 FFF7FEFF 		bl	__aeabi_ui2f
 393              	.LVL44:
 394 00c8 0746     		mov	r7, r0
 395              	.LVL45:
 163:main.c        ****             
 164:main.c        ****             //Mostramos en lcd
 165:main.c        ****             LCD_Position(1,0);
 396              		.loc 1 165 0
 397 00ca 0021     		movs	r1, #0
 398 00cc 0120     		movs	r0, #1
 399              	.LVL46:
 400 00ce FFF7FEFF 		bl	LCD_Position
 401              	.LVL47:
 166:main.c        ****             LCD_PrintNumber(temperatura);
 402              		.loc 1 166 0
 403 00d2 2046     		mov	r0, r4
ARM GAS  C:\Users\adria\AppData\Local\Temp\ccURo4Ea.s 			page 11


 404 00d4 FFF7FEFF 		bl	LCD_PrintNumber
 405              	.LVL48:
 167:main.c        ****             LCD_PrintString(" degC      ");
 406              		.loc 1 167 0
 407 00d8 9448     		ldr	r0, .L53+40
 408 00da FFF7FEFF 		bl	LCD_PrintString
 409              	.LVL49:
 168:main.c        ****             
 169:main.c        ****             //Para labwiev
 170:main.c        ****             sprintf(buffer_Tx,"S%ds",(int)temperatura);
 410              		.loc 1 170 0
 411 00de 2246     		mov	r2, r4
 412 00e0 9349     		ldr	r1, .L53+44
 413 00e2 07A8     		add	r0, sp, #28
 414 00e4 FFF7FEFF 		bl	sprintf
 415              	.LVL50:
 171:main.c        ****             UART_PutString(buffer_Tx);//SENSADO
 416              		.loc 1 171 0
 417 00e8 07A8     		add	r0, sp, #28
 418 00ea FFF7FEFF 		bl	UART_PutString
 419              	.LVL51:
 172:main.c        ****                 
 173:main.c        ****             //Controlador PID   
 174:main.c        ****             PIDController_Update(&pid_instancia_variables,setpoint,temperatura); 
 420              		.loc 1 174 0
 421 00ee 3A46     		mov	r2, r7
 422 00f0 3146     		mov	r1, r6
 423 00f2 18A8     		add	r0, sp, #96
 424 00f4 FFF7FEFF 		bl	PIDController_Update
 425              	.LVL52:
 175:main.c        ****             
 176:main.c        ****             //Actualizacion de Actuador_valor_output
 177:main.c        ****             out = (uint8_t)pid_instancia_variables.out;
 426              		.loc 1 177 0
 427 00f8 2598     		ldr	r0, [sp, #148]	@ float
 428 00fa FFF7FEFF 		bl	__aeabi_f2uiz
 429              	.LVL53:
 430 00fe C4B2     		uxtb	r4, r0
 431              	.LVL54:
 178:main.c        ****             
 179:main.c        ****             //Modificamos fisicamente los acuadores
 180:main.c        ****             Timer_0_WritePeriod(map(out,0,180,2,255));
 432              		.loc 1 180 0
 433 0100 FF27     		movs	r7, #255
 434              	.LVL55:
 435 0102 0097     		str	r7, [sp]
 436 0104 0223     		movs	r3, #2
 437 0106 B422     		movs	r2, #180
 438 0108 0021     		movs	r1, #0
 439 010a 2046     		mov	r0, r4
 440 010c FFF7FEFF 		bl	map
 441              	.LVL56:
 442 0110 C0B2     		uxtb	r0, r0
 443 0112 FFF7FEFF 		bl	Timer_0_WritePeriod
 444              	.LVL57:
 181:main.c        ****             Timer_1_WritePeriod(map(out,0,180,2,255));
 445              		.loc 1 181 0
ARM GAS  C:\Users\adria\AppData\Local\Temp\ccURo4Ea.s 			page 12


 446 0116 0097     		str	r7, [sp]
 447 0118 0223     		movs	r3, #2
 448 011a B422     		movs	r2, #180
 449 011c 0021     		movs	r1, #0
 450 011e 2046     		mov	r0, r4
 451 0120 FFF7FEFF 		bl	map
 452              	.LVL58:
 453 0124 C0B2     		uxtb	r0, r0
 454 0126 FFF7FEFF 		bl	Timer_1_WritePeriod
 455              	.LVL59:
 182:main.c        ****             Timer_2_WritePeriod(map(out,0,180,2,255));
 456              		.loc 1 182 0
 457 012a 0097     		str	r7, [sp]
 458 012c 0223     		movs	r3, #2
 459 012e B422     		movs	r2, #180
 460 0130 0021     		movs	r1, #0
 461 0132 2046     		mov	r0, r4
 462 0134 FFF7FEFF 		bl	map
 463              	.LVL60:
 464 0138 C0B2     		uxtb	r0, r0
 465 013a FFF7FEFF 		bl	Timer_2_WritePeriod
 466              	.LVL61:
 183:main.c        ****             
 184:main.c        ****             //Para labwiev
 185:main.c        ****             sprintf(buffer_Tx,"A%da",out);
 467              		.loc 1 185 0
 468 013e 2246     		mov	r2, r4
 469 0140 7C49     		ldr	r1, .L53+48
 470 0142 07A8     		add	r0, sp, #28
 471 0144 FFF7FEFF 		bl	sprintf
 472              	.LVL62:
 186:main.c        ****             UART_PutString(buffer_Tx);//ACTUADOR
 473              		.loc 1 186 0
 474 0148 07A8     		add	r0, sp, #28
 475 014a FFF7FEFF 		bl	UART_PutString
 476              	.LVL63:
 477              	.L23:
 187:main.c        ****         }
 188:main.c        ****         
 189:main.c        ****         if(interfaz_lab == BIT0){//RUTINA DE ACTUALIZADO DE VARIBLES
 478              		.loc 1 189 0
 479 014e 764B     		ldr	r3, .L53+36
 480 0150 5B78     		ldrb	r3, [r3, #1]	@ zero_extendqisi2
 481 0152 012B     		cmp	r3, #1
 482 0154 A2D1     		bne	.L24
 190:main.c        ****             interfaz_lab = ~BIT0;
 483              		.loc 1 190 0
 484 0156 FE22     		movs	r2, #254
 485 0158 734B     		ldr	r3, .L53+36
 486 015a 5A70     		strb	r2, [r3, #1]
 191:main.c        ****             
 192:main.c        ****             buffer_Rx[i] =  UART_GetByte();//Agregamos al arreglo el ascci del caracter recibido
 487              		.loc 1 192 0
 488 015c FFF7FEFF 		bl	UART_GetByte
 489              	.LVL64:
 490 0160 26AB     		add	r3, sp, #152
 491 0162 2B44     		add	r3, r3, r5
ARM GAS  C:\Users\adria\AppData\Local\Temp\ccURo4Ea.s 			page 13


 492 0164 03F88C0C 		strb	r0, [r3, #-140]
 193:main.c        ****             i++;
 493              		.loc 1 193 0
 494 0168 0135     		adds	r5, r5, #1
 495              	.LVL65:
 496 016a EDB2     		uxtb	r5, r5
 497              	.LVL66:
 194:main.c        ****             
 195:main.c        ****             if(buffer_Rx[i-1] == 'S'){ //REBIZAMOS EL BUFFER SETPOINT
 498              		.loc 1 195 0
 499 016c 2F46     		mov	r7, r5
 500 016e 6B1E     		subs	r3, r5, #1
 501 0170 26AA     		add	r2, sp, #152
 502 0172 1344     		add	r3, r3, r2
 503 0174 13F88C3C 		ldrb	r3, [r3, #-140]	@ zero_extendqisi2
 504 0178 532B     		cmp	r3, #83
 505 017a 48D1     		bne	.L26
 506 017c 27E0     		b	.L51
 507              	.LVL67:
 508              	.L27:
 196:main.c        ****                 setpoint = 0;                    // Limpiar valor de SP
 197:main.c        ****                         
 198:main.c        ****                 //Parseamos
 199:main.c        ****                 x = -2;
 200:main.c        ****                 enteros = 0;
 201:main.c        ****                 while ((i+x)>=0){
 202:main.c        ****                 
 203:main.c        ****                     setpoint += (buffer_Rx[i+x] - 0x30) * pow(10.0,enteros);
 509              		.loc 1 203 0
 510 017e 26AA     		add	r2, sp, #152
 511 0180 1344     		add	r3, r3, r2
 512 0182 13F88CAC 		ldrb	r10, [r3, #-140]	@ zero_extendqisi2
 513 0186 AAF1300A 		sub	r10, r10, #48
 514 018a 2046     		mov	r0, r4
 515 018c FFF7FEFF 		bl	__aeabi_ui2d
 516              	.LVL68:
 517 0190 0246     		mov	r2, r0
 518 0192 0B46     		mov	r3, r1
 519 0194 0020     		movs	r0, #0
 520 0196 6849     		ldr	r1, .L53+52
 521 0198 FFF7FEFF 		bl	pow
 522              	.LVL69:
 523 019c 8046     		mov	r8, r0
 524 019e 8946     		mov	r9, r1
 525 01a0 5046     		mov	r0, r10
 526 01a2 FFF7FEFF 		bl	__aeabi_i2d
 527              	.LVL70:
 528 01a6 4246     		mov	r2, r8
 529 01a8 4B46     		mov	r3, r9
 530 01aa FFF7FEFF 		bl	__aeabi_dmul
 531              	.LVL71:
 532 01ae 8046     		mov	r8, r0
 533 01b0 8946     		mov	r9, r1
 534 01b2 3046     		mov	r0, r6
 535 01b4 FFF7FEFF 		bl	__aeabi_f2d
 536              	.LVL72:
 537 01b8 4246     		mov	r2, r8
ARM GAS  C:\Users\adria\AppData\Local\Temp\ccURo4Ea.s 			page 14


 538 01ba 4B46     		mov	r3, r9
 539 01bc FFF7FEFF 		bl	__aeabi_dadd
 540              	.LVL73:
 541 01c0 FFF7FEFF 		bl	__aeabi_d2f
 542              	.LVL74:
 543 01c4 0646     		mov	r6, r0
 544              	.LVL75:
 204:main.c        ****                     
 205:main.c        ****                     x--;//Recorremos una posicion del string
 545              		.loc 1 205 0
 546 01c6 013D     		subs	r5, r5, #1
 547              	.LVL76:
 206:main.c        ****                     enteros++;
 548              		.loc 1 206 0
 549 01c8 0134     		adds	r4, r4, #1
 550              	.LVL77:
 551 01ca E4B2     		uxtb	r4, r4
 552              	.LVL78:
 553 01cc 03E0     		b	.L25
 554              	.LVL79:
 555              	.L51:
 556 01ce 0024     		movs	r4, #0
 557 01d0 6FF00105 		mvn	r5, #1
 558              	.LVL80:
 559 01d4 0026     		movs	r6, #0
 560              	.LVL81:
 561              	.L25:
 201:main.c        ****                 
 562              		.loc 1 201 0
 563 01d6 EB19     		adds	r3, r5, r7
 564 01d8 D1D5     		bpl	.L27
 565 01da 0023     		movs	r3, #0
 566 01dc 05E0     		b	.L28
 567              	.LVL82:
 568              	.L29:
 569              	.LBB2:
 207:main.c        ****                 }
 208:main.c        ****                 
 209:main.c        ****                 i=0;  
 210:main.c        ****                 
 211:main.c        ****                 for(int i=0;i<16;i++){//limpiamos buffer
 212:main.c        ****                     buffer_Rx[i] = 0;
 570              		.loc 1 212 0 discriminator 3
 571 01de 26AA     		add	r2, sp, #152
 572 01e0 1A44     		add	r2, r2, r3
 573 01e2 0021     		movs	r1, #0
 574 01e4 02F88C1C 		strb	r1, [r2, #-140]
 211:main.c        ****                     buffer_Rx[i] = 0;
 575              		.loc 1 211 0 discriminator 3
 576 01e8 0133     		adds	r3, r3, #1
 577              	.LVL83:
 578              	.L28:
 211:main.c        ****                     buffer_Rx[i] = 0;
 579              		.loc 1 211 0 is_stmt 0 discriminator 1
 580 01ea 0F2B     		cmp	r3, #15
 581 01ec F7DD     		ble	.L29
 582              	.LBE2:
ARM GAS  C:\Users\adria\AppData\Local\Temp\ccURo4Ea.s 			page 15


 213:main.c        ****                 }
 214:main.c        ****                 
 215:main.c        ****                 //Mostramos en lcd
 216:main.c        ****                 LCD_Position(0,0);
 583              		.loc 1 216 0 is_stmt 1
 584 01ee 0021     		movs	r1, #0
 585 01f0 0846     		mov	r0, r1
 586 01f2 FFF7FEFF 		bl	LCD_Position
 587              	.LVL84:
 217:main.c        ****                 LCD_PrintString("SP: ");
 588              		.loc 1 217 0
 589 01f6 5148     		ldr	r0, .L53+56
 590 01f8 FFF7FEFF 		bl	LCD_PrintString
 591              	.LVL85:
 218:main.c        ****                 LCD_PrintNumber(setpoint);
 592              		.loc 1 218 0
 593 01fc 3046     		mov	r0, r6
 594 01fe FFF7FEFF 		bl	__aeabi_f2uiz
 595              	.LVL86:
 596 0202 FFF7FEFF 		bl	LCD_PrintNumber
 597              	.LVL87:
 219:main.c        ****                 LCD_PrintString(" degC  ");
 598              		.loc 1 219 0
 599 0206 4E48     		ldr	r0, .L53+60
 600 0208 FFF7FEFF 		bl	LCD_PrintString
 601              	.LVL88:
 209:main.c        ****                 
 602              		.loc 1 209 0
 603 020c 0025     		movs	r5, #0
 604              	.LVL89:
 605              	.L26:
 220:main.c        ****                 
 221:main.c        ****                 
 222:main.c        ****             }
 223:main.c        ****             
 224:main.c        ****             if(buffer_Rx[i-1] == 'P'){ //REBIZAMOS EL KP
 606              		.loc 1 224 0
 607 020e A846     		mov	r8, r5
 608 0210 6B1E     		subs	r3, r5, #1
 609 0212 26AA     		add	r2, sp, #152
 610 0214 1344     		add	r3, r3, r2
 611 0216 13F88C3C 		ldrb	r3, [r3, #-140]	@ zero_extendqisi2
 612 021a 502B     		cmp	r3, #80
 613 021c 5DD1     		bne	.L30
 225:main.c        ****                 pid_instancia_variables.Kp = 0;                    // Limpiar valor de SP
 614              		.loc 1 225 0
 615 021e 0023     		movs	r3, #0
 616 0220 1893     		str	r3, [sp, #96]	@ float
 617              	.LVL90:
 226:main.c        ****                 
 227:main.c        ****                 //Parseamos
 228:main.c        ****                 x = -2;
 229:main.c        ****                 
 230:main.c        ****                 //Encontramos la posicion del punto dentro de la cadena
 231:main.c        ****                 posicion = strchr(buffer_Rx, '.');
 618              		.loc 1 231 0
 619 0222 0DF10C09 		add	r9, sp, #12
ARM GAS  C:\Users\adria\AppData\Local\Temp\ccURo4Ea.s 			page 16


 620 0226 2E21     		movs	r1, #46
 621 0228 4846     		mov	r0, r9
 622 022a FFF7FEFF 		bl	strchr
 623              	.LVL91:
 232:main.c        ****                 posicionEnCadena = posicion - buffer_Rx;
 624              		.loc 1 232 0
 625 022e C9EB0009 		rsb	r9, r9, r0
 626              	.LVL92:
 228:main.c        ****                 
 627              		.loc 1 228 0
 628 0232 6FF00104 		mvn	r4, #1
 233:main.c        ****                 
 234:main.c        ****                 while (buffer_Rx[i+x] != '.'){//Miestras sea la parte decimal
 629              		.loc 1 234 0
 630 0236 24E0     		b	.L31
 631              	.LVL93:
 632              	.L32:
 235:main.c        ****                 
 236:main.c        **** 
 237:main.c        ****                     pid_instancia_variables.Kp += (buffer_Rx[i+x] - 0x30) * powf(0.1,(float)i+x-pos
 633              		.loc 1 237 0
 634 0238 A0F13007 		sub	r7, r0, #48
 635 023c 2846     		mov	r0, r5
 636 023e FFF7FEFF 		bl	__aeabi_ui2f
 637              	.LVL94:
 638 0242 8246     		mov	r10, r0
 639 0244 2046     		mov	r0, r4
 640 0246 FFF7FEFF 		bl	__aeabi_i2f
 641              	.LVL95:
 642 024a 5146     		mov	r1, r10
 643 024c FFF7FEFF 		bl	__aeabi_fadd
 644              	.LVL96:
 645 0250 8246     		mov	r10, r0
 646 0252 4846     		mov	r0, r9
 647 0254 FFF7FEFF 		bl	__aeabi_i2f
 648              	.LVL97:
 649 0258 0146     		mov	r1, r0
 650 025a 5046     		mov	r0, r10
 651 025c FFF7FEFF 		bl	__aeabi_fsub
 652              	.LVL98:
 653 0260 0146     		mov	r1, r0
 654 0262 3848     		ldr	r0, .L53+64
 655 0264 FFF7FEFF 		bl	powf
 656              	.LVL99:
 657 0268 8246     		mov	r10, r0
 658 026a 3846     		mov	r0, r7
 659 026c FFF7FEFF 		bl	__aeabi_i2f
 660              	.LVL100:
 661 0270 5146     		mov	r1, r10
 662 0272 FFF7FEFF 		bl	__aeabi_fmul
 663              	.LVL101:
 664 0276 0146     		mov	r1, r0
 665 0278 1898     		ldr	r0, [sp, #96]	@ float
 666 027a FFF7FEFF 		bl	__aeabi_fadd
 667              	.LVL102:
 668 027e 1890     		str	r0, [sp, #96]	@ float
 238:main.c        ****                     
ARM GAS  C:\Users\adria\AppData\Local\Temp\ccURo4Ea.s 			page 17


 239:main.c        ****                     x--;//Recorremos una posicion del string
 669              		.loc 1 239 0
 670 0280 013C     		subs	r4, r4, #1
 671              	.LVL103:
 672              	.L31:
 234:main.c        ****                 
 673              		.loc 1 234 0
 674 0282 04EB0803 		add	r3, r4, r8
 675 0286 26AA     		add	r2, sp, #152
 676 0288 1344     		add	r3, r3, r2
 677 028a 13F88C0C 		ldrb	r0, [r3, #-140]	@ zero_extendqisi2
 678 028e 2E28     		cmp	r0, #46
 679 0290 D2D1     		bne	.L32
 680              	.LVL104:
 240:main.c        ****                 }
 241:main.c        ****                 
 242:main.c        ****                 enteros = 0;
 243:main.c        ****                 x--;//Nos saltamos el punto 
 681              		.loc 1 243 0
 682 0292 013C     		subs	r4, r4, #1
 683              	.LVL105:
 244:main.c        ****                 while ((i+x)>=0){//Pate entera
 684              		.loc 1 244 0
 685 0294 13E0     		b	.L33
 686              	.L34:
 245:main.c        ****                 
 246:main.c        ****                     pid_instancia_variables.Kp += (buffer_Rx[i+x] - 0x30) * pow(10.0,enteros);
 687              		.loc 1 246 0
 688 0296 26AA     		add	r2, sp, #152
 689 0298 1344     		add	r3, r3, r2
 690 029a 13F88C0C 		ldrb	r0, [r3, #-140]	@ zero_extendqisi2
 691 029e 3038     		subs	r0, r0, #48
 692 02a0 FFF7FEFF 		bl	__aeabi_i2d
 693              	.LVL106:
 694 02a4 8246     		mov	r10, r0
 695 02a6 8B46     		mov	fp, r1
 696 02a8 1898     		ldr	r0, [sp, #96]	@ float
 697 02aa FFF7FEFF 		bl	__aeabi_f2d
 698              	.LVL107:
 699 02ae 5246     		mov	r2, r10
 700 02b0 5B46     		mov	r3, fp
 701 02b2 FFF7FEFF 		bl	__aeabi_dadd
 702              	.LVL108:
 703 02b6 FFF7FEFF 		bl	__aeabi_d2f
 704              	.LVL109:
 705 02ba 1890     		str	r0, [sp, #96]	@ float
 247:main.c        ****                     
 248:main.c        ****                     x--;//Recorremos una posicion del string
 706              		.loc 1 248 0
 707 02bc 013C     		subs	r4, r4, #1
 708              	.LVL110:
 709              	.L33:
 244:main.c        ****                 
 710              		.loc 1 244 0
 711 02be 14EB0803 		adds	r3, r4, r8
 712 02c2 E8D5     		bpl	.L34
 713 02c4 0023     		movs	r3, #0
ARM GAS  C:\Users\adria\AppData\Local\Temp\ccURo4Ea.s 			page 18


 714 02c6 05E0     		b	.L35
 715              	.LVL111:
 716              	.L36:
 717              	.LBB3:
 249:main.c        ****                 }
 250:main.c        ****                 
 251:main.c        ****                 i=0;  
 252:main.c        ****                 
 253:main.c        ****                 for(int i=0;i<16;i++){//limpiamos buffer
 254:main.c        ****                     buffer_Rx[i] = 0;
 718              		.loc 1 254 0 discriminator 3
 719 02c8 26AA     		add	r2, sp, #152
 720 02ca 1A44     		add	r2, r2, r3
 721 02cc 0021     		movs	r1, #0
 722 02ce 02F88C1C 		strb	r1, [r2, #-140]
 253:main.c        ****                     buffer_Rx[i] = 0;
 723              		.loc 1 253 0 discriminator 3
 724 02d2 0133     		adds	r3, r3, #1
 725              	.LVL112:
 726              	.L35:
 253:main.c        ****                     buffer_Rx[i] = 0;
 727              		.loc 1 253 0 is_stmt 0 discriminator 1
 728 02d4 0F2B     		cmp	r3, #15
 729 02d6 F7DD     		ble	.L36
 730              	.LBE3:
 251:main.c        ****                 
 731              		.loc 1 251 0 is_stmt 1
 732 02d8 0025     		movs	r5, #0
 733              	.LVL113:
 734              	.L30:
 255:main.c        ****                 }
 256:main.c        ****             }
 257:main.c        ****             
 258:main.c        ****             if(buffer_Rx[i-1] == 'I'){ //REBIZAMOS EL KI
 735              		.loc 1 258 0
 736 02da A846     		mov	r8, r5
 737 02dc 6B1E     		subs	r3, r5, #1
 738 02de 26AA     		add	r2, sp, #152
 739 02e0 1344     		add	r3, r3, r2
 740 02e2 13F88C3C 		ldrb	r3, [r3, #-140]	@ zero_extendqisi2
 741 02e6 492B     		cmp	r3, #73
 742 02e8 7FD1     		bne	.L37
 259:main.c        ****                 pid_instancia_variables.Ki = 0;
 743              		.loc 1 259 0
 744 02ea 0023     		movs	r3, #0
 745 02ec 1993     		str	r3, [sp, #100]	@ float
 746              	.LVL114:
 260:main.c        ****                 
 261:main.c        ****                 //Parseamos
 262:main.c        ****                 x = -2;
 263:main.c        ****                 
 264:main.c        ****                 //Encontramos la posicion del punto dentro de la cadena
 265:main.c        ****                 posicion = strchr(buffer_Rx, '.');
 747              		.loc 1 265 0
 748 02ee 0DF10C09 		add	r9, sp, #12
 749 02f2 2E21     		movs	r1, #46
 750 02f4 4846     		mov	r0, r9
ARM GAS  C:\Users\adria\AppData\Local\Temp\ccURo4Ea.s 			page 19


 751 02f6 FFF7FEFF 		bl	strchr
 752              	.LVL115:
 266:main.c        ****                 posicionEnCadena = posicion - buffer_Rx;
 753              		.loc 1 266 0
 754 02fa C9EB0009 		rsb	r9, r9, r0
 755              	.LVL116:
 262:main.c        ****                 
 756              		.loc 1 262 0
 757 02fe 6FF00104 		mvn	r4, #1
 267:main.c        ****                 
 268:main.c        ****                 while (buffer_Rx[i+x] != '.'){//Miestras sea la parte decimal
 758              		.loc 1 268 0
 759 0302 46E0     		b	.L38
 760              	.L54:
 761              		.align	2
 762              	.L53:
 763 0304 00000000 		.word	sensado
 764 0308 00000000 		.word	interfaz
 765 030c 00000000 		.word	DIS_0
 766 0310 00000000 		.word	DIS_1
 767 0314 00000000 		.word	DIS_2
 768 0318 00007041 		.word	1097859072
 769 031c 00003443 		.word	1127481344
 770 0320 00001643 		.word	1125515264
 771 0324 0000C841 		.word	1103626240
 772 0328 00000000 		.word	.LANCHOR0
 773 032c 00000000 		.word	.LC0
 774 0330 0C000000 		.word	.LC1
 775 0334 14000000 		.word	.LC2
 776 0338 00002440 		.word	1076101120
 777 033c 1C000000 		.word	.LC3
 778 0340 24000000 		.word	.LC4
 779 0344 CDCCCC3D 		.word	1036831949
 780              	.LVL117:
 781              	.L39:
 269:main.c        ****                 
 270:main.c        **** 
 271:main.c        ****                     pid_instancia_variables.Ki += (buffer_Rx[i+x] - 0x30) * powf(0.1,(float)i+x-pos
 782              		.loc 1 271 0
 783 0348 A0F13007 		sub	r7, r0, #48
 784 034c 2846     		mov	r0, r5
 785 034e FFF7FEFF 		bl	__aeabi_ui2f
 786              	.LVL118:
 787 0352 8246     		mov	r10, r0
 788 0354 2046     		mov	r0, r4
 789 0356 FFF7FEFF 		bl	__aeabi_i2f
 790              	.LVL119:
 791 035a 5146     		mov	r1, r10
 792 035c FFF7FEFF 		bl	__aeabi_fadd
 793              	.LVL120:
 794 0360 8246     		mov	r10, r0
 795 0362 4846     		mov	r0, r9
 796 0364 FFF7FEFF 		bl	__aeabi_i2f
 797              	.LVL121:
 798 0368 0146     		mov	r1, r0
 799 036a 5046     		mov	r0, r10
 800 036c FFF7FEFF 		bl	__aeabi_fsub
ARM GAS  C:\Users\adria\AppData\Local\Temp\ccURo4Ea.s 			page 20


 801              	.LVL122:
 802 0370 0146     		mov	r1, r0
 803 0372 5248     		ldr	r0, .L55
 804 0374 FFF7FEFF 		bl	powf
 805              	.LVL123:
 806 0378 8246     		mov	r10, r0
 807 037a 3846     		mov	r0, r7
 808 037c FFF7FEFF 		bl	__aeabi_i2f
 809              	.LVL124:
 810 0380 5146     		mov	r1, r10
 811 0382 FFF7FEFF 		bl	__aeabi_fmul
 812              	.LVL125:
 813 0386 0146     		mov	r1, r0
 814 0388 1998     		ldr	r0, [sp, #100]	@ float
 815 038a FFF7FEFF 		bl	__aeabi_fadd
 816              	.LVL126:
 817 038e 1990     		str	r0, [sp, #100]	@ float
 272:main.c        ****                     
 273:main.c        ****                     x--;//Recorremos una posicion del string
 818              		.loc 1 273 0
 819 0390 013C     		subs	r4, r4, #1
 820              	.LVL127:
 821              	.L38:
 268:main.c        ****                 
 822              		.loc 1 268 0
 823 0392 04EB0803 		add	r3, r4, r8
 824 0396 26AA     		add	r2, sp, #152
 825 0398 1344     		add	r3, r3, r2
 826 039a 13F88C0C 		ldrb	r0, [r3, #-140]	@ zero_extendqisi2
 827 039e 2E28     		cmp	r0, #46
 828 03a0 D2D1     		bne	.L39
 829              	.LVL128:
 274:main.c        ****                 }
 275:main.c        ****                 
 276:main.c        ****                 enteros = 0;
 277:main.c        ****                 x--;//Nos saltamos el punto 
 830              		.loc 1 277 0
 831 03a2 013C     		subs	r4, r4, #1
 832              	.LVL129:
 278:main.c        ****                 while ((i+x)>=0){//Pate entera
 833              		.loc 1 278 0
 834 03a4 13E0     		b	.L40
 835              	.L41:
 279:main.c        ****                 
 280:main.c        ****                     pid_instancia_variables.Ki += (buffer_Rx[i+x] - 0x30) * pow(10.0,enteros);
 836              		.loc 1 280 0
 837 03a6 26AA     		add	r2, sp, #152
 838 03a8 1344     		add	r3, r3, r2
 839 03aa 13F88C0C 		ldrb	r0, [r3, #-140]	@ zero_extendqisi2
 840 03ae 3038     		subs	r0, r0, #48
 841 03b0 FFF7FEFF 		bl	__aeabi_i2d
 842              	.LVL130:
 843 03b4 8246     		mov	r10, r0
 844 03b6 8B46     		mov	fp, r1
 845 03b8 1998     		ldr	r0, [sp, #100]	@ float
 846 03ba FFF7FEFF 		bl	__aeabi_f2d
 847              	.LVL131:
ARM GAS  C:\Users\adria\AppData\Local\Temp\ccURo4Ea.s 			page 21


 848 03be 5246     		mov	r2, r10
 849 03c0 5B46     		mov	r3, fp
 850 03c2 FFF7FEFF 		bl	__aeabi_dadd
 851              	.LVL132:
 852 03c6 FFF7FEFF 		bl	__aeabi_d2f
 853              	.LVL133:
 854 03ca 1990     		str	r0, [sp, #100]	@ float
 281:main.c        ****                     
 282:main.c        ****                     x--;//Recorremos una posicion del string
 855              		.loc 1 282 0
 856 03cc 013C     		subs	r4, r4, #1
 857              	.LVL134:
 858              	.L40:
 278:main.c        ****                 
 859              		.loc 1 278 0
 860 03ce 14EB0803 		adds	r3, r4, r8
 861 03d2 E8D5     		bpl	.L41
 862 03d4 0023     		movs	r3, #0
 863 03d6 05E0     		b	.L42
 864              	.LVL135:
 865              	.L43:
 866              	.LBB4:
 283:main.c        ****                 }
 284:main.c        ****                 
 285:main.c        ****                 i=0;
 286:main.c        ****                 
 287:main.c        ****                 for(int i=0;i<16;i++){//limpiamos buffer
 288:main.c        ****                     buffer_Rx[i] = 0;
 867              		.loc 1 288 0 discriminator 3
 868 03d8 26AA     		add	r2, sp, #152
 869 03da 1A44     		add	r2, r2, r3
 870 03dc 0021     		movs	r1, #0
 871 03de 02F88C1C 		strb	r1, [r2, #-140]
 287:main.c        ****                     buffer_Rx[i] = 0;
 872              		.loc 1 287 0 discriminator 3
 873 03e2 0133     		adds	r3, r3, #1
 874              	.LVL136:
 875              	.L42:
 287:main.c        ****                     buffer_Rx[i] = 0;
 876              		.loc 1 287 0 is_stmt 0 discriminator 1
 877 03e4 0F2B     		cmp	r3, #15
 878 03e6 F7DD     		ble	.L43
 879              	.LBE4:
 285:main.c        ****                 
 880              		.loc 1 285 0 is_stmt 1
 881 03e8 0025     		movs	r5, #0
 882              	.LVL137:
 883              	.L37:
 289:main.c        ****                 }
 290:main.c        ****             }
 291:main.c        ****             
 292:main.c        ****             if(buffer_Rx[i-1] == 'D'){ //REBIZAMOS EL KD
 884              		.loc 1 292 0
 885 03ea A846     		mov	r8, r5
 886 03ec 6B1E     		subs	r3, r5, #1
 887 03ee 26AA     		add	r2, sp, #152
 888 03f0 1344     		add	r3, r3, r2
ARM GAS  C:\Users\adria\AppData\Local\Temp\ccURo4Ea.s 			page 22


 889 03f2 13F88C3C 		ldrb	r3, [r3, #-140]	@ zero_extendqisi2
 890 03f6 442B     		cmp	r3, #68
 891 03f8 7FF450AE 		bne	.L24
 293:main.c        ****                 pid_instancia_variables.Kd = 0;
 892              		.loc 1 293 0
 893 03fc 0023     		movs	r3, #0
 894 03fe 1A93     		str	r3, [sp, #104]	@ float
 895              	.LVL138:
 294:main.c        ****                 
 295:main.c        ****                 //Parseamos
 296:main.c        ****                 x = -2;
 297:main.c        ****                 
 298:main.c        ****                 //Encontramos la posicion del punto dentro de la cadena
 299:main.c        ****                 posicion = strchr(buffer_Rx, '.');
 896              		.loc 1 299 0
 897 0400 0DF10C09 		add	r9, sp, #12
 898 0404 2E21     		movs	r1, #46
 899 0406 4846     		mov	r0, r9
 900 0408 FFF7FEFF 		bl	strchr
 901              	.LVL139:
 300:main.c        ****                 posicionEnCadena = posicion - buffer_Rx;
 902              		.loc 1 300 0
 903 040c C9EB0009 		rsb	r9, r9, r0
 904              	.LVL140:
 296:main.c        ****                 
 905              		.loc 1 296 0
 906 0410 6FF00104 		mvn	r4, #1
 301:main.c        ****                 
 302:main.c        ****                 while (buffer_Rx[i+x] != '.'){//Miestras sea la parte decimal
 907              		.loc 1 302 0
 908 0414 24E0     		b	.L45
 909              	.LVL141:
 910              	.L46:
 303:main.c        ****                 
 304:main.c        **** 
 305:main.c        ****                     pid_instancia_variables.Kd += (buffer_Rx[i+x] - 0x30) * powf(0.1,(float)i+x-pos
 911              		.loc 1 305 0
 912 0416 A0F13007 		sub	r7, r0, #48
 913 041a 2846     		mov	r0, r5
 914 041c FFF7FEFF 		bl	__aeabi_ui2f
 915              	.LVL142:
 916 0420 8246     		mov	r10, r0
 917 0422 2046     		mov	r0, r4
 918 0424 FFF7FEFF 		bl	__aeabi_i2f
 919              	.LVL143:
 920 0428 5146     		mov	r1, r10
 921 042a FFF7FEFF 		bl	__aeabi_fadd
 922              	.LVL144:
 923 042e 8246     		mov	r10, r0
 924 0430 4846     		mov	r0, r9
 925 0432 FFF7FEFF 		bl	__aeabi_i2f
 926              	.LVL145:
 927 0436 0146     		mov	r1, r0
 928 0438 5046     		mov	r0, r10
 929 043a FFF7FEFF 		bl	__aeabi_fsub
 930              	.LVL146:
 931 043e 0146     		mov	r1, r0
ARM GAS  C:\Users\adria\AppData\Local\Temp\ccURo4Ea.s 			page 23


 932 0440 1E48     		ldr	r0, .L55
 933 0442 FFF7FEFF 		bl	powf
 934              	.LVL147:
 935 0446 8246     		mov	r10, r0
 936 0448 3846     		mov	r0, r7
 937 044a FFF7FEFF 		bl	__aeabi_i2f
 938              	.LVL148:
 939 044e 5146     		mov	r1, r10
 940 0450 FFF7FEFF 		bl	__aeabi_fmul
 941              	.LVL149:
 942 0454 0146     		mov	r1, r0
 943 0456 1A98     		ldr	r0, [sp, #104]	@ float
 944 0458 FFF7FEFF 		bl	__aeabi_fadd
 945              	.LVL150:
 946 045c 1A90     		str	r0, [sp, #104]	@ float
 306:main.c        ****                     
 307:main.c        ****                     x--;//Recorremos una posicion del string
 947              		.loc 1 307 0
 948 045e 013C     		subs	r4, r4, #1
 949              	.LVL151:
 950              	.L45:
 302:main.c        ****                 
 951              		.loc 1 302 0
 952 0460 04EB0803 		add	r3, r4, r8
 953 0464 26AA     		add	r2, sp, #152
 954 0466 1344     		add	r3, r3, r2
 955 0468 13F88C0C 		ldrb	r0, [r3, #-140]	@ zero_extendqisi2
 956 046c 2E28     		cmp	r0, #46
 957 046e D2D1     		bne	.L46
 958              	.LVL152:
 308:main.c        ****                 }
 309:main.c        ****                 
 310:main.c        ****                 enteros = 0;
 311:main.c        ****                 x--;//Nos saltamos el punto 
 959              		.loc 1 311 0
 960 0470 013C     		subs	r4, r4, #1
 961              	.LVL153:
 312:main.c        ****                 while ((i+x)>=0){//Pate entera
 962              		.loc 1 312 0
 963 0472 13E0     		b	.L47
 964              	.L48:
 313:main.c        ****                 
 314:main.c        ****                     pid_instancia_variables.Kd += (buffer_Rx[i+x] - 0x30) * pow(10.0,enteros);
 965              		.loc 1 314 0
 966 0474 26AA     		add	r2, sp, #152
 967 0476 1344     		add	r3, r3, r2
 968 0478 13F88C0C 		ldrb	r0, [r3, #-140]	@ zero_extendqisi2
 969 047c 3038     		subs	r0, r0, #48
 970 047e FFF7FEFF 		bl	__aeabi_i2d
 971              	.LVL154:
 972 0482 8246     		mov	r10, r0
 973 0484 8B46     		mov	fp, r1
 974 0486 1A98     		ldr	r0, [sp, #104]	@ float
 975 0488 FFF7FEFF 		bl	__aeabi_f2d
 976              	.LVL155:
 977 048c 5246     		mov	r2, r10
 978 048e 5B46     		mov	r3, fp
ARM GAS  C:\Users\adria\AppData\Local\Temp\ccURo4Ea.s 			page 24


 979 0490 FFF7FEFF 		bl	__aeabi_dadd
 980              	.LVL156:
 981 0494 FFF7FEFF 		bl	__aeabi_d2f
 982              	.LVL157:
 983 0498 1A90     		str	r0, [sp, #104]	@ float
 315:main.c        ****                     
 316:main.c        ****                     x--;//Recorremos una posicion del string
 984              		.loc 1 316 0
 985 049a 013C     		subs	r4, r4, #1
 986              	.LVL158:
 987              	.L47:
 312:main.c        ****                 
 988              		.loc 1 312 0
 989 049c 14EB0803 		adds	r3, r4, r8
 990 04a0 E8D5     		bpl	.L48
 991 04a2 0023     		movs	r3, #0
 992 04a4 05E0     		b	.L49
 993              	.LVL159:
 994              	.L50:
 995              	.LBB5:
 317:main.c        ****                 }
 318:main.c        ****                 
 319:main.c        ****                 i=0;
 320:main.c        ****                 
 321:main.c        ****                 for(int i=0;i<16;i++){//limpiamos buffer
 322:main.c        ****                     buffer_Rx[i] = 0;
 996              		.loc 1 322 0 discriminator 3
 997 04a6 26AA     		add	r2, sp, #152
 998 04a8 1A44     		add	r2, r2, r3
 999 04aa 0021     		movs	r1, #0
 1000 04ac 02F88C1C 		strb	r1, [r2, #-140]
 321:main.c        ****                     buffer_Rx[i] = 0;
 1001              		.loc 1 321 0 discriminator 3
 1002 04b0 0133     		adds	r3, r3, #1
 1003              	.LVL160:
 1004              	.L49:
 321:main.c        ****                     buffer_Rx[i] = 0;
 1005              		.loc 1 321 0 is_stmt 0 discriminator 1
 1006 04b2 0F2B     		cmp	r3, #15
 1007 04b4 F7DD     		ble	.L50
 1008              	.LBE5:
 319:main.c        ****                 
 1009              		.loc 1 319 0 is_stmt 1
 1010 04b6 0025     		movs	r5, #0
 1011              	.LVL161:
 1012 04b8 F0E5     		b	.L24
 1013              	.L56:
 1014 04ba 00BF     		.align	2
 1015              	.L55:
 1016 04bc CDCCCC3D 		.word	1036831949
 1017              		.cfi_endproc
 1018              	.LFE69:
 1019              		.size	main, .-main
 1020              		.global	Disparadores_reg
 1021              		.global	interfaz_lab
 1022              		.global	sens_flag
 1023              		.data
ARM GAS  C:\Users\adria\AppData\Local\Temp\ccURo4Ea.s 			page 25


 1024              		.set	.LANCHOR0,. + 0
 1025              		.type	sens_flag, %object
 1026              		.size	sens_flag, 1
 1027              	sens_flag:
 1028 0000 FE       		.byte	-2
 1029              		.type	interfaz_lab, %object
 1030              		.size	interfaz_lab, 1
 1031              	interfaz_lab:
 1032 0001 FE       		.byte	-2
 1033              		.section	.rodata.str1.4,"aMS",%progbits,1
 1034              		.align	2
 1035              	.LC0:
 1036 0000 20646567 		.ascii	" degC      \000"
 1036      43202020 
 1036      20202000 
 1037              	.LC1:
 1038 000c 53256473 		.ascii	"S%ds\000"
 1038      00
 1039 0011 000000   		.space	3
 1040              	.LC2:
 1041 0014 41256461 		.ascii	"A%da\000"
 1041      00
 1042 0019 000000   		.space	3
 1043              	.LC3:
 1044 001c 53503A20 		.ascii	"SP: \000"
 1044      00
 1045 0021 000000   		.space	3
 1046              	.LC4:
 1047 0024 20646567 		.ascii	" degC  \000"
 1047      43202000 
 1048              		.bss
 1049              		.set	.LANCHOR1,. + 0
 1050              		.type	Disparadores_reg, %object
 1051              		.size	Disparadores_reg, 1
 1052              	Disparadores_reg:
 1053 0000 00       		.space	1
 1054              		.text
 1055              	.Letext0:
 1056              		.file 2 "c:\\program files (x86)\\cypress\\psoc creator\\4.4\\psoc creator\\import\\gnu\\arm\\5.4.
 1057              		.file 3 "c:\\program files (x86)\\cypress\\psoc creator\\4.4\\psoc creator\\import\\gnu\\arm\\5.4.
 1058              		.file 4 "..\\..\\FINAL_vilchis\\PID_anticolision.cydsn\\filtros.h"
 1059              		.file 5 "..\\..\\PROYECTO_IOT\\MAX6675.cydsn\\MAX6675_.h"
 1060              		.file 6 "..\\..\\FINAL_vilchis\\PID_anticolision.cydsn\\PID.h"
 1061              		.file 7 "Generated_Source\\PSoC5/core_cm3.h"
 1062              		.file 8 "Generated_Source\\PSoC5/sensado.h"
 1063              		.file 9 "Generated_Source\\PSoC5/interfaz.h"
 1064              		.file 10 "Generated_Source\\PSoC5/DIS_0.h"
 1065              		.file 11 "Generated_Source\\PSoC5/DISPARADORES.h"
 1066              		.file 12 "Generated_Source\\PSoC5/CyLib.h"
 1067              		.file 13 "Generated_Source\\PSoC5/DIS_1.h"
 1068              		.file 14 "Generated_Source\\PSoC5/DIS_2.h"
 1069              		.file 15 "Generated_Source\\PSoC5/Timer_0.h"
 1070              		.file 16 "Generated_Source\\PSoC5/Timer_1.h"
 1071              		.file 17 "Generated_Source\\PSoC5/Timer_2.h"
 1072              		.file 18 "Generated_Source\\PSoC5/Sampling.h"
 1073              		.file 19 "Generated_Source\\PSoC5/UART.h"
 1074              		.file 20 "Generated_Source\\PSoC5/SPIM.h"
ARM GAS  C:\Users\adria\AppData\Local\Temp\ccURo4Ea.s 			page 26


 1075              		.file 21 "..\\..\\lcd_7seg\\Workspace01\\LCD.cydsn\\PSOC_LCD.h"
 1076              		.file 22 "c:\\program files (x86)\\cypress\\psoc creator\\4.4\\psoc creator\\import\\gnu\\arm\\5.4
 1077              		.file 23 "D:\\GITHUB\\Librerias_PSOC\\Libreria_PSOC\\LIB_psoc.h"
 1078              		.file 24 "c:\\program files (x86)\\cypress\\psoc creator\\4.4\\psoc creator\\import\\gnu\\arm\\5.4
 1079              		.file 25 "c:\\program files (x86)\\cypress\\psoc creator\\4.4\\psoc creator\\import\\gnu\\arm\\5.4