ARM GAS  C:\Users\adria\AppData\Local\Temp\ccToVWI8.s 			page 1


   1              		.syntax unified
   2              		.cpu cortex-m3
   3              		.fpu softvfp
   4              		.eabi_attribute 20, 1
   5              		.eabi_attribute 21, 1
   6              		.eabi_attribute 23, 3
   7              		.eabi_attribute 24, 1
   8              		.eabi_attribute 25, 1
   9              		.eabi_attribute 26, 1
  10              		.eabi_attribute 30, 1
  11              		.eabi_attribute 34, 1
  12              		.eabi_attribute 18, 4
  13              		.thumb
  14              		.syntax unified
  15              		.file	"MAX6675_.c"
  16              		.text
  17              	.Ltext0:
  18              		.cfi_sections	.debug_frame
  19              		.global	__aeabi_i2f
  20              		.global	__aeabi_i2d
  21              		.global	__aeabi_dmul
  22              		.global	__aeabi_d2f
  23              		.global	__aeabi_fadd
  24              		.section	.text.SENS_max6675,"ax",%progbits
  25              		.align	2
  26              		.global	SENS_max6675
  27              		.thumb
  28              		.thumb_func
  29              		.type	SENS_max6675, %function
  30              	SENS_max6675:
  31              	.LFB63:
  32              		.file 1 "..\\..\\PROYECTO_IOT\\MAX6675.cydsn\\MAX6675_.c"
   1:..\..\PROYECTO_IOT\MAX6675.cydsn/MAX6675_.c **** #include "MAX6675_.h"
   2:..\..\PROYECTO_IOT\MAX6675.cydsn/MAX6675_.c **** 
   3:..\..\PROYECTO_IOT\MAX6675.cydsn/MAX6675_.c **** void SENS_max6675(struct max6675* sensor){
  33              		.loc 1 3 0
  34              		.cfi_startproc
  35              		@ args = 0, pretend = 0, frame = 0
  36              		@ frame_needed = 0, uses_anonymous_args = 0
  37              	.LVL0:
  38 0000 70B5     		push	{r4, r5, r6, lr}
  39              		.cfi_def_cfa_offset 16
  40              		.cfi_offset 4, -16
  41              		.cfi_offset 5, -12
  42              		.cfi_offset 6, -8
  43              		.cfi_offset 14, -4
  44 0002 0546     		mov	r5, r0
   4:..\..\PROYECTO_IOT\MAX6675.cydsn/MAX6675_.c **** 
   5:..\..\PROYECTO_IOT\MAX6675.cydsn/MAX6675_.c ****     //LEEMOS LA PALABRA DIRECTAMENTE
   6:..\..\PROYECTO_IOT\MAX6675.cydsn/MAX6675_.c ****     //Por comunicacion ISP
   7:..\..\PROYECTO_IOT\MAX6675.cydsn/MAX6675_.c ****     SPIM_WriteTxData(0x0000);
  45              		.loc 1 7 0
  46 0004 0020     		movs	r0, #0
  47              	.LVL1:
  48 0006 FFF7FEFF 		bl	SPIM_WriteTxData
  49              	.LVL2:
   8:..\..\PROYECTO_IOT\MAX6675.cydsn/MAX6675_.c ****     sensor->data.palabra  = SPIM_ReadRxData();
ARM GAS  C:\Users\adria\AppData\Local\Temp\ccToVWI8.s 			page 2


  50              		.loc 1 8 0
  51 000a FFF7FEFF 		bl	SPIM_ReadRxData
  52              	.LVL3:
  53 000e 2880     		strh	r0, [r5]	@ movhi
   9:..\..\PROYECTO_IOT\MAX6675.cydsn/MAX6675_.c ****     
  10:..\..\PROYECTO_IOT\MAX6675.cydsn/MAX6675_.c ****     
  11:..\..\PROYECTO_IOT\MAX6675.cydsn/MAX6675_.c ****     //Tomamos la secciones de bits de verificacion
  12:..\..\PROYECTO_IOT\MAX6675.cydsn/MAX6675_.c ****     sensor->data.errores = 0;
  54              		.loc 1 12 0
  55 0010 0023     		movs	r3, #0
  56 0012 AB70     		strb	r3, [r5, #2]
  13:..\..\PROYECTO_IOT\MAX6675.cydsn/MAX6675_.c ****     if((sensor->data.palabra & DUMMY >> 15) != 0){ //dummy=0
  57              		.loc 1 13 0
  58 0014 10F00103 		ands	r3, r0, #1
  59 0018 01D0     		beq	.L2
  14:..\..\PROYECTO_IOT\MAX6675.cydsn/MAX6675_.c ****         sensor->data.errores |= 0x01;
  60              		.loc 1 14 0
  61 001a 0122     		movs	r2, #1
  62 001c AA70     		strb	r2, [r5, #2]
  63              	.L2:
  15:..\..\PROYECTO_IOT\MAX6675.cydsn/MAX6675_.c ****     };
  16:..\..\PROYECTO_IOT\MAX6675.cydsn/MAX6675_.c ****     
  17:..\..\PROYECTO_IOT\MAX6675.cydsn/MAX6675_.c ****     if((sensor->data.palabra & Th_input >> 2) != 0){
  64              		.loc 1 17 0
  65 001e 1BB1     		cbz	r3, .L3
  18:..\..\PROYECTO_IOT\MAX6675.cydsn/MAX6675_.c ****         sensor->data.errores |= 0x02;
  66              		.loc 1 18 0
  67 0020 AA78     		ldrb	r2, [r5, #2]	@ zero_extendqisi2
  68 0022 42F00202 		orr	r2, r2, #2
  69 0026 AA70     		strb	r2, [r5, #2]
  70              	.L3:
  19:..\..\PROYECTO_IOT\MAX6675.cydsn/MAX6675_.c ****     };
  20:..\..\PROYECTO_IOT\MAX6675.cydsn/MAX6675_.c ****     
  21:..\..\PROYECTO_IOT\MAX6675.cydsn/MAX6675_.c ****     if((sensor->data.palabra & ID >> 1) != 0){
  71              		.loc 1 21 0
  72 0028 1BB1     		cbz	r3, .L4
  22:..\..\PROYECTO_IOT\MAX6675.cydsn/MAX6675_.c ****         sensor->data.errores |= 0x04;
  73              		.loc 1 22 0
  74 002a AB78     		ldrb	r3, [r5, #2]	@ zero_extendqisi2
  75 002c 43F00403 		orr	r3, r3, #4
  76 0030 AB70     		strb	r3, [r5, #2]
  77              	.L4:
  23:..\..\PROYECTO_IOT\MAX6675.cydsn/MAX6675_.c ****     };
  24:..\..\PROYECTO_IOT\MAX6675.cydsn/MAX6675_.c ****     
  25:..\..\PROYECTO_IOT\MAX6675.cydsn/MAX6675_.c ****     
  26:..\..\PROYECTO_IOT\MAX6675.cydsn/MAX6675_.c ****     //Si no hay errores, sensamos la temperatura
  27:..\..\PROYECTO_IOT\MAX6675.cydsn/MAX6675_.c ****     if(sensor->data.errores > 0){
  78              		.loc 1 27 0
  79 0032 AB78     		ldrb	r3, [r5, #2]	@ zero_extendqisi2
  80 0034 13B1     		cbz	r3, .L5
  28:..\..\PROYECTO_IOT\MAX6675.cydsn/MAX6675_.c ****         sensor->data.temperatura = 0;
  81              		.loc 1 28 0
  82 0036 0023     		movs	r3, #0
  83 0038 AB80     		strh	r3, [r5, #4]	@ movhi
  84 003a 70BD     		pop	{r4, r5, r6, pc}
  85              	.LVL4:
  86              	.L5:
ARM GAS  C:\Users\adria\AppData\Local\Temp\ccToVWI8.s 			page 3


  29:..\..\PROYECTO_IOT\MAX6675.cydsn/MAX6675_.c ****     }else{
  30:..\..\PROYECTO_IOT\MAX6675.cydsn/MAX6675_.c ****         //Tomamos la seccion de la temperatura
  31:..\..\PROYECTO_IOT\MAX6675.cydsn/MAX6675_.c ****         
  32:..\..\PROYECTO_IOT\MAX6675.cydsn/MAX6675_.c ****         sensor->data.temperatura = ((sensor->data.palabra>>3)/4);
  87              		.loc 1 32 0
  88 003c C008     		lsrs	r0, r0, #3
  89 003e 8408     		lsrs	r4, r0, #2
  33:..\..\PROYECTO_IOT\MAX6675.cydsn/MAX6675_.c ****         sensor->data.temperatura <<=7;//parte entera
  90              		.loc 1 33 0
  91 0040 E401     		lsls	r4, r4, #7
  92 0042 A4B2     		uxth	r4, r4
  34:..\..\PROYECTO_IOT\MAX6675.cydsn/MAX6675_.c ****         
  35:..\..\PROYECTO_IOT\MAX6675.cydsn/MAX6675_.c ****         sensor->data.temperatura |= ((sensor->data.palabra>>3)%4)*25;//decimal
  93              		.loc 1 35 0
  94 0044 00F00300 		and	r0, r0, #3
  95 0048 00EB8000 		add	r0, r0, r0, lsl #2
  96 004c 00EB8000 		add	r0, r0, r0, lsl #2
  97 0050 0443     		orrs	r4, r4, r0
  98 0052 A4B2     		uxth	r4, r4
  99 0054 AC80     		strh	r4, [r5, #4]	@ movhi
  36:..\..\PROYECTO_IOT\MAX6675.cydsn/MAX6675_.c ****         
  37:..\..\PROYECTO_IOT\MAX6675.cydsn/MAX6675_.c ****         sensor->data.temperatura_decimal = (float)(sensor->data.temperatura>>7) + (float)((sensor->
 100              		.loc 1 37 0
 101 0056 E009     		lsrs	r0, r4, #7
 102 0058 FFF7FEFF 		bl	__aeabi_i2f
 103              	.LVL5:
 104 005c 0646     		mov	r6, r0
 105 005e 04F07F00 		and	r0, r4, #127
 106 0062 FFF7FEFF 		bl	__aeabi_i2d
 107              	.LVL6:
 108 0066 06A3     		adr	r3, .L8
 109 0068 D3E90023 		ldrd	r2, [r3]
 110 006c FFF7FEFF 		bl	__aeabi_dmul
 111              	.LVL7:
 112 0070 FFF7FEFF 		bl	__aeabi_d2f
 113              	.LVL8:
 114 0074 0146     		mov	r1, r0
 115 0076 3046     		mov	r0, r6
 116 0078 FFF7FEFF 		bl	__aeabi_fadd
 117              	.LVL9:
 118 007c A860     		str	r0, [r5, #8]	@ float
 119 007e 70BD     		pop	{r4, r5, r6, pc}
 120              	.LVL10:
 121              	.L9:
 122              		.align	3
 123              	.L8:
 124 0080 7B14AE47 		.word	1202590843
 125 0084 E17A843F 		.word	1065646817
 126              		.cfi_endproc
 127              	.LFE63:
 128              		.size	SENS_max6675, .-SENS_max6675
 129              		.text
 130              	.Letext0:
 131              		.file 2 "c:\\program files (x86)\\cypress\\psoc creator\\4.4\\psoc creator\\import\\gnu\\arm\\5.4.
 132              		.file 3 "c:\\program files (x86)\\cypress\\psoc creator\\4.4\\psoc creator\\import\\gnu\\arm\\5.4.
 133              		.file 4 "..\\..\\PROYECTO_IOT\\MAX6675.cydsn\\MAX6675_.h"
 134              		.file 5 "Generated_Source\\PSoC5/SPIM.h"
ARM GAS  C:\Users\adria\AppData\Local\Temp\ccToVWI8.s 			page 4


 135              		.file 6 "Generated_Source\\PSoC5/core_cm3.h"