ARM GAS  C:\Users\adria\AppData\Local\Temp\ccGRLRkZ.s 			page 1


   1              		.syntax unified
   2              		.cpu cortex-m3
   3              		.fpu softvfp
   4              		.eabi_attribute 20, 1
   5              		.eabi_attribute 21, 1
   6              		.eabi_attribute 23, 3
   7              		.eabi_attribute 24, 1
   8              		.eabi_attribute 25, 1
   9              		.eabi_attribute 26, 1
  10              		.eabi_attribute 30, 1
  11              		.eabi_attribute 34, 1
  12              		.eabi_attribute 18, 4
  13              		.thumb
  14              		.syntax unified
  15              		.file	"filtros.c"
  16              		.text
  17              	.Ltext0:
  18              		.cfi_sections	.debug_frame
  19              		.section	.text.inicializarPromediadorMovil,"ax",%progbits
  20              		.align	2
  21              		.global	inicializarPromediadorMovil
  22              		.thumb
  23              		.thumb_func
  24              		.type	inicializarPromediadorMovil, %function
  25              	inicializarPromediadorMovil:
  26              	.LFB0:
  27              		.file 1 "filtros.c"
   1:filtros.c     **** #include "filtros.h"
   2:filtros.c     **** 
   3:filtros.c     **** // Función para inicializar el promediador móvil
   4:filtros.c     **** void inicializarPromediadorMovil(PromediadorMovil *pm) {
  28              		.loc 1 4 0
  29              		.cfi_startproc
  30              		@ args = 0, pretend = 0, frame = 0
  31              		@ frame_needed = 0, uses_anonymous_args = 0
  32              		@ link register save eliminated.
  33              	.LVL0:
   5:filtros.c     ****     pm->indice = 0;
  34              		.loc 1 5 0
  35 0000 0023     		movs	r3, #0
  36 0002 0362     		str	r3, [r0, #32]
   6:filtros.c     ****     pm->sumatoria = 0.0;
  37              		.loc 1 6 0
  38 0004 8384     		strh	r3, [r0, #36]	@ movhi
  39              	.LVL1:
  40              	.LBB2:
   7:filtros.c     ****     for (int i = 0; i < VENTANAS; ++i) {
  41              		.loc 1 7 0
  42 0006 03E0     		b	.L2
  43              	.LVL2:
  44              	.L3:
   8:filtros.c     ****         pm->valores[i] = 0.0;
  45              		.loc 1 8 0 discriminator 3
  46 0008 0022     		movs	r2, #0
  47 000a 20F81320 		strh	r2, [r0, r3, lsl #1]	@ movhi
   7:filtros.c     ****     for (int i = 0; i < VENTANAS; ++i) {
  48              		.loc 1 7 0 discriminator 3
ARM GAS  C:\Users\adria\AppData\Local\Temp\ccGRLRkZ.s 			page 2


  49 000e 0133     		adds	r3, r3, #1
  50              	.LVL3:
  51              	.L2:
   7:filtros.c     ****     for (int i = 0; i < VENTANAS; ++i) {
  52              		.loc 1 7 0 is_stmt 0 discriminator 1
  53 0010 0E2B     		cmp	r3, #14
  54 0012 F9DD     		ble	.L3
  55              	.LBE2:
   9:filtros.c     ****     }
  10:filtros.c     **** }
  56              		.loc 1 10 0 is_stmt 1
  57 0014 7047     		bx	lr
  58              		.cfi_endproc
  59              	.LFE0:
  60              		.size	inicializarPromediadorMovil, .-inicializarPromediadorMovil
  61 0016 00BF     		.section	.text.agregarValor,"ax",%progbits
  62              		.align	2
  63              		.global	agregarValor
  64              		.thumb
  65              		.thumb_func
  66              		.type	agregarValor, %function
  67              	agregarValor:
  68              	.LFB1:
  11:filtros.c     **** 
  12:filtros.c     **** // Función para agregar un nuevo valor al promediador móvil
  13:filtros.c     **** void agregarValor(PromediadorMovil *pm, uint16_t nuevoValor) {
  69              		.loc 1 13 0
  70              		.cfi_startproc
  71              		@ args = 0, pretend = 0, frame = 0
  72              		@ frame_needed = 0, uses_anonymous_args = 0
  73              		@ link register save eliminated.
  74              	.LVL4:
  75 0000 30B4     		push	{r4, r5}
  76              		.cfi_def_cfa_offset 8
  77              		.cfi_offset 4, -8
  78              		.cfi_offset 5, -4
  14:filtros.c     ****     // Restar el valor que se va a reemplazar
  15:filtros.c     ****     pm->sumatoria -= pm->valores[pm->indice];
  79              		.loc 1 15 0
  80 0002 026A     		ldr	r2, [r0, #32]
  81 0004 30F81230 		ldrh	r3, [r0, r2, lsl #1]
  82 0008 848C     		ldrh	r4, [r0, #36]
  83 000a E31A     		subs	r3, r4, r3
  84 000c 9BB2     		uxth	r3, r3
  16:filtros.c     ****     
  17:filtros.c     ****     // Agregar el nuevo valor
  18:filtros.c     ****     pm->valores[pm->indice] = nuevoValor;
  85              		.loc 1 18 0
  86 000e 20F81210 		strh	r1, [r0, r2, lsl #1]	@ movhi
  19:filtros.c     ****     
  20:filtros.c     ****     // Sumar el nuevo valor
  21:filtros.c     ****     pm->sumatoria += nuevoValor;
  87              		.loc 1 21 0
  88 0012 1944     		add	r1, r1, r3
  89              	.LVL5:
  90 0014 8184     		strh	r1, [r0, #36]	@ movhi
  91              	.LVL6:
ARM GAS  C:\Users\adria\AppData\Local\Temp\ccGRLRkZ.s 			page 3


  22:filtros.c     ****     
  23:filtros.c     ****     // Incrementar el índice y manejar el desbordamiento
  24:filtros.c     ****     pm->indice = (pm->indice + 1) % VENTANAS;
  92              		.loc 1 24 0
  93 0016 0132     		adds	r2, r2, #1
  94 0018 064C     		ldr	r4, .L6
  95 001a 82FB0445 		smull	r4, r5, r2, r4
  96 001e 5119     		adds	r1, r2, r5
  97 0020 D317     		asrs	r3, r2, #31
  98 0022 C3EBE103 		rsb	r3, r3, r1, asr #3
  99 0026 C3EB0313 		rsb	r3, r3, r3, lsl #4
 100 002a D31A     		subs	r3, r2, r3
 101 002c 0362     		str	r3, [r0, #32]
  25:filtros.c     **** }
 102              		.loc 1 25 0
 103 002e 30BC     		pop	{r4, r5}
 104              		.cfi_restore 5
 105              		.cfi_restore 4
 106              		.cfi_def_cfa_offset 0
 107 0030 7047     		bx	lr
 108              	.L7:
 109 0032 00BF     		.align	2
 110              	.L6:
 111 0034 89888888 		.word	-2004318071
 112              		.cfi_endproc
 113              	.LFE1:
 114              		.size	agregarValor, .-agregarValor
 115              		.section	.text.obtenerPromedioMovil,"ax",%progbits
 116              		.align	2
 117              		.global	obtenerPromedioMovil
 118              		.thumb
 119              		.thumb_func
 120              		.type	obtenerPromedioMovil, %function
 121              	obtenerPromedioMovil:
 122              	.LFB2:
  26:filtros.c     **** 
  27:filtros.c     **** // Función para obtener el promedio móvil actual
  28:filtros.c     **** uint16_t obtenerPromedioMovil(PromediadorMovil *pm) {
 123              		.loc 1 28 0
 124              		.cfi_startproc
 125              		@ args = 0, pretend = 0, frame = 0
 126              		@ frame_needed = 0, uses_anonymous_args = 0
 127              		@ link register save eliminated.
 128              	.LVL7:
  29:filtros.c     ****     return pm->sumatoria / VENTANAS;
 129              		.loc 1 29 0
 130 0000 838C     		ldrh	r3, [r0, #36]
 131 0002 0248     		ldr	r0, .L9
 132              	.LVL8:
 133 0004 A0FB0330 		umull	r3, r0, r0, r3
  30:filtros.c     **** }...
 134              		.loc 1 30 0
 135 0008 C008     		lsrs	r0, r0, #3
 136 000a 7047     		bx	lr
 137              	.L10:
 138              		.align	2
 139              	.L9:
ARM GAS  C:\Users\adria\AppData\Local\Temp\ccGRLRkZ.s 			page 4


 140 000c 89888888 		.word	-2004318071
 141              		.cfi_endproc
 142              	.LFE2:
 143              		.size	obtenerPromedioMovil, .-obtenerPromedioMovil
 144              		.text
 145              	.Letext0:
 146              		.file 2 "c:\\program files (x86)\\cypress\\psoc creator\\4.4\\psoc creator\\import\\gnu\\arm\\5.4.
 147              		.file 3 "c:\\program files (x86)\\cypress\\psoc creator\\4.4\\psoc creator\\import\\gnu\\arm\\5.4.
 148              		.file 4 "filtros.h"