ARM GAS  C:\Users\adria\AppData\Local\Temp\ccCE9RI1.s 			page 1


   1              		.syntax unified
   2              		.cpu cortex-m3
   3              		.fpu softvfp
   4              		.eabi_attribute 20, 1
   5              		.eabi_attribute 21, 1
   6              		.eabi_attribute 23, 3
   7              		.eabi_attribute 24, 1
   8              		.eabi_attribute 25, 1
   9              		.eabi_attribute 26, 1
  10              		.eabi_attribute 30, 1
  11              		.eabi_attribute 34, 1
  12              		.eabi_attribute 18, 4
  13              		.thumb
  14              		.syntax unified
  15              		.file	"main.c"
  16              		.text
  17              	.Ltext0:
  18              		.cfi_sections	.debug_frame
  19              		.section	.text.sensado,"ax",%progbits
  20              		.align	2
  21              		.global	sensado
  22              		.thumb
  23              		.thumb_func
  24              		.type	sensado, %function
  25              	sensado:
  26              	.LFB64:
  27              		.file 1 "main.c"
   1:main.c        **** #include "project.h"
   2:main.c        **** #include "stdio.h"
   3:main.c        **** #include "math.h"
   4:main.c        **** 
   5:main.c        **** #include "PID.h"
   6:main.c        **** #include "filtros.h"
   7:main.c        **** #include "D:\GITHUB\Librerias_PSOC\Libreria_PSOC\LIB_psoc.h"
   8:main.c        **** 
   9:main.c        **** //Subrutina de la interrupcion para sampling
  10:main.c        **** uint8_t sens_flag = ~BIT0;
  11:main.c        **** CY_ISR(sensado){
  28              		.loc 1 11 0
  29              		.cfi_startproc
  30              		@ args = 0, pretend = 0, frame = 0
  31              		@ frame_needed = 0, uses_anonymous_args = 0
  32 0000 08B5     		push	{r3, lr}
  33              		.cfi_def_cfa_offset 8
  34              		.cfi_offset 3, -8
  35              		.cfi_offset 14, -4
  12:main.c        ****     sensado_ClearPending();
  36              		.loc 1 12 0
  37 0002 FFF7FEFF 		bl	sensado_ClearPending
  38              	.LVL0:
  13:main.c        ****     
  14:main.c        ****     sens_flag = BIT0;
  39              		.loc 1 14 0
  40 0006 0122     		movs	r2, #1
  41 0008 014B     		ldr	r3, .L3
  42 000a 1A70     		strb	r2, [r3]
  43 000c 08BD     		pop	{r3, pc}
ARM GAS  C:\Users\adria\AppData\Local\Temp\ccCE9RI1.s 			page 2


  44              	.L4:
  45 000e 00BF     		.align	2
  46              	.L3:
  47 0010 00000000 		.word	.LANCHOR0
  48              		.cfi_endproc
  49              	.LFE64:
  50              		.size	sensado, .-sensado
  51              		.section	.text.interfaz,"ax",%progbits
  52              		.align	2
  53              		.global	interfaz
  54              		.thumb
  55              		.thumb_func
  56              		.type	interfaz, %function
  57              	interfaz:
  58              	.LFB65:
  15:main.c        **** }
  16:main.c        **** 
  17:main.c        **** //Subrutina para interactuar con Labwiev
  18:main.c        **** uint8_t interfaz_lab = ~BIT0;
  19:main.c        **** CY_ISR(interfaz){
  59              		.loc 1 19 0
  60              		.cfi_startproc
  61              		@ args = 0, pretend = 0, frame = 0
  62              		@ frame_needed = 0, uses_anonymous_args = 0
  63 0000 08B5     		push	{r3, lr}
  64              		.cfi_def_cfa_offset 8
  65              		.cfi_offset 3, -8
  66              		.cfi_offset 14, -4
  20:main.c        ****     interfaz_ClearPending();
  67              		.loc 1 20 0
  68 0002 FFF7FEFF 		bl	interfaz_ClearPending
  69              	.LVL1:
  21:main.c        ****     
  22:main.c        ****     interfaz_lab = BIT0;
  70              		.loc 1 22 0
  71 0006 0122     		movs	r2, #1
  72 0008 014B     		ldr	r3, .L7
  73 000a 5A70     		strb	r2, [r3, #1]
  74 000c 08BD     		pop	{r3, pc}
  75              	.L8:
  76 000e 00BF     		.align	2
  77              	.L7:
  78 0010 00000000 		.word	.LANCHOR0
  79              		.cfi_endproc
  80              	.LFE65:
  81              		.size	interfaz, .-interfaz
  82              		.global	__aeabi_ui2f
  83              		.global	__aeabi_f2uiz
  84              		.global	__aeabi_ui2d
  85              		.global	__aeabi_i2d
  86              		.global	__aeabi_dmul
  87              		.global	__aeabi_f2d
  88              		.global	__aeabi_dadd
  89              		.global	__aeabi_d2f
  90              		.global	__aeabi_i2f
  91              		.global	__aeabi_fadd
  92              		.global	__aeabi_fsub
ARM GAS  C:\Users\adria\AppData\Local\Temp\ccCE9RI1.s 			page 3


  93              		.global	__aeabi_fmul
  94              		.section	.text.main,"ax",%progbits
  95              		.align	2
  96              		.global	main
  97              		.thumb
  98              		.thumb_func
  99              		.type	main, %function
 100              	main:
 101              	.LFB66:
  23:main.c        **** }
  24:main.c        **** 
  25:main.c        **** int main(void)
  26:main.c        **** {
 102              		.loc 1 26 0
 103              		.cfi_startproc
 104              		@ args = 0, pretend = 0, frame = 128
 105              		@ frame_needed = 0, uses_anonymous_args = 0
 106 0000 2DE9F04F 		push	{r4, r5, r6, r7, r8, r9, r10, fp, lr}
 107              		.cfi_def_cfa_offset 36
 108              		.cfi_offset 4, -36
 109              		.cfi_offset 5, -32
 110              		.cfi_offset 6, -28
 111              		.cfi_offset 7, -24
 112              		.cfi_offset 8, -20
 113              		.cfi_offset 9, -16
 114              		.cfi_offset 10, -12
 115              		.cfi_offset 11, -8
 116              		.cfi_offset 14, -4
 117 0004 A1B0     		sub	sp, sp, #132
 118              		.cfi_def_cfa_offset 168
  27:main.c        ****     CyGlobalIntEnable; /* Enable global interrupts. */
 119              		.loc 1 27 0
 120              		.syntax unified
 121              	@ 27 "main.c" 1
 122 0006 62B6     		CPSIE   i
 123              	@ 0 "" 2
  28:main.c        ****     //Perifericos
  29:main.c        ****     PWM_Start();
 124              		.loc 1 29 0
 125              		.thumb
 126              		.syntax unified
 127 0008 FFF7FEFF 		bl	PWM_Start
 128              	.LVL2:
  30:main.c        ****     
  31:main.c        ****     Sampling_Start();
 129              		.loc 1 31 0
 130 000c FFF7FEFF 		bl	Sampling_Start
 131              	.LVL3:
  32:main.c        ****     
  33:main.c        ****     UART_Start();
 132              		.loc 1 33 0
 133 0010 FFF7FEFF 		bl	UART_Start
 134              	.LVL4:
  34:main.c        ****     UART_ClearRxBuffer();
 135              		.loc 1 34 0
 136 0014 FFF7FEFF 		bl	UART_ClearRxBuffer
 137              	.LVL5:
ARM GAS  C:\Users\adria\AppData\Local\Temp\ccCE9RI1.s 			page 4


  35:main.c        ****     UART_ClearTxBuffer();
 138              		.loc 1 35 0
 139 0018 FFF7FEFF 		bl	UART_ClearTxBuffer
 140              	.LVL6:
  36:main.c        ****     
  37:main.c        ****     ADC_Start();
 141              		.loc 1 37 0
 142 001c FFF7FEFF 		bl	ADC_Start
 143              	.LVL7:
  38:main.c        ****     ADC_StartConvert();
 144              		.loc 1 38 0
 145 0020 FFF7FEFF 		bl	ADC_StartConvert
 146              	.LVL8:
  39:main.c        ****     
  40:main.c        ****     //Interrupcciones
  41:main.c        ****     sensado_StartEx(sensado);
 147              		.loc 1 41 0
 148 0024 C448     		ldr	r0, .L41
 149 0026 FFF7FEFF 		bl	sensado_StartEx
 150              	.LVL9:
  42:main.c        ****     sensado_ClearPending();
 151              		.loc 1 42 0
 152 002a FFF7FEFF 		bl	sensado_ClearPending
 153              	.LVL10:
  43:main.c        ****     
  44:main.c        ****     interfaz_StartEx(interfaz);
 154              		.loc 1 44 0
 155 002e C348     		ldr	r0, .L41+4
 156 0030 FFF7FEFF 		bl	interfaz_StartEx
 157              	.LVL11:
  45:main.c        ****     interfaz_ClearPending();
 158              		.loc 1 45 0
 159 0034 FFF7FEFF 		bl	interfaz_ClearPending
 160              	.LVL12:
  46:main.c        ****     //Escogemos un periodo de muestreo
  47:main.c        ****     /*
  48:main.c        ****     Con reloj de 10khz y 2^16 de periodo máximo
  49:main.c        ****     el periodo de muestreo va de 200us-6.554s
  50:main.c        ****     
  51:main.c        ****     1bit es 100us
  52:main.c        ****     */
  53:main.c        ****     Sampling_WritePeriod(500);
 161              		.loc 1 53 0
 162 0038 4FF4FA70 		mov	r0, #500
 163 003c FFF7FEFF 		bl	Sampling_WritePeriod
 164              	.LVL13:
  54:main.c        ****     
  55:main.c        ****     /***
  56:main.c        ****     
  57:main.c        ****     PID PID PID PID PID PID PID PID PID PID PID PID
  58:main.c        ****     Configuración preliminar de conrtol PID
  59:main.c        ****     
  60:main.c        ****     ***/
  61:main.c        ****     PIDController pid_instancia_variables;
  62:main.c        ****     
  63:main.c        ****     //constantes del controlador
  64:main.c        ****     pid_instancia_variables.Kp = 2;
ARM GAS  C:\Users\adria\AppData\Local\Temp\ccCE9RI1.s 			page 5


 165              		.loc 1 64 0
 166 0040 4FF08043 		mov	r3, #1073741824
 167 0044 1293     		str	r3, [sp, #72]	@ float
  65:main.c        ****     pid_instancia_variables.Ki = 0.0025;
 168              		.loc 1 65 0
 169 0046 BE4B     		ldr	r3, .L41+8
 170 0048 1393     		str	r3, [sp, #76]	@ float
  66:main.c        ****     pid_instancia_variables.Kd = 0.03;
 171              		.loc 1 66 0
 172 004a BE4B     		ldr	r3, .L41+12
 173 004c 1493     		str	r3, [sp, #80]	@ float
  67:main.c        ****     
  68:main.c        ****     
  69:main.c        ****     pid_instancia_variables.tau = 0.25;//filtro pasabaja derivativo
 174              		.loc 1 69 0
 175 004e 4FF07A53 		mov	r3, #1048576000
 176 0052 1593     		str	r3, [sp, #84]	@ float
  70:main.c        ****     
  71:main.c        ****     pid_instancia_variables.limMin = 0; //Limites del actuador
 177              		.loc 1 71 0
 178 0054 0022     		movs	r2, #0
 179 0056 1692     		str	r2, [sp, #88]	@ float
  72:main.c        ****     pid_instancia_variables.limMax = 255;
 180              		.loc 1 72 0
 181 0058 BB4B     		ldr	r3, .L41+16
 182 005a 1793     		str	r3, [sp, #92]	@ float
  73:main.c        ****     
  74:main.c        ****     pid_instancia_variables.limMinInt = 0;//Limites del integrador WIND-UP/
 183              		.loc 1 74 0
 184 005c 1892     		str	r2, [sp, #96]	@ float
  75:main.c        ****     pid_instancia_variables.limMaxInt = 255;
 185              		.loc 1 75 0
 186 005e 1993     		str	r3, [sp, #100]	@ float
  76:main.c        ****     
  77:main.c        ****     pid_instancia_variables.T = 0.05;//Periodo de muestreo en segundos
 187              		.loc 1 77 0
 188 0060 BA4B     		ldr	r3, .L41+20
 189 0062 1A93     		str	r3, [sp, #104]	@ float
  78:main.c        ****      
  79:main.c        ****     PIDController_Init(&pid_instancia_variables);//Inicializamos constantes y variables
 190              		.loc 1 79 0
 191 0064 12A8     		add	r0, sp, #72
 192 0066 FFF7FEFF 		bl	PIDController_Init
 193              	.LVL14:
  80:main.c        ****     
  81:main.c        ****     //INICIALIZAMOS FILTRO PRMEDIADOR
  82:main.c        ****     PromediadorMovil FILTRO;
  83:main.c        ****     inicializarPromediadorMovil(&FILTRO);
 194              		.loc 1 83 0
 195 006a 08A8     		add	r0, sp, #32
 196 006c FFF7FEFF 		bl	inicializarPromediadorMovil
 197              	.LVL15:
  84:main.c        ****    
  85:main.c        ****     //Auxiliares
  86:main.c        ****     uint8_t out = 0;
  87:main.c        ****     uint16_t adc_raw = 0;
  88:main.c        ****     float setpoint = 100.0;
ARM GAS  C:\Users\adria\AppData\Local\Temp\ccCE9RI1.s 			page 6


  89:main.c        ****    
  90:main.c        ****     //Variables para el parseo de informacion
  91:main.c        ****     char buffer_Tx[16],buffer_Rx[16];
  92:main.c        ****     uint8_t i = 0; //contador para leer el buffer
 198              		.loc 1 92 0
 199 0070 0025     		movs	r5, #0
  88:main.c        ****    
 200              		.loc 1 88 0
 201 0072 B74E     		ldr	r6, .L41+24
 202              	.LVL16:
 203              	.L12:
  93:main.c        ****     int x;//contador auxiliar para parsear
  94:main.c        ****     uint8_t enteros;
  95:main.c        ****     /// Parseo con punto decimal como caracter 
  96:main.c        ****     char *posicion;// Utilizar la función strchr para encontrar la posición del carácter
  97:main.c        ****     int posicionEnCadena;     
  98:main.c        ****     
  99:main.c        ****     for(;;)
 100:main.c        ****     {
 101:main.c        ****         if(sens_flag == BIT0){//RUTINA PRINCIPAR DEL SISTEMA DE CONTROL
 204              		.loc 1 101 0
 205 0074 B74B     		ldr	r3, .L41+28
 206 0076 1B78     		ldrb	r3, [r3]	@ zero_extendqisi2
 207 0078 012B     		cmp	r3, #1
 208 007a 2CD1     		bne	.L11
 102:main.c        ****             sens_flag = ~BIT0;
 209              		.loc 1 102 0
 210 007c FE22     		movs	r2, #254
 211 007e B54B     		ldr	r3, .L41+28
 212 0080 1A70     		strb	r2, [r3]
 103:main.c        ****             
 104:main.c        ****             //Sensamos
 105:main.c        ****             adc_raw = ADC_GetResult16()>>4;
 213              		.loc 1 105 0
 214 0082 FFF7FEFF 		bl	ADC_GetResult16
 215              	.LVL17:
 106:main.c        ****             
 107:main.c        ****             //Filtro
 108:main.c        ****             agregarValor(&FILTRO,adc_raw);
 216              		.loc 1 108 0
 217 0086 C0F30F11 		ubfx	r1, r0, #4, #16
 218 008a 08A8     		add	r0, sp, #32
 219              	.LVL18:
 220 008c FFF7FEFF 		bl	agregarValor
 221              	.LVL19:
 109:main.c        ****             adc_raw = obtenerPromedioMovil(&FILTRO); // SEÑAL FILTRADA
 222              		.loc 1 109 0
 223 0090 08A8     		add	r0, sp, #32
 224 0092 FFF7FEFF 		bl	obtenerPromedioMovil
 225              	.LVL20:
 226 0096 0446     		mov	r4, r0
 227              	.LVL21:
 110:main.c        ****             
 111:main.c        ****             //Para labwiev
 112:main.c        ****             sprintf(buffer_Tx,"S%ds",adc_raw);
 228              		.loc 1 112 0
 229 0098 0246     		mov	r2, r0
ARM GAS  C:\Users\adria\AppData\Local\Temp\ccCE9RI1.s 			page 7


 230 009a AF49     		ldr	r1, .L41+32
 231 009c 04A8     		add	r0, sp, #16
 232              	.LVL22:
 233 009e FFF7FEFF 		bl	sprintf
 234              	.LVL23:
 113:main.c        ****             UART_PutString(buffer_Tx);//SENSADO
 235              		.loc 1 113 0
 236 00a2 04A8     		add	r0, sp, #16
 237 00a4 FFF7FEFF 		bl	UART_PutString
 238              	.LVL24:
 114:main.c        ****                 
 115:main.c        ****             //Controlador PID   
 116:main.c        ****             PIDController_Update(&pid_instancia_variables,setpoint,adc_raw); 
 239              		.loc 1 116 0
 240 00a8 2046     		mov	r0, r4
 241 00aa FFF7FEFF 		bl	__aeabi_ui2f
 242              	.LVL25:
 243 00ae 0246     		mov	r2, r0
 244 00b0 3146     		mov	r1, r6
 245 00b2 12A8     		add	r0, sp, #72
 246 00b4 FFF7FEFF 		bl	PIDController_Update
 247              	.LVL26:
 117:main.c        ****             
 118:main.c        ****             //Actualizacion de Actuador
 119:main.c        ****             out = (uint8_t)pid_instancia_variables.out;
 248              		.loc 1 119 0
 249 00b8 1F98     		ldr	r0, [sp, #124]	@ float
 250 00ba FFF7FEFF 		bl	__aeabi_f2uiz
 251              	.LVL27:
 252 00be C4B2     		uxtb	r4, r0
 253              	.LVL28:
 120:main.c        ****             
 121:main.c        ****             //Para labwiev
 122:main.c        ****             sprintf(buffer_Tx,"A%da",out);
 254              		.loc 1 122 0
 255 00c0 2246     		mov	r2, r4
 256 00c2 A649     		ldr	r1, .L41+36
 257 00c4 04A8     		add	r0, sp, #16
 258 00c6 FFF7FEFF 		bl	sprintf
 259              	.LVL29:
 123:main.c        ****             UART_PutString(buffer_Tx);//ACTUADOR
 260              		.loc 1 123 0
 261 00ca 04A8     		add	r0, sp, #16
 262 00cc FFF7FEFF 		bl	UART_PutString
 263              	.LVL30:
 124:main.c        ****         
 125:main.c        ****             PWM_WriteCompare(out);
 264              		.loc 1 125 0
 265 00d0 2046     		mov	r0, r4
 266 00d2 FFF7FEFF 		bl	PWM_WriteCompare
 267              	.LVL31:
 268              	.L11:
 126:main.c        ****         }
 127:main.c        ****         
 128:main.c        ****         if(interfaz_lab == BIT0){//RUTINA DE ACTUALIZADO DE VARIBLES
 269              		.loc 1 128 0
 270 00d6 9F4B     		ldr	r3, .L41+28
ARM GAS  C:\Users\adria\AppData\Local\Temp\ccCE9RI1.s 			page 8


 271 00d8 5B78     		ldrb	r3, [r3, #1]	@ zero_extendqisi2
 272 00da 012B     		cmp	r3, #1
 273 00dc CAD1     		bne	.L12
 129:main.c        ****             interfaz_lab = ~BIT0;
 274              		.loc 1 129 0
 275 00de FE22     		movs	r2, #254
 276 00e0 9C4B     		ldr	r3, .L41+28
 277 00e2 5A70     		strb	r2, [r3, #1]
 130:main.c        ****             
 131:main.c        ****             buffer_Rx[i] =  UART_GetByte();//Agregamos al arreglo el ascci del caracter recibido
 278              		.loc 1 131 0
 279 00e4 FFF7FEFF 		bl	UART_GetByte
 280              	.LVL32:
 281 00e8 20AB     		add	r3, sp, #128
 282 00ea 2B44     		add	r3, r3, r5
 283 00ec 03F8800C 		strb	r0, [r3, #-128]
 132:main.c        ****             i++;
 284              		.loc 1 132 0
 285 00f0 0135     		adds	r5, r5, #1
 286              	.LVL33:
 287 00f2 EDB2     		uxtb	r5, r5
 288              	.LVL34:
 133:main.c        ****             
 134:main.c        ****             if(buffer_Rx[i-1] == 'S'){ //REBIZAMOS EL BUFFER SETPOINT
 289              		.loc 1 134 0
 290 00f4 2F46     		mov	r7, r5
 291 00f6 6B1E     		subs	r3, r5, #1
 292 00f8 20AA     		add	r2, sp, #128
 293 00fa 1344     		add	r3, r3, r2
 294 00fc 13F8803C 		ldrb	r3, [r3, #-128]	@ zero_extendqisi2
 295 0100 532B     		cmp	r3, #83
 296 0102 39D1     		bne	.L14
 297 0104 27E0     		b	.L39
 298              	.LVL35:
 299              	.L15:
 135:main.c        ****                 setpoint = 0;                    // Limpiar valor de SP
 136:main.c        ****                         
 137:main.c        ****                 //Parseamos
 138:main.c        ****                 x = -2;
 139:main.c        ****                 enteros = 0;
 140:main.c        ****                 while ((i+x)>=0){
 141:main.c        ****                 
 142:main.c        ****                     setpoint += (buffer_Rx[i+x] - 0x30) * pow(10.0,enteros);
 300              		.loc 1 142 0
 301 0106 20AA     		add	r2, sp, #128
 302 0108 1344     		add	r3, r3, r2
 303 010a 13F880AC 		ldrb	r10, [r3, #-128]	@ zero_extendqisi2
 304 010e AAF1300A 		sub	r10, r10, #48
 305 0112 2046     		mov	r0, r4
 306 0114 FFF7FEFF 		bl	__aeabi_ui2d
 307              	.LVL36:
 308 0118 0246     		mov	r2, r0
 309 011a 0B46     		mov	r3, r1
 310 011c 0020     		movs	r0, #0
 311 011e 9049     		ldr	r1, .L41+40
 312 0120 FFF7FEFF 		bl	pow
 313              	.LVL37:
ARM GAS  C:\Users\adria\AppData\Local\Temp\ccCE9RI1.s 			page 9


 314 0124 8046     		mov	r8, r0
 315 0126 8946     		mov	r9, r1
 316 0128 5046     		mov	r0, r10
 317 012a FFF7FEFF 		bl	__aeabi_i2d
 318              	.LVL38:
 319 012e 4246     		mov	r2, r8
 320 0130 4B46     		mov	r3, r9
 321 0132 FFF7FEFF 		bl	__aeabi_dmul
 322              	.LVL39:
 323 0136 8046     		mov	r8, r0
 324 0138 8946     		mov	r9, r1
 325 013a 3046     		mov	r0, r6
 326 013c FFF7FEFF 		bl	__aeabi_f2d
 327              	.LVL40:
 328 0140 4246     		mov	r2, r8
 329 0142 4B46     		mov	r3, r9
 330 0144 FFF7FEFF 		bl	__aeabi_dadd
 331              	.LVL41:
 332 0148 FFF7FEFF 		bl	__aeabi_d2f
 333              	.LVL42:
 334 014c 0646     		mov	r6, r0
 335              	.LVL43:
 143:main.c        ****                     
 144:main.c        ****                     x--;//Recorremos una posicion del string
 336              		.loc 1 144 0
 337 014e 013D     		subs	r5, r5, #1
 338              	.LVL44:
 145:main.c        ****                     enteros++;
 339              		.loc 1 145 0
 340 0150 0134     		adds	r4, r4, #1
 341              	.LVL45:
 342 0152 E4B2     		uxtb	r4, r4
 343              	.LVL46:
 344 0154 03E0     		b	.L13
 345              	.LVL47:
 346              	.L39:
 347 0156 0024     		movs	r4, #0
 348 0158 6FF00105 		mvn	r5, #1
 349              	.LVL48:
 350 015c 0026     		movs	r6, #0
 351              	.LVL49:
 352              	.L13:
 140:main.c        ****                 
 353              		.loc 1 140 0
 354 015e EB19     		adds	r3, r5, r7
 355 0160 D1D5     		bpl	.L15
 356 0162 0023     		movs	r3, #0
 357 0164 05E0     		b	.L16
 358              	.LVL50:
 359              	.L17:
 360              	.LBB2:
 146:main.c        ****                 }
 147:main.c        ****                 
 148:main.c        ****                 i=0;  
 149:main.c        ****                 
 150:main.c        ****                 for(int i=0;i<16;i++){//limpiamos buffer
 151:main.c        ****                     buffer_Rx[i] = 0;
ARM GAS  C:\Users\adria\AppData\Local\Temp\ccCE9RI1.s 			page 10


 361              		.loc 1 151 0 discriminator 3
 362 0166 20AA     		add	r2, sp, #128
 363 0168 1A44     		add	r2, r2, r3
 364 016a 0021     		movs	r1, #0
 365 016c 02F8801C 		strb	r1, [r2, #-128]
 150:main.c        ****                     buffer_Rx[i] = 0;
 366              		.loc 1 150 0 discriminator 3
 367 0170 0133     		adds	r3, r3, #1
 368              	.LVL51:
 369              	.L16:
 150:main.c        ****                     buffer_Rx[i] = 0;
 370              		.loc 1 150 0 is_stmt 0 discriminator 1
 371 0172 0F2B     		cmp	r3, #15
 372 0174 F7DD     		ble	.L17
 373              	.LBE2:
 148:main.c        ****                 
 374              		.loc 1 148 0 is_stmt 1
 375 0176 0025     		movs	r5, #0
 376              	.LVL52:
 377              	.L14:
 152:main.c        ****                 }
 153:main.c        ****                 
 154:main.c        ****             }
 155:main.c        ****             
 156:main.c        ****             if(buffer_Rx[i-1] == 'P'){ //REBIZAMOS EL KP
 378              		.loc 1 156 0
 379 0178 A846     		mov	r8, r5
 380 017a 6B1E     		subs	r3, r5, #1
 381 017c 20AA     		add	r2, sp, #128
 382 017e 1344     		add	r3, r3, r2
 383 0180 13F8803C 		ldrb	r3, [r3, #-128]	@ zero_extendqisi2
 384 0184 502B     		cmp	r3, #80
 385 0186 5CD1     		bne	.L18
 157:main.c        ****                 pid_instancia_variables.Kp = 0;                    // Limpiar valor de SP
 386              		.loc 1 157 0
 387 0188 0023     		movs	r3, #0
 388 018a 1293     		str	r3, [sp, #72]	@ float
 389              	.LVL53:
 158:main.c        ****                 
 159:main.c        ****                 //Parseamos
 160:main.c        ****                 x = -2;
 161:main.c        ****                 
 162:main.c        ****                 //Encontramos la posicion del punto dentro de la cadena
 163:main.c        ****                 posicion = strchr(buffer_Rx, '.');
 390              		.loc 1 163 0
 391 018c E946     		mov	r9, sp
 392 018e 2E21     		movs	r1, #46
 393 0190 6846     		mov	r0, sp
 394 0192 FFF7FEFF 		bl	strchr
 395              	.LVL54:
 164:main.c        ****                 posicionEnCadena = posicion - buffer_Rx;
 396              		.loc 1 164 0
 397 0196 C9EB0009 		rsb	r9, r9, r0
 398              	.LVL55:
 160:main.c        ****                 
 399              		.loc 1 160 0
 400 019a 6FF00104 		mvn	r4, #1
ARM GAS  C:\Users\adria\AppData\Local\Temp\ccCE9RI1.s 			page 11


 165:main.c        ****                 
 166:main.c        ****                 while (buffer_Rx[i+x] != '.'){//Miestras sea la parte decimal
 401              		.loc 1 166 0
 402 019e 24E0     		b	.L19
 403              	.LVL56:
 404              	.L20:
 167:main.c        ****                 
 168:main.c        **** 
 169:main.c        ****                     pid_instancia_variables.Kp += (buffer_Rx[i+x] - 0x30) * powf(0.1,(float)i+x-pos
 405              		.loc 1 169 0
 406 01a0 A0F13007 		sub	r7, r0, #48
 407 01a4 2846     		mov	r0, r5
 408 01a6 FFF7FEFF 		bl	__aeabi_ui2f
 409              	.LVL57:
 410 01aa 8246     		mov	r10, r0
 411 01ac 2046     		mov	r0, r4
 412 01ae FFF7FEFF 		bl	__aeabi_i2f
 413              	.LVL58:
 414 01b2 5146     		mov	r1, r10
 415 01b4 FFF7FEFF 		bl	__aeabi_fadd
 416              	.LVL59:
 417 01b8 8246     		mov	r10, r0
 418 01ba 4846     		mov	r0, r9
 419 01bc FFF7FEFF 		bl	__aeabi_i2f
 420              	.LVL60:
 421 01c0 0146     		mov	r1, r0
 422 01c2 5046     		mov	r0, r10
 423 01c4 FFF7FEFF 		bl	__aeabi_fsub
 424              	.LVL61:
 425 01c8 0146     		mov	r1, r0
 426 01ca 6648     		ldr	r0, .L41+44
 427 01cc FFF7FEFF 		bl	powf
 428              	.LVL62:
 429 01d0 8246     		mov	r10, r0
 430 01d2 3846     		mov	r0, r7
 431 01d4 FFF7FEFF 		bl	__aeabi_i2f
 432              	.LVL63:
 433 01d8 5146     		mov	r1, r10
 434 01da FFF7FEFF 		bl	__aeabi_fmul
 435              	.LVL64:
 436 01de 0146     		mov	r1, r0
 437 01e0 1298     		ldr	r0, [sp, #72]	@ float
 438 01e2 FFF7FEFF 		bl	__aeabi_fadd
 439              	.LVL65:
 440 01e6 1290     		str	r0, [sp, #72]	@ float
 170:main.c        ****                     
 171:main.c        ****                     x--;//Recorremos una posicion del string
 441              		.loc 1 171 0
 442 01e8 013C     		subs	r4, r4, #1
 443              	.LVL66:
 444              	.L19:
 166:main.c        ****                 
 445              		.loc 1 166 0
 446 01ea 04EB0803 		add	r3, r4, r8
 447 01ee 20AA     		add	r2, sp, #128
 448 01f0 1344     		add	r3, r3, r2
 449 01f2 13F8800C 		ldrb	r0, [r3, #-128]	@ zero_extendqisi2
ARM GAS  C:\Users\adria\AppData\Local\Temp\ccCE9RI1.s 			page 12


 450 01f6 2E28     		cmp	r0, #46
 451 01f8 D2D1     		bne	.L20
 452              	.LVL67:
 172:main.c        ****                 }
 173:main.c        ****                 
 174:main.c        ****                 enteros = 0;
 175:main.c        ****                 x--;//Nos saltamos el punto 
 453              		.loc 1 175 0
 454 01fa 013C     		subs	r4, r4, #1
 455              	.LVL68:
 176:main.c        ****                 while ((i+x)>=0){//Pate entera
 456              		.loc 1 176 0
 457 01fc 13E0     		b	.L21
 458              	.L22:
 177:main.c        ****                 
 178:main.c        ****                     pid_instancia_variables.Kp += (buffer_Rx[i+x] - 0x30) * pow(10.0,enteros);
 459              		.loc 1 178 0
 460 01fe 20AA     		add	r2, sp, #128
 461 0200 1344     		add	r3, r3, r2
 462 0202 13F8800C 		ldrb	r0, [r3, #-128]	@ zero_extendqisi2
 463 0206 3038     		subs	r0, r0, #48
 464 0208 FFF7FEFF 		bl	__aeabi_i2d
 465              	.LVL69:
 466 020c 8246     		mov	r10, r0
 467 020e 8B46     		mov	fp, r1
 468 0210 1298     		ldr	r0, [sp, #72]	@ float
 469 0212 FFF7FEFF 		bl	__aeabi_f2d
 470              	.LVL70:
 471 0216 5246     		mov	r2, r10
 472 0218 5B46     		mov	r3, fp
 473 021a FFF7FEFF 		bl	__aeabi_dadd
 474              	.LVL71:
 475 021e FFF7FEFF 		bl	__aeabi_d2f
 476              	.LVL72:
 477 0222 1290     		str	r0, [sp, #72]	@ float
 179:main.c        ****                     
 180:main.c        ****                     x--;//Recorremos una posicion del string
 478              		.loc 1 180 0
 479 0224 013C     		subs	r4, r4, #1
 480              	.LVL73:
 481              	.L21:
 176:main.c        ****                 
 482              		.loc 1 176 0
 483 0226 14EB0803 		adds	r3, r4, r8
 484 022a E8D5     		bpl	.L22
 485 022c 0023     		movs	r3, #0
 486 022e 05E0     		b	.L23
 487              	.LVL74:
 488              	.L24:
 489              	.LBB3:
 181:main.c        ****                 }
 182:main.c        ****                 
 183:main.c        ****                 i=0;  
 184:main.c        ****                 
 185:main.c        ****                 for(int i=0;i<16;i++){//limpiamos buffer
 186:main.c        ****                     buffer_Rx[i] = 0;
 490              		.loc 1 186 0 discriminator 3
ARM GAS  C:\Users\adria\AppData\Local\Temp\ccCE9RI1.s 			page 13


 491 0230 20AA     		add	r2, sp, #128
 492 0232 1A44     		add	r2, r2, r3
 493 0234 0021     		movs	r1, #0
 494 0236 02F8801C 		strb	r1, [r2, #-128]
 185:main.c        ****                     buffer_Rx[i] = 0;
 495              		.loc 1 185 0 discriminator 3
 496 023a 0133     		adds	r3, r3, #1
 497              	.LVL75:
 498              	.L23:
 185:main.c        ****                     buffer_Rx[i] = 0;
 499              		.loc 1 185 0 is_stmt 0 discriminator 1
 500 023c 0F2B     		cmp	r3, #15
 501 023e F7DD     		ble	.L24
 502              	.LBE3:
 183:main.c        ****                 
 503              		.loc 1 183 0 is_stmt 1
 504 0240 0025     		movs	r5, #0
 505              	.LVL76:
 506              	.L18:
 187:main.c        ****                 }
 188:main.c        ****             }
 189:main.c        ****             
 190:main.c        ****             if(buffer_Rx[i-1] == 'I'){ //REBIZAMOS EL KI
 507              		.loc 1 190 0
 508 0242 A846     		mov	r8, r5
 509 0244 6B1E     		subs	r3, r5, #1
 510 0246 20AA     		add	r2, sp, #128
 511 0248 1344     		add	r3, r3, r2
 512 024a 13F8803C 		ldrb	r3, [r3, #-128]	@ zero_extendqisi2
 513 024e 492B     		cmp	r3, #73
 514 0250 5CD1     		bne	.L25
 191:main.c        ****                 pid_instancia_variables.Ki = 0;
 515              		.loc 1 191 0
 516 0252 0023     		movs	r3, #0
 517 0254 1393     		str	r3, [sp, #76]	@ float
 518              	.LVL77:
 192:main.c        ****                 
 193:main.c        ****                 //Parseamos
 194:main.c        ****                 x = -2;
 195:main.c        ****                 
 196:main.c        ****                 //Encontramos la posicion del punto dentro de la cadena
 197:main.c        ****                 posicion = strchr(buffer_Rx, '.');
 519              		.loc 1 197 0
 520 0256 E946     		mov	r9, sp
 521 0258 2E21     		movs	r1, #46
 522 025a 6846     		mov	r0, sp
 523 025c FFF7FEFF 		bl	strchr
 524              	.LVL78:
 198:main.c        ****                 posicionEnCadena = posicion - buffer_Rx;
 525              		.loc 1 198 0
 526 0260 C9EB0009 		rsb	r9, r9, r0
 527              	.LVL79:
 194:main.c        ****                 
 528              		.loc 1 194 0
 529 0264 6FF00104 		mvn	r4, #1
 199:main.c        ****                 
 200:main.c        ****                 while (buffer_Rx[i+x] != '.'){//Miestras sea la parte decimal
ARM GAS  C:\Users\adria\AppData\Local\Temp\ccCE9RI1.s 			page 14


 530              		.loc 1 200 0
 531 0268 24E0     		b	.L26
 532              	.LVL80:
 533              	.L27:
 201:main.c        ****                 
 202:main.c        **** 
 203:main.c        ****                     pid_instancia_variables.Ki += (buffer_Rx[i+x] - 0x30) * powf(0.1,(float)i+x-pos
 534              		.loc 1 203 0
 535 026a A0F13007 		sub	r7, r0, #48
 536 026e 2846     		mov	r0, r5
 537 0270 FFF7FEFF 		bl	__aeabi_ui2f
 538              	.LVL81:
 539 0274 8246     		mov	r10, r0
 540 0276 2046     		mov	r0, r4
 541 0278 FFF7FEFF 		bl	__aeabi_i2f
 542              	.LVL82:
 543 027c 5146     		mov	r1, r10
 544 027e FFF7FEFF 		bl	__aeabi_fadd
 545              	.LVL83:
 546 0282 8246     		mov	r10, r0
 547 0284 4846     		mov	r0, r9
 548 0286 FFF7FEFF 		bl	__aeabi_i2f
 549              	.LVL84:
 550 028a 0146     		mov	r1, r0
 551 028c 5046     		mov	r0, r10
 552 028e FFF7FEFF 		bl	__aeabi_fsub
 553              	.LVL85:
 554 0292 0146     		mov	r1, r0
 555 0294 3348     		ldr	r0, .L41+44
 556 0296 FFF7FEFF 		bl	powf
 557              	.LVL86:
 558 029a 8246     		mov	r10, r0
 559 029c 3846     		mov	r0, r7
 560 029e FFF7FEFF 		bl	__aeabi_i2f
 561              	.LVL87:
 562 02a2 5146     		mov	r1, r10
 563 02a4 FFF7FEFF 		bl	__aeabi_fmul
 564              	.LVL88:
 565 02a8 0146     		mov	r1, r0
 566 02aa 1398     		ldr	r0, [sp, #76]	@ float
 567 02ac FFF7FEFF 		bl	__aeabi_fadd
 568              	.LVL89:
 569 02b0 1390     		str	r0, [sp, #76]	@ float
 204:main.c        ****                     
 205:main.c        ****                     x--;//Recorremos una posicion del string
 570              		.loc 1 205 0
 571 02b2 013C     		subs	r4, r4, #1
 572              	.LVL90:
 573              	.L26:
 200:main.c        ****                 
 574              		.loc 1 200 0
 575 02b4 04EB0803 		add	r3, r4, r8
 576 02b8 20AA     		add	r2, sp, #128
 577 02ba 1344     		add	r3, r3, r2
 578 02bc 13F8800C 		ldrb	r0, [r3, #-128]	@ zero_extendqisi2
 579 02c0 2E28     		cmp	r0, #46
 580 02c2 D2D1     		bne	.L27
ARM GAS  C:\Users\adria\AppData\Local\Temp\ccCE9RI1.s 			page 15


 581              	.LVL91:
 206:main.c        ****                 }
 207:main.c        ****                 
 208:main.c        ****                 enteros = 0;
 209:main.c        ****                 x--;//Nos saltamos el punto 
 582              		.loc 1 209 0
 583 02c4 013C     		subs	r4, r4, #1
 584              	.LVL92:
 210:main.c        ****                 while ((i+x)>=0){//Pate entera
 585              		.loc 1 210 0
 586 02c6 13E0     		b	.L28
 587              	.L29:
 211:main.c        ****                 
 212:main.c        ****                     pid_instancia_variables.Ki += (buffer_Rx[i+x] - 0x30) * pow(10.0,enteros);
 588              		.loc 1 212 0
 589 02c8 20AA     		add	r2, sp, #128
 590 02ca 1344     		add	r3, r3, r2
 591 02cc 13F8800C 		ldrb	r0, [r3, #-128]	@ zero_extendqisi2
 592 02d0 3038     		subs	r0, r0, #48
 593 02d2 FFF7FEFF 		bl	__aeabi_i2d
 594              	.LVL93:
 595 02d6 8246     		mov	r10, r0
 596 02d8 8B46     		mov	fp, r1
 597 02da 1398     		ldr	r0, [sp, #76]	@ float
 598 02dc FFF7FEFF 		bl	__aeabi_f2d
 599              	.LVL94:
 600 02e0 5246     		mov	r2, r10
 601 02e2 5B46     		mov	r3, fp
 602 02e4 FFF7FEFF 		bl	__aeabi_dadd
 603              	.LVL95:
 604 02e8 FFF7FEFF 		bl	__aeabi_d2f
 605              	.LVL96:
 606 02ec 1390     		str	r0, [sp, #76]	@ float
 213:main.c        ****                     
 214:main.c        ****                     x--;//Recorremos una posicion del string
 607              		.loc 1 214 0
 608 02ee 013C     		subs	r4, r4, #1
 609              	.LVL97:
 610              	.L28:
 210:main.c        ****                 
 611              		.loc 1 210 0
 612 02f0 14EB0803 		adds	r3, r4, r8
 613 02f4 E8D5     		bpl	.L29
 614 02f6 0023     		movs	r3, #0
 615 02f8 05E0     		b	.L30
 616              	.LVL98:
 617              	.L31:
 618              	.LBB4:
 215:main.c        ****                 }
 216:main.c        ****                 
 217:main.c        ****                 i=0;
 218:main.c        ****                 
 219:main.c        ****                 for(int i=0;i<16;i++){//limpiamos buffer
 220:main.c        ****                     buffer_Rx[i] = 0;
 619              		.loc 1 220 0 discriminator 3
 620 02fa 20AA     		add	r2, sp, #128
 621 02fc 1A44     		add	r2, r2, r3
ARM GAS  C:\Users\adria\AppData\Local\Temp\ccCE9RI1.s 			page 16


 622 02fe 0021     		movs	r1, #0
 623 0300 02F8801C 		strb	r1, [r2, #-128]
 219:main.c        ****                     buffer_Rx[i] = 0;
 624              		.loc 1 219 0 discriminator 3
 625 0304 0133     		adds	r3, r3, #1
 626              	.LVL99:
 627              	.L30:
 219:main.c        ****                     buffer_Rx[i] = 0;
 628              		.loc 1 219 0 is_stmt 0 discriminator 1
 629 0306 0F2B     		cmp	r3, #15
 630 0308 F7DD     		ble	.L31
 631              	.LBE4:
 217:main.c        ****                 
 632              		.loc 1 217 0 is_stmt 1
 633 030a 0025     		movs	r5, #0
 634              	.LVL100:
 635              	.L25:
 221:main.c        ****                 }
 222:main.c        ****             }
 223:main.c        ****             
 224:main.c        ****             if(buffer_Rx[i-1] == 'D'){ //REBIZAMOS EL KD
 636              		.loc 1 224 0
 637 030c A846     		mov	r8, r5
 638 030e 6B1E     		subs	r3, r5, #1
 639 0310 20AA     		add	r2, sp, #128
 640 0312 1344     		add	r3, r3, r2
 641 0314 13F8803C 		ldrb	r3, [r3, #-128]	@ zero_extendqisi2
 642 0318 442B     		cmp	r3, #68
 643 031a 7FF4ABAE 		bne	.L12
 225:main.c        ****                 pid_instancia_variables.Kd = 0;
 644              		.loc 1 225 0
 645 031e 0023     		movs	r3, #0
 646 0320 1493     		str	r3, [sp, #80]	@ float
 647              	.LVL101:
 226:main.c        ****                 
 227:main.c        ****                 //Parseamos
 228:main.c        ****                 x = -2;
 229:main.c        ****                 
 230:main.c        ****                 //Encontramos la posicion del punto dentro de la cadena
 231:main.c        ****                 posicion = strchr(buffer_Rx, '.');
 648              		.loc 1 231 0
 649 0322 E946     		mov	r9, sp
 650 0324 2E21     		movs	r1, #46
 651 0326 6846     		mov	r0, sp
 652 0328 FFF7FEFF 		bl	strchr
 653              	.LVL102:
 232:main.c        ****                 posicionEnCadena = posicion - buffer_Rx;
 654              		.loc 1 232 0
 655 032c C9EB0009 		rsb	r9, r9, r0
 656              	.LVL103:
 228:main.c        ****                 
 657              		.loc 1 228 0
 658 0330 6FF00104 		mvn	r4, #1
 233:main.c        ****                 
 234:main.c        ****                 while (buffer_Rx[i+x] != '.'){//Miestras sea la parte decimal
 659              		.loc 1 234 0
 660 0334 3DE0     		b	.L33
ARM GAS  C:\Users\adria\AppData\Local\Temp\ccCE9RI1.s 			page 17


 661              	.L42:
 662 0336 00BF     		.align	2
 663              	.L41:
 664 0338 00000000 		.word	sensado
 665 033c 00000000 		.word	interfaz
 666 0340 0AD7233B 		.word	992204554
 667 0344 8FC2F53C 		.word	1022739087
 668 0348 00007F43 		.word	1132396544
 669 034c CDCC4C3D 		.word	1028443341
 670 0350 0000C842 		.word	1120403456
 671 0354 00000000 		.word	.LANCHOR0
 672 0358 00000000 		.word	.LC0
 673 035c 08000000 		.word	.LC1
 674 0360 00002440 		.word	1076101120
 675 0364 CDCCCC3D 		.word	1036831949
 676              	.LVL104:
 677              	.L34:
 235:main.c        ****                 
 236:main.c        **** 
 237:main.c        ****                     pid_instancia_variables.Kd += (buffer_Rx[i+x] - 0x30) * powf(0.1,(float)i+x-pos
 678              		.loc 1 237 0
 679 0368 A0F13007 		sub	r7, r0, #48
 680 036c 2846     		mov	r0, r5
 681 036e FFF7FEFF 		bl	__aeabi_ui2f
 682              	.LVL105:
 683 0372 8246     		mov	r10, r0
 684 0374 2046     		mov	r0, r4
 685 0376 FFF7FEFF 		bl	__aeabi_i2f
 686              	.LVL106:
 687 037a 5146     		mov	r1, r10
 688 037c FFF7FEFF 		bl	__aeabi_fadd
 689              	.LVL107:
 690 0380 8246     		mov	r10, r0
 691 0382 4846     		mov	r0, r9
 692 0384 FFF7FEFF 		bl	__aeabi_i2f
 693              	.LVL108:
 694 0388 0146     		mov	r1, r0
 695 038a 5046     		mov	r0, r10
 696 038c FFF7FEFF 		bl	__aeabi_fsub
 697              	.LVL109:
 698 0390 0146     		mov	r1, r0
 699 0392 1E48     		ldr	r0, .L43
 700 0394 FFF7FEFF 		bl	powf
 701              	.LVL110:
 702 0398 8246     		mov	r10, r0
 703 039a 3846     		mov	r0, r7
 704 039c FFF7FEFF 		bl	__aeabi_i2f
 705              	.LVL111:
 706 03a0 5146     		mov	r1, r10
 707 03a2 FFF7FEFF 		bl	__aeabi_fmul
 708              	.LVL112:
 709 03a6 0146     		mov	r1, r0
 710 03a8 1498     		ldr	r0, [sp, #80]	@ float
 711 03aa FFF7FEFF 		bl	__aeabi_fadd
 712              	.LVL113:
 713 03ae 1490     		str	r0, [sp, #80]	@ float
 238:main.c        ****                     
ARM GAS  C:\Users\adria\AppData\Local\Temp\ccCE9RI1.s 			page 18


 239:main.c        ****                     x--;//Recorremos una posicion del string
 714              		.loc 1 239 0
 715 03b0 013C     		subs	r4, r4, #1
 716              	.LVL114:
 717              	.L33:
 234:main.c        ****                 
 718              		.loc 1 234 0
 719 03b2 04EB0803 		add	r3, r4, r8
 720 03b6 20AA     		add	r2, sp, #128
 721 03b8 1344     		add	r3, r3, r2
 722 03ba 13F8800C 		ldrb	r0, [r3, #-128]	@ zero_extendqisi2
 723 03be 2E28     		cmp	r0, #46
 724 03c0 D2D1     		bne	.L34
 725              	.LVL115:
 240:main.c        ****                 }
 241:main.c        ****                 
 242:main.c        ****                 enteros = 0;
 243:main.c        ****                 x--;//Nos saltamos el punto 
 726              		.loc 1 243 0
 727 03c2 013C     		subs	r4, r4, #1
 728              	.LVL116:
 244:main.c        ****                 while ((i+x)>=0){//Pate entera
 729              		.loc 1 244 0
 730 03c4 13E0     		b	.L35
 731              	.L36:
 245:main.c        ****                 
 246:main.c        ****                     pid_instancia_variables.Kd += (buffer_Rx[i+x] - 0x30) * pow(10.0,enteros);
 732              		.loc 1 246 0
 733 03c6 20AA     		add	r2, sp, #128
 734 03c8 1344     		add	r3, r3, r2
 735 03ca 13F8800C 		ldrb	r0, [r3, #-128]	@ zero_extendqisi2
 736 03ce 3038     		subs	r0, r0, #48
 737 03d0 FFF7FEFF 		bl	__aeabi_i2d
 738              	.LVL117:
 739 03d4 8246     		mov	r10, r0
 740 03d6 8B46     		mov	fp, r1
 741 03d8 1498     		ldr	r0, [sp, #80]	@ float
 742 03da FFF7FEFF 		bl	__aeabi_f2d
 743              	.LVL118:
 744 03de 5246     		mov	r2, r10
 745 03e0 5B46     		mov	r3, fp
 746 03e2 FFF7FEFF 		bl	__aeabi_dadd
 747              	.LVL119:
 748 03e6 FFF7FEFF 		bl	__aeabi_d2f
 749              	.LVL120:
 750 03ea 1490     		str	r0, [sp, #80]	@ float
 247:main.c        ****                     
 248:main.c        ****                     x--;//Recorremos una posicion del string
 751              		.loc 1 248 0
 752 03ec 013C     		subs	r4, r4, #1
 753              	.LVL121:
 754              	.L35:
 244:main.c        ****                 
 755              		.loc 1 244 0
 756 03ee 14EB0803 		adds	r3, r4, r8
 757 03f2 E8D5     		bpl	.L36
 758 03f4 0023     		movs	r3, #0
ARM GAS  C:\Users\adria\AppData\Local\Temp\ccCE9RI1.s 			page 19


 759 03f6 05E0     		b	.L37
 760              	.LVL122:
 761              	.L38:
 762              	.LBB5:
 249:main.c        ****                 }
 250:main.c        ****                 
 251:main.c        ****                 i=0;
 252:main.c        ****                 
 253:main.c        ****                 for(int i=0;i<16;i++){//limpiamos buffer
 254:main.c        ****                     buffer_Rx[i] = 0;
 763              		.loc 1 254 0 discriminator 3
 764 03f8 20AA     		add	r2, sp, #128
 765 03fa 1A44     		add	r2, r2, r3
 766 03fc 0021     		movs	r1, #0
 767 03fe 02F8801C 		strb	r1, [r2, #-128]
 253:main.c        ****                     buffer_Rx[i] = 0;
 768              		.loc 1 253 0 discriminator 3
 769 0402 0133     		adds	r3, r3, #1
 770              	.LVL123:
 771              	.L37:
 253:main.c        ****                     buffer_Rx[i] = 0;
 772              		.loc 1 253 0 is_stmt 0 discriminator 1
 773 0404 0F2B     		cmp	r3, #15
 774 0406 F7DD     		ble	.L38
 775              	.LBE5:
 251:main.c        ****                 
 776              		.loc 1 251 0 is_stmt 1
 777 0408 0025     		movs	r5, #0
 778              	.LVL124:
 779 040a 33E6     		b	.L12
 780              	.L44:
 781              		.align	2
 782              	.L43:
 783 040c CDCCCC3D 		.word	1036831949
 784              		.cfi_endproc
 785              	.LFE66:
 786              		.size	main, .-main
 787              		.global	interfaz_lab
 788              		.global	sens_flag
 789              		.data
 790              		.set	.LANCHOR0,. + 0
 791              		.type	sens_flag, %object
 792              		.size	sens_flag, 1
 793              	sens_flag:
 794 0000 FE       		.byte	-2
 795              		.type	interfaz_lab, %object
 796              		.size	interfaz_lab, 1
 797              	interfaz_lab:
 798 0001 FE       		.byte	-2
 799              		.section	.rodata.str1.4,"aMS",%progbits,1
 800              		.align	2
 801              	.LC0:
 802 0000 53256473 		.ascii	"S%ds\000"
 802      00
 803 0005 000000   		.space	3
 804              	.LC1:
 805 0008 41256461 		.ascii	"A%da\000"
ARM GAS  C:\Users\adria\AppData\Local\Temp\ccCE9RI1.s 			page 20


 805      00
 806              		.text
 807              	.Letext0:
 808              		.file 2 "c:\\program files (x86)\\cypress\\psoc creator\\4.4\\psoc creator\\import\\gnu\\arm\\5.4.
 809              		.file 3 "c:\\program files (x86)\\cypress\\psoc creator\\4.4\\psoc creator\\import\\gnu\\arm\\5.4.
 810              		.file 4 "PID.h"
 811              		.file 5 "filtros.h"
 812              		.file 6 "Generated_Source\\PSoC5/core_cm3.h"
 813              		.file 7 "Generated_Source\\PSoC5/sensado.h"
 814              		.file 8 "Generated_Source\\PSoC5/interfaz.h"
 815              		.file 9 "Generated_Source\\PSoC5/PWM.h"
 816              		.file 10 "Generated_Source\\PSoC5/Sampling.h"
 817              		.file 11 "Generated_Source\\PSoC5/UART.h"
 818              		.file 12 "Generated_Source\\PSoC5/ADC.h"
 819              		.file 13 "c:\\program files (x86)\\cypress\\psoc creator\\4.4\\psoc creator\\import\\gnu\\arm\\5.4
 820              		.file 14 "c:\\program files (x86)\\cypress\\psoc creator\\4.4\\psoc creator\\import\\gnu\\arm\\5.4
 821              		.file 15 "c:\\program files (x86)\\cypress\\psoc creator\\4.4\\psoc creator\\import\\gnu\\arm\\5.4