ARM GAS  C:\Users\adria\AppData\Local\Temp\ccI89AVj.s 			page 1


   1              		.syntax unified
   2              		.cpu cortex-m3
   3              		.fpu softvfp
   4              		.eabi_attribute 20, 1
   5              		.eabi_attribute 21, 1
   6              		.eabi_attribute 23, 3
   7              		.eabi_attribute 24, 1
   8              		.eabi_attribute 25, 1
   9              		.eabi_attribute 26, 1
  10              		.eabi_attribute 30, 1
  11              		.eabi_attribute 34, 1
  12              		.eabi_attribute 18, 4
  13              		.thumb
  14              		.syntax unified
  15              		.file	"main.c"
  16              		.text
  17              	.Ltext0:
  18              		.cfi_sections	.debug_frame
  19              		.section	.text.actualizar,"ax",%progbits
  20              		.align	2
  21              		.global	actualizar
  22              		.thumb
  23              		.thumb_func
  24              		.type	actualizar, %function
  25              	actualizar:
  26              	.LFB63:
  27              		.file 1 "main.c"
   1:main.c        **** #include "project.h"
   2:main.c        **** #include "..\..\lcd_7seg\Workspace01\LCD.cydsn\PSOC_LCD.h"
   3:main.c        **** #include "D:\GITHUB\Librerias_PSOC\Libreria_PSOC\LIB_psoc.h"
   4:main.c        **** 
   5:main.c        **** //Rutina de interrupcion
   6:main.c        **** uint8_t angulo = 180;//angulo de dispatp
   7:main.c        **** uint8_t flag = 0;
   8:main.c        **** CY_ISR(actualizar){
  28              		.loc 1 8 0
  29              		.cfi_startproc
  30              		@ args = 0, pretend = 0, frame = 0
  31              		@ frame_needed = 0, uses_anonymous_args = 0
  32 0000 30B5     		push	{r4, r5, lr}
  33              		.cfi_def_cfa_offset 12
  34              		.cfi_offset 4, -12
  35              		.cfi_offset 5, -8
  36              		.cfi_offset 14, -4
  37 0002 83B0     		sub	sp, sp, #12
  38              		.cfi_def_cfa_offset 24
   9:main.c        ****     actualizar_ClearPending();
  39              		.loc 1 9 0
  40 0004 FFF7FEFF 		bl	actualizar_ClearPending
  41              	.LVL0:
  10:main.c        ****     
  11:main.c        ****      Timer_0_WritePeriod(map(angulo,0,180,2,255));
  42              		.loc 1 11 0
  43 0008 0B4D     		ldr	r5, .L3
  44 000a 2878     		ldrb	r0, [r5]	@ zero_extendqisi2
  45 000c FF24     		movs	r4, #255
  46 000e 0094     		str	r4, [sp]
ARM GAS  C:\Users\adria\AppData\Local\Temp\ccI89AVj.s 			page 2


  47 0010 0223     		movs	r3, #2
  48 0012 B422     		movs	r2, #180
  49 0014 0021     		movs	r1, #0
  50 0016 FFF7FEFF 		bl	map
  51              	.LVL1:
  52 001a C0B2     		uxtb	r0, r0
  53 001c FFF7FEFF 		bl	Timer_0_WritePeriod
  54              	.LVL2:
  12:main.c        ****      Timer_1_WritePeriod(map(angulo,0,180,2,255));
  55              		.loc 1 12 0
  56 0020 2878     		ldrb	r0, [r5]	@ zero_extendqisi2
  57 0022 0094     		str	r4, [sp]
  58 0024 0223     		movs	r3, #2
  59 0026 B422     		movs	r2, #180
  60 0028 0021     		movs	r1, #0
  61 002a FFF7FEFF 		bl	map
  62              	.LVL3:
  63 002e C0B2     		uxtb	r0, r0
  64 0030 FFF7FEFF 		bl	Timer_1_WritePeriod
  65              	.LVL4:
  13:main.c        **** }
  66              		.loc 1 13 0
  67 0034 03B0     		add	sp, sp, #12
  68              		.cfi_def_cfa_offset 12
  69              		@ sp needed
  70 0036 30BD     		pop	{r4, r5, pc}
  71              	.L4:
  72              		.align	2
  73              	.L3:
  74 0038 00000000 		.word	.LANCHOR0
  75              		.cfi_endproc
  76              	.LFE63:
  77              		.size	actualizar, .-actualizar
  78              		.section	.text.DIS_0,"ax",%progbits
  79              		.align	2
  80              		.global	DIS_0
  81              		.thumb
  82              		.thumb_func
  83              		.type	DIS_0, %function
  84              	DIS_0:
  85              	.LFB64:
  14:main.c        **** 
  15:main.c        **** /*
  16:main.c        ****     Rutinas de disparo para control por fase
  17:main.c        **** */
  18:main.c        **** uint8_t Disparadores_reg = 0;
  19:main.c        **** CY_ISR(DIS_0){
  86              		.loc 1 19 0
  87              		.cfi_startproc
  88              		@ args = 0, pretend = 0, frame = 0
  89              		@ frame_needed = 0, uses_anonymous_args = 0
  90 0000 10B5     		push	{r4, lr}
  91              		.cfi_def_cfa_offset 8
  92              		.cfi_offset 4, -8
  93              		.cfi_offset 14, -4
  20:main.c        ****     DIS_0_ClearPending();
  94              		.loc 1 20 0
ARM GAS  C:\Users\adria\AppData\Local\Temp\ccI89AVj.s 			page 3


  95 0002 FFF7FEFF 		bl	DIS_0_ClearPending
  96              	.LVL5:
  21:main.c        ****     
  22:main.c        ****     Disparadores_reg = DISPARADORES_Read();//Leemos estadoa ctual de los disparos
  97              		.loc 1 22 0
  98 0006 FFF7FEFF 		bl	DISPARADORES_Read
  99              	.LVL6:
 100 000a 074C     		ldr	r4, .L7
 101 000c 2070     		strb	r0, [r4]
  23:main.c        ****     
  24:main.c        ****     DISPARADORES_Write(Disparadores_reg | BIT0);
 102              		.loc 1 24 0
 103 000e 40F00100 		orr	r0, r0, #1
 104 0012 FFF7FEFF 		bl	DISPARADORES_Write
 105              	.LVL7:
  25:main.c        ****     CyDelayUs(9);
 106              		.loc 1 25 0
 107 0016 0920     		movs	r0, #9
 108 0018 FFF7FEFF 		bl	CyDelayUs
 109              	.LVL8:
  26:main.c        ****     DISPARADORES_Write(Disparadores_reg & (~BIT0));
 110              		.loc 1 26 0
 111 001c 2078     		ldrb	r0, [r4]	@ zero_extendqisi2
 112 001e 00F0FE00 		and	r0, r0, #254
 113 0022 FFF7FEFF 		bl	DISPARADORES_Write
 114              	.LVL9:
 115 0026 10BD     		pop	{r4, pc}
 116              	.L8:
 117              		.align	2
 118              	.L7:
 119 0028 00000000 		.word	.LANCHOR1
 120              		.cfi_endproc
 121              	.LFE64:
 122              		.size	DIS_0, .-DIS_0
 123              		.section	.text.DIS_1,"ax",%progbits
 124              		.align	2
 125              		.global	DIS_1
 126              		.thumb
 127              		.thumb_func
 128              		.type	DIS_1, %function
 129              	DIS_1:
 130              	.LFB65:
  27:main.c        ****     
  28:main.c        **** }
  29:main.c        **** 
  30:main.c        **** CY_ISR(DIS_1){
 131              		.loc 1 30 0
 132              		.cfi_startproc
 133              		@ args = 0, pretend = 0, frame = 0
 134              		@ frame_needed = 0, uses_anonymous_args = 0
 135 0000 10B5     		push	{r4, lr}
 136              		.cfi_def_cfa_offset 8
 137              		.cfi_offset 4, -8
 138              		.cfi_offset 14, -4
  31:main.c        ****     DIS_1_ClearPending();
 139              		.loc 1 31 0
 140 0002 FFF7FEFF 		bl	DIS_1_ClearPending
ARM GAS  C:\Users\adria\AppData\Local\Temp\ccI89AVj.s 			page 4


 141              	.LVL10:
  32:main.c        ****     
  33:main.c        ****     Disparadores_reg = DISPARADORES_Read();//Leemos estadoa ctual de los disparos
 142              		.loc 1 33 0
 143 0006 FFF7FEFF 		bl	DISPARADORES_Read
 144              	.LVL11:
 145 000a 074C     		ldr	r4, .L11
 146 000c 2070     		strb	r0, [r4]
  34:main.c        ****     
  35:main.c        ****     DISPARADORES_Write(Disparadores_reg | BIT1);
 147              		.loc 1 35 0
 148 000e 40F00200 		orr	r0, r0, #2
 149 0012 FFF7FEFF 		bl	DISPARADORES_Write
 150              	.LVL12:
  36:main.c        ****     CyDelayUs(9);
 151              		.loc 1 36 0
 152 0016 0920     		movs	r0, #9
 153 0018 FFF7FEFF 		bl	CyDelayUs
 154              	.LVL13:
  37:main.c        ****     DISPARADORES_Write(Disparadores_reg & (~BIT1));
 155              		.loc 1 37 0
 156 001c 2078     		ldrb	r0, [r4]	@ zero_extendqisi2
 157 001e 00F0FD00 		and	r0, r0, #253
 158 0022 FFF7FEFF 		bl	DISPARADORES_Write
 159              	.LVL14:
 160 0026 10BD     		pop	{r4, pc}
 161              	.L12:
 162              		.align	2
 163              	.L11:
 164 0028 00000000 		.word	.LANCHOR1
 165              		.cfi_endproc
 166              	.LFE65:
 167              		.size	DIS_1, .-DIS_1
 168              		.section	.text.main,"ax",%progbits
 169              		.align	2
 170              		.global	main
 171              		.thumb
 172              		.thumb_func
 173              		.type	main, %function
 174              	main:
 175              	.LFB66:
  38:main.c        ****     
  39:main.c        **** }
  40:main.c        **** int main(void)
  41:main.c        **** {
 176              		.loc 1 41 0
 177              		.cfi_startproc
 178              		@ args = 0, pretend = 0, frame = 0
 179              		@ frame_needed = 0, uses_anonymous_args = 0
 180 0000 10B5     		push	{r4, lr}
 181              		.cfi_def_cfa_offset 8
 182              		.cfi_offset 4, -8
 183              		.cfi_offset 14, -4
  42:main.c        ****     CyGlobalIntEnable; 
 184              		.loc 1 42 0
 185              		.syntax unified
 186              	@ 42 "main.c" 1
ARM GAS  C:\Users\adria\AppData\Local\Temp\ccI89AVj.s 			page 5


 187 0002 62B6     		CPSIE   i
 188              	@ 0 "" 2
  43:main.c        ****     //pERIFÉRICOS
  44:main.c        ****     Timer_0_Start();
 189              		.loc 1 44 0
 190              		.thumb
 191              		.syntax unified
 192 0004 FFF7FEFF 		bl	Timer_0_Start
 193              	.LVL15:
  45:main.c        ****     Timer_1_Start();
 194              		.loc 1 45 0
 195 0008 FFF7FEFF 		bl	Timer_1_Start
 196              	.LVL16:
  46:main.c        ****     LCD_Start();
 197              		.loc 1 46 0
 198 000c FFF7FEFF 		bl	LCD_Start
 199              	.LVL17:
  47:main.c        ****     
  48:main.c        ****     //INTERRUPCIONES
  49:main.c        ****     actualizar_StartEx(actualizar);
 200              		.loc 1 49 0
 201 0010 1E48     		ldr	r0, .L18
 202 0012 FFF7FEFF 		bl	actualizar_StartEx
 203              	.LVL18:
  50:main.c        ****     actualizar_ClearPending();
 204              		.loc 1 50 0
 205 0016 FFF7FEFF 		bl	actualizar_ClearPending
 206              	.LVL19:
  51:main.c        ****     btns_InterruptEnable();
 207              		.loc 1 51 0
 208 001a FFF7FEFF 		bl	btns_InterruptEnable
 209              	.LVL20:
  52:main.c        ****     DIS_0_StartEx(DIS_0);
 210              		.loc 1 52 0
 211 001e 1C48     		ldr	r0, .L18+4
 212 0020 FFF7FEFF 		bl	DIS_0_StartEx
 213              	.LVL21:
  53:main.c        ****     DIS_0_ClearPending();
 214              		.loc 1 53 0
 215 0024 FFF7FEFF 		bl	DIS_0_ClearPending
 216              	.LVL22:
  54:main.c        ****     DIS_1_StartEx(DIS_1);
 217              		.loc 1 54 0
 218 0028 1A48     		ldr	r0, .L18+8
 219 002a FFF7FEFF 		bl	DIS_1_StartEx
 220              	.LVL23:
  55:main.c        ****     DIS_1_ClearPending();
 221              		.loc 1 55 0
 222 002e FFF7FEFF 		bl	DIS_1_ClearPending
 223              	.LVL24:
  56:main.c        ****     
  57:main.c        ****     
  58:main.c        ****     //lcd CONFIG INICIAL
  59:main.c        ****     LCD_Position(0,0);
 224              		.loc 1 59 0
 225 0032 0021     		movs	r1, #0
 226 0034 0846     		mov	r0, r1
ARM GAS  C:\Users\adria\AppData\Local\Temp\ccI89AVj.s 			page 6


 227 0036 FFF7FEFF 		bl	LCD_Position
 228              	.LVL25:
  60:main.c        ****     LCD_PrintString("ANGULO:");
 229              		.loc 1 60 0
 230 003a 1748     		ldr	r0, .L18+12
 231 003c FFF7FEFF 		bl	LCD_PrintString
 232              	.LVL26:
 233              	.L16:
  61:main.c        ****     
  62:main.c        ****     //REGISTRO DE BOTONES
  63:main.c        ****     uint8_t btns=0;
  64:main.c        ****     for(;;)
  65:main.c        ****     {
  66:main.c        ****         
  67:main.c        ****         btns = btns_Read();//checamos botones
 234              		.loc 1 67 0
 235 0040 FFF7FEFF 		bl	btns_Read
 236              	.LVL27:
 237 0044 0446     		mov	r4, r0
 238              	.LVL28:
  68:main.c        ****         CyDelay(150);
 239              		.loc 1 68 0
 240 0046 9620     		movs	r0, #150
 241 0048 FFF7FEFF 		bl	CyDelay
 242              	.LVL29:
  69:main.c        ****         
  70:main.c        ****         //SUMAMOS O RESTAMOS SEGUN SE QUIERA EL USUARIO
  71:main.c        ****         if(btns & BIT0){
 243              		.loc 1 71 0
 244 004c 14F0010F 		tst	r4, #1
 245 0050 03D0     		beq	.L14
  72:main.c        ****             angulo ++;
 246              		.loc 1 72 0
 247 0052 124A     		ldr	r2, .L18+16
 248 0054 1378     		ldrb	r3, [r2]	@ zero_extendqisi2
 249 0056 0133     		adds	r3, r3, #1
 250 0058 1370     		strb	r3, [r2]
 251              	.L14:
  73:main.c        ****         }
  74:main.c        ****         
  75:main.c        ****         if((btns & BIT1)>>1){
 252              		.loc 1 75 0
 253 005a 14F0020F 		tst	r4, #2
 254 005e 03D0     		beq	.L15
  76:main.c        ****             angulo--;
 255              		.loc 1 76 0
 256 0060 0E4A     		ldr	r2, .L18+16
 257 0062 1378     		ldrb	r3, [r2]	@ zero_extendqisi2
 258 0064 013B     		subs	r3, r3, #1
 259 0066 1370     		strb	r3, [r2]
 260              	.L15:
  77:main.c        ****         }
  78:main.c        ****         
  79:main.c        ****         //TRUNCAMOS SI SE SATURA EL ACTUADORS
  80:main.c        ****         angulo = trunca(angulo,45,180);
 261              		.loc 1 80 0
 262 0068 0C4C     		ldr	r4, .L18+16
ARM GAS  C:\Users\adria\AppData\Local\Temp\ccI89AVj.s 			page 7


 263              	.LVL30:
 264 006a B422     		movs	r2, #180
 265 006c 2D21     		movs	r1, #45
 266 006e 2078     		ldrb	r0, [r4]	@ zero_extendqisi2
 267 0070 FFF7FEFF 		bl	trunca
 268              	.LVL31:
 269 0074 2070     		strb	r0, [r4]
  81:main.c        ****         
  82:main.c        ****         //Atualizamos el angulo de disparo
  83:main.c        ****         LCD_Position(1,0);
 270              		.loc 1 83 0
 271 0076 0021     		movs	r1, #0
 272 0078 0120     		movs	r0, #1
 273 007a FFF7FEFF 		bl	LCD_Position
 274              	.LVL32:
  84:main.c        ****         LCD_PrintNumber(angulo);
 275              		.loc 1 84 0
 276 007e 2078     		ldrb	r0, [r4]	@ zero_extendqisi2
 277 0080 FFF7FEFF 		bl	LCD_PrintNumber
 278              	.LVL33:
  85:main.c        ****         LCD_PrintString("*          ");
 279              		.loc 1 85 0
 280 0084 0648     		ldr	r0, .L18+20
 281 0086 FFF7FEFF 		bl	LCD_PrintString
 282              	.LVL34:
  86:main.c        ****         
  87:main.c        ****     }
 283              		.loc 1 87 0
 284 008a D9E7     		b	.L16
 285              	.L19:
 286              		.align	2
 287              	.L18:
 288 008c 00000000 		.word	actualizar
 289 0090 00000000 		.word	DIS_0
 290 0094 00000000 		.word	DIS_1
 291 0098 00000000 		.word	.LC0
 292 009c 00000000 		.word	.LANCHOR0
 293 00a0 08000000 		.word	.LC1
 294              		.cfi_endproc
 295              	.LFE66:
 296              		.size	main, .-main
 297              		.global	Disparadores_reg
 298              		.global	flag
 299              		.global	angulo
 300              		.data
 301              		.set	.LANCHOR0,. + 0
 302              		.type	angulo, %object
 303              		.size	angulo, 1
 304              	angulo:
 305 0000 B4       		.byte	-76
 306              		.section	.rodata.str1.4,"aMS",%progbits,1
 307              		.align	2
 308              	.LC0:
 309 0000 414E4755 		.ascii	"ANGULO:\000"
 309      4C4F3A00 
 310              	.LC1:
 311 0008 2A202020 		.ascii	"*          \000"
ARM GAS  C:\Users\adria\AppData\Local\Temp\ccI89AVj.s 			page 8


 311      20202020 
 311      20202000 
 312              		.bss
 313              		.set	.LANCHOR1,. + 0
 314              		.type	Disparadores_reg, %object
 315              		.size	Disparadores_reg, 1
 316              	Disparadores_reg:
 317 0000 00       		.space	1
 318              		.type	flag, %object
 319              		.size	flag, 1
 320              	flag:
 321 0001 00       		.space	1
 322              		.text
 323              	.Letext0:
 324              		.file 2 "c:\\program files (x86)\\cypress\\psoc creator\\4.4\\psoc creator\\import\\gnu\\arm\\5.4.
 325              		.file 3 "c:\\program files (x86)\\cypress\\psoc creator\\4.4\\psoc creator\\import\\gnu\\arm\\5.4.
 326              		.file 4 "Generated_Source\\PSoC5/core_cm3.h"
 327              		.file 5 "Generated_Source\\PSoC5/actualizar.h"
 328              		.file 6 "Generated_Source\\PSoC5/Timer_0.h"
 329              		.file 7 "Generated_Source\\PSoC5/Timer_1.h"
 330              		.file 8 "Generated_Source\\PSoC5/DIS_0.h"
 331              		.file 9 "Generated_Source\\PSoC5/DISPARADORES.h"
 332              		.file 10 "Generated_Source\\PSoC5/CyLib.h"
 333              		.file 11 "Generated_Source\\PSoC5/DIS_1.h"
 334              		.file 12 "..\\..\\lcd_7seg\\Workspace01\\LCD.cydsn\\PSOC_LCD.h"
 335              		.file 13 "Generated_Source\\PSoC5/btns.h"
 336              		.file 14 "D:\\GITHUB\\Librerias_PSOC\\Libreria_PSOC\\LIB_psoc.h"