ARM GAS  C:\Users\adria\AppData\Local\Temp\cctMb114.s 			page 1


   1              		.syntax unified
   2              		.cpu cortex-m3
   3              		.fpu softvfp
   4              		.eabi_attribute 20, 1
   5              		.eabi_attribute 21, 1
   6              		.eabi_attribute 23, 3
   7              		.eabi_attribute 24, 1
   8              		.eabi_attribute 25, 1
   9              		.eabi_attribute 26, 1
  10              		.eabi_attribute 30, 1
  11              		.eabi_attribute 34, 1
  12              		.eabi_attribute 18, 4
  13              		.thumb
  14              		.syntax unified
  15              		.file	"Firmware_7seg.c"
  16              		.text
  17              	.Ltext0:
  18              		.cfi_sections	.debug_frame
  19              		.section	.text.Separa_digitos,"ax",%progbits
  20              		.align	2
  21              		.global	Separa_digitos
  22              		.thumb
  23              		.thumb_func
  24              		.type	Separa_digitos, %function
  25              	Separa_digitos:
  26              	.LFB63:
  27              		.file 1 "Firmware_7seg.c"
   1:Firmware_7seg.c **** #include "Firmware_7seg.h"
   2:Firmware_7seg.c **** /*
   3:Firmware_7seg.c ****     La funcion separa los digitos de un número
   4:Firmware_7seg.c ****                             BCD codificación por default
   5:Firmware_7seg.c ****     F(1342) ->>> Millares:1  
   6:Firmware_7seg.c ****                  Centenas:3
   7:Firmware_7seg.c ****                  Decenas: 4
   8:Firmware_7seg.c ****                  Unidades 2
   9:Firmware_7seg.c ****                 
  10:Firmware_7seg.c ****     1342 ->> 0b0000010100111110     En BCD  0001 0011 0100 0010
  11:Firmware_7seg.c ****                                              1      3    4    2
  12:Firmware_7seg.c ****     
  13:Firmware_7seg.c ****                                             
  14:Firmware_7seg.c ****     Y almacena los resultados en el registro de DIGITOS
  15:Firmware_7seg.c **** */
  16:Firmware_7seg.c **** void Separa_digitos(uint16_t num){ 
  28              		.loc 1 16 0
  29              		.cfi_startproc
  30              		@ args = 0, pretend = 0, frame = 0
  31              		@ frame_needed = 0, uses_anonymous_args = 0
  32              		@ link register save eliminated.
  33              	.LVL0:
  34 0000 70B4     		push	{r4, r5, r6}
  35              		.cfi_def_cfa_offset 12
  36              		.cfi_offset 4, -12
  37              		.cfi_offset 5, -8
  38              		.cfi_offset 6, -4
  17:Firmware_7seg.c ****     
  18:Firmware_7seg.c ****     uint8_t digm,digc,digd,digu;
  19:Firmware_7seg.c ****     
ARM GAS  C:\Users\adria\AppData\Local\Temp\cctMb114.s 			page 2


  20:Firmware_7seg.c ****     //Conseguimos los dígitos en BCD
  21:Firmware_7seg.c ****     digm = num / 1000;        // Obtén el primer dígito (miles)
  39              		.loc 1 21 0
  40 0002 134C     		ldr	r4, .L3
  41 0004 A4FB0034 		umull	r3, r4, r4, r0
  42 0008 A409     		lsrs	r4, r4, #6
  43              	.LVL1:
  22:Firmware_7seg.c ****     digc = (num / 100) % 10;  // Obtén el segundo dígito (centenas)
  44              		.loc 1 22 0
  45 000a 1249     		ldr	r1, .L3+4
  46 000c A1FB0031 		umull	r3, r1, r1, r0
  47 0010 4909     		lsrs	r1, r1, #5
  48 0012 114B     		ldr	r3, .L3+8
  49 0014 A3FB0152 		umull	r5, r2, r3, r1
  50 0018 D208     		lsrs	r2, r2, #3
  51 001a 02EB8202 		add	r2, r2, r2, lsl #2
  52 001e 5500     		lsls	r5, r2, #1
  53 0020 491B     		subs	r1, r1, r5
  54              	.LVL2:
  23:Firmware_7seg.c ****     digd = (num / 10) % 10;   // Obtén el tercer dígito (decenas)
  55              		.loc 1 23 0
  56 0022 A3FB0052 		umull	r5, r2, r3, r0
  57 0026 D208     		lsrs	r2, r2, #3
  58 0028 95B2     		uxth	r5, r2
  59 002a A3FB0563 		umull	r6, r3, r3, r5
  60 002e DB08     		lsrs	r3, r3, #3
  61 0030 03EB8303 		add	r3, r3, r3, lsl #2
  62 0034 5E00     		lsls	r6, r3, #1
  63 0036 AD1B     		subs	r5, r5, r6
  64              	.LVL3:
  24:Firmware_7seg.c ****     digu = num % 10;          // Obtén el cuarto dígito (unidades)    
  65              		.loc 1 24 0
  66 0038 02EB8202 		add	r2, r2, r2, lsl #2
  67 003c 5300     		lsls	r3, r2, #1
  68 003e C01A     		subs	r0, r0, r3
  69              	.LVL4:
  25:Firmware_7seg.c ****     
  26:Firmware_7seg.c ****     //Le metemos los digitos a la variable SEGMENTOS
  27:Firmware_7seg.c ****     DIGITOS[0] = digm;
  70              		.loc 1 27 0
  71 0040 064B     		ldr	r3, .L3+12
  72 0042 1C70     		strb	r4, [r3]
  28:Firmware_7seg.c ****     DIGITOS[1] = digc;
  73              		.loc 1 28 0
  74 0044 5970     		strb	r1, [r3, #1]
  29:Firmware_7seg.c ****     DIGITOS[2] = digd;
  75              		.loc 1 29 0
  76 0046 9D70     		strb	r5, [r3, #2]
  30:Firmware_7seg.c ****     DIGITOS[3] = digu;
  77              		.loc 1 30 0
  78 0048 D870     		strb	r0, [r3, #3]
  31:Firmware_7seg.c **** }
  79              		.loc 1 31 0
  80 004a 70BC     		pop	{r4, r5, r6}
  81              		.cfi_restore 6
  82              		.cfi_restore 5
  83              		.cfi_restore 4
ARM GAS  C:\Users\adria\AppData\Local\Temp\cctMb114.s 			page 3


  84              		.cfi_def_cfa_offset 0
  85              	.LVL5:
  86 004c 7047     		bx	lr
  87              	.L4:
  88 004e 00BF     		.align	2
  89              	.L3:
  90 0050 D34D6210 		.word	274877907
  91 0054 1F85EB51 		.word	1374389535
  92 0058 CDCCCCCC 		.word	-858993459
  93 005c 00000000 		.word	DIGITOS
  94              		.cfi_endproc
  95              	.LFE63:
  96              		.size	Separa_digitos, .-Separa_digitos
  97              		.section	.text.BCD_CODIFIG,"ax",%progbits
  98              		.align	2
  99              		.global	BCD_CODIFIG
 100              		.thumb
 101              		.thumb_func
 102              		.type	BCD_CODIFIG, %function
 103              	BCD_CODIFIG:
 104              	.LFB64:
  32:Firmware_7seg.c **** 
  33:Firmware_7seg.c **** //cODIFICADOR BCD--->>7SEGMENTOS
  34:Firmware_7seg.c **** void BCD_CODIFIG(uint8_t BCD){
 105              		.loc 1 34 0
 106              		.cfi_startproc
 107              		@ args = 0, pretend = 0, frame = 0
 108              		@ frame_needed = 0, uses_anonymous_args = 0
 109              	.LVL6:
 110 0000 08B5     		push	{r3, lr}
 111              		.cfi_def_cfa_offset 8
 112              		.cfi_offset 3, -8
 113              		.cfi_offset 14, -4
  35:Firmware_7seg.c **** 
  36:Firmware_7seg.c ****     //  0b XSSSS SSSS
  37:Firmware_7seg.c ****     switch (BCD) {
 114              		.loc 1 37 0
 115 0002 0928     		cmp	r0, #9
 116 0004 2DD8     		bhi	.L5
 117 0006 DFE800F0 		tbb	[pc, r0]
 118              	.L8:
 119 000a 05       		.byte	(.L7-.L8)/2
 120 000b 09       		.byte	(.L9-.L8)/2
 121 000c 0D       		.byte	(.L10-.L8)/2
 122 000d 11       		.byte	(.L11-.L8)/2
 123 000e 15       		.byte	(.L12-.L8)/2
 124 000f 19       		.byte	(.L13-.L8)/2
 125 0010 1D       		.byte	(.L14-.L8)/2
 126 0011 21       		.byte	(.L15-.L8)/2
 127 0012 25       		.byte	(.L16-.L8)/2
 128 0013 29       		.byte	(.L17-.L8)/2
 129              		.p2align 1
 130              	.L7:
  38:Firmware_7seg.c ****         case 0x00: // 0
  39:Firmware_7seg.c ****             Segmentos_7seg_Write(0x3F); // Código hexadecimal para el dígito 0 en 7 segmentos
 131              		.loc 1 39 0
 132 0014 3F20     		movs	r0, #63
ARM GAS  C:\Users\adria\AppData\Local\Temp\cctMb114.s 			page 4


 133              	.LVL7:
 134 0016 FFF7FEFF 		bl	Segmentos_7seg_Write
 135              	.LVL8:
  40:Firmware_7seg.c ****             break;
 136              		.loc 1 40 0
 137 001a 08BD     		pop	{r3, pc}
 138              	.LVL9:
 139              	.L9:
  41:Firmware_7seg.c ****         case 0x01: // 1
  42:Firmware_7seg.c ****             Segmentos_7seg_Write(0x06); // Código hexadecimal para el dígito 1 en 7 segmentos
 140              		.loc 1 42 0
 141 001c 0620     		movs	r0, #6
 142              	.LVL10:
 143 001e FFF7FEFF 		bl	Segmentos_7seg_Write
 144              	.LVL11:
  43:Firmware_7seg.c ****             break;
 145              		.loc 1 43 0
 146 0022 08BD     		pop	{r3, pc}
 147              	.LVL12:
 148              	.L10:
  44:Firmware_7seg.c ****         case 0x02: // 2
  45:Firmware_7seg.c ****             Segmentos_7seg_Write(0x5B); // Código hexadecimal para el dígito 2 en 7 segmentos
 149              		.loc 1 45 0
 150 0024 5B20     		movs	r0, #91
 151              	.LVL13:
 152 0026 FFF7FEFF 		bl	Segmentos_7seg_Write
 153              	.LVL14:
  46:Firmware_7seg.c ****             break;
 154              		.loc 1 46 0
 155 002a 08BD     		pop	{r3, pc}
 156              	.LVL15:
 157              	.L11:
  47:Firmware_7seg.c ****         case 0x03: // 3
  48:Firmware_7seg.c ****             Segmentos_7seg_Write(0x4F); // Código hexadecimal para el dígito 3 en 7 segmentos
 158              		.loc 1 48 0
 159 002c 4F20     		movs	r0, #79
 160              	.LVL16:
 161 002e FFF7FEFF 		bl	Segmentos_7seg_Write
 162              	.LVL17:
  49:Firmware_7seg.c ****             break;
 163              		.loc 1 49 0
 164 0032 08BD     		pop	{r3, pc}
 165              	.LVL18:
 166              	.L12:
  50:Firmware_7seg.c ****         case 0x04: // 4
  51:Firmware_7seg.c ****             Segmentos_7seg_Write(0x66); // Código hexadecimal para el dígito 4 en 7 segmentos
 167              		.loc 1 51 0
 168 0034 6620     		movs	r0, #102
 169              	.LVL19:
 170 0036 FFF7FEFF 		bl	Segmentos_7seg_Write
 171              	.LVL20:
  52:Firmware_7seg.c ****             break;
 172              		.loc 1 52 0
 173 003a 08BD     		pop	{r3, pc}
 174              	.LVL21:
 175              	.L13:
  53:Firmware_7seg.c ****         case 0x05: // 5
ARM GAS  C:\Users\adria\AppData\Local\Temp\cctMb114.s 			page 5


  54:Firmware_7seg.c ****             Segmentos_7seg_Write(0x6D); // Código hexadecimal para el dígito 5 en 7 segmentos
 176              		.loc 1 54 0
 177 003c 6D20     		movs	r0, #109
 178              	.LVL22:
 179 003e FFF7FEFF 		bl	Segmentos_7seg_Write
 180              	.LVL23:
  55:Firmware_7seg.c ****             break;
 181              		.loc 1 55 0
 182 0042 08BD     		pop	{r3, pc}
 183              	.LVL24:
 184              	.L14:
  56:Firmware_7seg.c ****         case 0x06: // 6
  57:Firmware_7seg.c ****             Segmentos_7seg_Write(0x7D); // Código hexadecimal para el dígito 6 en 7 segmentos
 185              		.loc 1 57 0
 186 0044 7D20     		movs	r0, #125
 187              	.LVL25:
 188 0046 FFF7FEFF 		bl	Segmentos_7seg_Write
 189              	.LVL26:
  58:Firmware_7seg.c ****             break;
 190              		.loc 1 58 0
 191 004a 08BD     		pop	{r3, pc}
 192              	.LVL27:
 193              	.L15:
  59:Firmware_7seg.c ****         case 0x07: // 7
  60:Firmware_7seg.c ****             Segmentos_7seg_Write(0x07); // Código hexadecimal para el dígito 7 en 7 segmentos
 194              		.loc 1 60 0
 195 004c 0720     		movs	r0, #7
 196              	.LVL28:
 197 004e FFF7FEFF 		bl	Segmentos_7seg_Write
 198              	.LVL29:
  61:Firmware_7seg.c ****             break;
 199              		.loc 1 61 0
 200 0052 08BD     		pop	{r3, pc}
 201              	.LVL30:
 202              	.L16:
  62:Firmware_7seg.c ****         case 0x08: // 8
  63:Firmware_7seg.c ****             Segmentos_7seg_Write(0x7F); // Código hexadecimal para el dígito 8 en 7 segmentos
 203              		.loc 1 63 0
 204 0054 7F20     		movs	r0, #127
 205              	.LVL31:
 206 0056 FFF7FEFF 		bl	Segmentos_7seg_Write
 207              	.LVL32:
  64:Firmware_7seg.c ****             break;
 208              		.loc 1 64 0
 209 005a 08BD     		pop	{r3, pc}
 210              	.LVL33:
 211              	.L17:
  65:Firmware_7seg.c ****         case 0x09: // 9
  66:Firmware_7seg.c ****             Segmentos_7seg_Write(0x6F); // Código hexadecimal para el 9 en 7 segmentos
 212              		.loc 1 66 0
 213 005c 6F20     		movs	r0, #111
 214              	.LVL34:
 215 005e FFF7FEFF 		bl	Segmentos_7seg_Write
 216              	.LVL35:
 217              	.L5:
 218 0062 08BD     		pop	{r3, pc}
 219              		.cfi_endproc
ARM GAS  C:\Users\adria\AppData\Local\Temp\cctMb114.s 			page 6


 220              	.LFE64:
 221              		.size	BCD_CODIFIG, .-BCD_CODIFIG
 222              		.comm	DIGITOS,4,4
 223              		.text
 224              	.Letext0:
 225              		.file 2 "c:\\program files (x86)\\cypress\\psoc creator\\4.4\\psoc creator\\import\\gnu\\arm\\5.4.
 226              		.file 3 "c:\\program files (x86)\\cypress\\psoc creator\\4.4\\psoc creator\\import\\gnu\\arm\\5.4.
 227              		.file 4 "Generated_Source\\PSoC5/core_cm3.h"
 228              		.file 5 "Firmware_7seg.h"
 229              		.file 6 "Generated_Source\\PSoC5/Segmentos_7seg.h"