ARM GAS  C:\Users\adria\AppData\Local\Temp\ccpsrgR1.s 			page 1


   1              		.syntax unified
   2              		.cpu cortex-m3
   3              		.fpu softvfp
   4              		.eabi_attribute 20, 1
   5              		.eabi_attribute 21, 1
   6              		.eabi_attribute 23, 3
   7              		.eabi_attribute 24, 1
   8              		.eabi_attribute 25, 1
   9              		.eabi_attribute 26, 1
  10              		.eabi_attribute 30, 1
  11              		.eabi_attribute 34, 1
  12              		.eabi_attribute 18, 4
  13              		.thumb
  14              		.syntax unified
  15              		.file	"main.c"
  16              		.text
  17              	.Ltext0:
  18              		.cfi_sections	.debug_frame
  19              		.section	.text.ISR_botones,"ax",%progbits
  20              		.align	2
  21              		.global	ISR_botones
  22              		.thumb
  23              		.thumb_func
  24              		.type	ISR_botones, %function
  25              	ISR_botones:
  26              	.LFB63:
  27              		.file 1 "main.c"
   1:main.c        **** #include "project.h"
   2:main.c        **** #include "Firmware_7seg.h"
   3:main.c        **** 
   4:main.c        **** #define Conteo_max 9999 //Cambiamos esta madre para el conteo máximo
   5:main.c        **** 
   6:main.c        **** uint16_t cont=0x00;//Contador para el cronometro
   7:main.c        **** uint16_t bandera =0x00;
   8:main.c        **** uint8_t Reg_Botones;//Aqui van qué botones se había apretado
   9:main.c        **** CY_ISR(ISR_botones){
  28              		.loc 1 9 0
  29              		.cfi_startproc
  30              		@ args = 0, pretend = 0, frame = 0
  31              		@ frame_needed = 0, uses_anonymous_args = 0
  32 0000 08B5     		push	{r3, lr}
  33              		.cfi_def_cfa_offset 8
  34              		.cfi_offset 3, -8
  35              		.cfi_offset 14, -4
  10:main.c        ****       ISR_botones_ClearPending();
  36              		.loc 1 10 0
  37 0002 FFF7FEFF 		bl	ISR_botones_ClearPending
  38              	.LVL0:
  11:main.c        ****     
  12:main.c        ****       Reg_Botones = Status_Botones_Read();//Por el sticky se limpia despues de leer
  39              		.loc 1 12 0
  40 0006 FFF7FEFF 		bl	Status_Botones_Read
  41              	.LVL1:
  42 000a 064B     		ldr	r3, .L5
  43 000c 1870     		strb	r0, [r3]
  13:main.c        ****       if(Reg_Botones == 0x02){//SETEO
  44              		.loc 1 13 0
ARM GAS  C:\Users\adria\AppData\Local\Temp\ccpsrgR1.s 			page 2


  45 000e 0228     		cmp	r0, #2
  46 0010 02D1     		bne	.L2
  14:main.c        ****         cont = 0;
  47              		.loc 1 14 0
  48 0012 0022     		movs	r2, #0
  49 0014 044B     		ldr	r3, .L5+4
  50 0016 1A80     		strh	r2, [r3]	@ movhi
  51              	.L2:
  15:main.c        ****         }
  16:main.c        ****       if(Reg_Botones == 0x01){// 0inicio/1paro
  52              		.loc 1 16 0
  53 0018 0128     		cmp	r0, #1
  54 001a 02D1     		bne	.L1
  17:main.c        ****         bandera ^= bandera;//Hacemos
  55              		.loc 1 17 0
  56 001c 0022     		movs	r2, #0
  57 001e 024B     		ldr	r3, .L5+4
  58 0020 5A80     		strh	r2, [r3, #2]	@ movhi
  59              	.L1:
  60 0022 08BD     		pop	{r3, pc}
  61              	.L6:
  62              		.align	2
  63              	.L5:
  64 0024 00000000 		.word	Reg_Botones
  65 0028 00000000 		.word	.LANCHOR0
  66              		.cfi_endproc
  67              	.LFE63:
  68              		.size	ISR_botones, .-ISR_botones
  69              		.section	.text.main,"ax",%progbits
  70              		.align	2
  71              		.global	main
  72              		.thumb
  73              		.thumb_func
  74              		.type	main, %function
  75              	main:
  76              	.LFB64:
  18:main.c        ****       }
  19:main.c        **** }
  20:main.c        **** 
  21:main.c        **** 
  22:main.c        **** int main(void)
  23:main.c        **** {
  77              		.loc 1 23 0
  78              		.cfi_startproc
  79              		@ args = 0, pretend = 0, frame = 8
  80              		@ frame_needed = 0, uses_anonymous_args = 0
  81 0000 10B5     		push	{r4, lr}
  82              		.cfi_def_cfa_offset 8
  83              		.cfi_offset 4, -8
  84              		.cfi_offset 14, -4
  85 0002 82B0     		sub	sp, sp, #8
  86              		.cfi_def_cfa_offset 16
  24:main.c        ****     CyGlobalIntEnable;
  87              		.loc 1 24 0
  88              		.syntax unified
  89              	@ 24 "main.c" 1
  90 0004 62B6     		CPSIE   i
ARM GAS  C:\Users\adria\AppData\Local\Temp\ccpsrgR1.s 			page 3


  91              	@ 0 "" 2
  25:main.c        ****     ISR_botones_StartEx(ISR_botones);
  92              		.loc 1 25 0
  93              		.thumb
  94              		.syntax unified
  95 0006 1748     		ldr	r0, .L14
  96 0008 FFF7FEFF 		bl	ISR_botones_StartEx
  97              	.LVL2:
  26:main.c        ****     ISR_botones_ClearPending();
  98              		.loc 1 26 0
  99 000c FFF7FEFF 		bl	ISR_botones_ClearPending
 100              	.LVL3:
  27:main.c        ****     
  28:main.c        ****     
  29:main.c        ****     uint8_t Mux_dig[] = {BIT0,BIT1,BIT2,BIT3};//Iniciamos con el primer los transistores habilitado
 101              		.loc 1 29 0
 102 0010 154B     		ldr	r3, .L14+4
 103 0012 1868     		ldr	r0, [r3]	@ unaligned
 104 0014 0190     		str	r0, [sp, #4]	@ unaligned
 105              	.L8:
 106              	.LVL4:
 107              	.LBB2:
  30:main.c        ****     for(;;)
  31:main.c        ****     {
  32:main.c        ****         
  33:main.c        ****         
  34:main.c        ****         for(int i=0;i<=3;i++){
 108              		.loc 1 34 0
 109 0016 0024     		movs	r4, #0
 110 0018 0DE0     		b	.L9
 111              	.LVL5:
 112              	.L10:
  35:main.c        ****             //Rutina del multiplexado con displa
  36:main.c        ****             BCD_CODIFIG(DIGITOS[i]);//Codificamos digito
 113              		.loc 1 36 0 discriminator 3
 114 001a 144B     		ldr	r3, .L14+8
 115 001c 185D     		ldrb	r0, [r3, r4]	@ zero_extendqisi2
 116 001e FFF7FEFF 		bl	BCD_CODIFIG
 117              	.LVL6:
  37:main.c        ****             Displays_mux_Write(Mux_dig[i]);//Ensendemos el digito que le toca y apagamos los otros
 118              		.loc 1 37 0 discriminator 3
 119 0022 02AB     		add	r3, sp, #8
 120 0024 2344     		add	r3, r3, r4
 121 0026 13F8040C 		ldrb	r0, [r3, #-4]	@ zero_extendqisi2
 122 002a FFF7FEFF 		bl	Displays_mux_Write
 123              	.LVL7:
  38:main.c        ****             
  39:main.c        ****             CyDelay(10);//Pa que lusca alvrg
 124              		.loc 1 39 0 discriminator 3
 125 002e 0A20     		movs	r0, #10
 126 0030 FFF7FEFF 		bl	CyDelay
 127              	.LVL8:
  34:main.c        ****             //Rutina del multiplexado con displa
 128              		.loc 1 34 0 discriminator 3
 129 0034 0134     		adds	r4, r4, #1
 130              	.LVL9:
 131              	.L9:
ARM GAS  C:\Users\adria\AppData\Local\Temp\ccpsrgR1.s 			page 4


  34:main.c        ****             //Rutina del multiplexado con displa
 132              		.loc 1 34 0 is_stmt 0 discriminator 1
 133 0036 032C     		cmp	r4, #3
 134 0038 EFDD     		ble	.L10
 135              	.LBE2:
  40:main.c        ****         }
  41:main.c        ****         
  42:main.c        ****         
  43:main.c        ****         //imulamos el conteo de segundo
  44:main.c        ****         /* 
  45:main.c        ****             B1,B0
  46:main.c        ****             0  0   B0 PARO   
  47:main.c        ****             0  1   B0 INICIO
  48:main.c        ****             1  0   SETEO
  49:main.c        ****             1  1   N/A
  50:main.c        ****       */
  51:main.c        ****         
  52:main.c        ****             if(cont<=Conteo_max && bandera == 0){
 136              		.loc 1 52 0 is_stmt 1
 137 003a 0D4B     		ldr	r3, .L14+12
 138 003c 1888     		ldrh	r0, [r3]
 139 003e 42F20F73 		movw	r3, #9999
 140 0042 9842     		cmp	r0, r3
 141 0044 09D8     		bhi	.L11
 142              		.loc 1 52 0 is_stmt 0 discriminator 1
 143 0046 0A4B     		ldr	r3, .L14+12
 144 0048 5B88     		ldrh	r3, [r3, #2]
 145 004a 33B9     		cbnz	r3, .L11
  53:main.c        ****             //Actualizamos el valor de 7 segmentos
  54:main.c        ****             Separa_digitos(cont);//separamos digitos
 146              		.loc 1 54 0 is_stmt 1
 147 004c FFF7FEFF 		bl	Separa_digitos
 148              	.LVL10:
  55:main.c        ****             cont++;
 149              		.loc 1 55 0
 150 0050 074A     		ldr	r2, .L14+12
 151 0052 1388     		ldrh	r3, [r2]
 152 0054 0133     		adds	r3, r3, #1
 153 0056 1380     		strh	r3, [r2]	@ movhi
 154 0058 DDE7     		b	.L8
 155              	.L11:
  56:main.c        ****             }else{
  57:main.c        ****                 cont=0;
 156              		.loc 1 57 0
 157 005a 0022     		movs	r2, #0
 158 005c 044B     		ldr	r3, .L14+12
 159 005e 1A80     		strh	r2, [r3]	@ movhi
 160 0060 D9E7     		b	.L8
 161              	.L15:
 162 0062 00BF     		.align	2
 163              	.L14:
 164 0064 00000000 		.word	ISR_botones
 165 0068 00000000 		.word	.LANCHOR1
 166 006c 00000000 		.word	DIGITOS
 167 0070 00000000 		.word	.LANCHOR0
 168              		.cfi_endproc
 169              	.LFE64:
ARM GAS  C:\Users\adria\AppData\Local\Temp\ccpsrgR1.s 			page 5


 170              		.size	main, .-main
 171              		.comm	Reg_Botones,1,1
 172              		.global	bandera
 173              		.global	cont
 174              		.comm	DIGITOS,4,4
 175              		.section	.rodata
 176              		.align	2
 177              		.set	.LANCHOR1,. + 0
 178              	.LC0:
 179 0000 01       		.byte	1
 180 0001 02       		.byte	2
 181 0002 04       		.byte	4
 182 0003 08       		.byte	8
 183              		.bss
 184              		.align	1
 185              		.set	.LANCHOR0,. + 0
 186              		.type	cont, %object
 187              		.size	cont, 2
 188              	cont:
 189 0000 0000     		.space	2
 190              		.type	bandera, %object
 191              		.size	bandera, 2
 192              	bandera:
 193 0002 0000     		.space	2
 194              		.text
 195              	.Letext0:
 196              		.file 2 "c:\\program files (x86)\\cypress\\psoc creator\\4.4\\psoc creator\\import\\gnu\\arm\\5.4.
 197              		.file 3 "c:\\program files (x86)\\cypress\\psoc creator\\4.4\\psoc creator\\import\\gnu\\arm\\5.4.
 198              		.file 4 "Generated_Source\\PSoC5/core_cm3.h"
 199              		.file 5 "Firmware_7seg.h"
 200              		.file 6 "Generated_Source\\PSoC5/ISR_botones.h"
 201              		.file 7 "Generated_Source\\PSoC5/Status_Botones.h"
 202              		.file 8 "Generated_Source\\PSoC5/Displays_mux.h"
 203              		.file 9 "Generated_Source\\PSoC5/CyLib.h"