ARM GAS  C:\Users\adria\AppData\Local\Temp\ccoVN8tM.s 			page 1


   1              		.syntax unified
   2              		.cpu cortex-m3
   3              		.fpu softvfp
   4              		.eabi_attribute 20, 1
   5              		.eabi_attribute 21, 1
   6              		.eabi_attribute 23, 3
   7              		.eabi_attribute 24, 1
   8              		.eabi_attribute 25, 1
   9              		.eabi_attribute 26, 1
  10              		.eabi_attribute 30, 1
  11              		.eabi_attribute 34, 1
  12              		.eabi_attribute 18, 4
  13              		.thumb
  14              		.syntax unified
  15              		.file	"Display_librerria.c"
  16              		.text
  17              	.Ltext0:
  18              		.cfi_sections	.debug_frame
  19              		.section	.text.ceros,"ax",%progbits
  20              		.align	2
  21              		.global	ceros
  22              		.thumb
  23              		.thumb_func
  24              		.type	ceros, %function
  25              	ceros:
  26              	.LFB64:
  27              		.file 1 "Display_librerria.c"
   1:Display_librerria.c **** #include "Display_librerria.h"
   2:Display_librerria.c **** #include "project.h"
   3:Display_librerria.c **** 
   4:Display_librerria.c **** 
   5:Display_librerria.c **** void Separa_digitos(uint16_t num){ 
   6:Display_librerria.c ****     
   7:Display_librerria.c ****     uint8_t digm,digc,digd,digu;
   8:Display_librerria.c ****     
   9:Display_librerria.c ****     digm = num / 1000;        // Obtén el primer dígito (miles)
  10:Display_librerria.c ****     digc = (num / 100) % 10;  // Obtén el segundo dígito (centenas)
  11:Display_librerria.c ****     uint8_t Reg_cm = (digm<<0x04)| digc; 
  12:Display_librerria.c ****     
  13:Display_librerria.c ****     digd = (num / 10) % 10;   // Obtén el tercer dígito (decenas)
  14:Display_librerria.c ****     digu = num % 10;          // Obtén el cuarto dígito (unidades)    
  15:Display_librerria.c ****     uint8_t Reg_ud = (digd<<0x04)| digu; 
  16:Display_librerria.c ****     
  17:Display_librerria.c ****     //Checamos cuales digitos se van a utilizar
  18:Display_librerria.c ****     ceros(num);
  19:Display_librerria.c ****     
  20:Display_librerria.c ****     //Actualizamos los registros de los digitos
  21:Display_librerria.c ****     num_Unidades_Decenas_Write(Reg_ud);//Agregamos unidades y decenas
  22:Display_librerria.c ****     num_Centenas_MIllar_Write(Reg_cm);//Agregamos centenas y millares
  23:Display_librerria.c **** }
  24:Display_librerria.c **** 
  25:Display_librerria.c **** 
  26:Display_librerria.c **** void ceros(uint16_t num){
  28              		.loc 1 26 0
  29              		.cfi_startproc
  30              		@ args = 0, pretend = 0, frame = 0
  31              		@ frame_needed = 0, uses_anonymous_args = 0
ARM GAS  C:\Users\adria\AppData\Local\Temp\ccoVN8tM.s 			page 2


  32              	.LVL0:
  33 0000 38B5     		push	{r3, r4, r5, lr}
  34              		.cfi_def_cfa_offset 16
  35              		.cfi_offset 3, -16
  36              		.cfi_offset 4, -12
  37              		.cfi_offset 5, -8
  38              		.cfi_offset 14, -4
  39 0002 0546     		mov	r5, r0
  27:Display_librerria.c ****     uint8_t ceros = Control_ceros_Read();
  40              		.loc 1 27 0
  41 0004 FFF7FEFF 		bl	Control_ceros_Read
  42              	.LVL1:
  28:Display_librerria.c ****     if(num<1000){
  43              		.loc 1 28 0
  44 0008 B5F57A7F 		cmp	r5, #1000
  45 000c 05D2     		bcs	.L2
  29:Display_librerria.c ****         Control_ceros_Write(ceros &= ~BIT3);
  46              		.loc 1 29 0
  47 000e 00F0F704 		and	r4, r0, #247
  48              	.LVL2:
  49 0012 2046     		mov	r0, r4
  50 0014 FFF7FEFF 		bl	Control_ceros_Write
  51              	.LVL3:
  52 0018 05E0     		b	.L3
  53              	.LVL4:
  54              	.L2:
  30:Display_librerria.c ****     }else{
  31:Display_librerria.c ****         Control_ceros_Write(ceros |= BIT3);
  55              		.loc 1 31 0
  56 001a 40F00804 		orr	r4, r0, #8
  57 001e E4B2     		uxtb	r4, r4
  58              	.LVL5:
  59 0020 2046     		mov	r0, r4
  60 0022 FFF7FEFF 		bl	Control_ceros_Write
  61              	.LVL6:
  62              	.L3:
  32:Display_librerria.c ****     }
  33:Display_librerria.c ****     if(num<100){
  63              		.loc 1 33 0
  64 0026 632D     		cmp	r5, #99
  65 0028 05D8     		bhi	.L4
  34:Display_librerria.c ****         Control_ceros_Write(ceros &= ~BIT2);
  66              		.loc 1 34 0
  67 002a 04F0FB04 		and	r4, r4, #251
  68              	.LVL7:
  69 002e 2046     		mov	r0, r4
  70 0030 FFF7FEFF 		bl	Control_ceros_Write
  71              	.LVL8:
  72 0034 04E0     		b	.L5
  73              	.L4:
  35:Display_librerria.c ****     }else{
  36:Display_librerria.c ****         Control_ceros_Write(ceros |= BIT2);
  74              		.loc 1 36 0
  75 0036 44F00404 		orr	r4, r4, #4
  76              	.LVL9:
  77 003a 2046     		mov	r0, r4
  78 003c FFF7FEFF 		bl	Control_ceros_Write
ARM GAS  C:\Users\adria\AppData\Local\Temp\ccoVN8tM.s 			page 3


  79              	.LVL10:
  80              	.L5:
  37:Display_librerria.c ****     }
  38:Display_librerria.c ****     if(num<10){
  81              		.loc 1 38 0
  82 0040 092D     		cmp	r5, #9
  83 0042 04D8     		bhi	.L6
  84              	.LVL11:
  39:Display_librerria.c ****         Control_ceros_Write(ceros &= ~BIT1);
  85              		.loc 1 39 0
  86 0044 04F0FD00 		and	r0, r4, #253
  87 0048 FFF7FEFF 		bl	Control_ceros_Write
  88              	.LVL12:
  89 004c 38BD     		pop	{r3, r4, r5, pc}
  90              	.LVL13:
  91              	.L6:
  40:Display_librerria.c ****     }else{
  41:Display_librerria.c ****         Control_ceros_Write(ceros |= BIT1);
  92              		.loc 1 41 0
  93 004e 44F00200 		orr	r0, r4, #2
  94 0052 FFF7FEFF 		bl	Control_ceros_Write
  95              	.LVL14:
  96 0056 38BD     		pop	{r3, r4, r5, pc}
  97              		.cfi_endproc
  98              	.LFE64:
  99              		.size	ceros, .-ceros
 100              		.section	.text.Separa_digitos,"ax",%progbits
 101              		.align	2
 102              		.global	Separa_digitos
 103              		.thumb
 104              		.thumb_func
 105              		.type	Separa_digitos, %function
 106              	Separa_digitos:
 107              	.LFB63:
   5:Display_librerria.c ****     
 108              		.loc 1 5 0
 109              		.cfi_startproc
 110              		@ args = 0, pretend = 0, frame = 0
 111              		@ frame_needed = 0, uses_anonymous_args = 0
 112              	.LVL15:
 113 0000 70B5     		push	{r4, r5, r6, lr}
 114              		.cfi_def_cfa_offset 16
 115              		.cfi_offset 4, -16
 116              		.cfi_offset 5, -12
 117              		.cfi_offset 6, -8
 118              		.cfi_offset 14, -4
   9:Display_librerria.c ****     digc = (num / 100) % 10;  // Obtén el segundo dígito (centenas)
 119              		.loc 1 9 0
 120 0002 184D     		ldr	r5, .L11
 121 0004 A5FB0025 		umull	r2, r5, r5, r0
 122 0008 AD09     		lsrs	r5, r5, #6
 123              	.LVL16:
  10:Display_librerria.c ****     uint8_t Reg_cm = (digm<<0x04)| digc; 
 124              		.loc 1 10 0
 125 000a 174A     		ldr	r2, .L11+4
 126 000c A2FB0012 		umull	r1, r2, r2, r0
 127 0010 5209     		lsrs	r2, r2, #5
ARM GAS  C:\Users\adria\AppData\Local\Temp\ccoVN8tM.s 			page 4


 128 0012 1649     		ldr	r1, .L11+8
 129 0014 A1FB0264 		umull	r6, r4, r1, r2
 130 0018 E408     		lsrs	r4, r4, #3
 131 001a 04EB8404 		add	r4, r4, r4, lsl #2
 132 001e 6600     		lsls	r6, r4, #1
 133 0020 921B     		subs	r2, r2, r6
 134 0022 92B2     		uxth	r2, r2
 135              	.LVL17:
  11:Display_librerria.c ****     
 136              		.loc 1 11 0
 137 0024 42EA0515 		orr	r5, r2, r5, lsl #4
 138              	.LVL18:
 139 0028 EDB2     		uxtb	r5, r5
 140              	.LVL19:
  13:Display_librerria.c ****     digu = num % 10;          // Obtén el cuarto dígito (unidades)    
 141              		.loc 1 13 0
 142 002a A1FB0042 		umull	r4, r2, r1, r0
 143              	.LVL20:
 144 002e D208     		lsrs	r2, r2, #3
 145 0030 94B2     		uxth	r4, r2
 146 0032 A1FB0461 		umull	r6, r1, r1, r4
 147              	.LVL21:
 148 0036 C908     		lsrs	r1, r1, #3
 149 0038 01EB8101 		add	r1, r1, r1, lsl #2
 150 003c 4E00     		lsls	r6, r1, #1
 151 003e A41B     		subs	r4, r4, r6
 152 0040 E4B2     		uxtb	r4, r4
 153              	.LVL22:
  14:Display_librerria.c ****     uint8_t Reg_ud = (digd<<0x04)| digu; 
 154              		.loc 1 14 0
 155 0042 02EB8202 		add	r2, r2, r2, lsl #2
 156 0046 5100     		lsls	r1, r2, #1
 157 0048 431A     		subs	r3, r0, r1
 158 004a 9BB2     		uxth	r3, r3
 159              	.LVL23:
  15:Display_librerria.c ****     
 160              		.loc 1 15 0
 161 004c 43EA0414 		orr	r4, r3, r4, lsl #4
 162              	.LVL24:
 163 0050 E4B2     		uxtb	r4, r4
 164              	.LVL25:
  18:Display_librerria.c ****     
 165              		.loc 1 18 0
 166 0052 FFF7FEFF 		bl	ceros
 167              	.LVL26:
  21:Display_librerria.c ****     num_Centenas_MIllar_Write(Reg_cm);//Agregamos centenas y millares
 168              		.loc 1 21 0
 169 0056 2046     		mov	r0, r4
 170 0058 FFF7FEFF 		bl	num_Unidades_Decenas_Write
 171              	.LVL27:
  22:Display_librerria.c **** }
 172              		.loc 1 22 0
 173 005c 2846     		mov	r0, r5
 174 005e FFF7FEFF 		bl	num_Centenas_MIllar_Write
 175              	.LVL28:
 176 0062 70BD     		pop	{r4, r5, r6, pc}
 177              	.LVL29:
ARM GAS  C:\Users\adria\AppData\Local\Temp\ccoVN8tM.s 			page 5


 178              	.L12:
 179              		.align	2
 180              	.L11:
 181 0064 D34D6210 		.word	274877907
 182 0068 1F85EB51 		.word	1374389535
 183 006c CDCCCCCC 		.word	-858993459
 184              		.cfi_endproc
 185              	.LFE63:
 186              		.size	Separa_digitos, .-Separa_digitos
 187              		.text
 188              	.Letext0:
 189              		.file 2 "c:\\program files (x86)\\cypress\\psoc creator\\4.4\\psoc creator\\import\\gnu\\arm\\5.4.
 190              		.file 3 "c:\\program files (x86)\\cypress\\psoc creator\\4.4\\psoc creator\\import\\gnu\\arm\\5.4.
 191              		.file 4 "Generated_Source\\PSoC5/Control_ceros.h"
 192              		.file 5 "Generated_Source\\PSoC5/num_Unidades_Decenas.h"
 193              		.file 6 "Generated_Source\\PSoC5/num_Centenas_MIllar.h"
 194              		.file 7 "Generated_Source\\PSoC5/core_cm3.h"