ARM GAS  C:\Users\adria\AppData\Local\Temp\ccc5upHn.s 			page 1


   1              		.syntax unified
   2              		.cpu cortex-m3
   3              		.fpu softvfp
   4              		.eabi_attribute 20, 1
   5              		.eabi_attribute 21, 1
   6              		.eabi_attribute 23, 3
   7              		.eabi_attribute 24, 1
   8              		.eabi_attribute 25, 1
   9              		.eabi_attribute 26, 1
  10              		.eabi_attribute 30, 1
  11              		.eabi_attribute 34, 1
  12              		.eabi_attribute 18, 4
  13              		.thumb
  14              		.syntax unified
  15              		.file	"main.c"
  16              		.text
  17              	.Ltext0:
  18              		.cfi_sections	.debug_frame
  19              		.section	.text.isr_1,"ax",%progbits
  20              		.align	2
  21              		.global	isr_1
  22              		.thumb
  23              		.thumb_func
  24              		.type	isr_1, %function
  25              	isr_1:
  26              	.LFB63:
  27              		.file 1 "main.c"
   1:main.c        **** #include "project.h"
   2:main.c        **** 
   3:main.c        **** //Rutina de interrupción
   4:main.c        **** uint8_t flag = 0x00;
   5:main.c        **** CY_ISR(isr_1){
  28              		.loc 1 5 0
  29              		.cfi_startproc
  30              		@ args = 0, pretend = 0, frame = 0
  31              		@ frame_needed = 0, uses_anonymous_args = 0
  32 0000 08B5     		push	{r3, lr}
  33              		.cfi_def_cfa_offset 8
  34              		.cfi_offset 3, -8
  35              		.cfi_offset 14, -4
   6:main.c        ****     isr_1_ClearPending();
  36              		.loc 1 6 0
  37 0002 FFF7FEFF 		bl	isr_1_ClearPending
  38              	.LVL0:
   7:main.c        ****     flag |= 0x01;//Levantamos la bandera
  39              		.loc 1 7 0
  40 0006 034A     		ldr	r2, .L3
  41 0008 1378     		ldrb	r3, [r2]	@ zero_extendqisi2
  42 000a 43F00103 		orr	r3, r3, #1
  43 000e 1370     		strb	r3, [r2]
  44 0010 08BD     		pop	{r3, pc}
  45              	.L4:
  46 0012 00BF     		.align	2
  47              	.L3:
  48 0014 00000000 		.word	.LANCHOR0
  49              		.cfi_endproc
  50              	.LFE63:
ARM GAS  C:\Users\adria\AppData\Local\Temp\ccc5upHn.s 			page 2


  51              		.size	isr_1, .-isr_1
  52              		.section	.text.getBinary,"ax",%progbits
  53              		.align	2
  54              		.global	getBinary
  55              		.thumb
  56              		.thumb_func
  57              		.type	getBinary, %function
  58              	getBinary:
  59              	.LFB64:
   8:main.c        **** }
   9:main.c        **** 
  10:main.c        **** //Tomamos el un entero y sacamos u binario en entero
  11:main.c        **** void getBinary(uint8_t n, char *reg)
  12:main.c        **** {
  60              		.loc 1 12 0
  61              		.cfi_startproc
  62              		@ args = 0, pretend = 0, frame = 0
  63              		@ frame_needed = 0, uses_anonymous_args = 0
  64              		@ link register save eliminated.
  65              	.LVL1:
  13:main.c        **** 	int loop;
  14:main.c        **** 	/*
  15:main.c        ****     3th bit to 0th bit
  16:main.c        ****     Tremendo hack
  17:main.c        ****     En ifs 0-->False  !0-->True
  18:main.c        ****     bit,bit,bit,bti,espacio
  19:main.c        ****     */
  20:main.c        **** 	for(loop=3; loop>=0; loop--)
  66              		.loc 1 20 0
  67 0000 0323     		movs	r3, #3
  68 0002 0AE0     		b	.L6
  69              	.LVL2:
  70              	.L9:
  21:main.c        **** 	{
  22:main.c        **** 		if( (0x01 << loop) & n)//Concuerda en 1&1???
  71              		.loc 1 22 0
  72 0004 40FA03F2 		asr	r2, r0, r3
  73 0008 12F0010F 		tst	r2, #1
  74 000c 02D0     		beq	.L7
  23:main.c        **** 			reg[loop] = '1';
  75              		.loc 1 23 0
  76 000e 3122     		movs	r2, #49
  77 0010 CA54     		strb	r2, [r1, r3]
  78 0012 01E0     		b	.L8
  79              	.L7:
  24:main.c        **** 		else
  25:main.c        **** 			reg[loop] = '0';
  80              		.loc 1 25 0
  81 0014 3022     		movs	r2, #48
  82 0016 CA54     		strb	r2, [r1, r3]
  83              	.L8:
  20:main.c        **** 	{
  84              		.loc 1 20 0 discriminator 2
  85 0018 013B     		subs	r3, r3, #1
  86              	.LVL3:
  87              	.L6:
  20:main.c        **** 	{
ARM GAS  C:\Users\adria\AppData\Local\Temp\ccc5upHn.s 			page 3


  88              		.loc 1 20 0 is_stmt 0 discriminator 1
  89 001a 002B     		cmp	r3, #0
  90 001c F2DA     		bge	.L9
  26:main.c        **** 	}
  27:main.c        **** }
  91              		.loc 1 27 0 is_stmt 1
  92 001e 7047     		bx	lr
  93              		.cfi_endproc
  94              	.LFE64:
  95              		.size	getBinary, .-getBinary
  96              		.section	.text.main,"ax",%progbits
  97              		.align	2
  98              		.global	main
  99              		.thumb
 100              		.thumb_func
 101              		.type	main, %function
 102              	main:
 103              	.LFB65:
  28:main.c        **** 
  29:main.c        **** int main(void)
  30:main.c        **** {
 104              		.loc 1 30 0
 105              		.cfi_startproc
 106              		@ args = 0, pretend = 0, frame = 8
 107              		@ frame_needed = 0, uses_anonymous_args = 0
 108 0000 00B5     		push	{lr}
 109              		.cfi_def_cfa_offset 4
 110              		.cfi_offset 14, -4
 111 0002 83B0     		sub	sp, sp, #12
 112              		.cfi_def_cfa_offset 16
  31:main.c        ****     CyGlobalIntEnable; /* Enable global interrupts. */
 113              		.loc 1 31 0
 114              		.syntax unified
 115              	@ 31 "main.c" 1
 116 0004 62B6     		CPSIE   i
 117              	@ 0 "" 2
  32:main.c        ****     isr_1_StartEx(isr_1);
 118              		.loc 1 32 0
 119              		.thumb
 120              		.syntax unified
 121 0006 0F48     		ldr	r0, .L14
 122 0008 FFF7FEFF 		bl	isr_1_StartEx
 123              	.LVL4:
  33:main.c        ****     isr_1_ClearPending();
 124              		.loc 1 33 0
 125 000c FFF7FEFF 		bl	isr_1_ClearPending
 126              	.LVL5:
  34:main.c        ****     Status_Reg_InterruptEnable();
 127              		.loc 1 34 0
 128 0010 FFF7FEFF 		bl	Status_Reg_InterruptEnable
 129              	.LVL6:
  35:main.c        ****     UART_Start();
 130              		.loc 1 35 0
 131 0014 FFF7FEFF 		bl	UART_Start
 132              	.LVL7:
  36:main.c        ****     UART_ClearTxBuffer();
 133              		.loc 1 36 0
ARM GAS  C:\Users\adria\AppData\Local\Temp\ccc5upHn.s 			page 4


 134 0018 FFF7FEFF 		bl	UART_ClearTxBuffer
 135              	.LVL8:
 136              	.L11:
  37:main.c        ****     
  38:main.c        ****     uint8_t sensores = 0x00;
  39:main.c        ****     char registro[4];//4 datos
  40:main.c        ****     
  41:main.c        ****     for(;;)
  42:main.c        ****     {
  43:main.c        ****         if(flag & 0x01){
 137              		.loc 1 43 0
 138 001c 0A4B     		ldr	r3, .L14+4
 139 001e 1B78     		ldrb	r3, [r3]	@ zero_extendqisi2
 140 0020 13F0010F 		tst	r3, #1
 141 0024 FAD0     		beq	.L11
  44:main.c        ****             flag ^= flag;//Tiramos la bandera
 142              		.loc 1 44 0
 143 0026 0022     		movs	r2, #0
 144 0028 074B     		ldr	r3, .L14+4
 145 002a 1A70     		strb	r2, [r3]
  45:main.c        ****             
  46:main.c        ****             //Checamos qué se tiene en el latch de registro
  47:main.c        ****             sensores = Status_Reg_Read();//aL ESTAR EN sTIKY MODE SE SETEA EL REGISTRO DESPÚES DE 
 146              		.loc 1 47 0
 147 002c FFF7FEFF 		bl	Status_Reg_Read
 148              	.LVL9:
  48:main.c        ****           
  49:main.c        ****             //Madamos la actualización de la lectura Owo
  50:main.c        ****             getBinary(sensores,registro); // uint8_t --> char
 149              		.loc 1 50 0
 150 0030 01A9     		add	r1, sp, #4
 151 0032 FFF7FEFF 		bl	getBinary
 152              	.LVL10:
  51:main.c        ****             UART_PutString(registro);
 153              		.loc 1 51 0
 154 0036 01A8     		add	r0, sp, #4
 155 0038 FFF7FEFF 		bl	UART_PutString
 156              	.LVL11:
  52:main.c        ****             UART_PutChar('\n');
 157              		.loc 1 52 0
 158 003c 0A20     		movs	r0, #10
 159 003e FFF7FEFF 		bl	UART_PutChar
 160              	.LVL12:
 161 0042 EBE7     		b	.L11
 162              	.L15:
 163              		.align	2
 164              	.L14:
 165 0044 00000000 		.word	isr_1
 166 0048 00000000 		.word	.LANCHOR0
 167              		.cfi_endproc
 168              	.LFE65:
 169              		.size	main, .-main
 170              		.global	flag
 171              		.bss
 172              		.set	.LANCHOR0,. + 0
 173              		.type	flag, %object
 174              		.size	flag, 1
ARM GAS  C:\Users\adria\AppData\Local\Temp\ccc5upHn.s 			page 5


 175              	flag:
 176 0000 00       		.space	1
 177              		.text
 178              	.Letext0:
 179              		.file 2 "c:\\program files (x86)\\cypress\\psoc creator\\4.4\\psoc creator\\import\\gnu\\arm\\5.4.
 180              		.file 3 "c:\\program files (x86)\\cypress\\psoc creator\\4.4\\psoc creator\\import\\gnu\\arm\\5.4.
 181              		.file 4 "Generated_Source\\PSoC5/core_cm3.h"
 182              		.file 5 "Generated_Source\\PSoC5/isr_1.h"
 183              		.file 6 "Generated_Source\\PSoC5/Status_Reg.h"
 184              		.file 7 "Generated_Source\\PSoC5/UART.h"