ARM GAS  C:\Users\adria\AppData\Local\Temp\ccahMqAX.s 			page 1


   1              		.syntax unified
   2              		.cpu cortex-m3
   3              		.fpu softvfp
   4              		.eabi_attribute 20, 1
   5              		.eabi_attribute 21, 1
   6              		.eabi_attribute 23, 3
   7              		.eabi_attribute 24, 1
   8              		.eabi_attribute 25, 1
   9              		.eabi_attribute 26, 1
  10              		.eabi_attribute 30, 1
  11              		.eabi_attribute 34, 1
  12              		.eabi_attribute 18, 4
  13              		.thumb
  14              		.syntax unified
  15              		.file	"main.c"
  16              		.text
  17              	.Ltext0:
  18              		.cfi_sections	.debug_frame
  19              		.section	.text.ISR_botones,"ax",%progbits
  20              		.align	2
  21              		.global	ISR_botones
  22              		.thumb
  23              		.thumb_func
  24              		.type	ISR_botones, %function
  25              	ISR_botones:
  26              	.LFB63:
  27              		.file 1 "main.c"
   1:main.c        **** #include "project.h"
   2:main.c        **** #include "Firmware_7seg.h"
   3:main.c        **** 
   4:main.c        **** #define Conteo_max 9999 //Cambiamos esta madre para el conteo máximo
   5:main.c        **** 
   6:main.c        **** uint16_t cont=0x00;//Contador para el cronometro
   7:main.c        **** uint16_t bandera =0x00;
   8:main.c        **** uint8_t Reg_Botones=0x00;//Aqui van qué botones se había apretado
   9:main.c        **** CY_ISR(ISR_botones){
  28              		.loc 1 9 0
  29              		.cfi_startproc
  30              		@ args = 0, pretend = 0, frame = 0
  31              		@ frame_needed = 0, uses_anonymous_args = 0
  32 0000 08B5     		push	{r3, lr}
  33              		.cfi_def_cfa_offset 8
  34              		.cfi_offset 3, -8
  35              		.cfi_offset 14, -4
  10:main.c        ****       ISR_botones_ClearPending();
  36              		.loc 1 10 0
  37 0002 FFF7FEFF 		bl	ISR_botones_ClearPending
  38              	.LVL0:
  11:main.c        ****     
  12:main.c        ****       Reg_Botones = Status_Botones_Read()-0x80;//Por el sticky se limpia despues de leer
  39              		.loc 1 12 0
  40 0006 FFF7FEFF 		bl	Status_Botones_Read
  41              	.LVL1:
  42 000a 8038     		subs	r0, r0, #128
  43 000c C0B2     		uxtb	r0, r0
  44 000e 064B     		ldr	r3, .L5
  45 0010 1870     		strb	r0, [r3]
ARM GAS  C:\Users\adria\AppData\Local\Temp\ccahMqAX.s 			page 2


  13:main.c        ****       if(Reg_Botones == 0x02){//SETEO
  46              		.loc 1 13 0
  47 0012 0228     		cmp	r0, #2
  48 0014 01D1     		bne	.L2
  14:main.c        ****         cont = 0;
  49              		.loc 1 14 0
  50 0016 0022     		movs	r2, #0
  51 0018 5A80     		strh	r2, [r3, #2]	@ movhi
  52              	.L2:
  15:main.c        ****         }
  16:main.c        ****       if(Reg_Botones == 0x01){// 0inicio/1paro
  53              		.loc 1 16 0
  54 001a 0128     		cmp	r0, #1
  55 001c 03D1     		bne	.L1
  17:main.c        ****         bandera = ~bandera;//Hacemos
  56              		.loc 1 17 0
  57 001e 024A     		ldr	r2, .L5
  58 0020 9388     		ldrh	r3, [r2, #4]
  59 0022 DB43     		mvns	r3, r3
  60 0024 9380     		strh	r3, [r2, #4]	@ movhi
  61              	.L1:
  62 0026 08BD     		pop	{r3, pc}
  63              	.L6:
  64              		.align	2
  65              	.L5:
  66 0028 00000000 		.word	.LANCHOR0
  67              		.cfi_endproc
  68              	.LFE63:
  69              		.size	ISR_botones, .-ISR_botones
  70              		.section	.text.main,"ax",%progbits
  71              		.align	2
  72              		.global	main
  73              		.thumb
  74              		.thumb_func
  75              		.type	main, %function
  76              	main:
  77              	.LFB64:
  18:main.c        ****       }
  19:main.c        **** }
  20:main.c        **** 
  21:main.c        **** 
  22:main.c        **** int main(void)
  23:main.c        **** {
  78              		.loc 1 23 0
  79              		.cfi_startproc
  80              		@ args = 0, pretend = 0, frame = 8
  81              		@ frame_needed = 0, uses_anonymous_args = 0
  82 0000 10B5     		push	{r4, lr}
  83              		.cfi_def_cfa_offset 8
  84              		.cfi_offset 4, -8
  85              		.cfi_offset 14, -4
  86 0002 82B0     		sub	sp, sp, #8
  87              		.cfi_def_cfa_offset 16
  24:main.c        ****     CyGlobalIntEnable;
  88              		.loc 1 24 0
  89              		.syntax unified
  90              	@ 24 "main.c" 1
ARM GAS  C:\Users\adria\AppData\Local\Temp\ccahMqAX.s 			page 3


  91 0004 62B6     		CPSIE   i
  92              	@ 0 "" 2
  25:main.c        ****     ISR_botones_StartEx(ISR_botones);
  93              		.loc 1 25 0
  94              		.thumb
  95              		.syntax unified
  96 0006 1948     		ldr	r0, .L15
  97 0008 FFF7FEFF 		bl	ISR_botones_StartEx
  98              	.LVL2:
  26:main.c        ****     ISR_botones_ClearPending();
  99              		.loc 1 26 0
 100 000c FFF7FEFF 		bl	ISR_botones_ClearPending
 101              	.LVL3:
  27:main.c        ****     Status_Botones_InterruptEnable();
 102              		.loc 1 27 0
 103 0010 FFF7FEFF 		bl	Status_Botones_InterruptEnable
 104              	.LVL4:
  28:main.c        ****     
  29:main.c        ****     
  30:main.c        ****     uint8_t Mux_dig[] = {BIT0,BIT1,BIT2,BIT3};//Iniciamos con el primer los transistores habilitado
 105              		.loc 1 30 0
 106 0014 164B     		ldr	r3, .L15+4
 107 0016 1868     		ldr	r0, [r3]	@ unaligned
 108 0018 0190     		str	r0, [sp, #4]	@ unaligned
 109              	.L11:
  31:main.c        ****     for(;;)
  32:main.c        ****     {
  33:main.c        ****         
  34:main.c        ****         //Actualizamos el valor de 7 segmentos
  35:main.c        ****         Separa_digitos(cont);//separamos digitos
 110              		.loc 1 35 0
 111 001a 164B     		ldr	r3, .L15+8
 112 001c 5888     		ldrh	r0, [r3, #2]
 113 001e FFF7FEFF 		bl	Separa_digitos
 114              	.LVL5:
 115              	.LBB2:
  36:main.c        ****         for(int i=0;i<=3;i++){
 116              		.loc 1 36 0
 117 0022 0024     		movs	r4, #0
 118 0024 0DE0     		b	.L9
 119              	.LVL6:
 120              	.L10:
  37:main.c        ****             //Rutina del multiplexado con displa
  38:main.c        ****             BCD_CODIFIG(DIGITOS[i]);//Codificamos digito
 121              		.loc 1 38 0 discriminator 3
 122 0026 144B     		ldr	r3, .L15+12
 123 0028 185D     		ldrb	r0, [r3, r4]	@ zero_extendqisi2
 124 002a FFF7FEFF 		bl	BCD_CODIFIG
 125              	.LVL7:
  39:main.c        ****             Displays_mux_Write(Mux_dig[i]);//Ensendemos el digito que le toca y apagamos los otros
 126              		.loc 1 39 0 discriminator 3
 127 002e 02AB     		add	r3, sp, #8
 128 0030 2344     		add	r3, r3, r4
 129 0032 13F8040C 		ldrb	r0, [r3, #-4]	@ zero_extendqisi2
 130 0036 FFF7FEFF 		bl	Displays_mux_Write
 131              	.LVL8:
  40:main.c        ****             
ARM GAS  C:\Users\adria\AppData\Local\Temp\ccahMqAX.s 			page 4


  41:main.c        ****             CyDelay(5);//Pa que lusca alvrg
 132              		.loc 1 41 0 discriminator 3
 133 003a 0520     		movs	r0, #5
 134 003c FFF7FEFF 		bl	CyDelay
 135              	.LVL9:
  36:main.c        ****             //Rutina del multiplexado con displa
 136              		.loc 1 36 0 discriminator 3
 137 0040 0134     		adds	r4, r4, #1
 138              	.LVL10:
 139              	.L9:
  36:main.c        ****             //Rutina del multiplexado con displa
 140              		.loc 1 36 0 is_stmt 0 discriminator 1
 141 0042 032C     		cmp	r4, #3
 142 0044 EFDD     		ble	.L10
 143              	.LBE2:
  42:main.c        ****         }
  43:main.c        ****         
  44:main.c        ****         
  45:main.c        ****         //imulamos el conteo de segundo
  46:main.c        ****         /* 
  47:main.c        ****             B1,B0
  48:main.c        ****             0  0   B0 PARO   
  49:main.c        ****             0  1   B0 INICIO
  50:main.c        ****             1  0   SETEO
  51:main.c        ****             1  1   N/A
  52:main.c        ****       */
  53:main.c        ****         if(bandera == 0x00){
 144              		.loc 1 53 0 is_stmt 1
 145 0046 0B4B     		ldr	r3, .L15+8
 146 0048 9B88     		ldrh	r3, [r3, #4]
 147 004a 002B     		cmp	r3, #0
 148 004c E5D1     		bne	.L11
  54:main.c        ****             if(cont<=Conteo_max){
 149              		.loc 1 54 0
 150 004e 094B     		ldr	r3, .L15+8
 151 0050 5B88     		ldrh	r3, [r3, #2]
 152 0052 42F20F72 		movw	r2, #9999
 153 0056 9342     		cmp	r3, r2
 154 0058 03D8     		bhi	.L12
  55:main.c        ****             cont++;
 155              		.loc 1 55 0
 156 005a 0133     		adds	r3, r3, #1
 157 005c 054A     		ldr	r2, .L15+8
 158 005e 5380     		strh	r3, [r2, #2]	@ movhi
 159 0060 DBE7     		b	.L11
 160              	.L12:
  56:main.c        ****             }else{
  57:main.c        ****                 cont=0;
 161              		.loc 1 57 0
 162 0062 0022     		movs	r2, #0
 163 0064 034B     		ldr	r3, .L15+8
 164 0066 5A80     		strh	r2, [r3, #2]	@ movhi
 165 0068 D7E7     		b	.L11
 166              	.L16:
 167 006a 00BF     		.align	2
 168              	.L15:
 169 006c 00000000 		.word	ISR_botones
ARM GAS  C:\Users\adria\AppData\Local\Temp\ccahMqAX.s 			page 5


 170 0070 00000000 		.word	.LANCHOR1
 171 0074 00000000 		.word	.LANCHOR0
 172 0078 00000000 		.word	DIGITOS
 173              		.cfi_endproc
 174              	.LFE64:
 175              		.size	main, .-main
 176              		.global	Reg_Botones
 177              		.global	bandera
 178              		.global	cont
 179              		.comm	DIGITOS,4,4
 180              		.section	.rodata
 181              		.align	2
 182              		.set	.LANCHOR1,. + 0
 183              	.LC0:
 184 0000 01       		.byte	1
 185 0001 02       		.byte	2
 186 0002 04       		.byte	4
 187 0003 08       		.byte	8
 188              		.bss
 189              		.align	1
 190              		.set	.LANCHOR0,. + 0
 191              		.type	Reg_Botones, %object
 192              		.size	Reg_Botones, 1
 193              	Reg_Botones:
 194 0000 00       		.space	1
 195 0001 00       		.space	1
 196              		.type	cont, %object
 197              		.size	cont, 2
 198              	cont:
 199 0002 0000     		.space	2
 200              		.type	bandera, %object
 201              		.size	bandera, 2
 202              	bandera:
 203 0004 0000     		.space	2
 204              		.text
 205              	.Letext0:
 206              		.file 2 "c:\\program files (x86)\\cypress\\psoc creator\\4.4\\psoc creator\\import\\gnu\\arm\\5.4.
 207              		.file 3 "c:\\program files (x86)\\cypress\\psoc creator\\4.4\\psoc creator\\import\\gnu\\arm\\5.4.
 208              		.file 4 "Generated_Source\\PSoC5/core_cm3.h"
 209              		.file 5 "Firmware_7seg.h"
 210              		.file 6 "Generated_Source\\PSoC5/ISR_botones.h"
 211              		.file 7 "Generated_Source\\PSoC5/Status_Botones.h"
 212              		.file 8 "Generated_Source\\PSoC5/Displays_mux.h"
 213              		.file 9 "Generated_Source\\PSoC5/CyLib.h"