ARM GAS  C:\Users\adria\AppData\Local\Temp\ccl4zNyS.s 			page 1


   1              		.syntax unified
   2              		.cpu cortex-m3
   3              		.fpu softvfp
   4              		.eabi_attribute 20, 1
   5              		.eabi_attribute 21, 1
   6              		.eabi_attribute 23, 3
   7              		.eabi_attribute 24, 1
   8              		.eabi_attribute 25, 1
   9              		.eabi_attribute 26, 1
  10              		.eabi_attribute 30, 1
  11              		.eabi_attribute 34, 1
  12              		.eabi_attribute 18, 4
  13              		.thumb
  14              		.syntax unified
  15              		.file	"main.c"
  16              		.text
  17              	.Ltext0:
  18              		.cfi_sections	.debug_frame
  19              		.section	.text.isr,"ax",%progbits
  20              		.align	2
  21              		.global	isr
  22              		.thumb
  23              		.thumb_func
  24              		.type	isr, %function
  25              	isr:
  26              	.LFB63:
  27              		.file 1 "main.c"
   1:main.c        **** #include "project.h"
   2:main.c        **** #include "D:\GITHUB\Librerias_PSOC\Libreria_PSOC\LIB_psoc.h"
   3:main.c        **** #include "..\..\..\psoc\lcd_7seg\Workspace01\LCD.cydsn\PSOC_LCD.h"
   4:main.c        **** #include "espU1.h" //Libreria apra configura la esp wifi modulo
   5:main.c        **** #include "string.h"//Funciones para Cadenas de texto
   6:main.c        **** 
   7:main.c        **** //Rutina de interrrupción
   8:main.c        **** uint8_t flag = 0x00;//Bandera de interrupión de la uart
   9:main.c        **** CY_ISR(isr){
  28              		.loc 1 9 0
  29              		.cfi_startproc
  30              		@ args = 0, pretend = 0, frame = 0
  31              		@ frame_needed = 0, uses_anonymous_args = 0
  32 0000 08B5     		push	{r3, lr}
  33              		.cfi_def_cfa_offset 8
  34              		.cfi_offset 3, -8
  35              		.cfi_offset 14, -4
  10:main.c        ****     isr_ClearPending();  // Limpieza de interrupción
  36              		.loc 1 10 0
  37 0002 FFF7FEFF 		bl	isr_ClearPending
  38              	.LVL0:
  11:main.c        ****     flag |= BIT0;// Bandera de dato recibido  
  39              		.loc 1 11 0
  40 0006 034A     		ldr	r2, .L3
  41 0008 1378     		ldrb	r3, [r2]	@ zero_extendqisi2
  42 000a 43F00103 		orr	r3, r3, #1
  43 000e 1370     		strb	r3, [r2]
  44 0010 08BD     		pop	{r3, pc}
  45              	.L4:
  46 0012 00BF     		.align	2
ARM GAS  C:\Users\adria\AppData\Local\Temp\ccl4zNyS.s 			page 2


  47              	.L3:
  48 0014 00000000 		.word	.LANCHOR0
  49              		.cfi_endproc
  50              	.LFE63:
  51              		.size	isr, .-isr
  52              		.section	.text.main,"ax",%progbits
  53              		.align	2
  54              		.global	main
  55              		.thumb
  56              		.thumb_func
  57              		.type	main, %function
  58              	main:
  59              	.LFB64:
  12:main.c        **** }
  13:main.c        **** char buffer[32];//Buffer para lectura
  14:main.c        **** 
  15:main.c        **** int main(void)
  16:main.c        **** {
  60              		.loc 1 16 0
  61              		.cfi_startproc
  62              		@ args = 0, pretend = 0, frame = 0
  63              		@ frame_needed = 0, uses_anonymous_args = 0
  64 0000 38B5     		push	{r3, r4, r5, lr}
  65              		.cfi_def_cfa_offset 16
  66              		.cfi_offset 3, -16
  67              		.cfi_offset 4, -12
  68              		.cfi_offset 5, -8
  69              		.cfi_offset 14, -4
  17:main.c        ****     CyGlobalIntEnable;
  70              		.loc 1 17 0
  71              		.syntax unified
  72              	@ 17 "main.c" 1
  73 0002 62B6     		CPSIE   i
  74              	@ 0 "" 2
  18:main.c        ****     isr_StartEx(isr);// Inicializar interrupción física
  75              		.loc 1 18 0
  76              		.thumb
  77              		.syntax unified
  78 0004 2348     		ldr	r0, .L16
  79 0006 FFF7FEFF 		bl	isr_StartEx
  80              	.LVL1:
  19:main.c        ****     isr_ClearPending();// Limpiar por primera vez la interrupción
  81              		.loc 1 19 0
  82 000a FFF7FEFF 		bl	isr_ClearPending
  83              	.LVL2:
  20:main.c        ****     
  21:main.c        ****     //Perifericos
  22:main.c        ****     UART_Start();
  84              		.loc 1 22 0
  85 000e FFF7FEFF 		bl	UART_Start
  86              	.LVL3:
  23:main.c        ****     UART_ClearRxBuffer();
  87              		.loc 1 23 0
  88 0012 FFF7FEFF 		bl	UART_ClearRxBuffer
  89              	.LVL4:
  24:main.c        ****     //UART_PC_Start();
  25:main.c        ****     //UART_PC_ClearRxBuffer();
ARM GAS  C:\Users\adria\AppData\Local\Temp\ccl4zNyS.s 			page 3


  26:main.c        ****     LCD_Start();
  90              		.loc 1 26 0
  91 0016 FFF7FEFF 		bl	LCD_Start
  92              	.LVL5:
  27:main.c        ****     esp_wifi_Start();
  93              		.loc 1 27 0
  94 001a FFF7FEFF 		bl	esp_wifi_Start
  95              	.LVL6:
  28:main.c        ****     
  29:main.c        ****     int i=0;//Contador para leer el buffer de la UART
  30:main.c        ****     uint8_t colores = 0xFF;//inicialmente todos apagados
  96              		.loc 1 30 0
  97 001e FF25     		movs	r5, #255
  98              	.LVL7:
  99              	.L14:
 100 0020 0024     		movs	r4, #0
 101              	.L6:
 102              	.LVL8:
  31:main.c        ****     for(;;)
  32:main.c        ****     {
  33:main.c        ****         //RUTINA PARA CAPTURAR EL DATO ENVIADO POR EL uart
  34:main.c        ****         if(flag){//Se envió un mensaje por la UART
 103              		.loc 1 34 0
 104 0022 1D4B     		ldr	r3, .L16+4
 105 0024 1B78     		ldrb	r3, [r3]	@ zero_extendqisi2
 106 0026 002B     		cmp	r3, #0
 107 0028 FBD0     		beq	.L6
  35:main.c        ****             flag &= ~BIT0;//Tiramos la bandera
 108              		.loc 1 35 0
 109 002a 23F00103 		bic	r3, r3, #1
 110 002e 1A4A     		ldr	r2, .L16+4
 111 0030 1370     		strb	r3, [r2]
  36:main.c        ****             
  37:main.c        ****             buffer[i] =  UART_GetByte();//Agregamos al arreglo el ascci del caracter recibido
 112              		.loc 1 37 0
 113 0032 FFF7FEFF 		bl	UART_GetByte
 114              	.LVL9:
 115 0036 C0B2     		uxtb	r0, r0
 116 0038 184B     		ldr	r3, .L16+8
 117 003a 1855     		strb	r0, [r3, r4]
  38:main.c        ****             i++;
 118              		.loc 1 38 0
 119 003c 0134     		adds	r4, r4, #1
 120              	.LVL10:
  39:main.c        ****             
  40:main.c        ****             //Cortamos al detectar el caracter
  41:main.c        ****             if(buffer[i-1] == ' ') {
 121              		.loc 1 41 0
 122 003e 2028     		cmp	r0, #32
 123 0040 EFD1     		bne	.L6
  42:main.c        ****  
  43:main.c        ****             //char *leds[4]={"red ","green ","blue ","orange "};   
  44:main.c        ****             //******TOGGLES segun los botones del streamlit
  45:main.c        ****             /*
  46:main.c        ****             if(!strcmp(leds[0], buffer)){//rojo
  47:main.c        ****                 colores ^= BIT0;
  48:main.c        ****             }
ARM GAS  C:\Users\adria\AppData\Local\Temp\ccl4zNyS.s 			page 4


  49:main.c        ****             if(!strcmp(leds[1], buffer)){//verde
  50:main.c        ****                 colores ^= BIT1;
  51:main.c        ****             }  
  52:main.c        ****             if(!strcmp(leds[2], buffer)){//azul
  53:main.c        ****                 colores ^= BIT2;
  54:main.c        ****             }  
  55:main.c        ****             if(!strcmp(leds[3], buffer)){//naranja
  56:main.c        ****                 colores ^= BIT3;
  57:main.c        ****             }     
  58:main.c        ****             */
  59:main.c        ****             
  60:main.c        ****             if(strstr(buffer,"red")!= NULL){//rojo
 124              		.loc 1 60 0
 125 0042 1749     		ldr	r1, .L16+12
 126 0044 1846     		mov	r0, r3
 127 0046 FFF7FEFF 		bl	strstr
 128              	.LVL11:
 129 004a 08B1     		cbz	r0, .L8
  61:main.c        ****                 colores ^= BIT0;
 130              		.loc 1 61 0
 131 004c 85F00105 		eor	r5, r5, #1
 132              	.LVL12:
 133              	.L8:
  62:main.c        ****             }
  63:main.c        ****             if(strstr(buffer,"green")!= NULL){//verde
 134              		.loc 1 63 0
 135 0050 1449     		ldr	r1, .L16+16
 136 0052 1248     		ldr	r0, .L16+8
 137 0054 FFF7FEFF 		bl	strstr
 138              	.LVL13:
 139 0058 08B1     		cbz	r0, .L9
  64:main.c        ****                 colores ^= BIT1;
 140              		.loc 1 64 0
 141 005a 85F00205 		eor	r5, r5, #2
 142              	.LVL14:
 143              	.L9:
  65:main.c        ****             }  
  66:main.c        ****             if(strstr(buffer,"blue")!= NULL){//azul
 144              		.loc 1 66 0
 145 005e 1249     		ldr	r1, .L16+20
 146 0060 0E48     		ldr	r0, .L16+8
 147 0062 FFF7FEFF 		bl	strstr
 148              	.LVL15:
 149 0066 08B1     		cbz	r0, .L10
  67:main.c        ****                 colores ^= BIT2;
 150              		.loc 1 67 0
 151 0068 85F00405 		eor	r5, r5, #4
 152              	.LVL16:
 153              	.L10:
  68:main.c        ****             }  
  69:main.c        ****             if(strstr(buffer,"orange")!= NULL){//naranja
 154              		.loc 1 69 0
 155 006c 0F49     		ldr	r1, .L16+24
 156 006e 0B48     		ldr	r0, .L16+8
 157 0070 FFF7FEFF 		bl	strstr
 158              	.LVL17:
 159 0074 08B1     		cbz	r0, .L11
ARM GAS  C:\Users\adria\AppData\Local\Temp\ccl4zNyS.s 			page 5


  70:main.c        ****                 colores ^= BIT3;
 160              		.loc 1 70 0
 161 0076 85F00805 		eor	r5, r5, #8
 162              	.LVL18:
 163              	.L11:
  71:main.c        ****             }     
  72:main.c        ****              
  73:main.c        ****             //ACTUALIZAMOS COLORES
  74:main.c        ****             LEDS_Write(colores);
 164              		.loc 1 74 0
 165 007a 2846     		mov	r0, r5
 166 007c FFF7FEFF 		bl	LEDS_Write
 167              	.LVL19:
 168              	.LBB2:
  75:main.c        ****                 
  76:main.c        ****             //Limpiamos el buffer de lectura
  77:main.c        ****             for(int a=0;a<31;a++){
 169              		.loc 1 77 0
 170 0080 0023     		movs	r3, #0
 171 0082 03E0     		b	.L12
 172              	.LVL20:
 173              	.L13:
  78:main.c        ****                 buffer[a] = 0x00;
 174              		.loc 1 78 0 discriminator 3
 175 0084 0021     		movs	r1, #0
 176 0086 054A     		ldr	r2, .L16+8
 177 0088 D154     		strb	r1, [r2, r3]
  77:main.c        ****                 buffer[a] = 0x00;
 178              		.loc 1 77 0 discriminator 3
 179 008a 0133     		adds	r3, r3, #1
 180              	.LVL21:
 181              	.L12:
  77:main.c        ****                 buffer[a] = 0x00;
 182              		.loc 1 77 0 is_stmt 0 discriminator 1
 183 008c 1E2B     		cmp	r3, #30
 184 008e F9DD     		ble	.L13
 185 0090 C6E7     		b	.L14
 186              	.L17:
 187 0092 00BF     		.align	2
 188              	.L16:
 189 0094 00000000 		.word	isr
 190 0098 00000000 		.word	.LANCHOR0
 191 009c 00000000 		.word	buffer
 192 00a0 00000000 		.word	.LC0
 193 00a4 04000000 		.word	.LC1
 194 00a8 0C000000 		.word	.LC2
 195 00ac 14000000 		.word	.LC3
 196              	.LBE2:
 197              		.cfi_endproc
 198              	.LFE64:
 199              		.size	main, .-main
 200              		.comm	buffer,32,4
 201              		.global	flag
 202              		.section	.rodata.str1.4,"aMS",%progbits,1
 203              		.align	2
 204              	.LC0:
 205 0000 72656400 		.ascii	"red\000"
ARM GAS  C:\Users\adria\AppData\Local\Temp\ccl4zNyS.s 			page 6


 206              	.LC1:
 207 0004 67726565 		.ascii	"green\000"
 207      6E00
 208 000a 0000     		.space	2
 209              	.LC2:
 210 000c 626C7565 		.ascii	"blue\000"
 210      00
 211 0011 000000   		.space	3
 212              	.LC3:
 213 0014 6F72616E 		.ascii	"orange\000"
 213      676500
 214              		.bss
 215              		.set	.LANCHOR0,. + 0
 216              		.type	flag, %object
 217              		.size	flag, 1
 218              	flag:
 219 0000 00       		.space	1
 220              		.text
 221              	.Letext0:
 222              		.file 2 "c:\\program files (x86)\\cypress\\psoc creator\\4.4\\psoc creator\\import\\gnu\\arm\\5.4.
 223              		.file 3 "c:\\program files (x86)\\cypress\\psoc creator\\4.4\\psoc creator\\import\\gnu\\arm\\5.4.
 224              		.file 4 "Generated_Source\\PSoC5/core_cm3.h"
 225              		.file 5 "Generated_Source\\PSoC5/isr.h"
 226              		.file 6 "Generated_Source\\PSoC5/UART.h"
 227              		.file 7 "..\\..\\..\\psoc\\lcd_7seg\\Workspace01\\LCD.cydsn\\PSOC_LCD.h"
 228              		.file 8 "espU1.h"
 229              		.file 9 "c:\\program files (x86)\\cypress\\psoc creator\\4.4\\psoc creator\\import\\gnu\\arm\\5.4.
 230              		.file 10 "Generated_Source\\PSoC5/LEDS.h"