ARM GAS  C:\Users\adria\AppData\Local\Temp\cciNfgxb.s 			page 1


   1              		.syntax unified
   2              		.cpu cortex-m3
   3              		.fpu softvfp
   4              		.eabi_attribute 20, 1
   5              		.eabi_attribute 21, 1
   6              		.eabi_attribute 23, 3
   7              		.eabi_attribute 24, 1
   8              		.eabi_attribute 25, 1
   9              		.eabi_attribute 26, 1
  10              		.eabi_attribute 30, 1
  11              		.eabi_attribute 34, 1
  12              		.eabi_attribute 18, 4
  13              		.thumb
  14              		.syntax unified
  15              		.file	"bme680.c"
  16              		.text
  17              	.Ltext0:
  18              		.cfi_sections	.debug_frame
  19              		.section	.text.calc_temperature,"ax",%progbits
  20              		.align	2
  21              		.thumb
  22              		.thumb_func
  23              		.type	calc_temperature, %function
  24              	calc_temperature:
  25              	.LFB77:
  26              		.file 1 "bme680.c"
   1:bme680.c      **** /**\mainpage
   2:bme680.c      ****  * Copyright (c) 2020 Bosch Sensortec GmbH. All rights reserved.
   3:bme680.c      ****  *
   4:bme680.c      ****  * BSD-3-Clause
   5:bme680.c      ****  *
   6:bme680.c      ****  * Redistribution and use in source and binary forms, with or without
   7:bme680.c      ****  * modification, are permitted provided that the following conditions are met:
   8:bme680.c      ****  *
   9:bme680.c      ****  * 1. Redistributions of source code must retain the above copyright
  10:bme680.c      ****  *    notice, this list of conditions and the following disclaimer.
  11:bme680.c      ****  *
  12:bme680.c      ****  * 2. Redistributions in binary form must reproduce the above copyright
  13:bme680.c      ****  *    notice, this list of conditions and the following disclaimer in the
  14:bme680.c      ****  *    documentation and/or other materials provided with the distribution.
  15:bme680.c      ****  *
  16:bme680.c      ****  * 3. Neither the name of the copyright holder nor the names of its
  17:bme680.c      ****  *    contributors may be used to endorse or promote products derived from
  18:bme680.c      ****  *    this software without specific prior written permission.
  19:bme680.c      ****  *
  20:bme680.c      ****  * THIS SOFTWARE IS PROVIDED BY THE COPYRIGHT HOLDERS AND CONTRIBUTORS
  21:bme680.c      ****  * "AS IS" AND ANY EXPRESS OR IMPLIED WARRANTIES, INCLUDING, BUT NOT
  22:bme680.c      ****  * LIMITED TO, THE IMPLIED WARRANTIES OF MERCHANTABILITY AND FITNESS
  23:bme680.c      ****  * FOR A PARTICULAR PURPOSE ARE DISCLAIMED. IN NO EVENT SHALL THE
  24:bme680.c      ****  * COPYRIGHT HOLDER OR CONTRIBUTORS BE LIABLE FOR ANY DIRECT, INDIRECT,
  25:bme680.c      ****  * INCIDENTAL, SPECIAL, EXEMPLARY, OR CONSEQUENTIAL DAMAGES
  26:bme680.c      ****  * (INCLUDING, BUT NOT LIMITED TO, PROCUREMENT OF SUBSTITUTE GOODS OR
  27:bme680.c      ****  * SERVICES; LOSS OF USE, DATA, OR PROFITS; OR BUSINESS INTERRUPTION)
  28:bme680.c      ****  * HOWEVER CAUSED AND ON ANY THEORY OF LIABILITY, WHETHER IN CONTRACT,
  29:bme680.c      ****  * STRICT LIABILITY, OR TORT (INCLUDING NEGLIGENCE OR OTHERWISE) ARISING
  30:bme680.c      ****  * IN ANY WAY OUT OF THE USE OF THIS SOFTWARE, EVEN IF ADVISED OF THE
  31:bme680.c      ****  * POSSIBILITY OF SUCH DAMAGE.
ARM GAS  C:\Users\adria\AppData\Local\Temp\cciNfgxb.s 			page 2


  32:bme680.c      ****  *
  33:bme680.c      ****  * File		bme680.c
  34:bme680.c      ****  * @date	23 Jan 2020
  35:bme680.c      ****  * @version	3.5.10
  36:bme680.c      ****  *
  37:bme680.c      ****  */
  38:bme680.c      **** 
  39:bme680.c      **** /*! @file bme680.c
  40:bme680.c      ****  @brief Sensor driver for BME680 sensor */
  41:bme680.c      **** #include "bme680.h"
  42:bme680.c      **** #include "project.h"
  43:bme680.c      **** 
  44:bme680.c      **** /*!
  45:bme680.c      ****  * @brief This internal API is used to read the calibrated data from the sensor.
  46:bme680.c      ****  *
  47:bme680.c      ****  * This function is used to retrieve the calibration
  48:bme680.c      ****  * data from the image registers of the sensor.
  49:bme680.c      ****  *
  50:bme680.c      ****  * @note Registers 89h  to A1h for calibration data 1 to 24
  51:bme680.c      ****  *        from bit 0 to 7
  52:bme680.c      ****  * @note Registers E1h to F0h for calibration data 25 to 40
  53:bme680.c      ****  *        from bit 0 to 7
  54:bme680.c      ****  * @param[in] dev	:Structure instance of bme680_dev.
  55:bme680.c      ****  *
  56:bme680.c      ****  * @return Result of API execution status.
  57:bme680.c      ****  * @retval zero -> Success / +ve value -> Warning / -ve value -> Error
  58:bme680.c      ****  */
  59:bme680.c      **** static int8_t get_calib_data(struct bme680_dev *dev);
  60:bme680.c      **** 
  61:bme680.c      **** /*!
  62:bme680.c      ****  * @brief This internal API is used to set the gas configuration of the sensor.
  63:bme680.c      ****  *
  64:bme680.c      ****  * @param[in] dev	:Structure instance of bme680_dev.
  65:bme680.c      ****  *
  66:bme680.c      ****  * @return Result of API execution status.
  67:bme680.c      ****  * @retval zero -> Success / +ve value -> Warning / -ve value -> Error
  68:bme680.c      ****  */
  69:bme680.c      **** static int8_t set_gas_config(struct bme680_dev *dev);
  70:bme680.c      **** 
  71:bme680.c      **** /*!
  72:bme680.c      ****  * @brief This internal API is used to get the gas configuration of the sensor.
  73:bme680.c      ****  * @note heatr_temp and heatr_dur values are currently register data
  74:bme680.c      ****  * and not the actual values set
  75:bme680.c      ****  *
  76:bme680.c      ****  * @param[in] dev	:Structure instance of bme680_dev.
  77:bme680.c      ****  *
  78:bme680.c      ****  * @return Result of API execution status.
  79:bme680.c      ****  * @retval zero -> Success / +ve value -> Warning / -ve value -> Error
  80:bme680.c      ****  */
  81:bme680.c      **** static int8_t get_gas_config(struct bme680_dev *dev);
  82:bme680.c      **** 
  83:bme680.c      **** /*!
  84:bme680.c      ****  * @brief This internal API is used to calculate the Heat duration value.
  85:bme680.c      ****  *
  86:bme680.c      ****  * @param[in] dur	:Value of the duration to be shared.
  87:bme680.c      ****  *
  88:bme680.c      ****  * @return uint8_t threshold duration after calculation.
ARM GAS  C:\Users\adria\AppData\Local\Temp\cciNfgxb.s 			page 3


  89:bme680.c      ****  */
  90:bme680.c      **** static uint8_t calc_heater_dur(uint16_t dur);
  91:bme680.c      **** 
  92:bme680.c      **** #ifndef BME680_FLOAT_POINT_COMPENSATION
  93:bme680.c      **** 
  94:bme680.c      **** /*!
  95:bme680.c      ****  * @brief This internal API is used to calculate the temperature value.
  96:bme680.c      ****  *
  97:bme680.c      ****  * @param[in] dev	:Structure instance of bme680_dev.
  98:bme680.c      ****  * @param[in] temp_adc	:Contains the temperature ADC value .
  99:bme680.c      ****  *
 100:bme680.c      ****  * @return uint32_t calculated temperature.
 101:bme680.c      ****  */
 102:bme680.c      **** static int16_t calc_temperature(uint32_t temp_adc, struct bme680_dev *dev);
 103:bme680.c      **** 
 104:bme680.c      **** /*!
 105:bme680.c      ****  * @brief This internal API is used to calculate the pressure value.
 106:bme680.c      ****  *
 107:bme680.c      ****  * @param[in] dev	:Structure instance of bme680_dev.
 108:bme680.c      ****  * @param[in] pres_adc	:Contains the pressure ADC value .
 109:bme680.c      ****  *
 110:bme680.c      ****  * @return uint32_t calculated pressure.
 111:bme680.c      ****  */
 112:bme680.c      **** static uint32_t calc_pressure(uint32_t pres_adc, const struct bme680_dev *dev);
 113:bme680.c      **** 
 114:bme680.c      **** /*!
 115:bme680.c      ****  * @brief This internal API is used to calculate the humidity value.
 116:bme680.c      ****  *
 117:bme680.c      ****  * @param[in] dev	:Structure instance of bme680_dev.
 118:bme680.c      ****  * @param[in] hum_adc	:Contains the humidity ADC value.
 119:bme680.c      ****  *
 120:bme680.c      ****  * @return uint32_t calculated humidity.
 121:bme680.c      ****  */
 122:bme680.c      **** static uint32_t calc_humidity(uint16_t hum_adc, const struct bme680_dev *dev);
 123:bme680.c      **** 
 124:bme680.c      **** /*!
 125:bme680.c      ****  * @brief This internal API is used to calculate the Gas Resistance value.
 126:bme680.c      ****  *
 127:bme680.c      ****  * @param[in] dev		:Structure instance of bme680_dev.
 128:bme680.c      ****  * @param[in] gas_res_adc	:Contains the Gas Resistance ADC value.
 129:bme680.c      ****  * @param[in] gas_range		:Contains the range of gas values.
 130:bme680.c      ****  *
 131:bme680.c      ****  * @return uint32_t calculated gas resistance.
 132:bme680.c      ****  */
 133:bme680.c      **** static uint32_t calc_gas_resistance(uint16_t gas_res_adc, uint8_t gas_range, const struct bme680_de
 134:bme680.c      **** 
 135:bme680.c      **** /*!
 136:bme680.c      ****  * @brief This internal API is used to calculate the Heat Resistance value.
 137:bme680.c      ****  *
 138:bme680.c      ****  * @param[in] dev	: Structure instance of bme680_dev
 139:bme680.c      ****  * @param[in] temp	: Contains the target temperature value.
 140:bme680.c      ****  *
 141:bme680.c      ****  * @return uint8_t calculated heater resistance.
 142:bme680.c      ****  */
 143:bme680.c      **** static uint8_t calc_heater_res(uint16_t temp, const struct bme680_dev *dev);
 144:bme680.c      **** 
 145:bme680.c      **** #else
ARM GAS  C:\Users\adria\AppData\Local\Temp\cciNfgxb.s 			page 4


 146:bme680.c      **** /*!
 147:bme680.c      ****  * @brief This internal API is used to calculate the
 148:bme680.c      ****  * temperature value value in float format
 149:bme680.c      ****  *
 150:bme680.c      ****  * @param[in] dev	:Structure instance of bme680_dev.
 151:bme680.c      ****  * @param[in] temp_adc	:Contains the temperature ADC value .
 152:bme680.c      ****  *
 153:bme680.c      ****  * @return Calculated temperature in float
 154:bme680.c      ****  */
 155:bme680.c      **** static float calc_temperature(uint32_t temp_adc, struct bme680_dev *dev);
 156:bme680.c      **** 
 157:bme680.c      **** /*!
 158:bme680.c      ****  * @brief This internal API is used to calculate the
 159:bme680.c      ****  * pressure value value in float format
 160:bme680.c      ****  *
 161:bme680.c      ****  * @param[in] dev	:Structure instance of bme680_dev.
 162:bme680.c      ****  * @param[in] pres_adc	:Contains the pressure ADC value .
 163:bme680.c      ****  *
 164:bme680.c      ****  * @return Calculated pressure in float.
 165:bme680.c      ****  */
 166:bme680.c      **** static float calc_pressure(uint32_t pres_adc, const struct bme680_dev *dev);
 167:bme680.c      **** 
 168:bme680.c      **** /*!
 169:bme680.c      ****  * @brief This internal API is used to calculate the
 170:bme680.c      ****  * humidity value value in float format
 171:bme680.c      ****  *
 172:bme680.c      ****  * @param[in] dev	:Structure instance of bme680_dev.
 173:bme680.c      ****  * @param[in] hum_adc	:Contains the humidity ADC value.
 174:bme680.c      ****  *
 175:bme680.c      ****  * @return Calculated humidity in float.
 176:bme680.c      ****  */
 177:bme680.c      **** static float calc_humidity(uint16_t hum_adc, const struct bme680_dev *dev);
 178:bme680.c      **** 
 179:bme680.c      **** /*!
 180:bme680.c      ****  * @brief This internal API is used to calculate the
 181:bme680.c      ****  * gas resistance value value in float format
 182:bme680.c      ****  *
 183:bme680.c      ****  * @param[in] dev		:Structure instance of bme680_dev.
 184:bme680.c      ****  * @param[in] gas_res_adc	:Contains the Gas Resistance ADC value.
 185:bme680.c      ****  * @param[in] gas_range		:Contains the range of gas values.
 186:bme680.c      ****  *
 187:bme680.c      ****  * @return Calculated gas resistance in float.
 188:bme680.c      ****  */
 189:bme680.c      **** static float calc_gas_resistance(uint16_t gas_res_adc, uint8_t gas_range, const struct bme680_dev *
 190:bme680.c      **** 
 191:bme680.c      **** /*!
 192:bme680.c      ****  * @brief This internal API is used to calculate the
 193:bme680.c      ****  * heater resistance value in float format
 194:bme680.c      ****  *
 195:bme680.c      ****  * @param[in] temp	: Contains the target temperature value.
 196:bme680.c      ****  * @param[in] dev	: Structure instance of bme680_dev.
 197:bme680.c      ****  *
 198:bme680.c      ****  * @return Calculated heater resistance in float.
 199:bme680.c      ****  */
 200:bme680.c      **** static float calc_heater_res(uint16_t temp, const struct bme680_dev *dev);
 201:bme680.c      **** 
 202:bme680.c      **** #endif
ARM GAS  C:\Users\adria\AppData\Local\Temp\cciNfgxb.s 			page 5


 203:bme680.c      **** 
 204:bme680.c      **** /*!
 205:bme680.c      ****  * @brief This internal API is used to calculate the field data of sensor.
 206:bme680.c      ****  *
 207:bme680.c      ****  * @param[out] data :Structure instance to hold the data
 208:bme680.c      ****  * @param[in] dev	:Structure instance of bme680_dev.
 209:bme680.c      ****  *
 210:bme680.c      ****  *  @return int8_t result of the field data from sensor.
 211:bme680.c      ****  */
 212:bme680.c      **** static int8_t read_field_data(struct bme680_field_data *data, struct bme680_dev *dev);
 213:bme680.c      **** 
 214:bme680.c      **** /*!
 215:bme680.c      ****  * @brief This internal API is used to set the memory page
 216:bme680.c      ****  * based on register address.
 217:bme680.c      ****  *
 218:bme680.c      ****  * The value of memory page
 219:bme680.c      ****  *  value  | Description
 220:bme680.c      ****  * --------|--------------
 221:bme680.c      ****  *   0     | BME680_PAGE0_SPI
 222:bme680.c      ****  *   1     | BME680_PAGE1_SPI
 223:bme680.c      ****  *
 224:bme680.c      ****  * @param[in] dev	:Structure instance of bme680_dev.
 225:bme680.c      ****  * @param[in] reg_addr	:Contains the register address array.
 226:bme680.c      ****  *
 227:bme680.c      ****  * @return Result of API execution status
 228:bme680.c      ****  * @retval zero -> Success / +ve value -> Warning / -ve value -> Error
 229:bme680.c      ****  */
 230:bme680.c      **** static int8_t set_mem_page(uint8_t reg_addr, struct bme680_dev *dev);
 231:bme680.c      **** 
 232:bme680.c      **** /*!
 233:bme680.c      ****  * @brief This internal API is used to get the memory page based
 234:bme680.c      ****  * on register address.
 235:bme680.c      ****  *
 236:bme680.c      ****  * The value of memory page
 237:bme680.c      ****  *  value  | Description
 238:bme680.c      ****  * --------|--------------
 239:bme680.c      ****  *   0     | BME680_PAGE0_SPI
 240:bme680.c      ****  *   1     | BME680_PAGE1_SPI
 241:bme680.c      ****  *
 242:bme680.c      ****  * @param[in] dev	:Structure instance of bme680_dev.
 243:bme680.c      ****  *
 244:bme680.c      ****  * @return Result of API execution status
 245:bme680.c      ****  * @retval zero -> Success / +ve value -> Warning / -ve value -> Error
 246:bme680.c      ****  */
 247:bme680.c      **** static int8_t get_mem_page(struct bme680_dev *dev);
 248:bme680.c      **** 
 249:bme680.c      **** /*!
 250:bme680.c      ****  * @brief This internal API is used to validate the device pointer for
 251:bme680.c      ****  * null conditions.
 252:bme680.c      ****  *
 253:bme680.c      ****  * @param[in] dev	:Structure instance of bme680_dev.
 254:bme680.c      ****  *
 255:bme680.c      ****  * @return Result of API execution status
 256:bme680.c      ****  * @retval zero -> Success / +ve value -> Warning / -ve value -> Error
 257:bme680.c      ****  */
 258:bme680.c      **** static int8_t null_ptr_check(const struct bme680_dev *dev);
 259:bme680.c      **** 
ARM GAS  C:\Users\adria\AppData\Local\Temp\cciNfgxb.s 			page 6


 260:bme680.c      **** /*!
 261:bme680.c      ****  * @brief This internal API is used to check the boundary
 262:bme680.c      ****  * conditions.
 263:bme680.c      ****  *
 264:bme680.c      ****  * @param[in] value	:pointer to the value.
 265:bme680.c      ****  * @param[in] min	:minimum value.
 266:bme680.c      ****  * @param[in] max	:maximum value.
 267:bme680.c      ****  * @param[in] dev	:Structure instance of bme680_dev.
 268:bme680.c      ****  *
 269:bme680.c      ****  * @return Result of API execution status
 270:bme680.c      ****  * @retval zero -> Success / +ve value -> Warning / -ve value -> Error
 271:bme680.c      ****  */
 272:bme680.c      **** static int8_t boundary_check(uint8_t *value, uint8_t min, uint8_t max, struct bme680_dev *dev);
 273:bme680.c      **** 
 274:bme680.c      **** static void user_delay_ms(uint32_t period);
 275:bme680.c      **** static int8_t user_i2c_read(uint8_t dev_id, uint8_t reg_addr, uint8_t *reg_data, uint16_t len);
 276:bme680.c      **** static int8_t user_i2c_write(uint8_t dev_id, uint8_t reg_addr, uint8_t *reg_data, uint16_t len);
 277:bme680.c      **** 
 278:bme680.c      **** /****************** Global Function Definitions *******************************/
 279:bme680.c      **** /*!
 280:bme680.c      ****  *@brief This API is the entry point.
 281:bme680.c      ****  *It reads the chip-id and calibration data from the sensor.
 282:bme680.c      ****  */
 283:bme680.c      **** int8_t bme680_init(struct bme680_dev *dev)
 284:bme680.c      **** {
 285:bme680.c      **** 	int8_t rslt;
 286:bme680.c      **** 
 287:bme680.c      **** 	/* Check for null pointer in the device structure*/
 288:bme680.c      **** 	rslt = null_ptr_check(dev);
 289:bme680.c      **** 	if (rslt == BME680_OK) {
 290:bme680.c      **** 		/* Soft reset to restore it to default values*/
 291:bme680.c      **** 		rslt = bme680_soft_reset(dev);
 292:bme680.c      **** 		if (rslt == BME680_OK) {
 293:bme680.c      **** 			rslt = bme680_get_regs(BME680_CHIP_ID_ADDR, &dev->chip_id, 1, dev);
 294:bme680.c      **** 			if (rslt == BME680_OK) {
 295:bme680.c      **** 				if (dev->chip_id == BME680_CHIP_ID) {
 296:bme680.c      **** 					/* Get the Calibration data */
 297:bme680.c      **** 					rslt = get_calib_data(dev);
 298:bme680.c      **** 				} else {
 299:bme680.c      **** 					rslt = BME680_E_DEV_NOT_FOUND;
 300:bme680.c      **** 				}
 301:bme680.c      **** 			}
 302:bme680.c      **** 		}
 303:bme680.c      **** 	}
 304:bme680.c      **** 
 305:bme680.c      **** 	return rslt;
 306:bme680.c      **** }
 307:bme680.c      **** 
 308:bme680.c      **** /*!
 309:bme680.c      ****  * @brief This API reads the data from the given register address of the sensor.
 310:bme680.c      ****  */
 311:bme680.c      **** int8_t bme680_get_regs(uint8_t reg_addr, uint8_t *reg_data, uint16_t len, struct bme680_dev *dev)
 312:bme680.c      **** {
 313:bme680.c      **** 	int8_t rslt;
 314:bme680.c      **** 
 315:bme680.c      **** 	/* Check for null pointer in the device structure*/
 316:bme680.c      **** 	rslt = null_ptr_check(dev);
ARM GAS  C:\Users\adria\AppData\Local\Temp\cciNfgxb.s 			page 7


 317:bme680.c      **** 	if (rslt == BME680_OK) {
 318:bme680.c      **** 		if (dev->intf == BME680_SPI_INTF) {
 319:bme680.c      **** 			/* Set the memory page */
 320:bme680.c      **** 			rslt = set_mem_page(reg_addr, dev);
 321:bme680.c      **** 			if (rslt == BME680_OK)
 322:bme680.c      **** 				reg_addr = reg_addr | BME680_SPI_RD_MSK;
 323:bme680.c      **** 		}
 324:bme680.c      **** 		dev->com_rslt = dev->read(dev->dev_id, reg_addr, reg_data, len);
 325:bme680.c      **** 		if (dev->com_rslt != 0)
 326:bme680.c      **** 			rslt = BME680_E_COM_FAIL;
 327:bme680.c      **** 	}
 328:bme680.c      **** 
 329:bme680.c      **** 	return rslt;
 330:bme680.c      **** }
 331:bme680.c      **** 
 332:bme680.c      **** /*!
 333:bme680.c      ****  * @brief This API writes the given data to the register address
 334:bme680.c      ****  * of the sensor.
 335:bme680.c      ****  */
 336:bme680.c      **** int8_t bme680_set_regs(const uint8_t *reg_addr, const uint8_t *reg_data, uint8_t len, struct bme680
 337:bme680.c      **** {
 338:bme680.c      **** 	int8_t rslt;
 339:bme680.c      **** 	/* Length of the temporary buffer is 2*(length of register)*/
 340:bme680.c      **** 	uint8_t tmp_buff[BME680_TMP_BUFFER_LENGTH] = { 0 };
 341:bme680.c      **** 	uint16_t index;
 342:bme680.c      **** 
 343:bme680.c      **** 	/* Check for null pointer in the device structure*/
 344:bme680.c      **** 	rslt = null_ptr_check(dev);
 345:bme680.c      **** 	if (rslt == BME680_OK) {
 346:bme680.c      **** 		if ((len > 0) && (len < BME680_TMP_BUFFER_LENGTH / 2)) {
 347:bme680.c      **** 			/* Interleave the 2 arrays */
 348:bme680.c      **** 			for (index = 0; index < len; index++) {
 349:bme680.c      **** 				if (dev->intf == BME680_SPI_INTF) {
 350:bme680.c      **** 					/* Set the memory page */
 351:bme680.c      **** 					rslt = set_mem_page(reg_addr[index], dev);
 352:bme680.c      **** 					tmp_buff[(2 * index)] = reg_addr[index] & BME680_SPI_WR_MSK;
 353:bme680.c      **** 				} else {
 354:bme680.c      **** 					tmp_buff[(2 * index)] = reg_addr[index];
 355:bme680.c      **** 				}
 356:bme680.c      **** 				tmp_buff[(2 * index) + 1] = reg_data[index];
 357:bme680.c      **** 			}
 358:bme680.c      **** 			/* Write the interleaved array */
 359:bme680.c      **** 			if (rslt == BME680_OK) {
 360:bme680.c      **** 				dev->com_rslt = dev->write(dev->dev_id, tmp_buff[0], &tmp_buff[1], (2 * len) - 1);
 361:bme680.c      **** 				if (dev->com_rslt != 0)
 362:bme680.c      **** 					rslt = BME680_E_COM_FAIL;
 363:bme680.c      **** 			}
 364:bme680.c      **** 		} else {
 365:bme680.c      **** 			rslt = BME680_E_INVALID_LENGTH;
 366:bme680.c      **** 		}
 367:bme680.c      **** 	}
 368:bme680.c      **** 
 369:bme680.c      **** 	return rslt;
 370:bme680.c      **** }
 371:bme680.c      **** 
 372:bme680.c      **** /*!
 373:bme680.c      ****  * @brief This API performs the soft reset of the sensor.
ARM GAS  C:\Users\adria\AppData\Local\Temp\cciNfgxb.s 			page 8


 374:bme680.c      ****  */
 375:bme680.c      **** int8_t bme680_soft_reset(struct bme680_dev *dev)
 376:bme680.c      **** {
 377:bme680.c      **** 	int8_t rslt;
 378:bme680.c      **** 	uint8_t reg_addr = BME680_SOFT_RESET_ADDR;
 379:bme680.c      **** 	/* 0xb6 is the soft reset command */
 380:bme680.c      **** 	uint8_t soft_rst_cmd = BME680_SOFT_RESET_CMD;
 381:bme680.c      **** 
 382:bme680.c      **** 	/* Check for null pointer in the device structure*/
 383:bme680.c      **** 	rslt = null_ptr_check(dev);
 384:bme680.c      **** 	if (rslt == BME680_OK) {
 385:bme680.c      **** 		if (dev->intf == BME680_SPI_INTF)
 386:bme680.c      **** 			rslt = get_mem_page(dev);
 387:bme680.c      **** 
 388:bme680.c      **** 		/* Reset the device */
 389:bme680.c      **** 		if (rslt == BME680_OK) {
 390:bme680.c      **** 			rslt = bme680_set_regs(&reg_addr, &soft_rst_cmd, 1, dev);
 391:bme680.c      **** 			/* Wait for 5ms */
 392:bme680.c      **** 			dev->delay_ms(BME680_RESET_PERIOD);
 393:bme680.c      **** 
 394:bme680.c      **** 			if (rslt == BME680_OK) {
 395:bme680.c      **** 				/* After reset get the memory page */
 396:bme680.c      **** 				if (dev->intf == BME680_SPI_INTF)
 397:bme680.c      **** 					rslt = get_mem_page(dev);
 398:bme680.c      **** 			}
 399:bme680.c      **** 		}
 400:bme680.c      **** 	}
 401:bme680.c      **** 
 402:bme680.c      **** 	return rslt;
 403:bme680.c      **** }
 404:bme680.c      **** 
 405:bme680.c      **** /*!
 406:bme680.c      ****  * @brief This API is used to set the oversampling, filter and T,P,H, gas selection
 407:bme680.c      ****  * settings in the sensor.
 408:bme680.c      ****  */
 409:bme680.c      **** int8_t bme680_set_sensor_settings(uint16_t desired_settings, struct bme680_dev *dev)
 410:bme680.c      **** {
 411:bme680.c      **** 	int8_t rslt;
 412:bme680.c      **** 	uint8_t reg_addr;
 413:bme680.c      **** 	uint8_t data = 0;
 414:bme680.c      **** 	uint8_t count = 0;
 415:bme680.c      **** 	uint8_t reg_array[BME680_REG_BUFFER_LENGTH] = { 0 };
 416:bme680.c      **** 	uint8_t data_array[BME680_REG_BUFFER_LENGTH] = { 0 };
 417:bme680.c      **** 	uint8_t intended_power_mode = dev->power_mode; /* Save intended power mode */
 418:bme680.c      **** 
 419:bme680.c      **** 	/* Check for null pointer in the device structure*/
 420:bme680.c      **** 	rslt = null_ptr_check(dev);
 421:bme680.c      **** 	if (rslt == BME680_OK) {
 422:bme680.c      **** 		if (desired_settings & BME680_GAS_MEAS_SEL)
 423:bme680.c      **** 			rslt = set_gas_config(dev);
 424:bme680.c      **** 
 425:bme680.c      **** 		dev->power_mode = BME680_SLEEP_MODE;
 426:bme680.c      **** 		if (rslt == BME680_OK)
 427:bme680.c      **** 			rslt = bme680_set_sensor_mode(dev);
 428:bme680.c      **** 
 429:bme680.c      **** 		/* Selecting the filter */
 430:bme680.c      **** 		if (desired_settings & BME680_FILTER_SEL) {
ARM GAS  C:\Users\adria\AppData\Local\Temp\cciNfgxb.s 			page 9


 431:bme680.c      **** 			rslt = boundary_check(&dev->tph_sett.filter, BME680_FILTER_SIZE_0, BME680_FILTER_SIZE_127, dev);
 432:bme680.c      **** 			reg_addr = BME680_CONF_ODR_FILT_ADDR;
 433:bme680.c      **** 
 434:bme680.c      **** 			if (rslt == BME680_OK)
 435:bme680.c      **** 				rslt = bme680_get_regs(reg_addr, &data, 1, dev);
 436:bme680.c      **** 
 437:bme680.c      **** 			if (desired_settings & BME680_FILTER_SEL)
 438:bme680.c      **** 				data = BME680_SET_BITS(data, BME680_FILTER, dev->tph_sett.filter);
 439:bme680.c      **** 
 440:bme680.c      **** 			reg_array[count] = reg_addr; /* Append configuration */
 441:bme680.c      **** 			data_array[count] = data;
 442:bme680.c      **** 			count++;
 443:bme680.c      **** 		}
 444:bme680.c      **** 
 445:bme680.c      **** 		/* Selecting heater control for the sensor */
 446:bme680.c      **** 		if (desired_settings & BME680_HCNTRL_SEL) {
 447:bme680.c      **** 			rslt = boundary_check(&dev->gas_sett.heatr_ctrl, BME680_ENABLE_HEATER,
 448:bme680.c      **** 				BME680_DISABLE_HEATER, dev);
 449:bme680.c      **** 			reg_addr = BME680_CONF_HEAT_CTRL_ADDR;
 450:bme680.c      **** 
 451:bme680.c      **** 			if (rslt == BME680_OK)
 452:bme680.c      **** 				rslt = bme680_get_regs(reg_addr, &data, 1, dev);
 453:bme680.c      **** 			data = BME680_SET_BITS_POS_0(data, BME680_HCTRL, dev->gas_sett.heatr_ctrl);
 454:bme680.c      **** 
 455:bme680.c      **** 			reg_array[count] = reg_addr; /* Append configuration */
 456:bme680.c      **** 			data_array[count] = data;
 457:bme680.c      **** 			count++;
 458:bme680.c      **** 		}
 459:bme680.c      **** 
 460:bme680.c      **** 		/* Selecting heater T,P oversampling for the sensor */
 461:bme680.c      **** 		if (desired_settings & (BME680_OST_SEL | BME680_OSP_SEL)) {
 462:bme680.c      **** 			rslt = boundary_check(&dev->tph_sett.os_temp, BME680_OS_NONE, BME680_OS_16X, dev);
 463:bme680.c      **** 			reg_addr = BME680_CONF_T_P_MODE_ADDR;
 464:bme680.c      **** 
 465:bme680.c      **** 			if (rslt == BME680_OK)
 466:bme680.c      **** 				rslt = bme680_get_regs(reg_addr, &data, 1, dev);
 467:bme680.c      **** 
 468:bme680.c      **** 			if (desired_settings & BME680_OST_SEL)
 469:bme680.c      **** 				data = BME680_SET_BITS(data, BME680_OST, dev->tph_sett.os_temp);
 470:bme680.c      **** 
 471:bme680.c      **** 			if (desired_settings & BME680_OSP_SEL)
 472:bme680.c      **** 				data = BME680_SET_BITS(data, BME680_OSP, dev->tph_sett.os_pres);
 473:bme680.c      **** 
 474:bme680.c      **** 			reg_array[count] = reg_addr;
 475:bme680.c      **** 			data_array[count] = data;
 476:bme680.c      **** 			count++;
 477:bme680.c      **** 		}
 478:bme680.c      **** 
 479:bme680.c      **** 		/* Selecting humidity oversampling for the sensor */
 480:bme680.c      **** 		if (desired_settings & BME680_OSH_SEL) {
 481:bme680.c      **** 			rslt = boundary_check(&dev->tph_sett.os_hum, BME680_OS_NONE, BME680_OS_16X, dev);
 482:bme680.c      **** 			reg_addr = BME680_CONF_OS_H_ADDR;
 483:bme680.c      **** 
 484:bme680.c      **** 			if (rslt == BME680_OK)
 485:bme680.c      **** 				rslt = bme680_get_regs(reg_addr, &data, 1, dev);
 486:bme680.c      **** 			data = BME680_SET_BITS_POS_0(data, BME680_OSH, dev->tph_sett.os_hum);
 487:bme680.c      **** 
ARM GAS  C:\Users\adria\AppData\Local\Temp\cciNfgxb.s 			page 10


 488:bme680.c      **** 			reg_array[count] = reg_addr; /* Append configuration */
 489:bme680.c      **** 			data_array[count] = data;
 490:bme680.c      **** 			count++;
 491:bme680.c      **** 		}
 492:bme680.c      **** 
 493:bme680.c      **** 		/* Selecting the runGas and NB conversion settings for the sensor */
 494:bme680.c      **** 		if (desired_settings & (BME680_RUN_GAS_SEL | BME680_NBCONV_SEL)) {
 495:bme680.c      **** 			rslt = boundary_check(&dev->gas_sett.run_gas, BME680_RUN_GAS_DISABLE,
 496:bme680.c      **** 				BME680_RUN_GAS_ENABLE, dev);
 497:bme680.c      **** 			if (rslt == BME680_OK) {
 498:bme680.c      **** 				/* Validate boundary conditions */
 499:bme680.c      **** 				rslt = boundary_check(&dev->gas_sett.nb_conv, BME680_NBCONV_MIN,
 500:bme680.c      **** 					BME680_NBCONV_MAX, dev);
 501:bme680.c      **** 			}
 502:bme680.c      **** 
 503:bme680.c      **** 			reg_addr = BME680_CONF_ODR_RUN_GAS_NBC_ADDR;
 504:bme680.c      **** 
 505:bme680.c      **** 			if (rslt == BME680_OK)
 506:bme680.c      **** 				rslt = bme680_get_regs(reg_addr, &data, 1, dev);
 507:bme680.c      **** 
 508:bme680.c      **** 			if (desired_settings & BME680_RUN_GAS_SEL)
 509:bme680.c      **** 				data = BME680_SET_BITS(data, BME680_RUN_GAS, dev->gas_sett.run_gas);
 510:bme680.c      **** 
 511:bme680.c      **** 			if (desired_settings & BME680_NBCONV_SEL)
 512:bme680.c      **** 				data = BME680_SET_BITS_POS_0(data, BME680_NBCONV, dev->gas_sett.nb_conv);
 513:bme680.c      **** 
 514:bme680.c      **** 			reg_array[count] = reg_addr; /* Append configuration */
 515:bme680.c      **** 			data_array[count] = data;
 516:bme680.c      **** 			count++;
 517:bme680.c      **** 		}
 518:bme680.c      **** 
 519:bme680.c      **** 		if (rslt == BME680_OK)
 520:bme680.c      **** 			rslt = bme680_set_regs(reg_array, data_array, count, dev);
 521:bme680.c      **** 
 522:bme680.c      **** 		/* Restore previous intended power mode */
 523:bme680.c      **** 		dev->power_mode = intended_power_mode;
 524:bme680.c      **** 	}
 525:bme680.c      **** 
 526:bme680.c      **** 	return rslt;
 527:bme680.c      **** }
 528:bme680.c      **** 
 529:bme680.c      **** /*!
 530:bme680.c      ****  * @brief This API is used to get the oversampling, filter and T,P,H, gas selection
 531:bme680.c      ****  * settings in the sensor.
 532:bme680.c      ****  */
 533:bme680.c      **** int8_t bme680_get_sensor_settings(uint16_t desired_settings, struct bme680_dev *dev)
 534:bme680.c      **** {
 535:bme680.c      **** 	int8_t rslt;
 536:bme680.c      **** 	/* starting address of the register array for burst read*/
 537:bme680.c      **** 	uint8_t reg_addr = BME680_CONF_HEAT_CTRL_ADDR;
 538:bme680.c      **** 	uint8_t data_array[BME680_REG_BUFFER_LENGTH] = { 0 };
 539:bme680.c      **** 
 540:bme680.c      **** 	/* Check for null pointer in the device structure*/
 541:bme680.c      **** 	rslt = null_ptr_check(dev);
 542:bme680.c      **** 	if (rslt == BME680_OK) {
 543:bme680.c      **** 		rslt = bme680_get_regs(reg_addr, data_array, BME680_REG_BUFFER_LENGTH, dev);
 544:bme680.c      **** 
ARM GAS  C:\Users\adria\AppData\Local\Temp\cciNfgxb.s 			page 11


 545:bme680.c      **** 		if (rslt == BME680_OK) {
 546:bme680.c      **** 			if (desired_settings & BME680_GAS_MEAS_SEL)
 547:bme680.c      **** 				rslt = get_gas_config(dev);
 548:bme680.c      **** 
 549:bme680.c      **** 			/* get the T,P,H ,Filter,ODR settings here */
 550:bme680.c      **** 			if (desired_settings & BME680_FILTER_SEL)
 551:bme680.c      **** 				dev->tph_sett.filter = BME680_GET_BITS(data_array[BME680_REG_FILTER_INDEX],
 552:bme680.c      **** 					BME680_FILTER);
 553:bme680.c      **** 
 554:bme680.c      **** 			if (desired_settings & (BME680_OST_SEL | BME680_OSP_SEL)) {
 555:bme680.c      **** 				dev->tph_sett.os_temp = BME680_GET_BITS(data_array[BME680_REG_TEMP_INDEX], BME680_OST);
 556:bme680.c      **** 				dev->tph_sett.os_pres = BME680_GET_BITS(data_array[BME680_REG_PRES_INDEX], BME680_OSP);
 557:bme680.c      **** 			}
 558:bme680.c      **** 
 559:bme680.c      **** 			if (desired_settings & BME680_OSH_SEL)
 560:bme680.c      **** 				dev->tph_sett.os_hum = BME680_GET_BITS_POS_0(data_array[BME680_REG_HUM_INDEX],
 561:bme680.c      **** 					BME680_OSH);
 562:bme680.c      **** 
 563:bme680.c      **** 			/* get the gas related settings */
 564:bme680.c      **** 			if (desired_settings & BME680_HCNTRL_SEL)
 565:bme680.c      **** 				dev->gas_sett.heatr_ctrl = BME680_GET_BITS_POS_0(data_array[BME680_REG_HCTRL_INDEX],
 566:bme680.c      **** 					BME680_HCTRL);
 567:bme680.c      **** 
 568:bme680.c      **** 			if (desired_settings & (BME680_RUN_GAS_SEL | BME680_NBCONV_SEL)) {
 569:bme680.c      **** 				dev->gas_sett.nb_conv = BME680_GET_BITS_POS_0(data_array[BME680_REG_NBCONV_INDEX],
 570:bme680.c      **** 					BME680_NBCONV);
 571:bme680.c      **** 				dev->gas_sett.run_gas = BME680_GET_BITS(data_array[BME680_REG_RUN_GAS_INDEX],
 572:bme680.c      **** 					BME680_RUN_GAS);
 573:bme680.c      **** 			}
 574:bme680.c      **** 		}
 575:bme680.c      **** 	} else {
 576:bme680.c      **** 		rslt = BME680_E_NULL_PTR;
 577:bme680.c      **** 	}
 578:bme680.c      **** 
 579:bme680.c      **** 	return rslt;
 580:bme680.c      **** }
 581:bme680.c      **** 
 582:bme680.c      **** /*!
 583:bme680.c      ****  * @brief This API is used to set the power mode of the sensor.
 584:bme680.c      ****  */
 585:bme680.c      **** int8_t bme680_set_sensor_mode(struct bme680_dev *dev)
 586:bme680.c      **** {
 587:bme680.c      **** 	int8_t rslt;
 588:bme680.c      **** 	uint8_t tmp_pow_mode;
 589:bme680.c      **** 	uint8_t pow_mode = 0;
 590:bme680.c      **** 	uint8_t reg_addr = BME680_CONF_T_P_MODE_ADDR;
 591:bme680.c      **** 
 592:bme680.c      **** 	/* Check for null pointer in the device structure*/
 593:bme680.c      **** 	rslt = null_ptr_check(dev);
 594:bme680.c      **** 	if (rslt == BME680_OK) {
 595:bme680.c      **** 		/* Call repeatedly until in sleep */
 596:bme680.c      **** 		do {
 597:bme680.c      **** 			rslt = bme680_get_regs(BME680_CONF_T_P_MODE_ADDR, &tmp_pow_mode, 1, dev);
 598:bme680.c      **** 			if (rslt == BME680_OK) {
 599:bme680.c      **** 				/* Put to sleep before changing mode */
 600:bme680.c      **** 				pow_mode = (tmp_pow_mode & BME680_MODE_MSK);
 601:bme680.c      **** 
ARM GAS  C:\Users\adria\AppData\Local\Temp\cciNfgxb.s 			page 12


 602:bme680.c      **** 				if (pow_mode != BME680_SLEEP_MODE) {
 603:bme680.c      **** 					tmp_pow_mode = tmp_pow_mode & (~BME680_MODE_MSK); /* Set to sleep */
 604:bme680.c      **** 					rslt = bme680_set_regs(&reg_addr, &tmp_pow_mode, 1, dev);
 605:bme680.c      **** 					dev->delay_ms(BME680_POLL_PERIOD_MS);
 606:bme680.c      **** 				}
 607:bme680.c      **** 			}
 608:bme680.c      **** 		} while (pow_mode != BME680_SLEEP_MODE);
 609:bme680.c      **** 
 610:bme680.c      **** 		/* Already in sleep */
 611:bme680.c      **** 		if (dev->power_mode != BME680_SLEEP_MODE) {
 612:bme680.c      **** 			tmp_pow_mode = (tmp_pow_mode & ~BME680_MODE_MSK) | (dev->power_mode & BME680_MODE_MSK);
 613:bme680.c      **** 			if (rslt == BME680_OK)
 614:bme680.c      **** 				rslt = bme680_set_regs(&reg_addr, &tmp_pow_mode, 1, dev);
 615:bme680.c      **** 		}
 616:bme680.c      **** 	}
 617:bme680.c      **** 
 618:bme680.c      **** 	return rslt;
 619:bme680.c      **** }
 620:bme680.c      **** 
 621:bme680.c      **** /*!
 622:bme680.c      ****  * @brief This API is used to get the power mode of the sensor.
 623:bme680.c      ****  */
 624:bme680.c      **** int8_t bme680_get_sensor_mode(struct bme680_dev *dev)
 625:bme680.c      **** {
 626:bme680.c      **** 	int8_t rslt;
 627:bme680.c      **** 	uint8_t mode;
 628:bme680.c      **** 
 629:bme680.c      **** 	/* Check for null pointer in the device structure*/
 630:bme680.c      **** 	rslt = null_ptr_check(dev);
 631:bme680.c      **** 	if (rslt == BME680_OK) {
 632:bme680.c      **** 		rslt = bme680_get_regs(BME680_CONF_T_P_MODE_ADDR, &mode, 1, dev);
 633:bme680.c      **** 		/* Masking the other register bit info*/
 634:bme680.c      **** 		dev->power_mode = mode & BME680_MODE_MSK;
 635:bme680.c      **** 	}
 636:bme680.c      **** 
 637:bme680.c      **** 	return rslt;
 638:bme680.c      **** }
 639:bme680.c      **** 
 640:bme680.c      **** /*!
 641:bme680.c      ****  * @brief This API is used to set the profile duration of the sensor.
 642:bme680.c      ****  */
 643:bme680.c      **** void bme680_set_profile_dur(uint16_t duration, struct bme680_dev *dev)
 644:bme680.c      **** {
 645:bme680.c      **** 	uint32_t tph_dur; /* Calculate in us */
 646:bme680.c      **** 	uint32_t meas_cycles;
 647:bme680.c      **** 	uint8_t os_to_meas_cycles[6] = {0, 1, 2, 4, 8, 16};
 648:bme680.c      **** 
 649:bme680.c      **** 	meas_cycles = os_to_meas_cycles[dev->tph_sett.os_temp];
 650:bme680.c      **** 	meas_cycles += os_to_meas_cycles[dev->tph_sett.os_pres];
 651:bme680.c      **** 	meas_cycles += os_to_meas_cycles[dev->tph_sett.os_hum];
 652:bme680.c      **** 
 653:bme680.c      **** 	/* TPH measurement duration */
 654:bme680.c      **** 	tph_dur = meas_cycles * UINT32_C(1963);
 655:bme680.c      **** 	tph_dur += UINT32_C(477 * 4); /* TPH switching duration */
 656:bme680.c      **** 	tph_dur += UINT32_C(477 * 5); /* Gas measurement duration */
 657:bme680.c      **** 	tph_dur += UINT32_C(500); /* Get it to the closest whole number.*/
 658:bme680.c      **** 	tph_dur /= UINT32_C(1000); /* Convert to ms */
ARM GAS  C:\Users\adria\AppData\Local\Temp\cciNfgxb.s 			page 13


 659:bme680.c      **** 
 660:bme680.c      **** 	tph_dur += UINT32_C(1); /* Wake up duration of 1ms */
 661:bme680.c      **** 	/* The remaining time should be used for heating */
 662:bme680.c      **** 	dev->gas_sett.heatr_dur = duration - (uint16_t) tph_dur;
 663:bme680.c      **** }
 664:bme680.c      **** 
 665:bme680.c      **** /*!
 666:bme680.c      ****  * @brief This API is used to get the profile duration of the sensor.
 667:bme680.c      ****  */
 668:bme680.c      **** void bme680_get_profile_dur(uint16_t *duration, const struct bme680_dev *dev)
 669:bme680.c      **** {
 670:bme680.c      **** 	uint32_t tph_dur; /* Calculate in us */
 671:bme680.c      **** 	uint32_t meas_cycles;
 672:bme680.c      **** 	uint8_t os_to_meas_cycles[6] = {0, 1, 2, 4, 8, 16};
 673:bme680.c      **** 
 674:bme680.c      **** 	meas_cycles = os_to_meas_cycles[dev->tph_sett.os_temp];
 675:bme680.c      **** 	meas_cycles += os_to_meas_cycles[dev->tph_sett.os_pres];
 676:bme680.c      **** 	meas_cycles += os_to_meas_cycles[dev->tph_sett.os_hum];
 677:bme680.c      **** 
 678:bme680.c      **** 	/* TPH measurement duration */
 679:bme680.c      **** 	tph_dur = meas_cycles * UINT32_C(1963);
 680:bme680.c      **** 	tph_dur += UINT32_C(477 * 4); /* TPH switching duration */
 681:bme680.c      **** 	tph_dur += UINT32_C(477 * 5); /* Gas measurement duration */
 682:bme680.c      **** 	tph_dur += UINT32_C(500); /* Get it to the closest whole number.*/
 683:bme680.c      **** 	tph_dur /= UINT32_C(1000); /* Convert to ms */
 684:bme680.c      **** 
 685:bme680.c      **** 	tph_dur += UINT32_C(1); /* Wake up duration of 1ms */
 686:bme680.c      **** 
 687:bme680.c      **** 	*duration = (uint16_t) tph_dur;
 688:bme680.c      **** 
 689:bme680.c      **** 	/* Get the gas duration only when the run gas is enabled */
 690:bme680.c      **** 	if (dev->gas_sett.run_gas) {
 691:bme680.c      **** 		/* The remaining time should be used for heating */
 692:bme680.c      **** 		*duration += dev->gas_sett.heatr_dur;
 693:bme680.c      **** 	}
 694:bme680.c      **** }
 695:bme680.c      **** 
 696:bme680.c      **** /*!
 697:bme680.c      ****  * @brief This API reads the pressure, temperature and humidity and gas data
 698:bme680.c      ****  * from the sensor, compensates the data and store it in the bme680_data
 699:bme680.c      ****  * structure instance passed by the user.
 700:bme680.c      ****  */
 701:bme680.c      **** int8_t bme680_get_sensor_data(struct bme680_field_data *data, struct bme680_dev *dev)
 702:bme680.c      **** {
 703:bme680.c      **** 	int8_t rslt;
 704:bme680.c      **** 
 705:bme680.c      **** 	/* Check for null pointer in the device structure*/
 706:bme680.c      **** 	rslt = null_ptr_check(dev);
 707:bme680.c      **** 	if (rslt == BME680_OK) {
 708:bme680.c      **** 		/* Reading the sensor data in forced mode only */
 709:bme680.c      **** 		rslt = read_field_data(data, dev);
 710:bme680.c      **** 		if (rslt == BME680_OK) {
 711:bme680.c      **** 			if (data->status & BME680_NEW_DATA_MSK)
 712:bme680.c      **** 				dev->new_fields = 1;
 713:bme680.c      **** 			else
 714:bme680.c      **** 				dev->new_fields = 0;
 715:bme680.c      **** 		}
ARM GAS  C:\Users\adria\AppData\Local\Temp\cciNfgxb.s 			page 14


 716:bme680.c      **** 	}
 717:bme680.c      **** 
 718:bme680.c      **** 	return rslt;
 719:bme680.c      **** }
 720:bme680.c      **** 
 721:bme680.c      **** /*!
 722:bme680.c      ****  * @brief This internal API is used to read the calibrated data from the sensor.
 723:bme680.c      ****  */
 724:bme680.c      **** static int8_t get_calib_data(struct bme680_dev *dev)
 725:bme680.c      **** {
 726:bme680.c      **** 	int8_t rslt;
 727:bme680.c      **** 	uint8_t coeff_array[BME680_COEFF_SIZE] = { 0 };
 728:bme680.c      **** 	uint8_t temp_var = 0; /* Temporary variable */
 729:bme680.c      **** 
 730:bme680.c      **** 	/* Check for null pointer in the device structure*/
 731:bme680.c      **** 	rslt = null_ptr_check(dev);
 732:bme680.c      **** 	if (rslt == BME680_OK) {
 733:bme680.c      **** 		rslt = bme680_get_regs(BME680_COEFF_ADDR1, coeff_array, BME680_COEFF_ADDR1_LEN, dev);
 734:bme680.c      **** 		/* Append the second half in the same array */
 735:bme680.c      **** 		if (rslt == BME680_OK)
 736:bme680.c      **** 			rslt = bme680_get_regs(BME680_COEFF_ADDR2, &coeff_array[BME680_COEFF_ADDR1_LEN]
 737:bme680.c      **** 			, BME680_COEFF_ADDR2_LEN, dev);
 738:bme680.c      **** 
 739:bme680.c      **** 		/* Temperature related coefficients */
 740:bme680.c      **** 		dev->calib.par_t1 = (uint16_t) (BME680_CONCAT_BYTES(coeff_array[BME680_T1_MSB_REG],
 741:bme680.c      **** 			coeff_array[BME680_T1_LSB_REG]));
 742:bme680.c      **** 		dev->calib.par_t2 = (int16_t) (BME680_CONCAT_BYTES(coeff_array[BME680_T2_MSB_REG],
 743:bme680.c      **** 			coeff_array[BME680_T2_LSB_REG]));
 744:bme680.c      **** 		dev->calib.par_t3 = (int8_t) (coeff_array[BME680_T3_REG]);
 745:bme680.c      **** 
 746:bme680.c      **** 		/* Pressure related coefficients */
 747:bme680.c      **** 		dev->calib.par_p1 = (uint16_t) (BME680_CONCAT_BYTES(coeff_array[BME680_P1_MSB_REG],
 748:bme680.c      **** 			coeff_array[BME680_P1_LSB_REG]));
 749:bme680.c      **** 		dev->calib.par_p2 = (int16_t) (BME680_CONCAT_BYTES(coeff_array[BME680_P2_MSB_REG],
 750:bme680.c      **** 			coeff_array[BME680_P2_LSB_REG]));
 751:bme680.c      **** 		dev->calib.par_p3 = (int8_t) coeff_array[BME680_P3_REG];
 752:bme680.c      **** 		dev->calib.par_p4 = (int16_t) (BME680_CONCAT_BYTES(coeff_array[BME680_P4_MSB_REG],
 753:bme680.c      **** 			coeff_array[BME680_P4_LSB_REG]));
 754:bme680.c      **** 		dev->calib.par_p5 = (int16_t) (BME680_CONCAT_BYTES(coeff_array[BME680_P5_MSB_REG],
 755:bme680.c      **** 			coeff_array[BME680_P5_LSB_REG]));
 756:bme680.c      **** 		dev->calib.par_p6 = (int8_t) (coeff_array[BME680_P6_REG]);
 757:bme680.c      **** 		dev->calib.par_p7 = (int8_t) (coeff_array[BME680_P7_REG]);
 758:bme680.c      **** 		dev->calib.par_p8 = (int16_t) (BME680_CONCAT_BYTES(coeff_array[BME680_P8_MSB_REG],
 759:bme680.c      **** 			coeff_array[BME680_P8_LSB_REG]));
 760:bme680.c      **** 		dev->calib.par_p9 = (int16_t) (BME680_CONCAT_BYTES(coeff_array[BME680_P9_MSB_REG],
 761:bme680.c      **** 			coeff_array[BME680_P9_LSB_REG]));
 762:bme680.c      **** 		dev->calib.par_p10 = (uint8_t) (coeff_array[BME680_P10_REG]);
 763:bme680.c      **** 
 764:bme680.c      **** 		/* Humidity related coefficients */
 765:bme680.c      **** 		dev->calib.par_h1 = (uint16_t) (((uint16_t) coeff_array[BME680_H1_MSB_REG] << BME680_HUM_REG_SHIF
 766:bme680.c      **** 			| (coeff_array[BME680_H1_LSB_REG] & BME680_BIT_H1_DATA_MSK));
 767:bme680.c      **** 		dev->calib.par_h2 = (uint16_t) (((uint16_t) coeff_array[BME680_H2_MSB_REG] << BME680_HUM_REG_SHIF
 768:bme680.c      **** 			| ((coeff_array[BME680_H2_LSB_REG]) >> BME680_HUM_REG_SHIFT_VAL));
 769:bme680.c      **** 		dev->calib.par_h3 = (int8_t) coeff_array[BME680_H3_REG];
 770:bme680.c      **** 		dev->calib.par_h4 = (int8_t) coeff_array[BME680_H4_REG];
 771:bme680.c      **** 		dev->calib.par_h5 = (int8_t) coeff_array[BME680_H5_REG];
 772:bme680.c      **** 		dev->calib.par_h6 = (uint8_t) coeff_array[BME680_H6_REG];
ARM GAS  C:\Users\adria\AppData\Local\Temp\cciNfgxb.s 			page 15


 773:bme680.c      **** 		dev->calib.par_h7 = (int8_t) coeff_array[BME680_H7_REG];
 774:bme680.c      **** 
 775:bme680.c      **** 		/* Gas heater related coefficients */
 776:bme680.c      **** 		dev->calib.par_gh1 = (int8_t) coeff_array[BME680_GH1_REG];
 777:bme680.c      **** 		dev->calib.par_gh2 = (int16_t) (BME680_CONCAT_BYTES(coeff_array[BME680_GH2_MSB_REG],
 778:bme680.c      **** 			coeff_array[BME680_GH2_LSB_REG]));
 779:bme680.c      **** 		dev->calib.par_gh3 = (int8_t) coeff_array[BME680_GH3_REG];
 780:bme680.c      **** 
 781:bme680.c      **** 		/* Other coefficients */
 782:bme680.c      **** 		if (rslt == BME680_OK) {
 783:bme680.c      **** 			rslt = bme680_get_regs(BME680_ADDR_RES_HEAT_RANGE_ADDR, &temp_var, 1, dev);
 784:bme680.c      **** 
 785:bme680.c      **** 			dev->calib.res_heat_range = ((temp_var & BME680_RHRANGE_MSK) / 16);
 786:bme680.c      **** 			if (rslt == BME680_OK) {
 787:bme680.c      **** 				rslt = bme680_get_regs(BME680_ADDR_RES_HEAT_VAL_ADDR, &temp_var, 1, dev);
 788:bme680.c      **** 
 789:bme680.c      **** 				dev->calib.res_heat_val = (int8_t) temp_var;
 790:bme680.c      **** 				if (rslt == BME680_OK)
 791:bme680.c      **** 					rslt = bme680_get_regs(BME680_ADDR_RANGE_SW_ERR_ADDR, &temp_var, 1, dev);
 792:bme680.c      **** 			}
 793:bme680.c      **** 		}
 794:bme680.c      **** 		dev->calib.range_sw_err = ((int8_t) temp_var & (int8_t) BME680_RSERROR_MSK) / 16;
 795:bme680.c      **** 	}
 796:bme680.c      **** 
 797:bme680.c      **** 	return rslt;
 798:bme680.c      **** }
 799:bme680.c      **** 
 800:bme680.c      **** /*!
 801:bme680.c      ****  * @brief This internal API is used to set the gas configuration of the sensor.
 802:bme680.c      ****  */
 803:bme680.c      **** static int8_t set_gas_config(struct bme680_dev *dev)
 804:bme680.c      **** {
 805:bme680.c      **** 	int8_t rslt;
 806:bme680.c      **** 
 807:bme680.c      **** 	/* Check for null pointer in the device structure*/
 808:bme680.c      **** 	rslt = null_ptr_check(dev);
 809:bme680.c      **** 	if (rslt == BME680_OK) {
 810:bme680.c      **** 
 811:bme680.c      **** 		uint8_t reg_addr[2] = {0};
 812:bme680.c      **** 		uint8_t reg_data[2] = {0};
 813:bme680.c      **** 
 814:bme680.c      **** 		if (dev->power_mode == BME680_FORCED_MODE) {
 815:bme680.c      **** 			reg_addr[0] = BME680_RES_HEAT0_ADDR;
 816:bme680.c      **** 			reg_data[0] = calc_heater_res(dev->gas_sett.heatr_temp, dev);
 817:bme680.c      **** 			reg_addr[1] = BME680_GAS_WAIT0_ADDR;
 818:bme680.c      **** 			reg_data[1] = calc_heater_dur(dev->gas_sett.heatr_dur);
 819:bme680.c      **** 			dev->gas_sett.nb_conv = 0;
 820:bme680.c      **** 		} else {
 821:bme680.c      **** 			rslt = BME680_W_DEFINE_PWR_MODE;
 822:bme680.c      **** 		}
 823:bme680.c      **** 		if (rslt == BME680_OK)
 824:bme680.c      **** 			rslt = bme680_set_regs(reg_addr, reg_data, 2, dev);
 825:bme680.c      **** 	}
 826:bme680.c      **** 
 827:bme680.c      **** 	return rslt;
 828:bme680.c      **** }
 829:bme680.c      **** 
ARM GAS  C:\Users\adria\AppData\Local\Temp\cciNfgxb.s 			page 16


 830:bme680.c      **** /*!
 831:bme680.c      ****  * @brief This internal API is used to get the gas configuration of the sensor.
 832:bme680.c      ****  * @note heatr_temp and heatr_dur values are currently register data
 833:bme680.c      ****  * and not the actual values set
 834:bme680.c      ****  */
 835:bme680.c      **** static int8_t get_gas_config(struct bme680_dev *dev)
 836:bme680.c      **** {
 837:bme680.c      **** 	int8_t rslt;
 838:bme680.c      **** 	/* starting address of the register array for burst read*/
 839:bme680.c      **** 	uint8_t reg_addr1 = BME680_ADDR_SENS_CONF_START;
 840:bme680.c      **** 	uint8_t reg_addr2 = BME680_ADDR_GAS_CONF_START;
 841:bme680.c      **** 	uint8_t reg_data = 0;
 842:bme680.c      **** 
 843:bme680.c      **** 	/* Check for null pointer in the device structure*/
 844:bme680.c      **** 	rslt = null_ptr_check(dev);
 845:bme680.c      **** 	if (rslt == BME680_OK) {
 846:bme680.c      **** 		if (BME680_SPI_INTF == dev->intf) {
 847:bme680.c      **** 			/* Memory page switch the SPI address*/
 848:bme680.c      **** 			rslt = set_mem_page(reg_addr1, dev);
 849:bme680.c      **** 		}
 850:bme680.c      **** 
 851:bme680.c      **** 		if (rslt == BME680_OK) {
 852:bme680.c      **** 			rslt = bme680_get_regs(reg_addr1, &reg_data, 1, dev);
 853:bme680.c      **** 			if (rslt == BME680_OK) {
 854:bme680.c      **** 				dev->gas_sett.heatr_temp = reg_data;
 855:bme680.c      **** 				rslt = bme680_get_regs(reg_addr2, &reg_data, 1, dev);
 856:bme680.c      **** 				if (rslt == BME680_OK) {
 857:bme680.c      **** 					/* Heating duration register value */
 858:bme680.c      **** 					dev->gas_sett.heatr_dur = reg_data;
 859:bme680.c      **** 				}
 860:bme680.c      **** 			}
 861:bme680.c      **** 		}
 862:bme680.c      **** 	}
 863:bme680.c      **** 
 864:bme680.c      **** 	return rslt;
 865:bme680.c      **** }
 866:bme680.c      **** 
 867:bme680.c      **** #ifndef BME680_FLOAT_POINT_COMPENSATION
 868:bme680.c      **** 
 869:bme680.c      **** /*!
 870:bme680.c      ****  * @brief This internal API is used to calculate the temperature value.
 871:bme680.c      ****  */
 872:bme680.c      **** static int16_t calc_temperature(uint32_t temp_adc, struct bme680_dev *dev)
 873:bme680.c      **** {
  27              		.loc 1 873 0
  28              		.cfi_startproc
  29              		@ args = 0, pretend = 0, frame = 0
  30              		@ frame_needed = 0, uses_anonymous_args = 0
  31              		@ link register save eliminated.
  32              	.LVL0:
  33 0000 F0B4     		push	{r4, r5, r6, r7}
  34              		.cfi_def_cfa_offset 16
  35              		.cfi_offset 4, -16
  36              		.cfi_offset 5, -12
  37              		.cfi_offset 6, -8
  38              		.cfi_offset 7, -4
 874:bme680.c      **** 	int64_t var1;
ARM GAS  C:\Users\adria\AppData\Local\Temp\cciNfgxb.s 			page 17


 875:bme680.c      **** 	int64_t var2;
 876:bme680.c      **** 	int64_t var3;
 877:bme680.c      **** 	int16_t calc_temp;
 878:bme680.c      **** 
 879:bme680.c      **** 	var1 = ((int32_t) temp_adc >> 3) - ((int32_t) dev->calib.par_t1 << 1);
  39              		.loc 1 879 0
  40 0002 CC8A     		ldrh	r4, [r1, #22]
  41 0004 6400     		lsls	r4, r4, #1
  42 0006 C4EBE000 		rsb	r0, r4, r0, asr #3
  43              	.LVL1:
  44 000a 0246     		mov	r2, r0
  45 000c C317     		asrs	r3, r0, #31
  46              	.LVL2:
 880:bme680.c      **** 	var2 = (var1 * (int32_t) dev->calib.par_t2) >> 11;
  47              		.loc 1 880 0
  48 000e B1F91840 		ldrsh	r4, [r1, #24]
  49 0012 E517     		asrs	r5, r4, #31
  50 0014 04FB03F6 		mul	r6, r4, r3
  51 0018 00FB0566 		mla	r6, r0, r5, r6
  52 001c A4FB0045 		umull	r4, r5, r4, r0
  53 0020 3544     		add	r5, r5, r6
  54 0022 E00A     		lsrs	r0, r4, #11
  55 0024 40EA4550 		orr	r0, r0, r5, lsl #21
  56              	.LVL3:
 881:bme680.c      **** 	var3 = ((var1 >> 1) * (var1 >> 1)) >> 12;
  57              		.loc 1 881 0
  58 0028 5B10     		movs	r3, r3, asr #1
  59 002a 4FEA3202 		mov	r2, r2, rrx
  60              	.LVL4:
  61 002e 02FB03F4 		mul	r4, r2, r3
  62              	.LVL5:
  63 0032 A2FB0223 		umull	r2, r3, r2, r2
  64 0036 03EB4403 		add	r3, r3, r4, lsl #1
  65 003a 140B     		lsrs	r4, r2, #12
  66 003c 44EA0354 		orr	r4, r4, r3, lsl #20
  67 0040 1A13     		asrs	r2, r3, #12
  68              	.LVL6:
 882:bme680.c      **** 	var3 = ((var3) * ((int32_t) dev->calib.par_t3 << 4)) >> 14;
  69              		.loc 1 882 0
  70 0042 91F91A30 		ldrsb	r3, [r1, #26]
  71 0046 1B01     		lsls	r3, r3, #4
  72 0048 DF17     		asrs	r7, r3, #31
  73 004a 03FB02F2 		mul	r2, r3, r2
  74              	.LVL7:
  75 004e 04FB0722 		mla	r2, r4, r7, r2
  76 0052 A3FB0445 		umull	r4, r5, r3, r4
  77 0056 1544     		add	r5, r5, r2
  78 0058 A30B     		lsrs	r3, r4, #14
  79 005a 43EA8543 		orr	r3, r3, r5, lsl #18
  80              	.LVL8:
 883:bme680.c      **** 	dev->calib.t_fine = (int32_t) (var2 + var3);
  81              		.loc 1 883 0
  82 005e 1844     		add	r0, r0, r3
  83              	.LVL9:
  84 0060 0863     		str	r0, [r1, #48]
 884:bme680.c      **** 	calc_temp = (int16_t) (((dev->calib.t_fine * 5) + 128) >> 8);
  85              		.loc 1 884 0
ARM GAS  C:\Users\adria\AppData\Local\Temp\cciNfgxb.s 			page 18


  86 0062 00EB8000 		add	r0, r0, r0, lsl #2
  87 0066 8030     		adds	r0, r0, #128
  88              	.LVL10:
 885:bme680.c      **** 
 886:bme680.c      **** 	return calc_temp;
 887:bme680.c      **** }
  89              		.loc 1 887 0
  90 0068 40F30F20 		sbfx	r0, r0, #8, #16
  91              	.LVL11:
  92 006c F0BC     		pop	{r4, r5, r6, r7}
  93              		.cfi_restore 7
  94              		.cfi_restore 6
  95              		.cfi_restore 5
  96              		.cfi_restore 4
  97              		.cfi_def_cfa_offset 0
  98              	.LVL12:
  99 006e 7047     		bx	lr
 100              		.cfi_endproc
 101              	.LFE77:
 102              		.size	calc_temperature, .-calc_temperature
 103              		.section	.text.calc_pressure,"ax",%progbits
 104              		.align	2
 105              		.thumb
 106              		.thumb_func
 107              		.type	calc_pressure, %function
 108              	calc_pressure:
 109              	.LFB78:
 888:bme680.c      **** 
 889:bme680.c      **** /*!
 890:bme680.c      ****  * @brief This internal API is used to calculate the pressure value.
 891:bme680.c      ****  */
 892:bme680.c      **** static uint32_t calc_pressure(uint32_t pres_adc, const struct bme680_dev *dev)
 893:bme680.c      **** {
 110              		.loc 1 893 0
 111              		.cfi_startproc
 112              		@ args = 0, pretend = 0, frame = 0
 113              		@ frame_needed = 0, uses_anonymous_args = 0
 114              		@ link register save eliminated.
 115              	.LVL13:
 116 0000 30B4     		push	{r4, r5}
 117              		.cfi_def_cfa_offset 8
 118              		.cfi_offset 4, -8
 119              		.cfi_offset 5, -4
 894:bme680.c      **** 	int32_t var1;
 895:bme680.c      **** 	int32_t var2;
 896:bme680.c      **** 	int32_t var3;
 897:bme680.c      **** 	int32_t pressure_comp;
 898:bme680.c      **** 
 899:bme680.c      **** 	var1 = (((int32_t)dev->calib.t_fine) >> 1) - 64000;
 120              		.loc 1 899 0
 121 0002 0C6B     		ldr	r4, [r1, #48]
 122 0004 6410     		asrs	r4, r4, #1
 123 0006 A4F57A44 		sub	r4, r4, #64000
 124              	.LVL14:
 900:bme680.c      **** 	var2 = ((((var1 >> 2) * (var1 >> 2)) >> 11) *
 125              		.loc 1 900 0
 126 000a A510     		asrs	r5, r4, #2
ARM GAS  C:\Users\adria\AppData\Local\Temp\cciNfgxb.s 			page 19


 127 000c 05FB05F5 		mul	r5, r5, r5
 128 0010 EA12     		asrs	r2, r5, #11
 901:bme680.c      **** 		(int32_t)dev->calib.par_p6) >> 2;
 129              		.loc 1 901 0
 130 0012 91F92630 		ldrsb	r3, [r1, #38]
 900:bme680.c      **** 	var2 = ((((var1 >> 2) * (var1 >> 2)) >> 11) *
 131              		.loc 1 900 0
 132 0016 03FB02F2 		mul	r2, r3, r2
 133              	.LVL15:
 902:bme680.c      **** 	var2 = var2 + ((var1 * (int32_t)dev->calib.par_p5) << 1);
 134              		.loc 1 902 0
 135 001a B1F92430 		ldrsh	r3, [r1, #36]
 136 001e 03FB04F3 		mul	r3, r3, r4
 137 0022 5B00     		lsls	r3, r3, #1
 138 0024 03EBA203 		add	r3, r3, r2, asr #2
 139              	.LVL16:
 903:bme680.c      **** 	var2 = (var2 >> 2) + ((int32_t)dev->calib.par_p4 << 16);
 140              		.loc 1 903 0
 141 0028 B1F92220 		ldrsh	r2, [r1, #34]
 142 002c 1204     		lsls	r2, r2, #16
 143 002e 02EBA303 		add	r3, r2, r3, asr #2
 144              	.LVL17:
 904:bme680.c      **** 	var1 = (((((var1 >> 2) * (var1 >> 2)) >> 13) *
 145              		.loc 1 904 0
 146 0032 6D13     		asrs	r5, r5, #13
 905:bme680.c      **** 		((int32_t)dev->calib.par_p3 << 5)) >> 3) +
 147              		.loc 1 905 0
 148 0034 91F92020 		ldrsb	r2, [r1, #32]
 149 0038 5201     		lsls	r2, r2, #5
 904:bme680.c      **** 	var1 = (((((var1 >> 2) * (var1 >> 2)) >> 13) *
 150              		.loc 1 904 0
 151 003a 02FB05F2 		mul	r2, r2, r5
 906:bme680.c      **** 		(((int32_t)dev->calib.par_p2 * var1) >> 1);
 152              		.loc 1 906 0
 153 003e B1F91E50 		ldrsh	r5, [r1, #30]
 154 0042 05FB04F4 		mul	r4, r5, r4
 155              	.LVL18:
 156 0046 6410     		asrs	r4, r4, #1
 904:bme680.c      **** 	var1 = (((((var1 >> 2) * (var1 >> 2)) >> 13) *
 157              		.loc 1 904 0
 158 0048 04EBE202 		add	r2, r4, r2, asr #3
 159              	.LVL19:
 907:bme680.c      **** 	var1 = var1 >> 18;
 160              		.loc 1 907 0
 161 004c 9214     		asrs	r2, r2, #18
 162              	.LVL20:
 908:bme680.c      **** 	var1 = ((32768 + var1) * (int32_t)dev->calib.par_p1) >> 15;
 163              		.loc 1 908 0
 164 004e 02F50042 		add	r2, r2, #32768
 165              	.LVL21:
 166 0052 8C8B     		ldrh	r4, [r1, #28]
 167 0054 04FB02F2 		mul	r2, r4, r2
 168              	.LVL22:
 169 0058 D213     		asrs	r2, r2, #15
 170              	.LVL23:
 909:bme680.c      **** 	pressure_comp = 1048576 - pres_adc;
 171              		.loc 1 909 0
ARM GAS  C:\Users\adria\AppData\Local\Temp\cciNfgxb.s 			page 20


 172 005a C0F58010 		rsb	r0, r0, #1048576
 173              	.LVL24:
 910:bme680.c      **** 	pressure_comp = (int32_t)((pressure_comp - (var2 >> 12)) * ((uint32_t)3125));
 174              		.loc 1 910 0
 175 005e A0EB2333 		sub	r3, r0, r3, asr #12
 176              	.LVL25:
 177 0062 40F63544 		movw	r4, #3125
 178 0066 04FB03F0 		mul	r0, r4, r3
 179              	.LVL26:
 911:bme680.c      **** 	if (pressure_comp >= BME680_MAX_OVERFLOW_VAL)
 180              		.loc 1 911 0
 181 006a B0F1804F 		cmp	r0, #1073741824
 182 006e 03DB     		blt	.L4
 912:bme680.c      **** 		pressure_comp = ((pressure_comp / var1) << 1);
 183              		.loc 1 912 0
 184 0070 90FBF2F3 		sdiv	r3, r0, r2
 185 0074 5B00     		lsls	r3, r3, #1
 186              	.LVL27:
 187 0076 02E0     		b	.L5
 188              	.LVL28:
 189              	.L4:
 913:bme680.c      **** 	else
 914:bme680.c      **** 		pressure_comp = ((pressure_comp << 1) / var1);
 190              		.loc 1 914 0
 191 0078 4000     		lsls	r0, r0, #1
 192              	.LVL29:
 193 007a 90FBF2F3 		sdiv	r3, r0, r2
 194              	.LVL30:
 195              	.L5:
 915:bme680.c      **** 	var1 = ((int32_t)dev->calib.par_p9 * (int32_t)(((pressure_comp >> 3) *
 196              		.loc 1 915 0
 197 007e B1F92A20 		ldrsh	r2, [r1, #42]
 198              	.LVL31:
 916:bme680.c      **** 		(pressure_comp >> 3)) >> 13)) >> 12;
 199              		.loc 1 916 0
 200 0082 DC10     		asrs	r4, r3, #3
 915:bme680.c      **** 	var1 = ((int32_t)dev->calib.par_p9 * (int32_t)(((pressure_comp >> 3) *
 201              		.loc 1 915 0
 202 0084 04FB04F4 		mul	r4, r4, r4
 203              		.loc 1 916 0
 204 0088 6413     		asrs	r4, r4, #13
 915:bme680.c      **** 	var1 = ((int32_t)dev->calib.par_p9 * (int32_t)(((pressure_comp >> 3) *
 205              		.loc 1 915 0
 206 008a 04FB02F5 		mul	r5, r4, r2
 207              	.LVL32:
 917:bme680.c      **** 	var2 = ((int32_t)(pressure_comp >> 2) *
 208              		.loc 1 917 0
 209 008e 9A10     		asrs	r2, r3, #2
 918:bme680.c      **** 		(int32_t)dev->calib.par_p8) >> 13;
 210              		.loc 1 918 0
 211 0090 B1F92840 		ldrsh	r4, [r1, #40]
 917:bme680.c      **** 	var2 = ((int32_t)(pressure_comp >> 2) *
 212              		.loc 1 917 0
 213 0094 04FB02F2 		mul	r2, r4, r2
 214 0098 5213     		asrs	r2, r2, #13
 215              	.LVL33:
 919:bme680.c      **** 	var3 = ((int32_t)(pressure_comp >> 8) * (int32_t)(pressure_comp >> 8) *
ARM GAS  C:\Users\adria\AppData\Local\Temp\cciNfgxb.s 			page 21


 216              		.loc 1 919 0
 217 009a 1C12     		asrs	r4, r3, #8
 218 009c 04FB04F0 		mul	r0, r4, r4
 219 00a0 00FB04F0 		mul	r0, r0, r4
 920:bme680.c      **** 		(int32_t)(pressure_comp >> 8) *
 921:bme680.c      **** 		(int32_t)dev->calib.par_p10) >> 17;
 220              		.loc 1 921 0
 221 00a4 91F82C40 		ldrb	r4, [r1, #44]	@ zero_extendqisi2
 920:bme680.c      **** 		(int32_t)(pressure_comp >> 8) *
 222              		.loc 1 920 0
 223 00a8 04FB00F0 		mul	r0, r4, r0
 224              	.LVL34:
 922:bme680.c      **** 
 923:bme680.c      **** 	pressure_comp = (int32_t)(pressure_comp) + ((var1 + var2 + var3 +
 225              		.loc 1 923 0
 226 00ac 02EB2532 		add	r2, r2, r5, asr #12
 227              	.LVL35:
 228 00b0 02EB6040 		add	r0, r2, r0, asr #17
 229              	.LVL36:
 924:bme680.c      **** 		((int32_t)dev->calib.par_p7 << 7)) >> 4);
 230              		.loc 1 924 0
 231 00b4 91F92720 		ldrsb	r2, [r1, #39]
 923:bme680.c      **** 		((int32_t)dev->calib.par_p7 << 7)) >> 4);
 232              		.loc 1 923 0
 233 00b8 00EBC210 		add	r0, r0, r2, lsl #7
 234              	.LVL37:
 925:bme680.c      **** 
 926:bme680.c      **** 	return (uint32_t)pressure_comp;
 927:bme680.c      **** 
 928:bme680.c      **** }
 235              		.loc 1 928 0
 236 00bc 03EB2010 		add	r0, r3, r0, asr #4
 237              	.LVL38:
 238 00c0 30BC     		pop	{r4, r5}
 239              		.cfi_restore 5
 240              		.cfi_restore 4
 241              		.cfi_def_cfa_offset 0
 242              	.LVL39:
 243 00c2 7047     		bx	lr
 244              		.cfi_endproc
 245              	.LFE78:
 246              		.size	calc_pressure, .-calc_pressure
 247              		.section	.text.calc_humidity,"ax",%progbits
 248              		.align	2
 249              		.thumb
 250              		.thumb_func
 251              		.type	calc_humidity, %function
 252              	calc_humidity:
 253              	.LFB79:
 929:bme680.c      **** 
 930:bme680.c      **** /*!
 931:bme680.c      ****  * @brief This internal API is used to calculate the humidity value.
 932:bme680.c      ****  */
 933:bme680.c      **** static uint32_t calc_humidity(uint16_t hum_adc, const struct bme680_dev *dev)
 934:bme680.c      **** {
 254              		.loc 1 934 0
 255              		.cfi_startproc
ARM GAS  C:\Users\adria\AppData\Local\Temp\cciNfgxb.s 			page 22


 256              		@ args = 0, pretend = 0, frame = 0
 257              		@ frame_needed = 0, uses_anonymous_args = 0
 258              	.LVL40:
 259 0000 F0B5     		push	{r4, r5, r6, r7, lr}
 260              		.cfi_def_cfa_offset 20
 261              		.cfi_offset 4, -20
 262              		.cfi_offset 5, -16
 263              		.cfi_offset 6, -12
 264              		.cfi_offset 7, -8
 265              		.cfi_offset 14, -4
 935:bme680.c      **** 	int32_t var1;
 936:bme680.c      **** 	int32_t var2;
 937:bme680.c      **** 	int32_t var3;
 938:bme680.c      **** 	int32_t var4;
 939:bme680.c      **** 	int32_t var5;
 940:bme680.c      **** 	int32_t var6;
 941:bme680.c      **** 	int32_t temp_scaled;
 942:bme680.c      **** 	int32_t calc_hum;
 943:bme680.c      **** 
 944:bme680.c      **** 	temp_scaled = (((int32_t) dev->calib.t_fine * 5) + 128) >> 8;
 266              		.loc 1 944 0
 267 0002 0C6B     		ldr	r4, [r1, #48]
 268 0004 04EB8404 		add	r4, r4, r4, lsl #2
 269 0008 8034     		adds	r4, r4, #128
 270 000a 2412     		asrs	r4, r4, #8
 271              	.LVL41:
 945:bme680.c      **** 	var1 = (int32_t) (hum_adc - ((int32_t) ((int32_t) dev->calib.par_h1 * 16)))
 272              		.loc 1 945 0
 273 000c 0B89     		ldrh	r3, [r1, #8]
 274 000e A0EB0310 		sub	r0, r0, r3, lsl #4
 275              	.LVL42:
 946:bme680.c      **** 		- (((temp_scaled * (int32_t) dev->calib.par_h3) / ((int32_t) 100)) >> 1);
 276              		.loc 1 946 0
 277 0012 91F90C30 		ldrsb	r3, [r1, #12]
 278 0016 03FB04F3 		mul	r3, r3, r4
 279 001a 284D     		ldr	r5, .L12
 280 001c 85FB0362 		smull	r6, r2, r5, r3
 281 0020 DB17     		asrs	r3, r3, #31
 282 0022 C3EB6213 		rsb	r3, r3, r2, asr #5
 945:bme680.c      **** 	var1 = (int32_t) (hum_adc - ((int32_t) ((int32_t) dev->calib.par_h1 * 16)))
 283              		.loc 1 945 0
 284 0026 A0EB6300 		sub	r0, r0, r3, asr #1
 285              	.LVL43:
 947:bme680.c      **** 	var2 = ((int32_t) dev->calib.par_h2
 286              		.loc 1 947 0
 287 002a 4E89     		ldrh	r6, [r1, #10]
 948:bme680.c      **** 		* (((temp_scaled * (int32_t) dev->calib.par_h4) / ((int32_t) 100))
 288              		.loc 1 948 0
 289 002c 91F90D20 		ldrsb	r2, [r1, #13]
 290 0030 02FB04F2 		mul	r2, r2, r4
 291 0034 85FB0273 		smull	r7, r3, r5, r2
 292 0038 D217     		asrs	r2, r2, #31
 293 003a C2EB6317 		rsb	r7, r2, r3, asr #5
 949:bme680.c      **** 			+ (((temp_scaled * ((temp_scaled * (int32_t) dev->calib.par_h5) / ((int32_t) 100))) >> 6)
 294              		.loc 1 949 0
 295 003e 91F90E20 		ldrsb	r2, [r1, #14]
 296 0042 02FB04F2 		mul	r2, r2, r4
ARM GAS  C:\Users\adria\AppData\Local\Temp\cciNfgxb.s 			page 23


 297 0046 85FB02E3 		smull	lr, r3, r5, r2
 298 004a D217     		asrs	r2, r2, #31
 299 004c C2EB6312 		rsb	r2, r2, r3, asr #5
 300 0050 02FB04F3 		mul	r3, r2, r4
 301 0054 9A11     		asrs	r2, r3, #6
 950:bme680.c      **** 				/ ((int32_t) 100)) + (int32_t) (1 << 14))) >> 10;
 302              		.loc 1 950 0
 303 0056 85FB022E 		smull	r2, lr, r5, r2
 304 005a DA17     		asrs	r2, r3, #31
 305 005c C2EB6E12 		rsb	r2, r2, lr, asr #5
 949:bme680.c      **** 			+ (((temp_scaled * ((temp_scaled * (int32_t) dev->calib.par_h5) / ((int32_t) 100))) >> 6)
 306              		.loc 1 949 0
 307 0060 BB18     		adds	r3, r7, r2
 308              		.loc 1 950 0
 309 0062 03F58043 		add	r3, r3, #16384
 948:bme680.c      **** 		* (((temp_scaled * (int32_t) dev->calib.par_h4) / ((int32_t) 100))
 310              		.loc 1 948 0
 311 0066 03FB06F3 		mul	r3, r3, r6
 947:bme680.c      **** 		* (((temp_scaled * (int32_t) dev->calib.par_h4) / ((int32_t) 100))
 312              		.loc 1 947 0
 313 006a 9B12     		asrs	r3, r3, #10
 314              	.LVL44:
 951:bme680.c      **** 	var3 = var1 * var2;
 315              		.loc 1 951 0
 316 006c 03FB00F0 		mul	r0, r3, r0
 317              	.LVL45:
 952:bme680.c      **** 	var4 = (int32_t) dev->calib.par_h6 << 7;
 318              		.loc 1 952 0
 319 0070 CA7B     		ldrb	r2, [r1, #15]	@ zero_extendqisi2
 320              	.LVL46:
 953:bme680.c      **** 	var4 = ((var4) + ((temp_scaled * (int32_t) dev->calib.par_h7) / ((int32_t) 100))) >> 4;
 321              		.loc 1 953 0
 322 0072 91F91030 		ldrsb	r3, [r1, #16]
 323              	.LVL47:
 324 0076 03FB04F4 		mul	r4, r3, r4
 325              	.LVL48:
 326 007a 85FB0435 		smull	r3, r5, r5, r4
 327              	.LVL49:
 328 007e E317     		asrs	r3, r4, #31
 329 0080 C3EB6514 		rsb	r4, r3, r5, asr #5
 330 0084 04EBC214 		add	r4, r4, r2, lsl #7
 331 0088 2411     		asrs	r4, r4, #4
 332              	.LVL50:
 954:bme680.c      **** 	var5 = ((var3 >> 14) * (var3 >> 14)) >> 10;
 333              		.loc 1 954 0
 334 008a 8313     		asrs	r3, r0, #14
 335 008c 03FB03F3 		mul	r3, r3, r3
 336 0090 9B12     		asrs	r3, r3, #10
 337              	.LVL51:
 955:bme680.c      **** 	var6 = (var4 * var5) >> 1;
 338              		.loc 1 955 0
 339 0092 03FB04F4 		mul	r4, r3, r4
 340              	.LVL52:
 956:bme680.c      **** 	calc_hum = (((var3 + var6) >> 10) * ((int32_t) 1000)) >> 12;
 341              		.loc 1 956 0
 342 0096 00EB6400 		add	r0, r0, r4, asr #1
 343              	.LVL53:
ARM GAS  C:\Users\adria\AppData\Local\Temp\cciNfgxb.s 			page 24


 344 009a 8012     		asrs	r0, r0, #10
 345 009c 4FF47A72 		mov	r2, #1000
 346              	.LVL54:
 347 00a0 02FB00F0 		mul	r0, r2, r0
 348 00a4 0013     		asrs	r0, r0, #12
 349              	.LVL55:
 957:bme680.c      **** 
 958:bme680.c      **** 	if (calc_hum > 100000) /* Cap at 100%rH */
 350              		.loc 1 958 0
 351 00a6 064B     		ldr	r3, .L12+4
 352              	.LVL56:
 353 00a8 9842     		cmp	r0, r3
 354 00aa 02DC     		bgt	.L9
 959:bme680.c      **** 		calc_hum = 100000;
 960:bme680.c      **** 	else if (calc_hum < 0)
 355              		.loc 1 960 0
 356 00ac 0028     		cmp	r0, #0
 357 00ae 03DA     		bge	.L8
 358 00b0 01E0     		b	.L10
 359              	.L9:
 959:bme680.c      **** 		calc_hum = 100000;
 360              		.loc 1 959 0
 361 00b2 0348     		ldr	r0, .L12+4
 362              	.LVL57:
 363 00b4 F0BD     		pop	{r4, r5, r6, r7, pc}
 364              	.LVL58:
 365              	.L10:
 961:bme680.c      **** 		calc_hum = 0;
 366              		.loc 1 961 0
 367 00b6 0020     		movs	r0, #0
 368              	.LVL59:
 369              	.L8:
 962:bme680.c      **** 
 963:bme680.c      **** 	return (uint32_t) calc_hum;
 964:bme680.c      **** }
 370              		.loc 1 964 0
 371 00b8 F0BD     		pop	{r4, r5, r6, r7, pc}
 372              	.LVL60:
 373              	.L13:
 374 00ba 00BF     		.align	2
 375              	.L12:
 376 00bc 1F85EB51 		.word	1374389535
 377 00c0 A0860100 		.word	100000
 378              		.cfi_endproc
 379              	.LFE79:
 380              		.size	calc_humidity, .-calc_humidity
 381              		.global	__aeabi_ldivmod
 382              		.section	.text.calc_gas_resistance,"ax",%progbits
 383              		.align	2
 384              		.thumb
 385              		.thumb_func
 386              		.type	calc_gas_resistance, %function
 387              	calc_gas_resistance:
 388              	.LFB80:
 965:bme680.c      **** 
 966:bme680.c      **** /*!
 967:bme680.c      ****  * @brief This internal API is used to calculate the Gas Resistance value.
ARM GAS  C:\Users\adria\AppData\Local\Temp\cciNfgxb.s 			page 25


 968:bme680.c      ****  */
 969:bme680.c      **** static uint32_t calc_gas_resistance(uint16_t gas_res_adc, uint8_t gas_range, const struct bme680_de
 970:bme680.c      **** {
 389              		.loc 1 970 0
 390              		.cfi_startproc
 391              		@ args = 0, pretend = 0, frame = 128
 392              		@ frame_needed = 0, uses_anonymous_args = 0
 393              	.LVL61:
 394 0000 F0B5     		push	{r4, r5, r6, r7, lr}
 395              		.cfi_def_cfa_offset 20
 396              		.cfi_offset 4, -20
 397              		.cfi_offset 5, -16
 398              		.cfi_offset 6, -12
 399              		.cfi_offset 7, -8
 400              		.cfi_offset 14, -4
 401 0002 A1B0     		sub	sp, sp, #132
 402              		.cfi_def_cfa_offset 152
 403 0004 0746     		mov	r7, r0
 404 0006 8E46     		mov	lr, r1
 405 0008 9446     		mov	ip, r2
 971:bme680.c      **** 	int64_t var1;
 972:bme680.c      **** 	uint64_t var2;
 973:bme680.c      **** 	int64_t var3;
 974:bme680.c      **** 	uint32_t calc_gas_res;
 975:bme680.c      **** 	/**Look up table 1 for the possible gas range values */
 976:bme680.c      **** 	uint32_t lookupTable1[16] = { UINT32_C(2147483647), UINT32_C(2147483647), UINT32_C(2147483647), UI
 406              		.loc 1 976 0
 407 000a 274C     		ldr	r4, .L16
 408 000c 10AD     		add	r5, sp, #64
 409 000e 2646     		mov	r6, r4
 410 0010 0FCE     		ldmia	r6!, {r0, r1, r2, r3}
 411              	.LVL62:
 412 0012 0FC5     		stmia	r5!, {r0, r1, r2, r3}
 413 0014 0FCE     		ldmia	r6!, {r0, r1, r2, r3}
 414 0016 0FC5     		stmia	r5!, {r0, r1, r2, r3}
 415 0018 0FCE     		ldmia	r6!, {r0, r1, r2, r3}
 416 001a 0FC5     		stmia	r5!, {r0, r1, r2, r3}
 417 001c 96E80F00 		ldmia	r6, {r0, r1, r2, r3}
 418 0020 85E80F00 		stmia	r5, {r0, r1, r2, r3}
 977:bme680.c      **** 		UINT32_C(2147483647), UINT32_C(2126008810), UINT32_C(2147483647), UINT32_C(2130303777),
 978:bme680.c      **** 		UINT32_C(2147483647), UINT32_C(2147483647), UINT32_C(2143188679), UINT32_C(2136746228),
 979:bme680.c      **** 		UINT32_C(2147483647), UINT32_C(2126008810), UINT32_C(2147483647), UINT32_C(2147483647) };
 980:bme680.c      **** 	/**Look up table 2 for the possible gas range values */
 981:bme680.c      **** 	uint32_t lookupTable2[16] = { UINT32_C(4096000000), UINT32_C(2048000000), UINT32_C(1024000000), UI
 419              		.loc 1 981 0
 420 0024 6D46     		mov	r5, sp
 421 0026 4034     		adds	r4, r4, #64
 422 0028 0FCC     		ldmia	r4!, {r0, r1, r2, r3}
 423 002a 0FC5     		stmia	r5!, {r0, r1, r2, r3}
 424 002c 0FCC     		ldmia	r4!, {r0, r1, r2, r3}
 425 002e 0FC5     		stmia	r5!, {r0, r1, r2, r3}
 426 0030 0FCC     		ldmia	r4!, {r0, r1, r2, r3}
 427 0032 0FC5     		stmia	r5!, {r0, r1, r2, r3}
 428 0034 94E80F00 		ldmia	r4, {r0, r1, r2, r3}
 429 0038 85E80F00 		stmia	r5, {r0, r1, r2, r3}
 982:bme680.c      **** 		UINT32_C(255744255), UINT32_C(127110228), UINT32_C(64000000), UINT32_C(32258064), UINT32_C(160160
 983:bme680.c      **** 		UINT32_C(8000000), UINT32_C(4000000), UINT32_C(2000000), UINT32_C(1000000), UINT32_C(500000),
ARM GAS  C:\Users\adria\AppData\Local\Temp\cciNfgxb.s 			page 26


 984:bme680.c      **** 		UINT32_C(250000), UINT32_C(125000) };
 985:bme680.c      **** 
 986:bme680.c      **** 	var1 = (int64_t) ((1340 + (5 * (int64_t) dev->calib.range_sw_err)) *
 430              		.loc 1 986 0
 431 003c 9CF93620 		ldrsb	r2, [ip, #54]
 432 0040 D317     		asrs	r3, r2, #31
 433 0042 9C00     		lsls	r4, r3, #2
 434 0044 9000     		lsls	r0, r2, #2
 435 0046 44EA9271 		orr	r1, r4, r2, lsr #30
 436 004a 1218     		adds	r2, r2, r0
 437 004c 4B41     		adcs	r3, r3, r1
 438 004e 40F23C50 		movw	r0, #1340
 439 0052 0021     		movs	r1, #0
 440 0054 1218     		adds	r2, r2, r0
 441 0056 4B41     		adcs	r3, r3, r1
 987:bme680.c      **** 		((int64_t) lookupTable1[gas_range])) >> 16;
 442              		.loc 1 987 0
 443 0058 20A9     		add	r1, sp, #128
 444 005a 01EB8E0E 		add	lr, r1, lr, lsl #2
 445 005e 5EF8401C 		ldr	r1, [lr, #-64]
 986:bme680.c      **** 		((int64_t) lookupTable1[gas_range])) >> 16;
 446              		.loc 1 986 0
 447 0062 A2FB0145 		umull	r4, r5, r2, r1
 448 0066 01FB0355 		mla	r5, r1, r3, r5
 449 006a 200C     		lsrs	r0, r4, #16
 450 006c 40EA0540 		orr	r0, r0, r5, lsl #16
 451 0070 2914     		asrs	r1, r5, #16
 452              	.LVL63:
 988:bme680.c      **** 	var2 = (((int64_t) ((int64_t) gas_res_adc << 15) - (int64_t) (16777216)) + var1);
 453              		.loc 1 988 0
 454 0072 0023     		movs	r3, #0
 455 0074 FA03     		lsls	r2, r7, #15
 456 0076 12F17F42 		adds	r2, r2, #-16777216
 457 007a 43F1FF33 		adc	r3, r3, #-1
 458 007e 1218     		adds	r2, r2, r0
 459 0080 4B41     		adcs	r3, r3, r1
 460              	.LVL64:
 989:bme680.c      **** 	var3 = (((int64_t) lookupTable2[gas_range] * (int64_t) var1) >> 9);
 461              		.loc 1 989 0
 462 0082 5EF8806C 		ldr	r6, [lr, #-128]
 463 0086 A0FB0645 		umull	r4, r5, r0, r6
 464 008a 06FB0155 		mla	r5, r6, r1, r5
 465 008e 600A     		lsrs	r0, r4, #9
 466              	.LVL65:
 467 0090 40EAC550 		orr	r0, r0, r5, lsl #23
 468 0094 6912     		asrs	r1, r5, #9
 469              	.LVL66:
 990:bme680.c      **** 	calc_gas_res = (uint32_t) ((var3 + ((int64_t) var2 >> 1)) / (int64_t) var2);
 470              		.loc 1 990 0
 471 0096 5D10     		movs	r5, r3, asr #1
 472 0098 4FEA3204 		mov	r4, r2, rrx
 473 009c 0019     		adds	r0, r0, r4
 474              	.LVL67:
 475 009e 6941     		adcs	r1, r1, r5
 476 00a0 FFF7FEFF 		bl	__aeabi_ldivmod
 477              	.LVL68:
 991:bme680.c      **** 
ARM GAS  C:\Users\adria\AppData\Local\Temp\cciNfgxb.s 			page 27


 992:bme680.c      **** 	return calc_gas_res;
 993:bme680.c      **** }
 478              		.loc 1 993 0
 479 00a4 21B0     		add	sp, sp, #132
 480              		.cfi_def_cfa_offset 20
 481              		@ sp needed
 482 00a6 F0BD     		pop	{r4, r5, r6, r7, pc}
 483              	.L17:
 484              		.align	2
 485              	.L16:
 486 00a8 00000000 		.word	.LANCHOR0
 487              		.cfi_endproc
 488              	.LFE80:
 489              		.size	calc_gas_resistance, .-calc_gas_resistance
 490              		.section	.text.calc_heater_res,"ax",%progbits
 491              		.align	2
 492              		.thumb
 493              		.thumb_func
 494              		.type	calc_heater_res, %function
 495              	calc_heater_res:
 496              	.LFB81:
 994:bme680.c      **** 
 995:bme680.c      **** /*!
 996:bme680.c      ****  * @brief This internal API is used to calculate the Heat Resistance value.
 997:bme680.c      ****  */
 998:bme680.c      **** static uint8_t calc_heater_res(uint16_t temp, const struct bme680_dev *dev)
 999:bme680.c      **** {
 497              		.loc 1 999 0
 498              		.cfi_startproc
 499              		@ args = 0, pretend = 0, frame = 0
 500              		@ frame_needed = 0, uses_anonymous_args = 0
 501              	.LVL69:
 502 0000 F0B5     		push	{r4, r5, r6, r7, lr}
 503              		.cfi_def_cfa_offset 20
 504              		.cfi_offset 4, -20
 505              		.cfi_offset 5, -16
 506              		.cfi_offset 6, -12
 507              		.cfi_offset 7, -8
 508              		.cfi_offset 14, -4
1000:bme680.c      **** 	uint8_t heatr_res;
1001:bme680.c      **** 	int32_t var1;
1002:bme680.c      **** 	int32_t var2;
1003:bme680.c      **** 	int32_t var3;
1004:bme680.c      **** 	int32_t var4;
1005:bme680.c      **** 	int32_t var5;
1006:bme680.c      **** 	int32_t heatr_res_x100;
1007:bme680.c      **** 
1008:bme680.c      **** 	if (temp > 400) /* Cap temperature */
 509              		.loc 1 1008 0
 510 0002 B0F5C87F 		cmp	r0, #400
 511 0006 01D9     		bls	.L19
1009:bme680.c      **** 		temp = 400;
 512              		.loc 1 1009 0
 513 0008 4FF4C870 		mov	r0, #400
 514              	.LVL70:
 515              	.L19:
1010:bme680.c      **** 
ARM GAS  C:\Users\adria\AppData\Local\Temp\cciNfgxb.s 			page 28


1011:bme680.c      **** 	var1 = (((int32_t) dev->amb_temp * dev->calib.par_gh3) / 1000) * 256;
 516              		.loc 1 1011 0
 517 000c 91F90420 		ldrsb	r2, [r1, #4]
 518 0010 91F91450 		ldrsb	r5, [r1, #20]
 519 0014 02FB05F5 		mul	r5, r2, r5
 520 0018 224C     		ldr	r4, .L22
 521 001a 84FB0534 		smull	r3, r4, r4, r5
 522 001e ED17     		asrs	r5, r5, #31
 523 0020 C5EBA417 		rsb	r7, r5, r4, asr #6
 524              	.LVL71:
1012:bme680.c      **** 	var2 = (dev->calib.par_gh1 + 784) * (((((dev->calib.par_gh2 + 154009) * temp * 5) / 100) + 3276800
 525              		.loc 1 1012 0
 526 0024 91F91120 		ldrsb	r2, [r1, #17]
 527 0028 02F5447E 		add	lr, r2, #784
 528 002c B1F91250 		ldrsh	r5, [r1, #18]
 529 0030 05F51633 		add	r3, r5, #153600
 530 0034 03F29913 		addw	r3, r3, #409
 531 0038 03FB00F3 		mul	r3, r3, r0
 532 003c 03EB8303 		add	r3, r3, r3, lsl #2
 533 0040 194E     		ldr	r6, .L22+4
 534 0042 86FB0324 		smull	r2, r4, r6, r3
 535 0046 DB17     		asrs	r3, r3, #31
 536 0048 C3EB6414 		rsb	r4, r3, r4, asr #5
 537 004c 04F54814 		add	r4, r4, #3276800
 538 0050 164A     		ldr	r2, .L22+8
 539 0052 82FB0432 		smull	r3, r2, r2, r4
 540 0056 E517     		asrs	r5, r4, #31
 541 0058 C5EBA205 		rsb	r5, r5, r2, asr #2
 542 005c 05FB0EF2 		mul	r2, r5, lr
 543              	.LVL72:
1013:bme680.c      **** 	var3 = var1 + (var2 / 2);
 544              		.loc 1 1013 0
 545 0060 02EBD272 		add	r2, r2, r2, lsr #31
 546              	.LVL73:
 547 0064 5210     		asrs	r2, r2, #1
 548 0066 02EB0724 		add	r4, r2, r7, lsl #8
 549              	.LVL74:
1014:bme680.c      **** 	var4 = (var3 / (dev->calib.res_heat_range + 4));
 550              		.loc 1 1014 0
 551 006a 91F83430 		ldrb	r3, [r1, #52]	@ zero_extendqisi2
 552 006e 0433     		adds	r3, r3, #4
 553 0070 94FBF3F2 		sdiv	r2, r4, r3
 554              	.LVL75:
1015:bme680.c      **** 	var5 = (131 * dev->calib.res_heat_val) + 65536;
 555              		.loc 1 1015 0
 556 0074 91F93530 		ldrsb	r3, [r1, #53]
 557 0078 03EB8311 		add	r1, r3, r3, lsl #6
 558              	.LVL76:
 559 007c 03EB4103 		add	r3, r3, r1, lsl #1
 560 0080 03F58033 		add	r3, r3, #65536
 561              	.LVL77:
1016:bme680.c      **** 	heatr_res_x100 = (int32_t) (((var4 / var5) - 250) * 34);
 562              		.loc 1 1016 0
 563 0084 92FBF3F3 		sdiv	r3, r2, r3
 564              	.LVL78:
 565 0088 FA3B     		subs	r3, r3, #250
 566 008a 03EB0313 		add	r3, r3, r3, lsl #4
ARM GAS  C:\Users\adria\AppData\Local\Temp\cciNfgxb.s 			page 29


 567 008e 5800     		lsls	r0, r3, #1
 568              	.LVL79:
1017:bme680.c      **** 	heatr_res = (uint8_t) ((heatr_res_x100 + 50) / 100);
 569              		.loc 1 1017 0
 570 0090 00F13203 		add	r3, r0, #50
 571 0094 86FB0320 		smull	r2, r0, r6, r3
 572              	.LVL80:
 573 0098 DB17     		asrs	r3, r3, #31
 574              	.LVL81:
 575 009a C3EB6010 		rsb	r0, r3, r0, asr #5
 576              	.LVL82:
1018:bme680.c      **** 
1019:bme680.c      **** 	return heatr_res;
1020:bme680.c      **** }
 577              		.loc 1 1020 0
 578 009e C0B2     		uxtb	r0, r0
 579 00a0 F0BD     		pop	{r4, r5, r6, r7, pc}
 580              	.LVL83:
 581              	.L23:
 582 00a2 00BF     		.align	2
 583              	.L22:
 584 00a4 D34D6210 		.word	274877907
 585 00a8 1F85EB51 		.word	1374389535
 586 00ac 67666666 		.word	1717986919
 587              		.cfi_endproc
 588              	.LFE81:
 589              		.size	calc_heater_res, .-calc_heater_res
 590              		.section	.text.calc_heater_dur,"ax",%progbits
 591              		.align	2
 592              		.thumb
 593              		.thumb_func
 594              		.type	calc_heater_dur, %function
 595              	calc_heater_dur:
 596              	.LFB82:
1021:bme680.c      **** 
1022:bme680.c      **** #else
1023:bme680.c      **** 
1024:bme680.c      **** 
1025:bme680.c      **** /*!
1026:bme680.c      ****  * @brief This internal API is used to calculate the
1027:bme680.c      ****  * temperature value in float format
1028:bme680.c      ****  */
1029:bme680.c      **** static float calc_temperature(uint32_t temp_adc, struct bme680_dev *dev)
1030:bme680.c      **** {
1031:bme680.c      **** 	float var1 = 0;
1032:bme680.c      **** 	float var2 = 0;
1033:bme680.c      **** 	float calc_temp = 0;
1034:bme680.c      **** 
1035:bme680.c      **** 	/* calculate var1 data */
1036:bme680.c      **** 	var1  = ((((float)temp_adc / 16384.0f) - ((float)dev->calib.par_t1 / 1024.0f))
1037:bme680.c      **** 			* ((float)dev->calib.par_t2));
1038:bme680.c      **** 
1039:bme680.c      **** 	/* calculate var2 data */
1040:bme680.c      **** 	var2  = (((((float)temp_adc / 131072.0f) - ((float)dev->calib.par_t1 / 8192.0f)) *
1041:bme680.c      **** 		(((float)temp_adc / 131072.0f) - ((float)dev->calib.par_t1 / 8192.0f))) *
1042:bme680.c      **** 		((float)dev->calib.par_t3 * 16.0f));
1043:bme680.c      **** 
ARM GAS  C:\Users\adria\AppData\Local\Temp\cciNfgxb.s 			page 30


1044:bme680.c      **** 	/* t_fine value*/
1045:bme680.c      **** 	dev->calib.t_fine = (var1 + var2);
1046:bme680.c      **** 
1047:bme680.c      **** 	/* compensated temperature data*/
1048:bme680.c      **** 	calc_temp  = ((dev->calib.t_fine) / 5120.0f);
1049:bme680.c      **** 
1050:bme680.c      **** 	return calc_temp;
1051:bme680.c      **** }
1052:bme680.c      **** 
1053:bme680.c      **** /*!
1054:bme680.c      ****  * @brief This internal API is used to calculate the
1055:bme680.c      ****  * pressure value in float format
1056:bme680.c      ****  */
1057:bme680.c      **** static float calc_pressure(uint32_t pres_adc, const struct bme680_dev *dev)
1058:bme680.c      **** {
1059:bme680.c      **** 	float var1 = 0;
1060:bme680.c      **** 	float var2 = 0;
1061:bme680.c      **** 	float var3 = 0;
1062:bme680.c      **** 	float calc_pres = 0;
1063:bme680.c      **** 
1064:bme680.c      **** 	var1 = (((float)dev->calib.t_fine / 2.0f) - 64000.0f);
1065:bme680.c      **** 	var2 = var1 * var1 * (((float)dev->calib.par_p6) / (131072.0f));
1066:bme680.c      **** 	var2 = var2 + (var1 * ((float)dev->calib.par_p5) * 2.0f);
1067:bme680.c      **** 	var2 = (var2 / 4.0f) + (((float)dev->calib.par_p4) * 65536.0f);
1068:bme680.c      **** 	var1 = (((((float)dev->calib.par_p3 * var1 * var1) / 16384.0f)
1069:bme680.c      **** 		+ ((float)dev->calib.par_p2 * var1)) / 524288.0f);
1070:bme680.c      **** 	var1 = ((1.0f + (var1 / 32768.0f)) * ((float)dev->calib.par_p1));
1071:bme680.c      **** 	calc_pres = (1048576.0f - ((float)pres_adc));
1072:bme680.c      **** 
1073:bme680.c      **** 	/* Avoid exception caused by division by zero */
1074:bme680.c      **** 	if ((int)var1 != 0) {
1075:bme680.c      **** 		calc_pres = (((calc_pres - (var2 / 4096.0f)) * 6250.0f) / var1);
1076:bme680.c      **** 		var1 = (((float)dev->calib.par_p9) * calc_pres * calc_pres) / 2147483648.0f;
1077:bme680.c      **** 		var2 = calc_pres * (((float)dev->calib.par_p8) / 32768.0f);
1078:bme680.c      **** 		var3 = ((calc_pres / 256.0f) * (calc_pres / 256.0f) * (calc_pres / 256.0f)
1079:bme680.c      **** 			* (dev->calib.par_p10 / 131072.0f));
1080:bme680.c      **** 		calc_pres = (calc_pres + (var1 + var2 + var3 + ((float)dev->calib.par_p7 * 128.0f)) / 16.0f);
1081:bme680.c      **** 	} else {
1082:bme680.c      **** 		calc_pres = 0;
1083:bme680.c      **** 	}
1084:bme680.c      **** 
1085:bme680.c      **** 	return calc_pres;
1086:bme680.c      **** }
1087:bme680.c      **** 
1088:bme680.c      **** /*!
1089:bme680.c      ****  * @brief This internal API is used to calculate the
1090:bme680.c      ****  * humidity value in float format
1091:bme680.c      ****  */
1092:bme680.c      **** static float calc_humidity(uint16_t hum_adc, const struct bme680_dev *dev)
1093:bme680.c      **** {
1094:bme680.c      **** 	float calc_hum = 0;
1095:bme680.c      **** 	float var1 = 0;
1096:bme680.c      **** 	float var2 = 0;
1097:bme680.c      **** 	float var3 = 0;
1098:bme680.c      **** 	float var4 = 0;
1099:bme680.c      **** 	float temp_comp;
1100:bme680.c      **** 
ARM GAS  C:\Users\adria\AppData\Local\Temp\cciNfgxb.s 			page 31


1101:bme680.c      **** 	/* compensated temperature data*/
1102:bme680.c      **** 	temp_comp  = ((dev->calib.t_fine) / 5120.0f);
1103:bme680.c      **** 
1104:bme680.c      **** 	var1 = (float)((float)hum_adc) - (((float)dev->calib.par_h1 * 16.0f) + (((float)dev->calib.par_h3 
1105:bme680.c      **** 		* temp_comp));
1106:bme680.c      **** 
1107:bme680.c      **** 	var2 = var1 * ((float)(((float) dev->calib.par_h2 / 262144.0f) * (1.0f + (((float)dev->calib.par_h
1108:bme680.c      **** 		* temp_comp) + (((float)dev->calib.par_h5 / 1048576.0f) * temp_comp * temp_comp))));
1109:bme680.c      **** 
1110:bme680.c      **** 	var3 = (float) dev->calib.par_h6 / 16384.0f;
1111:bme680.c      **** 
1112:bme680.c      **** 	var4 = (float) dev->calib.par_h7 / 2097152.0f;
1113:bme680.c      **** 
1114:bme680.c      **** 	calc_hum = var2 + ((var3 + (var4 * temp_comp)) * var2 * var2);
1115:bme680.c      **** 
1116:bme680.c      **** 	if (calc_hum > 100.0f)
1117:bme680.c      **** 		calc_hum = 100.0f;
1118:bme680.c      **** 	else if (calc_hum < 0.0f)
1119:bme680.c      **** 		calc_hum = 0.0f;
1120:bme680.c      **** 
1121:bme680.c      **** 	return calc_hum;
1122:bme680.c      **** }
1123:bme680.c      **** 
1124:bme680.c      **** /*!
1125:bme680.c      ****  * @brief This internal API is used to calculate the
1126:bme680.c      ****  * gas resistance value in float format
1127:bme680.c      ****  */
1128:bme680.c      **** static float calc_gas_resistance(uint16_t gas_res_adc, uint8_t gas_range, const struct bme680_dev *
1129:bme680.c      **** {
1130:bme680.c      **** 	float calc_gas_res;
1131:bme680.c      **** 	float var1 = 0;
1132:bme680.c      **** 	float var2 = 0;
1133:bme680.c      **** 	float var3 = 0;
1134:bme680.c      **** 
1135:bme680.c      **** 	const float lookup_k1_range[16] = {
1136:bme680.c      **** 	0.0, 0.0, 0.0, 0.0, 0.0, -1.0, 0.0, -0.8,
1137:bme680.c      **** 	0.0, 0.0, -0.2, -0.5, 0.0, -1.0, 0.0, 0.0};
1138:bme680.c      **** 	const float lookup_k2_range[16] = {
1139:bme680.c      **** 	0.0, 0.0, 0.0, 0.0, 0.1, 0.7, 0.0, -0.8,
1140:bme680.c      **** 	-0.1, 0.0, 0.0, 0.0, 0.0, 0.0, 0.0, 0.0};
1141:bme680.c      **** 
1142:bme680.c      **** 	var1 = (1340.0f + (5.0f * dev->calib.range_sw_err));
1143:bme680.c      **** 	var2 = (var1) * (1.0f + lookup_k1_range[gas_range]/100.0f);
1144:bme680.c      **** 	var3 = 1.0f + (lookup_k2_range[gas_range]/100.0f);
1145:bme680.c      **** 
1146:bme680.c      **** 	calc_gas_res = 1.0f / (float)(var3 * (0.000000125f) * (float)(1 << gas_range) * (((((float)gas_res
1147:bme680.c      **** 		- 512.0f)/var2) + 1.0f));
1148:bme680.c      **** 
1149:bme680.c      **** 	return calc_gas_res;
1150:bme680.c      **** }
1151:bme680.c      **** 
1152:bme680.c      **** /*!
1153:bme680.c      ****  * @brief This internal API is used to calculate the
1154:bme680.c      ****  * heater resistance value in float format
1155:bme680.c      ****  */
1156:bme680.c      **** static float calc_heater_res(uint16_t temp, const struct bme680_dev *dev)
1157:bme680.c      **** {
ARM GAS  C:\Users\adria\AppData\Local\Temp\cciNfgxb.s 			page 32


1158:bme680.c      **** 	float var1 = 0;
1159:bme680.c      **** 	float var2 = 0;
1160:bme680.c      **** 	float var3 = 0;
1161:bme680.c      **** 	float var4 = 0;
1162:bme680.c      **** 	float var5 = 0;
1163:bme680.c      **** 	float res_heat = 0;
1164:bme680.c      **** 
1165:bme680.c      **** 	if (temp > 400) /* Cap temperature */
1166:bme680.c      **** 		temp = 400;
1167:bme680.c      **** 
1168:bme680.c      **** 	var1 = (((float)dev->calib.par_gh1 / (16.0f)) + 49.0f);
1169:bme680.c      **** 	var2 = ((((float)dev->calib.par_gh2 / (32768.0f)) * (0.0005f)) + 0.00235f);
1170:bme680.c      **** 	var3 = ((float)dev->calib.par_gh3 / (1024.0f));
1171:bme680.c      **** 	var4 = (var1 * (1.0f + (var2 * (float)temp)));
1172:bme680.c      **** 	var5 = (var4 + (var3 * (float)dev->amb_temp));
1173:bme680.c      **** 	res_heat = (uint8_t)(3.4f * ((var5 * (4 / (4 + (float)dev->calib.res_heat_range)) *
1174:bme680.c      **** 		(1/(1 + ((float) dev->calib.res_heat_val * 0.002f)))) - 25));
1175:bme680.c      **** 
1176:bme680.c      **** 	return res_heat;
1177:bme680.c      **** }
1178:bme680.c      **** 
1179:bme680.c      **** #endif
1180:bme680.c      **** 
1181:bme680.c      **** /*!
1182:bme680.c      ****  * @brief This internal API is used to calculate the Heat duration value.
1183:bme680.c      ****  */
1184:bme680.c      **** static uint8_t calc_heater_dur(uint16_t dur)
1185:bme680.c      **** {
 597              		.loc 1 1185 0
 598              		.cfi_startproc
 599              		@ args = 0, pretend = 0, frame = 0
 600              		@ frame_needed = 0, uses_anonymous_args = 0
 601              		@ link register save eliminated.
 602              	.LVL84:
1186:bme680.c      **** 	uint8_t factor = 0;
1187:bme680.c      **** 	uint8_t durval;
1188:bme680.c      **** 
1189:bme680.c      **** 	if (dur >= 0xfc0) {
 603              		.loc 1 1189 0
 604 0000 B0F57C6F 		cmp	r0, #4032
 605 0004 0CD2     		bcs	.L28
 606 0006 0023     		movs	r3, #0
 607 0008 02E0     		b	.L26
 608              	.LVL85:
 609              	.L27:
1190:bme680.c      **** 		durval = 0xff; /* Max duration*/
1191:bme680.c      **** 	} else {
1192:bme680.c      **** 		while (dur > 0x3F) {
1193:bme680.c      **** 			dur = dur / 4;
 610              		.loc 1 1193 0
 611 000a 8008     		lsrs	r0, r0, #2
 612              	.LVL86:
1194:bme680.c      **** 			factor += 1;
 613              		.loc 1 1194 0
 614 000c 0133     		adds	r3, r3, #1
 615              	.LVL87:
 616 000e DBB2     		uxtb	r3, r3
ARM GAS  C:\Users\adria\AppData\Local\Temp\cciNfgxb.s 			page 33


 617              	.LVL88:
 618              	.L26:
1192:bme680.c      **** 			dur = dur / 4;
 619              		.loc 1 1192 0
 620 0010 3F28     		cmp	r0, #63
 621 0012 FAD8     		bhi	.L27
1195:bme680.c      **** 		}
1196:bme680.c      **** 		durval = (uint8_t) (dur + (factor * 64));
 622              		.loc 1 1196 0
 623 0014 C0B2     		uxtb	r0, r0
 624              	.LVL89:
 625 0016 9B01     		lsls	r3, r3, #6
 626              	.LVL90:
 627 0018 DBB2     		uxtb	r3, r3
 628 001a 1844     		add	r0, r0, r3
 629 001c C0B2     		uxtb	r0, r0
 630              	.LVL91:
 631 001e 7047     		bx	lr
 632              	.LVL92:
 633              	.L28:
1190:bme680.c      **** 	} else {
 634              		.loc 1 1190 0
 635 0020 FF20     		movs	r0, #255
 636              	.LVL93:
1197:bme680.c      **** 	}
1198:bme680.c      **** 
1199:bme680.c      **** 	return durval;
1200:bme680.c      **** }
 637              		.loc 1 1200 0
 638 0022 7047     		bx	lr
 639              		.cfi_endproc
 640              	.LFE82:
 641              		.size	calc_heater_dur, .-calc_heater_dur
 642              		.section	.text.boundary_check,"ax",%progbits
 643              		.align	2
 644              		.thumb
 645              		.thumb_func
 646              		.type	boundary_check, %function
 647              	boundary_check:
 648              	.LFB86:
1201:bme680.c      **** 
1202:bme680.c      **** /*!
1203:bme680.c      ****  * @brief This internal API is used to calculate the field data of sensor.
1204:bme680.c      ****  */
1205:bme680.c      **** static int8_t read_field_data(struct bme680_field_data *data, struct bme680_dev *dev)
1206:bme680.c      **** {
1207:bme680.c      **** 	int8_t rslt;
1208:bme680.c      **** 	uint8_t buff[BME680_FIELD_LENGTH] = { 0 };
1209:bme680.c      **** 	uint8_t gas_range;
1210:bme680.c      **** 	uint32_t adc_temp;
1211:bme680.c      **** 	uint32_t adc_pres;
1212:bme680.c      **** 	uint16_t adc_hum;
1213:bme680.c      **** 	uint16_t adc_gas_res;
1214:bme680.c      **** 	uint8_t tries = 10;
1215:bme680.c      **** 
1216:bme680.c      **** 	/* Check for null pointer in the device structure*/
1217:bme680.c      **** 	rslt = null_ptr_check(dev);
ARM GAS  C:\Users\adria\AppData\Local\Temp\cciNfgxb.s 			page 34


1218:bme680.c      **** 	do {
1219:bme680.c      **** 		if (rslt == BME680_OK) {
1220:bme680.c      **** 			rslt = bme680_get_regs(((uint8_t) (BME680_FIELD0_ADDR)), buff, (uint16_t) BME680_FIELD_LENGTH,
1221:bme680.c      **** 				dev);
1222:bme680.c      **** 
1223:bme680.c      **** 			data->status = buff[0] & BME680_NEW_DATA_MSK;
1224:bme680.c      **** 			data->gas_index = buff[0] & BME680_GAS_INDEX_MSK;
1225:bme680.c      **** 			data->meas_index = buff[1];
1226:bme680.c      **** 
1227:bme680.c      **** 			/* read the raw data from the sensor */
1228:bme680.c      **** 			adc_pres = (uint32_t) (((uint32_t) buff[2] * 4096) | ((uint32_t) buff[3] * 16)
1229:bme680.c      **** 				| ((uint32_t) buff[4] / 16));
1230:bme680.c      **** 			adc_temp = (uint32_t) (((uint32_t) buff[5] * 4096) | ((uint32_t) buff[6] * 16)
1231:bme680.c      **** 				| ((uint32_t) buff[7] / 16));
1232:bme680.c      **** 			adc_hum = (uint16_t) (((uint32_t) buff[8] * 256) | (uint32_t) buff[9]);
1233:bme680.c      **** 			adc_gas_res = (uint16_t) ((uint32_t) buff[13] * 4 | (((uint32_t) buff[14]) / 64));
1234:bme680.c      **** 			gas_range = buff[14] & BME680_GAS_RANGE_MSK;
1235:bme680.c      **** 
1236:bme680.c      **** 			data->status |= buff[14] & BME680_GASM_VALID_MSK;
1237:bme680.c      **** 			data->status |= buff[14] & BME680_HEAT_STAB_MSK;
1238:bme680.c      **** 
1239:bme680.c      **** 			if (data->status & BME680_NEW_DATA_MSK) {
1240:bme680.c      **** 				data->temperature = calc_temperature(adc_temp, dev);
1241:bme680.c      **** 				data->pressure = calc_pressure(adc_pres, dev);
1242:bme680.c      **** 				data->humidity = calc_humidity(adc_hum, dev);
1243:bme680.c      **** 				data->gas_resistance = calc_gas_resistance(adc_gas_res, gas_range, dev);
1244:bme680.c      **** 				break;
1245:bme680.c      **** 			}
1246:bme680.c      **** 			/* Delay to poll the data */
1247:bme680.c      **** 			dev->delay_ms(BME680_POLL_PERIOD_MS);
1248:bme680.c      **** 		}
1249:bme680.c      **** 		tries--;
1250:bme680.c      **** 	} while (tries);
1251:bme680.c      **** 
1252:bme680.c      **** 	if (!tries)
1253:bme680.c      **** 		rslt = BME680_W_NO_NEW_DATA;
1254:bme680.c      **** 
1255:bme680.c      **** 	return rslt;
1256:bme680.c      **** }
1257:bme680.c      **** 
1258:bme680.c      **** /*!
1259:bme680.c      ****  * @brief This internal API is used to set the memory page based on register address.
1260:bme680.c      ****  */
1261:bme680.c      **** static int8_t set_mem_page(uint8_t reg_addr, struct bme680_dev *dev)
1262:bme680.c      **** {
1263:bme680.c      **** 	int8_t rslt;
1264:bme680.c      **** 	uint8_t reg;
1265:bme680.c      **** 	uint8_t mem_page;
1266:bme680.c      **** 
1267:bme680.c      **** 	/* Check for null pointers in the device structure*/
1268:bme680.c      **** 	rslt = null_ptr_check(dev);
1269:bme680.c      **** 	if (rslt == BME680_OK) {
1270:bme680.c      **** 		if (reg_addr > 0x7f)
1271:bme680.c      **** 			mem_page = BME680_MEM_PAGE1;
1272:bme680.c      **** 		else
1273:bme680.c      **** 			mem_page = BME680_MEM_PAGE0;
1274:bme680.c      **** 
ARM GAS  C:\Users\adria\AppData\Local\Temp\cciNfgxb.s 			page 35


1275:bme680.c      **** 		if (mem_page != dev->mem_page) {
1276:bme680.c      **** 			dev->mem_page = mem_page;
1277:bme680.c      **** 
1278:bme680.c      **** 			dev->com_rslt = dev->read(dev->dev_id, BME680_MEM_PAGE_ADDR | BME680_SPI_RD_MSK, &reg, 1);
1279:bme680.c      **** 			if (dev->com_rslt != 0)
1280:bme680.c      **** 				rslt = BME680_E_COM_FAIL;
1281:bme680.c      **** 
1282:bme680.c      **** 			if (rslt == BME680_OK) {
1283:bme680.c      **** 				reg = reg & (~BME680_MEM_PAGE_MSK);
1284:bme680.c      **** 				reg = reg | (dev->mem_page & BME680_MEM_PAGE_MSK);
1285:bme680.c      **** 
1286:bme680.c      **** 				dev->com_rslt = dev->write(dev->dev_id, BME680_MEM_PAGE_ADDR & BME680_SPI_WR_MSK,
1287:bme680.c      **** 					&reg, 1);
1288:bme680.c      **** 				if (dev->com_rslt != 0)
1289:bme680.c      **** 					rslt = BME680_E_COM_FAIL;
1290:bme680.c      **** 			}
1291:bme680.c      **** 		}
1292:bme680.c      **** 	}
1293:bme680.c      **** 
1294:bme680.c      **** 	return rslt;
1295:bme680.c      **** }
1296:bme680.c      **** 
1297:bme680.c      **** /*!
1298:bme680.c      ****  * @brief This internal API is used to get the memory page based on register address.
1299:bme680.c      ****  */
1300:bme680.c      **** static int8_t get_mem_page(struct bme680_dev *dev)
1301:bme680.c      **** {
1302:bme680.c      **** 	int8_t rslt;
1303:bme680.c      **** 	uint8_t reg;
1304:bme680.c      **** 
1305:bme680.c      **** 	/* Check for null pointer in the device structure*/
1306:bme680.c      **** 	rslt = null_ptr_check(dev);
1307:bme680.c      **** 	if (rslt == BME680_OK) {
1308:bme680.c      **** 		dev->com_rslt = dev->read(dev->dev_id, BME680_MEM_PAGE_ADDR | BME680_SPI_RD_MSK, &reg, 1);
1309:bme680.c      **** 		if (dev->com_rslt != 0)
1310:bme680.c      **** 			rslt = BME680_E_COM_FAIL;
1311:bme680.c      **** 		else
1312:bme680.c      **** 			dev->mem_page = reg & BME680_MEM_PAGE_MSK;
1313:bme680.c      **** 	}
1314:bme680.c      **** 
1315:bme680.c      **** 	return rslt;
1316:bme680.c      **** }
1317:bme680.c      **** 
1318:bme680.c      **** /*!
1319:bme680.c      ****  * @brief This internal API is used to validate the boundary
1320:bme680.c      ****  * conditions.
1321:bme680.c      ****  */
1322:bme680.c      **** static int8_t boundary_check(uint8_t *value, uint8_t min, uint8_t max, struct bme680_dev *dev)
1323:bme680.c      **** {
 649              		.loc 1 1323 0
 650              		.cfi_startproc
 651              		@ args = 0, pretend = 0, frame = 0
 652              		@ frame_needed = 0, uses_anonymous_args = 0
 653              		@ link register save eliminated.
 654              	.LVL94:
1324:bme680.c      **** 	int8_t rslt = BME680_OK;
1325:bme680.c      **** 
ARM GAS  C:\Users\adria\AppData\Local\Temp\cciNfgxb.s 			page 36


1326:bme680.c      **** 	if (value != NULL) {
 655              		.loc 1 1326 0
 656 0000 B8B1     		cbz	r0, .L32
1323:bme680.c      **** 	int8_t rslt = BME680_OK;
 657              		.loc 1 1323 0
 658 0002 10B4     		push	{r4}
 659              		.cfi_def_cfa_offset 4
 660              		.cfi_offset 4, -4
 661 0004 0446     		mov	r4, r0
1327:bme680.c      **** 		/* Check if value is below minimum value */
1328:bme680.c      **** 		if (*value < min) {
 662              		.loc 1 1328 0
 663 0006 0078     		ldrb	r0, [r0]	@ zero_extendqisi2
 664              	.LVL95:
 665 0008 8842     		cmp	r0, r1
 666 000a 06D2     		bcs	.L31
1329:bme680.c      **** 			/* Auto correct the invalid value to minimum value */
1330:bme680.c      **** 			*value = min;
 667              		.loc 1 1330 0
 668 000c 2170     		strb	r1, [r4]
1331:bme680.c      **** 			dev->info_msg |= BME680_I_MIN_CORRECTION;
 669              		.loc 1 1331 0
 670 000e 93F84610 		ldrb	r1, [r3, #70]	@ zero_extendqisi2
 671              	.LVL96:
 672 0012 41F00101 		orr	r1, r1, #1
 673 0016 83F84610 		strb	r1, [r3, #70]
 674              	.LVL97:
 675              	.L31:
1332:bme680.c      **** 		}
1333:bme680.c      **** 		/* Check if value is above maximum value */
1334:bme680.c      **** 		if (*value > max) {
 676              		.loc 1 1334 0
 677 001a 2178     		ldrb	r1, [r4]	@ zero_extendqisi2
 678 001c 9142     		cmp	r1, r2
 679 001e 0BD9     		bls	.L33
1335:bme680.c      **** 			/* Auto correct the invalid value to maximum value */
1336:bme680.c      **** 			*value = max;
 680              		.loc 1 1336 0
 681 0020 2270     		strb	r2, [r4]
1337:bme680.c      **** 			dev->info_msg |= BME680_I_MAX_CORRECTION;
 682              		.loc 1 1337 0
 683 0022 93F84620 		ldrb	r2, [r3, #70]	@ zero_extendqisi2
 684              	.LVL98:
 685 0026 42F00202 		orr	r2, r2, #2
 686 002a 83F84620 		strb	r2, [r3, #70]
 687              	.LVL99:
1324:bme680.c      **** 
 688              		.loc 1 1324 0
 689 002e 0020     		movs	r0, #0
 690 0030 03E0     		b	.L30
 691              	.LVL100:
 692              	.L32:
 693              		.cfi_def_cfa_offset 0
 694              		.cfi_restore 4
1338:bme680.c      **** 		}
1339:bme680.c      **** 	} else {
1340:bme680.c      **** 		rslt = BME680_E_NULL_PTR;
ARM GAS  C:\Users\adria\AppData\Local\Temp\cciNfgxb.s 			page 37


 695              		.loc 1 1340 0
 696 0032 4FF0FF30 		mov	r0, #-1
 697              	.LVL101:
1341:bme680.c      **** 	}
1342:bme680.c      **** 
1343:bme680.c      **** 	return rslt;
1344:bme680.c      **** }
 698              		.loc 1 1344 0
 699 0036 7047     		bx	lr
 700              	.LVL102:
 701              	.L33:
 702              		.cfi_def_cfa_offset 4
 703              		.cfi_offset 4, -4
1324:bme680.c      **** 
 704              		.loc 1 1324 0
 705 0038 0020     		movs	r0, #0
 706              	.LVL103:
 707              	.L30:
 708              		.loc 1 1344 0
 709 003a 10BC     		pop	{r4}
 710              		.cfi_restore 4
 711              		.cfi_def_cfa_offset 0
 712              	.LVL104:
 713 003c 7047     		bx	lr
 714              		.cfi_endproc
 715              	.LFE86:
 716              		.size	boundary_check, .-boundary_check
 717 003e 00BF     		.section	.text.null_ptr_check,"ax",%progbits
 718              		.align	2
 719              		.thumb
 720              		.thumb_func
 721              		.type	null_ptr_check, %function
 722              	null_ptr_check:
 723              	.LFB87:
1345:bme680.c      **** 
1346:bme680.c      **** /*!
1347:bme680.c      ****  * @brief This internal API is used to validate the device structure pointer for
1348:bme680.c      ****  * null conditions.
1349:bme680.c      ****  */
1350:bme680.c      **** static int8_t null_ptr_check(const struct bme680_dev *dev)
1351:bme680.c      **** {
 724              		.loc 1 1351 0
 725              		.cfi_startproc
 726              		@ args = 0, pretend = 0, frame = 0
 727              		@ frame_needed = 0, uses_anonymous_args = 0
 728              		@ link register save eliminated.
 729              	.LVL105:
1352:bme680.c      **** 	int8_t rslt;
1353:bme680.c      **** 
1354:bme680.c      **** 	if ((dev == NULL) || (dev->read == NULL) || (dev->write == NULL) || (dev->delay_ms == NULL)) {
 730              		.loc 1 1354 0
 731 0000 40B1     		cbz	r0, .L37
 732              		.loc 1 1354 0 is_stmt 0 discriminator 1
 733 0002 826C     		ldr	r2, [r0, #72]
 734 0004 4AB1     		cbz	r2, .L38
 735              		.loc 1 1354 0 discriminator 2
 736 0006 C26C     		ldr	r2, [r0, #76]
ARM GAS  C:\Users\adria\AppData\Local\Temp\cciNfgxb.s 			page 38


 737 0008 52B1     		cbz	r2, .L39
 738              		.loc 1 1354 0 discriminator 3
 739 000a 036D     		ldr	r3, [r0, #80]
 740 000c 5BB9     		cbnz	r3, .L40
1355:bme680.c      **** 		/* Device structure pointer is not valid */
1356:bme680.c      **** 		rslt = BME680_E_NULL_PTR;
 741              		.loc 1 1356 0 is_stmt 1
 742 000e 4FF0FF30 		mov	r0, #-1
 743              	.LVL106:
 744 0012 7047     		bx	lr
 745              	.LVL107:
 746              	.L37:
 747 0014 4FF0FF30 		mov	r0, #-1
 748              	.LVL108:
 749 0018 7047     		bx	lr
 750              	.LVL109:
 751              	.L38:
 752 001a 4FF0FF30 		mov	r0, #-1
 753              	.LVL110:
 754 001e 7047     		bx	lr
 755              	.LVL111:
 756              	.L39:
 757 0020 4FF0FF30 		mov	r0, #-1
 758              	.LVL112:
 759 0024 7047     		bx	lr
 760              	.LVL113:
 761              	.L40:
1357:bme680.c      **** 	} else {
1358:bme680.c      **** 		/* Device structure is fine */
1359:bme680.c      **** 		rslt = BME680_OK;
 762              		.loc 1 1359 0
 763 0026 0020     		movs	r0, #0
 764              	.LVL114:
1360:bme680.c      **** 	}
1361:bme680.c      **** 
1362:bme680.c      **** 	return rslt;
1363:bme680.c      **** }
 765              		.loc 1 1363 0
 766 0028 7047     		bx	lr
 767              		.cfi_endproc
 768              	.LFE87:
 769              		.size	null_ptr_check, .-null_ptr_check
 770 002a 00BF     		.section	.text.set_mem_page,"ax",%progbits
 771              		.align	2
 772              		.thumb
 773              		.thumb_func
 774              		.type	set_mem_page, %function
 775              	set_mem_page:
 776              	.LFB84:
1262:bme680.c      **** 	int8_t rslt;
 777              		.loc 1 1262 0
 778              		.cfi_startproc
 779              		@ args = 0, pretend = 0, frame = 8
 780              		@ frame_needed = 0, uses_anonymous_args = 0
 781              	.LVL115:
 782 0000 70B5     		push	{r4, r5, r6, lr}
 783              		.cfi_def_cfa_offset 16
ARM GAS  C:\Users\adria\AppData\Local\Temp\cciNfgxb.s 			page 39


 784              		.cfi_offset 4, -16
 785              		.cfi_offset 5, -12
 786              		.cfi_offset 6, -8
 787              		.cfi_offset 14, -4
 788 0002 82B0     		sub	sp, sp, #8
 789              		.cfi_def_cfa_offset 24
 790 0004 0646     		mov	r6, r0
 791 0006 0C46     		mov	r4, r1
1268:bme680.c      **** 	if (rslt == BME680_OK) {
 792              		.loc 1 1268 0
 793 0008 0846     		mov	r0, r1
 794              	.LVL116:
 795 000a FFF7FEFF 		bl	null_ptr_check
 796              	.LVL117:
1269:bme680.c      **** 		if (reg_addr > 0x7f)
 797              		.loc 1 1269 0
 798 000e 0546     		mov	r5, r0
 799 0010 58BB     		cbnz	r0, .L42
1270:bme680.c      **** 			mem_page = BME680_MEM_PAGE1;
 800              		.loc 1 1270 0
 801 0012 16F0800F 		tst	r6, #128
 802 0016 01D0     		beq	.L45
1271:bme680.c      **** 		else
 803              		.loc 1 1271 0
 804 0018 0023     		movs	r3, #0
 805 001a 00E0     		b	.L43
 806              	.L45:
1273:bme680.c      **** 
 807              		.loc 1 1273 0
 808 001c 1023     		movs	r3, #16
 809              	.L43:
 810              	.LVL118:
1275:bme680.c      **** 			dev->mem_page = mem_page;
 811              		.loc 1 1275 0
 812 001e E278     		ldrb	r2, [r4, #3]	@ zero_extendqisi2
 813 0020 9342     		cmp	r3, r2
 814 0022 22D0     		beq	.L42
1276:bme680.c      **** 
 815              		.loc 1 1276 0
 816 0024 E370     		strb	r3, [r4, #3]
1278:bme680.c      **** 			if (dev->com_rslt != 0)
 817              		.loc 1 1278 0
 818 0026 A66C     		ldr	r6, [r4, #72]
 819 0028 0123     		movs	r3, #1
 820              	.LVL119:
 821 002a 0DF10702 		add	r2, sp, #7
 822 002e F321     		movs	r1, #243
 823 0030 6078     		ldrb	r0, [r4, #1]	@ zero_extendqisi2
 824              	.LVL120:
 825 0032 B047     		blx	r6
 826              	.LVL121:
 827 0034 84F85400 		strb	r0, [r4, #84]
1279:bme680.c      **** 				rslt = BME680_E_COM_FAIL;
 828              		.loc 1 1279 0
 829 0038 08B1     		cbz	r0, .L44
1280:bme680.c      **** 
 830              		.loc 1 1280 0
ARM GAS  C:\Users\adria\AppData\Local\Temp\cciNfgxb.s 			page 40


 831 003a 6FF00105 		mvn	r5, #1
 832              	.L44:
 833              	.LVL122:
1282:bme680.c      **** 				reg = reg & (~BME680_MEM_PAGE_MSK);
 834              		.loc 1 1282 0
 835 003e A5B9     		cbnz	r5, .L42
1283:bme680.c      **** 				reg = reg | (dev->mem_page & BME680_MEM_PAGE_MSK);
 836              		.loc 1 1283 0
 837 0040 9DF80730 		ldrb	r3, [sp, #7]	@ zero_extendqisi2
 838 0044 03F0EF02 		and	r2, r3, #239
1284:bme680.c      **** 
 839              		.loc 1 1284 0
 840 0048 E378     		ldrb	r3, [r4, #3]	@ zero_extendqisi2
 841 004a 03F01003 		and	r3, r3, #16
 842 004e 1343     		orrs	r3, r3, r2
 843 0050 02AA     		add	r2, sp, #8
 844 0052 02F8013D 		strb	r3, [r2, #-1]!
1286:bme680.c      **** 					&reg, 1);
 845              		.loc 1 1286 0
 846 0056 E66C     		ldr	r6, [r4, #76]
 847 0058 0123     		movs	r3, #1
 848 005a 7321     		movs	r1, #115
 849 005c 6078     		ldrb	r0, [r4, #1]	@ zero_extendqisi2
 850 005e B047     		blx	r6
 851              	.LVL123:
 852 0060 84F85400 		strb	r0, [r4, #84]
1288:bme680.c      **** 					rslt = BME680_E_COM_FAIL;
 853              		.loc 1 1288 0
 854 0064 08B1     		cbz	r0, .L42
1289:bme680.c      **** 			}
 855              		.loc 1 1289 0
 856 0066 6FF00105 		mvn	r5, #1
 857              	.LVL124:
 858              	.L42:
1295:bme680.c      **** 
 859              		.loc 1 1295 0
 860 006a 2846     		mov	r0, r5
 861 006c 02B0     		add	sp, sp, #8
 862              		.cfi_def_cfa_offset 16
 863              		@ sp needed
 864 006e 70BD     		pop	{r4, r5, r6, pc}
 865              		.cfi_endproc
 866              	.LFE84:
 867              		.size	set_mem_page, .-set_mem_page
 868              		.section	.text.get_mem_page,"ax",%progbits
 869              		.align	2
 870              		.thumb
 871              		.thumb_func
 872              		.type	get_mem_page, %function
 873              	get_mem_page:
 874              	.LFB85:
1301:bme680.c      **** 	int8_t rslt;
 875              		.loc 1 1301 0
 876              		.cfi_startproc
 877              		@ args = 0, pretend = 0, frame = 8
 878              		@ frame_needed = 0, uses_anonymous_args = 0
 879              	.LVL125:
ARM GAS  C:\Users\adria\AppData\Local\Temp\cciNfgxb.s 			page 41


 880 0000 70B5     		push	{r4, r5, r6, lr}
 881              		.cfi_def_cfa_offset 16
 882              		.cfi_offset 4, -16
 883              		.cfi_offset 5, -12
 884              		.cfi_offset 6, -8
 885              		.cfi_offset 14, -4
 886 0002 82B0     		sub	sp, sp, #8
 887              		.cfi_def_cfa_offset 24
 888 0004 0446     		mov	r4, r0
1306:bme680.c      **** 	if (rslt == BME680_OK) {
 889              		.loc 1 1306 0
 890 0006 FFF7FEFF 		bl	null_ptr_check
 891              	.LVL126:
1307:bme680.c      **** 		dev->com_rslt = dev->read(dev->dev_id, BME680_MEM_PAGE_ADDR | BME680_SPI_RD_MSK, &reg, 1);
 892              		.loc 1 1307 0
 893 000a 0546     		mov	r5, r0
 894 000c 88B9     		cbnz	r0, .L50
1308:bme680.c      **** 		if (dev->com_rslt != 0)
 895              		.loc 1 1308 0
 896 000e A66C     		ldr	r6, [r4, #72]
 897 0010 0123     		movs	r3, #1
 898 0012 0DF10702 		add	r2, sp, #7
 899 0016 F321     		movs	r1, #243
 900 0018 6078     		ldrb	r0, [r4, #1]	@ zero_extendqisi2
 901              	.LVL127:
 902 001a B047     		blx	r6
 903              	.LVL128:
 904 001c 84F85400 		strb	r0, [r4, #84]
1309:bme680.c      **** 			rslt = BME680_E_COM_FAIL;
 905              		.loc 1 1309 0
 906 0020 28B9     		cbnz	r0, .L51
1312:bme680.c      **** 	}
 907              		.loc 1 1312 0
 908 0022 9DF80730 		ldrb	r3, [sp, #7]	@ zero_extendqisi2
 909 0026 03F01003 		and	r3, r3, #16
 910 002a E370     		strb	r3, [r4, #3]
 911 002c 01E0     		b	.L50
 912              	.L51:
1310:bme680.c      **** 		else
 913              		.loc 1 1310 0
 914 002e 6FF00105 		mvn	r5, #1
 915              	.L50:
 916              	.LVL129:
1316:bme680.c      **** 
 917              		.loc 1 1316 0
 918 0032 2846     		mov	r0, r5
 919 0034 02B0     		add	sp, sp, #8
 920              		.cfi_def_cfa_offset 16
 921              		@ sp needed
 922 0036 70BD     		pop	{r4, r5, r6, pc}
 923              		.cfi_endproc
 924              	.LFE85:
 925              		.size	get_mem_page, .-get_mem_page
 926              		.section	.text.analyze_sensor_data,"ax",%progbits
 927              		.align	2
 928              		.thumb
 929              		.thumb_func
ARM GAS  C:\Users\adria\AppData\Local\Temp\cciNfgxb.s 			page 42


 930              		.type	analyze_sensor_data, %function
 931              	analyze_sensor_data:
 932              	.LFB89:
1364:bme680.c      **** 
1365:bme680.c      **** /*!
1366:bme680.c      ****  * @brief       Function to analyze the sensor data
1367:bme680.c      ****  *
1368:bme680.c      ****  * @param[in]   data	Array of measurement data 
1369:bme680.c      ****  * @param[in]   n_meas	Number of measurements 
1370:bme680.c      ****  *
1371:bme680.c      ****  * @return      Error code
1372:bme680.c      ****  * @retval		0	Success
1373:bme680.c      ****  * @retval      > 0	Warning	
1374:bme680.c      ****  */
1375:bme680.c      **** static int8_t analyze_sensor_data(struct bme680_field_data *data, uint8_t n_meas);
1376:bme680.c      **** 
1377:bme680.c      **** /*!
1378:bme680.c      ****  * @brief       Self-test API for the BME680
1379:bme680.c      ****  */
1380:bme680.c      **** int8_t bme680_self_test(struct bme680_dev *dev)
1381:bme680.c      **** {
1382:bme680.c      **** 	int8_t rslt = BME680_OK;
1383:bme680.c      **** 	struct bme680_field_data data[N_MEAS];
1384:bme680.c      **** 
1385:bme680.c      **** 	struct bme680_dev t_dev;
1386:bme680.c      **** 
1387:bme680.c      **** 	/* Copy required parameters from reference bme680_dev struct */
1388:bme680.c      **** 	t_dev.dev_id = dev->dev_id;
1389:bme680.c      **** 	t_dev.amb_temp = 25;
1390:bme680.c      **** 	t_dev.read = dev->read;
1391:bme680.c      **** 	t_dev.write = dev->write;
1392:bme680.c      **** 	t_dev.intf = dev->intf;
1393:bme680.c      **** 	t_dev.delay_ms = dev->delay_ms;
1394:bme680.c      **** 
1395:bme680.c      **** 	rslt = bme680_init(&t_dev);
1396:bme680.c      **** 
1397:bme680.c      **** 	if (rslt == BME680_OK) {
1398:bme680.c      **** 		/* Select the power mode */
1399:bme680.c      **** 		/* Must be set before writing the sensor configuration */
1400:bme680.c      **** 		t_dev.power_mode = BME680_FORCED_MODE;
1401:bme680.c      **** 
1402:bme680.c      **** 		uint16_t settings_sel;
1403:bme680.c      **** 
1404:bme680.c      **** 		/* Set the temperature, pressure and humidity & filter settings */
1405:bme680.c      **** 		t_dev.tph_sett.os_hum = BME680_OS_1X;
1406:bme680.c      **** 		t_dev.tph_sett.os_pres = BME680_OS_16X;
1407:bme680.c      **** 		t_dev.tph_sett.os_temp = BME680_OS_2X;
1408:bme680.c      **** 
1409:bme680.c      **** 		/* Set the remaining gas sensor settings and link the heating profile */
1410:bme680.c      **** 		t_dev.gas_sett.run_gas = BME680_ENABLE_GAS_MEAS;
1411:bme680.c      **** 		t_dev.gas_sett.heatr_dur = HEATR_DUR;
1412:bme680.c      **** 
1413:bme680.c      **** 		settings_sel = BME680_OST_SEL | BME680_OSP_SEL | BME680_OSH_SEL | BME680_GAS_SENSOR_SEL;
1414:bme680.c      **** 
1415:bme680.c      **** 		uint16_t profile_dur = 0;
1416:bme680.c      **** 		bme680_get_profile_dur(&profile_dur, &t_dev);
1417:bme680.c      **** 
ARM GAS  C:\Users\adria\AppData\Local\Temp\cciNfgxb.s 			page 43


1418:bme680.c      **** 		uint8_t i = 0;
1419:bme680.c      **** 		while ((rslt == BME680_OK) && (i < N_MEAS)) {
1420:bme680.c      **** 			if (rslt == BME680_OK) {
1421:bme680.c      **** 
1422:bme680.c      **** 				if (i % 2 == 0)
1423:bme680.c      **** 					t_dev.gas_sett.heatr_temp = HIGH_TEMP; /* Higher temperature */
1424:bme680.c      **** 				else
1425:bme680.c      **** 					t_dev.gas_sett.heatr_temp = LOW_TEMP; /* Lower temperature */
1426:bme680.c      **** 
1427:bme680.c      **** 				rslt = bme680_set_sensor_settings(settings_sel, &t_dev);
1428:bme680.c      **** 
1429:bme680.c      **** 				if (rslt == BME680_OK) {
1430:bme680.c      **** 
1431:bme680.c      **** 					rslt = bme680_set_sensor_mode(&t_dev); /* Trigger a measurement */
1432:bme680.c      **** 
1433:bme680.c      **** 					t_dev.delay_ms(profile_dur); /* Wait for the measurement to complete */
1434:bme680.c      **** 
1435:bme680.c      **** 					rslt = bme680_get_sensor_data(&data[i], &t_dev);
1436:bme680.c      **** 				}
1437:bme680.c      **** 			}
1438:bme680.c      **** 
1439:bme680.c      **** 			i++;
1440:bme680.c      **** 		}
1441:bme680.c      **** 
1442:bme680.c      **** 		if (rslt == BME680_OK)
1443:bme680.c      **** 			rslt = analyze_sensor_data(data, N_MEAS);
1444:bme680.c      **** 	}
1445:bme680.c      **** 
1446:bme680.c      **** 	return rslt;
1447:bme680.c      **** }
1448:bme680.c      **** 
1449:bme680.c      **** /*!
1450:bme680.c      ****  * @brief       Function to analyze the sensor data
1451:bme680.c      ****  */
1452:bme680.c      **** static int8_t analyze_sensor_data(struct bme680_field_data *data, uint8_t n_meas)
1453:bme680.c      **** {
 933              		.loc 1 1453 0
 934              		.cfi_startproc
 935              		@ args = 0, pretend = 0, frame = 0
 936              		@ frame_needed = 0, uses_anonymous_args = 0
 937              		@ link register save eliminated.
 938              	.LVL130:
 939 0000 30B4     		push	{r4, r5}
 940              		.cfi_def_cfa_offset 8
 941              		.cfi_offset 4, -8
 942              		.cfi_offset 5, -4
 943              	.LVL131:
1454:bme680.c      **** 	int8_t rslt = BME680_OK;
1455:bme680.c      **** 	uint8_t self_test_failed = 0, i;
1456:bme680.c      **** 	uint32_t cent_res = 0;
1457:bme680.c      **** 
1458:bme680.c      **** 	if ((data[0].temperature < MIN_TEMPERATURE) || (data[0].temperature > MAX_TEMPERATURE))
 944              		.loc 1 1458 0
 945 0002 8288     		ldrh	r2, [r0, #4]
 946 0004 41F27073 		movw	r3, #6000
 947 0008 9A42     		cmp	r2, r3
 948 000a 01D8     		bhi	.L63
ARM GAS  C:\Users\adria\AppData\Local\Temp\cciNfgxb.s 			page 44


1455:bme680.c      **** 	uint32_t cent_res = 0;
 949              		.loc 1 1455 0
 950 000c 0025     		movs	r5, #0
 951 000e 00E0     		b	.L54
 952              	.L63:
1459:bme680.c      **** 		self_test_failed++;
 953              		.loc 1 1459 0
 954 0010 0125     		movs	r5, #1
 955              	.L54:
 956              	.LVL132:
1460:bme680.c      **** 
1461:bme680.c      **** 	if ((data[0].pressure < MIN_PRESSURE) || (data[0].pressure > MAX_PRESSURE))
 957              		.loc 1 1461 0
 958 0012 8368     		ldr	r3, [r0, #8]
 959 0014 A3F5AF33 		sub	r3, r3, #89600
 960 0018 A3F5C873 		sub	r3, r3, #400
 961 001c 44F62062 		movw	r2, #20000
 962 0020 9342     		cmp	r3, r2
 963 0022 01D9     		bls	.L55
1462:bme680.c      **** 		self_test_failed++;
 964              		.loc 1 1462 0
 965 0024 0135     		adds	r5, r5, #1
 966              	.LVL133:
 967 0026 EDB2     		uxtb	r5, r5
 968              	.LVL134:
 969              	.L55:
1463:bme680.c      **** 
1464:bme680.c      **** 	if ((data[0].humidity < MIN_HUMIDITY) || (data[0].humidity > MAX_HUMIDITY))
 970              		.loc 1 1464 0
 971 0028 C368     		ldr	r3, [r0, #12]
 972 002a A3F59C43 		sub	r3, r3, #19968
 973 002e 203B     		subs	r3, r3, #32
 974 0030 4EF66022 		movw	r2, #60000
 975 0034 9342     		cmp	r3, r2
 976 0036 01D9     		bls	.L56
1465:bme680.c      **** 		self_test_failed++;
 977              		.loc 1 1465 0
 978 0038 0135     		adds	r5, r5, #1
 979              	.LVL135:
 980 003a EDB2     		uxtb	r5, r5
 981              	.LVL136:
 982              	.L56:
1459:bme680.c      **** 
 983              		.loc 1 1459 0 discriminator 1
 984 003c 0023     		movs	r3, #0
 985 003e 0AE0     		b	.L57
 986              	.LVL137:
 987              	.L59:
1466:bme680.c      **** 
1467:bme680.c      **** 	for (i = 0; i < n_meas; i++) /* Every gas measurement should be valid */
1468:bme680.c      **** 		if (!(data[i].status & BME680_GASM_VALID_MSK))
 988              		.loc 1 1468 0
 989 0040 03EB8304 		add	r4, r3, r3, lsl #2
 990 0044 A200     		lsls	r2, r4, #2
 991 0046 825C     		ldrb	r2, [r0, r2]	@ zero_extendqisi2
 992 0048 12F0200F 		tst	r2, #32
 993 004c 01D1     		bne	.L58
ARM GAS  C:\Users\adria\AppData\Local\Temp\cciNfgxb.s 			page 45


1469:bme680.c      **** 			self_test_failed++;
 994              		.loc 1 1469 0
 995 004e 0135     		adds	r5, r5, #1
 996              	.LVL138:
 997 0050 EDB2     		uxtb	r5, r5
 998              	.LVL139:
 999              	.L58:
1467:bme680.c      **** 		if (!(data[i].status & BME680_GASM_VALID_MSK))
 1000              		.loc 1 1467 0 discriminator 2
 1001 0052 0133     		adds	r3, r3, #1
 1002              	.LVL140:
 1003 0054 DBB2     		uxtb	r3, r3
 1004              	.LVL141:
 1005              	.L57:
1467:bme680.c      **** 		if (!(data[i].status & BME680_GASM_VALID_MSK))
 1006              		.loc 1 1467 0 is_stmt 0 discriminator 1
 1007 0056 8B42     		cmp	r3, r1
 1008 0058 F2D3     		bcc	.L59
1470:bme680.c      **** 
1471:bme680.c      **** 	if (n_meas >= 6)
 1009              		.loc 1 1471 0 is_stmt 1
 1010 005a 0529     		cmp	r1, #5
 1011 005c 07D9     		bls	.L64
1472:bme680.c      **** 		cent_res = (data[3].gas_resistance + data[5].gas_resistance) / (2 * data[4].gas_resistance);
 1012              		.loc 1 1472 0
 1013 005e C26C     		ldr	r2, [r0, #76]
 1014 0060 436F     		ldr	r3, [r0, #116]
 1015              	.LVL142:
 1016 0062 1344     		add	r3, r3, r2
 1017 0064 026E     		ldr	r2, [r0, #96]
 1018 0066 5200     		lsls	r2, r2, #1
 1019 0068 B3FBF2F3 		udiv	r3, r3, r2
 1020              	.LVL143:
 1021 006c 00E0     		b	.L60
 1022              	.LVL144:
 1023              	.L64:
1456:bme680.c      **** 
 1024              		.loc 1 1456 0
 1025 006e 0023     		movs	r3, #0
 1026              	.LVL145:
 1027              	.L60:
1473:bme680.c      **** 
1474:bme680.c      **** 	if ((cent_res * 5) < 6)
 1028              		.loc 1 1474 0
 1029 0070 03EB8303 		add	r3, r3, r3, lsl #2
 1030              	.LVL146:
 1031 0074 052B     		cmp	r3, #5
 1032 0076 01D8     		bhi	.L61
1475:bme680.c      **** 		self_test_failed++;
 1033              		.loc 1 1475 0
 1034 0078 0135     		adds	r5, r5, #1
 1035              	.LVL147:
 1036 007a EDB2     		uxtb	r5, r5
 1037              	.LVL148:
 1038              	.L61:
1476:bme680.c      **** 
1477:bme680.c      **** 	if (self_test_failed)
ARM GAS  C:\Users\adria\AppData\Local\Temp\cciNfgxb.s 			page 46


 1039              		.loc 1 1477 0
 1040 007c 0DB9     		cbnz	r5, .L65
1454:bme680.c      **** 	uint8_t self_test_failed = 0, i;
 1041              		.loc 1 1454 0
 1042 007e 0020     		movs	r0, #0
 1043              	.LVL149:
 1044 0080 00E0     		b	.L62
 1045              	.LVL150:
 1046              	.L65:
1478:bme680.c      **** 		rslt = BME680_W_SELF_TEST_FAILED;
 1047              		.loc 1 1478 0
 1048 0082 0320     		movs	r0, #3
 1049              	.LVL151:
 1050              	.L62:
1479:bme680.c      **** 
1480:bme680.c      **** 	return rslt;
1481:bme680.c      **** }
 1051              		.loc 1 1481 0
 1052 0084 30BC     		pop	{r4, r5}
 1053              		.cfi_restore 5
 1054              		.cfi_restore 4
 1055              		.cfi_def_cfa_offset 0
 1056              	.LVL152:
 1057 0086 7047     		bx	lr
 1058              		.cfi_endproc
 1059              	.LFE89:
 1060              		.size	analyze_sensor_data, .-analyze_sensor_data
 1061              		.section	.text.user_delay_ms,"ax",%progbits
 1062              		.align	2
 1063              		.thumb
 1064              		.thumb_func
 1065              		.type	user_delay_ms, %function
 1066              	user_delay_ms:
 1067              	.LFB90:
1482:bme680.c      **** 
1483:bme680.c      **** static void user_delay_ms(uint32_t period)
1484:bme680.c      **** {
 1068              		.loc 1 1484 0
 1069              		.cfi_startproc
 1070              		@ args = 0, pretend = 0, frame = 0
 1071              		@ frame_needed = 0, uses_anonymous_args = 0
 1072              	.LVL153:
 1073 0000 08B5     		push	{r3, lr}
 1074              		.cfi_def_cfa_offset 8
 1075              		.cfi_offset 3, -8
 1076              		.cfi_offset 14, -4
1485:bme680.c      ****     /*
1486:bme680.c      ****      * Return control or wait,
1487:bme680.c      ****      * for a period amount of milliseconds
1488:bme680.c      ****      */
1489:bme680.c      ****     CyDelay(period);
 1077              		.loc 1 1489 0
 1078 0002 FFF7FEFF 		bl	CyDelay
 1079              	.LVL154:
 1080 0006 08BD     		pop	{r3, pc}
 1081              		.cfi_endproc
 1082              	.LFE90:
ARM GAS  C:\Users\adria\AppData\Local\Temp\cciNfgxb.s 			page 47


 1083              		.size	user_delay_ms, .-user_delay_ms
 1084              		.section	.text.user_i2c_write,"ax",%progbits
 1085              		.align	2
 1086              		.thumb
 1087              		.thumb_func
 1088              		.type	user_i2c_write, %function
 1089              	user_i2c_write:
 1090              	.LFB92:
1490:bme680.c      **** }
1491:bme680.c      **** 
1492:bme680.c      **** static int8_t user_i2c_read(uint8_t dev_id, uint8_t reg_addr, uint8_t *reg_data, uint16_t len)
1493:bme680.c      **** {
1494:bme680.c      ****     int8_t rslt = 0; /* Return 0 for Success, non-zero for failure */
1495:bme680.c      ****     uint16_t i = 0;
1496:bme680.c      **** 
1497:bme680.c      ****     /*
1498:bme680.c      ****      * The parameter dev_id can be used as a variable to store the I2C address of the device
1499:bme680.c      ****      */
1500:bme680.c      **** 
1501:bme680.c      ****     /*
1502:bme680.c      ****      * Data on the bus should be like
1503:bme680.c      ****      * |------------+---------------------|
1504:bme680.c      ****      * | I2C action | Data                |
1505:bme680.c      ****      * |------------+---------------------|
1506:bme680.c      ****      * | Start      | -                   |
1507:bme680.c      ****      * | Write      | (reg_addr)          |
1508:bme680.c      ****      * | Stop       | -                   |
1509:bme680.c      ****      * | Start      | -                   |
1510:bme680.c      ****      * | Read       | (reg_data[0])       |
1511:bme680.c      ****      * | Read       | (....)              |
1512:bme680.c      ****      * | Read       | (reg_data[len - 1]) |
1513:bme680.c      ****      * | Stop       | -                   |
1514:bme680.c      ****      * |------------+---------------------|
1515:bme680.c      ****      */
1516:bme680.c      ****     //PSOC4
1517:bme680.c      ****     /*
1518:bme680.c      ****     rslt = I2C_I2CMasterSendStart(dev_id,0,100);
1519:bme680.c      ****     rslt = I2C_I2CMasterWriteByte(reg_addr,100);
1520:bme680.c      ****     rslt = I2C_I2CMasterSendRestart(dev_id,1,100);
1521:bme680.c      ****     */
1522:bme680.c      ****     //psoc5
1523:bme680.c      ****     rslt = I2C_MasterSendStart(dev_id,0);//mANDA COMANDO
1524:bme680.c      ****     rslt = I2C_MasterWriteByte(reg_addr);//Envia registro
1525:bme680.c      ****     rslt = I2C_MasterSendRestart(dev_id,1);//Paro para Leer datos
1526:bme680.c      ****     
1527:bme680.c      ****     while(i < (len - 1)) {
1528:bme680.c      ****         //rslt = I2C_I2CMasterReadByte(0,reg_data,100);
1529:bme680.c      ****         rslt = I2C_MasterReadByte(I2C_ACK_DATA);//ack
1530:bme680.c      ****         i++;
1531:bme680.c      ****         reg_data++;
1532:bme680.c      ****     }
1533:bme680.c      ****     /*
1534:bme680.c      ****     rslt = I2C_I2CMasterReadByte(1,reg_data,100);
1535:bme680.c      ****     rslt = I2C_I2CMasterSendStop(100);
1536:bme680.c      ****     */
1537:bme680.c      ****     rslt = I2C_MasterReadByte(I2C_NAK_DATA);//nak
1538:bme680.c      ****     rslt = I2C_MasterSendStop();
ARM GAS  C:\Users\adria\AppData\Local\Temp\cciNfgxb.s 			page 48


1539:bme680.c      ****     
1540:bme680.c      ****     return rslt;
1541:bme680.c      **** }
1542:bme680.c      **** 
1543:bme680.c      **** static int8_t user_i2c_write(uint8_t dev_id, uint8_t reg_addr, uint8_t *reg_data, uint16_t len)
1544:bme680.c      **** {
 1091              		.loc 1 1544 0
 1092              		.cfi_startproc
 1093              		@ args = 0, pretend = 0, frame = 0
 1094              		@ frame_needed = 0, uses_anonymous_args = 0
 1095              	.LVL155:
 1096 0000 70B5     		push	{r4, r5, r6, lr}
 1097              		.cfi_def_cfa_offset 16
 1098              		.cfi_offset 4, -16
 1099              		.cfi_offset 5, -12
 1100              		.cfi_offset 6, -8
 1101              		.cfi_offset 14, -4
 1102 0002 0C46     		mov	r4, r1
 1103 0004 1546     		mov	r5, r2
 1104 0006 1E46     		mov	r6, r3
 1105              	.LVL156:
1545:bme680.c      ****     int8_t rslt = 0; /* Return 0 for Success, non-zero for failure */
1546:bme680.c      ****     uint16_t i = 0;
1547:bme680.c      **** 
1548:bme680.c      ****     /*
1549:bme680.c      ****      * The parameter dev_id can be used as a variable to store the I2C address of the device
1550:bme680.c      ****      */
1551:bme680.c      **** 
1552:bme680.c      ****     /*
1553:bme680.c      ****      * Data on the bus should be like
1554:bme680.c      ****      * |------------+---------------------|
1555:bme680.c      ****      * | I2C action | Data                |
1556:bme680.c      ****      * |------------+---------------------|
1557:bme680.c      ****      * | Start      | -                   |
1558:bme680.c      ****      * | Write      | (reg_addr)          |
1559:bme680.c      ****      * | Write      | (reg_data[0])       |
1560:bme680.c      ****      * | Write      | (....)              |
1561:bme680.c      ****      * | Write      | (reg_data[len - 1]) |
1562:bme680.c      ****      * | Stop       | -                   |
1563:bme680.c      ****      * |------------+---------------------|
1564:bme680.c      ****      */
1565:bme680.c      ****     
1566:bme680.c      ****     //PSOC4
1567:bme680.c      ****     //I2C_I2CMasterSendStart(dev_id,0,100);
1568:bme680.c      ****     //I2C_I2CMasterWriteByte(reg_addr,100);
1569:bme680.c      ****     
1570:bme680.c      ****     I2C_MasterSendStart(dev_id,0);//rw =0  Escribimos comando
 1106              		.loc 1 1570 0
 1107 0008 0021     		movs	r1, #0
 1108              	.LVL157:
 1109 000a FFF7FEFF 		bl	I2C_MasterSendStart
 1110              	.LVL158:
1571:bme680.c      ****     I2C_MasterWriteByte(reg_addr);//Mandamos direccin de registo para escribir en el
 1111              		.loc 1 1571 0
 1112 000e 2046     		mov	r0, r4
 1113 0010 FFF7FEFF 		bl	I2C_MasterWriteByte
 1114              	.LVL159:
ARM GAS  C:\Users\adria\AppData\Local\Temp\cciNfgxb.s 			page 49


1546:bme680.c      **** 
 1115              		.loc 1 1546 0
 1116 0014 0024     		movs	r4, #0
1572:bme680.c      ****     
1573:bme680.c      ****     while(i < len) {//Escribimos las instrucciones
 1117              		.loc 1 1573 0
 1118 0016 05E0     		b	.L70
 1119              	.LVL160:
 1120              	.L71:
1574:bme680.c      ****         //I2C_I2CMasterWriteByte(*reg_data,100);
1575:bme680.c      ****         I2C_MasterWriteByte(*reg_data);
 1121              		.loc 1 1575 0
 1122 0018 15F8010B 		ldrb	r0, [r5], #1	@ zero_extendqisi2
 1123              	.LVL161:
 1124 001c FFF7FEFF 		bl	I2C_MasterWriteByte
 1125              	.LVL162:
1576:bme680.c      ****         i++;
 1126              		.loc 1 1576 0
 1127 0020 0134     		adds	r4, r4, #1
 1128              	.LVL163:
 1129 0022 A4B2     		uxth	r4, r4
 1130              	.LVL164:
 1131              	.L70:
1573:bme680.c      ****         //I2C_I2CMasterWriteByte(*reg_data,100);
 1132              		.loc 1 1573 0
 1133 0024 B442     		cmp	r4, r6
 1134 0026 F7D3     		bcc	.L71
1577:bme680.c      ****         reg_data++;
1578:bme680.c      ****     }
1579:bme680.c      ****     //I2C_I2CMasterSendStop(100);
1580:bme680.c      ****     I2C_MasterSendStop();
 1135              		.loc 1 1580 0
 1136 0028 FFF7FEFF 		bl	I2C_MasterSendStop
 1137              	.LVL165:
1581:bme680.c      ****     
1582:bme680.c      ****     return rslt;
1583:bme680.c      **** }
 1138              		.loc 1 1583 0
 1139 002c 0020     		movs	r0, #0
 1140 002e 70BD     		pop	{r4, r5, r6, pc}
 1141              		.cfi_endproc
 1142              	.LFE92:
 1143              		.size	user_i2c_write, .-user_i2c_write
 1144              		.section	.text.user_i2c_read,"ax",%progbits
 1145              		.align	2
 1146              		.thumb
 1147              		.thumb_func
 1148              		.type	user_i2c_read, %function
 1149              	user_i2c_read:
 1150              	.LFB91:
1493:bme680.c      ****     int8_t rslt = 0; /* Return 0 for Success, non-zero for failure */
 1151              		.loc 1 1493 0
 1152              		.cfi_startproc
 1153              		@ args = 0, pretend = 0, frame = 0
 1154              		@ frame_needed = 0, uses_anonymous_args = 0
 1155              	.LVL166:
 1156 0000 70B5     		push	{r4, r5, r6, lr}
ARM GAS  C:\Users\adria\AppData\Local\Temp\cciNfgxb.s 			page 50


 1157              		.cfi_def_cfa_offset 16
 1158              		.cfi_offset 4, -16
 1159              		.cfi_offset 5, -12
 1160              		.cfi_offset 6, -8
 1161              		.cfi_offset 14, -4
 1162 0002 0446     		mov	r4, r0
 1163 0004 0E46     		mov	r6, r1
 1164 0006 1D46     		mov	r5, r3
 1165              	.LVL167:
1523:bme680.c      ****     rslt = I2C_MasterWriteByte(reg_addr);//Envia registro
 1166              		.loc 1 1523 0
 1167 0008 0021     		movs	r1, #0
 1168              	.LVL168:
 1169 000a FFF7FEFF 		bl	I2C_MasterSendStart
 1170              	.LVL169:
1524:bme680.c      ****     rslt = I2C_MasterSendRestart(dev_id,1);//Paro para Leer datos
 1171              		.loc 1 1524 0
 1172 000e 3046     		mov	r0, r6
 1173 0010 FFF7FEFF 		bl	I2C_MasterWriteByte
 1174              	.LVL170:
1525:bme680.c      ****     
 1175              		.loc 1 1525 0
 1176 0014 0121     		movs	r1, #1
 1177 0016 2046     		mov	r0, r4
 1178 0018 FFF7FEFF 		bl	I2C_MasterSendRestart
 1179              	.LVL171:
1495:bme680.c      **** 
 1180              		.loc 1 1495 0
 1181 001c 0024     		movs	r4, #0
1527:bme680.c      ****         //rslt = I2C_I2CMasterReadByte(0,reg_data,100);
 1182              		.loc 1 1527 0
 1183 001e 04E0     		b	.L74
 1184              	.LVL172:
 1185              	.L75:
1529:bme680.c      ****         i++;
 1186              		.loc 1 1529 0
 1187 0020 0120     		movs	r0, #1
 1188 0022 FFF7FEFF 		bl	I2C_MasterReadByte
 1189              	.LVL173:
1530:bme680.c      ****         reg_data++;
 1190              		.loc 1 1530 0
 1191 0026 0134     		adds	r4, r4, #1
 1192              	.LVL174:
 1193 0028 A4B2     		uxth	r4, r4
 1194              	.LVL175:
 1195              	.L74:
1527:bme680.c      ****         //rslt = I2C_I2CMasterReadByte(0,reg_data,100);
 1196              		.loc 1 1527 0
 1197 002a 6B1E     		subs	r3, r5, #1
 1198 002c 9C42     		cmp	r4, r3
 1199 002e F7DB     		blt	.L75
1537:bme680.c      ****     rslt = I2C_MasterSendStop();
 1200              		.loc 1 1537 0
 1201 0030 0020     		movs	r0, #0
 1202 0032 FFF7FEFF 		bl	I2C_MasterReadByte
 1203              	.LVL176:
1538:bme680.c      ****     
ARM GAS  C:\Users\adria\AppData\Local\Temp\cciNfgxb.s 			page 51


 1204              		.loc 1 1538 0
 1205 0036 FFF7FEFF 		bl	I2C_MasterSendStop
 1206              	.LVL177:
1541:bme680.c      **** 
 1207              		.loc 1 1541 0
 1208 003a 40B2     		sxtb	r0, r0
 1209 003c 70BD     		pop	{r4, r5, r6, pc}
 1210              		.cfi_endproc
 1211              	.LFE91:
 1212              		.size	user_i2c_read, .-user_i2c_read
 1213 003e 00BF     		.section	.text.bme680_get_regs,"ax",%progbits
 1214              		.align	2
 1215              		.global	bme680_get_regs
 1216              		.thumb
 1217              		.thumb_func
 1218              		.type	bme680_get_regs, %function
 1219              	bme680_get_regs:
 1220              	.LFB64:
 312:bme680.c      **** 	int8_t rslt;
 1221              		.loc 1 312 0
 1222              		.cfi_startproc
 1223              		@ args = 0, pretend = 0, frame = 0
 1224              		@ frame_needed = 0, uses_anonymous_args = 0
 1225              	.LVL178:
 1226 0000 2DE9F843 		push	{r3, r4, r5, r6, r7, r8, r9, lr}
 1227              		.cfi_def_cfa_offset 32
 1228              		.cfi_offset 3, -32
 1229              		.cfi_offset 4, -28
 1230              		.cfi_offset 5, -24
 1231              		.cfi_offset 6, -20
 1232              		.cfi_offset 7, -16
 1233              		.cfi_offset 8, -12
 1234              		.cfi_offset 9, -8
 1235              		.cfi_offset 14, -4
 1236 0004 0646     		mov	r6, r0
 1237 0006 8846     		mov	r8, r1
 1238 0008 9146     		mov	r9, r2
 1239 000a 1C46     		mov	r4, r3
 316:bme680.c      **** 	if (rslt == BME680_OK) {
 1240              		.loc 1 316 0
 1241 000c 1846     		mov	r0, r3
 1242              	.LVL179:
 1243 000e FFF7FEFF 		bl	null_ptr_check
 1244              	.LVL180:
 317:bme680.c      **** 		if (dev->intf == BME680_SPI_INTF) {
 1245              		.loc 1 317 0
 1246 0012 0546     		mov	r5, r0
 1247 0014 A0B9     		cbnz	r0, .L78
 318:bme680.c      **** 			/* Set the memory page */
 1248              		.loc 1 318 0
 1249 0016 A378     		ldrb	r3, [r4, #2]	@ zero_extendqisi2
 1250 0018 3BB9     		cbnz	r3, .L79
 320:bme680.c      **** 			if (rslt == BME680_OK)
 1251              		.loc 1 320 0
 1252 001a 2146     		mov	r1, r4
 1253 001c 3046     		mov	r0, r6
 1254              	.LVL181:
ARM GAS  C:\Users\adria\AppData\Local\Temp\cciNfgxb.s 			page 52


 1255 001e FFF7FEFF 		bl	set_mem_page
 1256              	.LVL182:
 321:bme680.c      **** 				reg_addr = reg_addr | BME680_SPI_RD_MSK;
 1257              		.loc 1 321 0
 1258 0022 0546     		mov	r5, r0
 1259 0024 08B9     		cbnz	r0, .L79
 322:bme680.c      **** 		}
 1260              		.loc 1 322 0
 1261 0026 46F08006 		orr	r6, r6, #128
 1262              	.LVL183:
 1263              	.L79:
 324:bme680.c      **** 		if (dev->com_rslt != 0)
 1264              		.loc 1 324 0
 1265 002a A76C     		ldr	r7, [r4, #72]
 1266 002c 4B46     		mov	r3, r9
 1267 002e 4246     		mov	r2, r8
 1268 0030 3146     		mov	r1, r6
 1269 0032 6078     		ldrb	r0, [r4, #1]	@ zero_extendqisi2
 1270 0034 B847     		blx	r7
 1271              	.LVL184:
 1272 0036 84F85400 		strb	r0, [r4, #84]
 325:bme680.c      **** 			rslt = BME680_E_COM_FAIL;
 1273              		.loc 1 325 0
 1274 003a 08B1     		cbz	r0, .L78
 326:bme680.c      **** 	}
 1275              		.loc 1 326 0
 1276 003c 6FF00105 		mvn	r5, #1
 1277              	.LVL185:
 1278              	.L78:
 330:bme680.c      **** 
 1279              		.loc 1 330 0
 1280 0040 2846     		mov	r0, r5
 1281 0042 BDE8F883 		pop	{r3, r4, r5, r6, r7, r8, r9, pc}
 1282              		.cfi_endproc
 1283              	.LFE64:
 1284              		.size	bme680_get_regs, .-bme680_get_regs
 1285 0046 00BF     		.section	.text.get_calib_data,"ax",%progbits
 1286              		.align	2
 1287              		.thumb
 1288              		.thumb_func
 1289              		.type	get_calib_data, %function
 1290              	get_calib_data:
 1291              	.LFB74:
 725:bme680.c      **** 	int8_t rslt;
 1292              		.loc 1 725 0
 1293              		.cfi_startproc
 1294              		@ args = 0, pretend = 0, frame = 48
 1295              		@ frame_needed = 0, uses_anonymous_args = 0
 1296              	.LVL186:
 1297 0000 10B5     		push	{r4, lr}
 1298              		.cfi_def_cfa_offset 8
 1299              		.cfi_offset 4, -8
 1300              		.cfi_offset 14, -4
 1301 0002 8CB0     		sub	sp, sp, #48
 1302              		.cfi_def_cfa_offset 56
 1303 0004 0446     		mov	r4, r0
 727:bme680.c      **** 	uint8_t temp_var = 0; /* Temporary variable */
ARM GAS  C:\Users\adria\AppData\Local\Temp\cciNfgxb.s 			page 53


 1304              		.loc 1 727 0
 1305 0006 2922     		movs	r2, #41
 1306 0008 0021     		movs	r1, #0
 1307 000a 01A8     		add	r0, sp, #4
 1308              	.LVL187:
 1309 000c FFF7FEFF 		bl	memset
 1310              	.LVL188:
 728:bme680.c      **** 
 1311              		.loc 1 728 0
 1312 0010 0023     		movs	r3, #0
 1313 0012 8DF80330 		strb	r3, [sp, #3]
 731:bme680.c      **** 	if (rslt == BME680_OK) {
 1314              		.loc 1 731 0
 1315 0016 2046     		mov	r0, r4
 1316 0018 FFF7FEFF 		bl	null_ptr_check
 1317              	.LVL189:
 732:bme680.c      **** 		rslt = bme680_get_regs(BME680_COEFF_ADDR1, coeff_array, BME680_COEFF_ADDR1_LEN, dev);
 1318              		.loc 1 732 0
 1319 001c 0346     		mov	r3, r0
 1320 001e 0028     		cmp	r0, #0
 1321 0020 40F0B080 		bne	.L83
 733:bme680.c      **** 		/* Append the second half in the same array */
 1322              		.loc 1 733 0
 1323 0024 2346     		mov	r3, r4
 1324 0026 1922     		movs	r2, #25
 1325 0028 01A9     		add	r1, sp, #4
 1326 002a 8920     		movs	r0, #137
 1327              	.LVL190:
 1328 002c FFF7FEFF 		bl	bme680_get_regs
 1329              	.LVL191:
 735:bme680.c      **** 			rslt = bme680_get_regs(BME680_COEFF_ADDR2, &coeff_array[BME680_COEFF_ADDR1_LEN]
 1330              		.loc 1 735 0
 1331 0030 0346     		mov	r3, r0
 1332 0032 38B9     		cbnz	r0, .L84
 736:bme680.c      **** 			, BME680_COEFF_ADDR2_LEN, dev);
 1333              		.loc 1 736 0
 1334 0034 2346     		mov	r3, r4
 1335 0036 1022     		movs	r2, #16
 1336 0038 0DF11D01 		add	r1, sp, #29
 1337 003c E120     		movs	r0, #225
 1338              	.LVL192:
 1339 003e FFF7FEFF 		bl	bme680_get_regs
 1340              	.LVL193:
 1341 0042 0346     		mov	r3, r0
 1342              	.LVL194:
 1343              	.L84:
 740:bme680.c      **** 			coeff_array[BME680_T1_LSB_REG]));
 1344              		.loc 1 740 0
 1345 0044 9DF82610 		ldrb	r1, [sp, #38]	@ zero_extendqisi2
 1346 0048 9DF82520 		ldrb	r2, [sp, #37]	@ zero_extendqisi2
 1347 004c 42EA0122 		orr	r2, r2, r1, lsl #8
 1348 0050 E282     		strh	r2, [r4, #22]	@ movhi
 742:bme680.c      **** 			coeff_array[BME680_T2_LSB_REG]));
 1349              		.loc 1 742 0
 1350 0052 9DF80610 		ldrb	r1, [sp, #6]	@ zero_extendqisi2
 1351 0056 9DF80520 		ldrb	r2, [sp, #5]	@ zero_extendqisi2
 1352 005a 42EA0122 		orr	r2, r2, r1, lsl #8
ARM GAS  C:\Users\adria\AppData\Local\Temp\cciNfgxb.s 			page 54


 1353 005e 2283     		strh	r2, [r4, #24]	@ movhi
 744:bme680.c      **** 
 1354              		.loc 1 744 0
 1355 0060 9DF90720 		ldrsb	r2, [sp, #7]
 1356 0064 A276     		strb	r2, [r4, #26]
 747:bme680.c      **** 			coeff_array[BME680_P1_LSB_REG]));
 1357              		.loc 1 747 0
 1358 0066 9DF80A10 		ldrb	r1, [sp, #10]	@ zero_extendqisi2
 1359 006a 9DF80920 		ldrb	r2, [sp, #9]	@ zero_extendqisi2
 1360 006e 42EA0122 		orr	r2, r2, r1, lsl #8
 1361 0072 A283     		strh	r2, [r4, #28]	@ movhi
 749:bme680.c      **** 			coeff_array[BME680_P2_LSB_REG]));
 1362              		.loc 1 749 0
 1363 0074 9DF80C10 		ldrb	r1, [sp, #12]	@ zero_extendqisi2
 1364 0078 9DF80B20 		ldrb	r2, [sp, #11]	@ zero_extendqisi2
 1365 007c 42EA0122 		orr	r2, r2, r1, lsl #8
 1366 0080 E283     		strh	r2, [r4, #30]	@ movhi
 751:bme680.c      **** 		dev->calib.par_p4 = (int16_t) (BME680_CONCAT_BYTES(coeff_array[BME680_P4_MSB_REG],
 1367              		.loc 1 751 0
 1368 0082 9DF90D20 		ldrsb	r2, [sp, #13]
 1369 0086 84F82020 		strb	r2, [r4, #32]
 752:bme680.c      **** 			coeff_array[BME680_P4_LSB_REG]));
 1370              		.loc 1 752 0
 1371 008a 9DF81010 		ldrb	r1, [sp, #16]	@ zero_extendqisi2
 1372 008e 9DF80F20 		ldrb	r2, [sp, #15]	@ zero_extendqisi2
 1373 0092 42EA0122 		orr	r2, r2, r1, lsl #8
 1374 0096 6284     		strh	r2, [r4, #34]	@ movhi
 754:bme680.c      **** 			coeff_array[BME680_P5_LSB_REG]));
 1375              		.loc 1 754 0
 1376 0098 9DF81210 		ldrb	r1, [sp, #18]	@ zero_extendqisi2
 1377 009c 9DF81120 		ldrb	r2, [sp, #17]	@ zero_extendqisi2
 1378 00a0 42EA0122 		orr	r2, r2, r1, lsl #8
 1379 00a4 A284     		strh	r2, [r4, #36]	@ movhi
 756:bme680.c      **** 		dev->calib.par_p7 = (int8_t) (coeff_array[BME680_P7_REG]);
 1380              		.loc 1 756 0
 1381 00a6 9DF91420 		ldrsb	r2, [sp, #20]
 1382 00aa 84F82620 		strb	r2, [r4, #38]
 757:bme680.c      **** 		dev->calib.par_p8 = (int16_t) (BME680_CONCAT_BYTES(coeff_array[BME680_P8_MSB_REG],
 1383              		.loc 1 757 0
 1384 00ae 9DF91320 		ldrsb	r2, [sp, #19]
 1385 00b2 84F82720 		strb	r2, [r4, #39]
 758:bme680.c      **** 			coeff_array[BME680_P8_LSB_REG]));
 1386              		.loc 1 758 0
 1387 00b6 9DF81810 		ldrb	r1, [sp, #24]	@ zero_extendqisi2
 1388 00ba 9DF81720 		ldrb	r2, [sp, #23]	@ zero_extendqisi2
 1389 00be 42EA0122 		orr	r2, r2, r1, lsl #8
 1390 00c2 2285     		strh	r2, [r4, #40]	@ movhi
 760:bme680.c      **** 			coeff_array[BME680_P9_LSB_REG]));
 1391              		.loc 1 760 0
 1392 00c4 9DF81A10 		ldrb	r1, [sp, #26]	@ zero_extendqisi2
 1393 00c8 9DF81920 		ldrb	r2, [sp, #25]	@ zero_extendqisi2
 1394 00cc 42EA0122 		orr	r2, r2, r1, lsl #8
 1395 00d0 6285     		strh	r2, [r4, #42]	@ movhi
 762:bme680.c      **** 
 1396              		.loc 1 762 0
 1397 00d2 9DF81B20 		ldrb	r2, [sp, #27]	@ zero_extendqisi2
 1398 00d6 84F82C20 		strb	r2, [r4, #44]
ARM GAS  C:\Users\adria\AppData\Local\Temp\cciNfgxb.s 			page 55


 765:bme680.c      **** 			| (coeff_array[BME680_H1_LSB_REG] & BME680_BIT_H1_DATA_MSK));
 1399              		.loc 1 765 0
 1400 00da 9DF81F00 		ldrb	r0, [sp, #31]	@ zero_extendqisi2
 766:bme680.c      **** 		dev->calib.par_h2 = (uint16_t) (((uint16_t) coeff_array[BME680_H2_MSB_REG] << BME680_HUM_REG_SHIF
 1401              		.loc 1 766 0
 1402 00de 9DF81E20 		ldrb	r2, [sp, #30]	@ zero_extendqisi2
 765:bme680.c      **** 			| (coeff_array[BME680_H1_LSB_REG] & BME680_BIT_H1_DATA_MSK));
 1403              		.loc 1 765 0
 1404 00e2 02F00F01 		and	r1, r2, #15
 1405 00e6 41EA0011 		orr	r1, r1, r0, lsl #4
 1406 00ea 2181     		strh	r1, [r4, #8]	@ movhi
 767:bme680.c      **** 			| ((coeff_array[BME680_H2_LSB_REG]) >> BME680_HUM_REG_SHIFT_VAL));
 1407              		.loc 1 767 0
 1408 00ec 9DF81D10 		ldrb	r1, [sp, #29]	@ zero_extendqisi2
 1409 00f0 1209     		lsrs	r2, r2, #4
 1410 00f2 42EA0112 		orr	r2, r2, r1, lsl #4
 1411 00f6 6281     		strh	r2, [r4, #10]	@ movhi
 769:bme680.c      **** 		dev->calib.par_h4 = (int8_t) coeff_array[BME680_H4_REG];
 1412              		.loc 1 769 0
 1413 00f8 9DF92020 		ldrsb	r2, [sp, #32]
 1414 00fc 2273     		strb	r2, [r4, #12]
 770:bme680.c      **** 		dev->calib.par_h5 = (int8_t) coeff_array[BME680_H5_REG];
 1415              		.loc 1 770 0
 1416 00fe 9DF92120 		ldrsb	r2, [sp, #33]
 1417 0102 6273     		strb	r2, [r4, #13]
 771:bme680.c      **** 		dev->calib.par_h6 = (uint8_t) coeff_array[BME680_H6_REG];
 1418              		.loc 1 771 0
 1419 0104 9DF92220 		ldrsb	r2, [sp, #34]
 1420 0108 A273     		strb	r2, [r4, #14]
 772:bme680.c      **** 		dev->calib.par_h7 = (int8_t) coeff_array[BME680_H7_REG];
 1421              		.loc 1 772 0
 1422 010a 9DF82320 		ldrb	r2, [sp, #35]	@ zero_extendqisi2
 1423 010e E273     		strb	r2, [r4, #15]
 773:bme680.c      **** 
 1424              		.loc 1 773 0
 1425 0110 9DF92420 		ldrsb	r2, [sp, #36]
 1426 0114 2274     		strb	r2, [r4, #16]
 776:bme680.c      **** 		dev->calib.par_gh2 = (int16_t) (BME680_CONCAT_BYTES(coeff_array[BME680_GH2_MSB_REG],
 1427              		.loc 1 776 0
 1428 0116 9DF92920 		ldrsb	r2, [sp, #41]
 1429 011a 6274     		strb	r2, [r4, #17]
 777:bme680.c      **** 			coeff_array[BME680_GH2_LSB_REG]));
 1430              		.loc 1 777 0
 1431 011c 9DF82810 		ldrb	r1, [sp, #40]	@ zero_extendqisi2
 1432 0120 9DF82720 		ldrb	r2, [sp, #39]	@ zero_extendqisi2
 1433 0124 42EA0122 		orr	r2, r2, r1, lsl #8
 1434 0128 6282     		strh	r2, [r4, #18]	@ movhi
 779:bme680.c      **** 
 1435              		.loc 1 779 0
 1436 012a 9DF92A20 		ldrsb	r2, [sp, #42]
 1437 012e 2275     		strb	r2, [r4, #20]
 782:bme680.c      **** 			rslt = bme680_get_regs(BME680_ADDR_RES_HEAT_RANGE_ADDR, &temp_var, 1, dev);
 1438              		.loc 1 782 0
 1439 0130 1BBB     		cbnz	r3, .L85
 783:bme680.c      **** 
 1440              		.loc 1 783 0
 1441 0132 2346     		mov	r3, r4
ARM GAS  C:\Users\adria\AppData\Local\Temp\cciNfgxb.s 			page 56


 1442              	.LVL195:
 1443 0134 0122     		movs	r2, #1
 1444 0136 0DF10301 		add	r1, sp, #3
 1445 013a 0220     		movs	r0, #2
 1446 013c FFF7FEFF 		bl	bme680_get_regs
 1447              	.LVL196:
 785:bme680.c      **** 			if (rslt == BME680_OK) {
 1448              		.loc 1 785 0
 1449 0140 9DF80330 		ldrb	r3, [sp, #3]	@ zero_extendqisi2
 1450 0144 03F03003 		and	r3, r3, #48
 1451 0148 1B11     		asrs	r3, r3, #4
 1452 014a 84F83430 		strb	r3, [r4, #52]
 786:bme680.c      **** 				rslt = bme680_get_regs(BME680_ADDR_RES_HEAT_VAL_ADDR, &temp_var, 1, dev);
 1453              		.loc 1 786 0
 1454 014e 0346     		mov	r3, r0
 1455 0150 98B9     		cbnz	r0, .L85
 787:bme680.c      **** 
 1456              		.loc 1 787 0
 1457 0152 2346     		mov	r3, r4
 1458 0154 0122     		movs	r2, #1
 1459 0156 0DF10301 		add	r1, sp, #3
 1460 015a FFF7FEFF 		bl	bme680_get_regs
 1461              	.LVL197:
 789:bme680.c      **** 				if (rslt == BME680_OK)
 1462              		.loc 1 789 0
 1463 015e 9DF90330 		ldrsb	r3, [sp, #3]
 1464 0162 84F83530 		strb	r3, [r4, #53]
 790:bme680.c      **** 					rslt = bme680_get_regs(BME680_ADDR_RANGE_SW_ERR_ADDR, &temp_var, 1, dev);
 1465              		.loc 1 790 0
 1466 0166 0346     		mov	r3, r0
 1467 0168 38B9     		cbnz	r0, .L85
 791:bme680.c      **** 			}
 1468              		.loc 1 791 0
 1469 016a 2346     		mov	r3, r4
 1470 016c 0122     		movs	r2, #1
 1471 016e 0DF10301 		add	r1, sp, #3
 1472 0172 0420     		movs	r0, #4
 1473              	.LVL198:
 1474 0174 FFF7FEFF 		bl	bme680_get_regs
 1475              	.LVL199:
 1476 0178 0346     		mov	r3, r0
 1477              	.LVL200:
 1478              	.L85:
 794:bme680.c      **** 	}
 1479              		.loc 1 794 0
 1480 017a 9DF90320 		ldrsb	r2, [sp, #3]
 1481 017e 1211     		asrs	r2, r2, #4
 1482 0180 84F83620 		strb	r2, [r4, #54]
 1483              	.LVL201:
 1484              	.L83:
 798:bme680.c      **** 
 1485              		.loc 1 798 0
 1486 0184 1846     		mov	r0, r3
 1487 0186 0CB0     		add	sp, sp, #48
 1488              		.cfi_def_cfa_offset 8
 1489              		@ sp needed
 1490 0188 10BD     		pop	{r4, pc}
ARM GAS  C:\Users\adria\AppData\Local\Temp\cciNfgxb.s 			page 57


 1491              		.cfi_endproc
 1492              	.LFE74:
 1493              		.size	get_calib_data, .-get_calib_data
 1494 018a 00BF     		.section	.text.get_gas_config,"ax",%progbits
 1495              		.align	2
 1496              		.thumb
 1497              		.thumb_func
 1498              		.type	get_gas_config, %function
 1499              	get_gas_config:
 1500              	.LFB76:
 836:bme680.c      **** 	int8_t rslt;
 1501              		.loc 1 836 0
 1502              		.cfi_startproc
 1503              		@ args = 0, pretend = 0, frame = 8
 1504              		@ frame_needed = 0, uses_anonymous_args = 0
 1505              	.LVL202:
 1506 0000 10B5     		push	{r4, lr}
 1507              		.cfi_def_cfa_offset 8
 1508              		.cfi_offset 4, -8
 1509              		.cfi_offset 14, -4
 1510 0002 82B0     		sub	sp, sp, #8
 1511              		.cfi_def_cfa_offset 16
 1512 0004 0446     		mov	r4, r0
 1513              	.LVL203:
 841:bme680.c      **** 
 1514              		.loc 1 841 0
 1515 0006 0023     		movs	r3, #0
 1516 0008 8DF80730 		strb	r3, [sp, #7]
 844:bme680.c      **** 	if (rslt == BME680_OK) {
 1517              		.loc 1 844 0
 1518 000c FFF7FEFF 		bl	null_ptr_check
 1519              	.LVL204:
 845:bme680.c      **** 		if (BME680_SPI_INTF == dev->intf) {
 1520              		.loc 1 845 0
 1521 0010 0346     		mov	r3, r0
 1522 0012 00BB     		cbnz	r0, .L89
 846:bme680.c      **** 			/* Memory page switch the SPI address*/
 1523              		.loc 1 846 0
 1524 0014 A278     		ldrb	r2, [r4, #2]	@ zero_extendqisi2
 1525 0016 22B9     		cbnz	r2, .L90
 848:bme680.c      **** 		}
 1526              		.loc 1 848 0
 1527 0018 2146     		mov	r1, r4
 1528 001a 5A20     		movs	r0, #90
 1529              	.LVL205:
 1530 001c FFF7FEFF 		bl	set_mem_page
 1531              	.LVL206:
 1532 0020 0346     		mov	r3, r0
 1533              	.LVL207:
 1534              	.L90:
 851:bme680.c      **** 			rslt = bme680_get_regs(reg_addr1, &reg_data, 1, dev);
 1535              		.loc 1 851 0
 1536 0022 C3B9     		cbnz	r3, .L89
 852:bme680.c      **** 			if (rslt == BME680_OK) {
 1537              		.loc 1 852 0
 1538 0024 2346     		mov	r3, r4
 1539              	.LVL208:
ARM GAS  C:\Users\adria\AppData\Local\Temp\cciNfgxb.s 			page 58


 1540 0026 0122     		movs	r2, #1
 1541 0028 0DF10701 		add	r1, sp, #7
 1542 002c 5A20     		movs	r0, #90
 1543 002e FFF7FEFF 		bl	bme680_get_regs
 1544              	.LVL209:
 853:bme680.c      **** 				dev->gas_sett.heatr_temp = reg_data;
 1545              		.loc 1 853 0
 1546 0032 0346     		mov	r3, r0
 1547 0034 78B9     		cbnz	r0, .L89
 854:bme680.c      **** 				rslt = bme680_get_regs(reg_addr2, &reg_data, 1, dev);
 1548              		.loc 1 854 0
 1549 0036 02A9     		add	r1, sp, #8
 1550 0038 11F8013D 		ldrb	r3, [r1, #-1]!	@ zero_extendqisi2
 1551 003c A4F84030 		strh	r3, [r4, #64]	@ movhi
 855:bme680.c      **** 				if (rslt == BME680_OK) {
 1552              		.loc 1 855 0
 1553 0040 2346     		mov	r3, r4
 1554 0042 0122     		movs	r2, #1
 1555 0044 6420     		movs	r0, #100
 1556              	.LVL210:
 1557 0046 FFF7FEFF 		bl	bme680_get_regs
 1558              	.LVL211:
 856:bme680.c      **** 					/* Heating duration register value */
 1559              		.loc 1 856 0
 1560 004a 0346     		mov	r3, r0
 1561 004c 18B9     		cbnz	r0, .L89
 858:bme680.c      **** 				}
 1562              		.loc 1 858 0
 1563 004e 9DF80720 		ldrb	r2, [sp, #7]	@ zero_extendqisi2
 1564 0052 A4F84220 		strh	r2, [r4, #66]	@ movhi
 1565              	.LVL212:
 1566              	.L89:
 865:bme680.c      **** 
 1567              		.loc 1 865 0
 1568 0056 1846     		mov	r0, r3
 1569 0058 02B0     		add	sp, sp, #8
 1570              		.cfi_def_cfa_offset 8
 1571              		@ sp needed
 1572 005a 10BD     		pop	{r4, pc}
 1573              		.cfi_endproc
 1574              	.LFE76:
 1575              		.size	get_gas_config, .-get_gas_config
 1576              		.section	.text.read_field_data,"ax",%progbits
 1577              		.align	2
 1578              		.thumb
 1579              		.thumb_func
 1580              		.type	read_field_data, %function
 1581              	read_field_data:
 1582              	.LFB83:
1206:bme680.c      **** 	int8_t rslt;
 1583              		.loc 1 1206 0
 1584              		.cfi_startproc
 1585              		@ args = 0, pretend = 0, frame = 16
 1586              		@ frame_needed = 0, uses_anonymous_args = 0
 1587              	.LVL213:
 1588 0000 2DE9F04F 		push	{r4, r5, r6, r7, r8, r9, r10, fp, lr}
 1589              		.cfi_def_cfa_offset 36
ARM GAS  C:\Users\adria\AppData\Local\Temp\cciNfgxb.s 			page 59


 1590              		.cfi_offset 4, -36
 1591              		.cfi_offset 5, -32
 1592              		.cfi_offset 6, -28
 1593              		.cfi_offset 7, -24
 1594              		.cfi_offset 8, -20
 1595              		.cfi_offset 9, -16
 1596              		.cfi_offset 10, -12
 1597              		.cfi_offset 11, -8
 1598              		.cfi_offset 14, -4
 1599 0004 85B0     		sub	sp, sp, #20
 1600              		.cfi_def_cfa_offset 56
 1601 0006 0746     		mov	r7, r0
 1602 0008 8A46     		mov	r10, r1
1208:bme680.c      **** 	uint8_t gas_range;
 1603              		.loc 1 1208 0
 1604 000a 0023     		movs	r3, #0
 1605 000c 0093     		str	r3, [sp]
 1606 000e 0193     		str	r3, [sp, #4]
 1607 0010 0293     		str	r3, [sp, #8]
 1608 0012 CDF80B30 		str	r3, [sp, #11]	@ unaligned
 1609              	.LVL214:
1217:bme680.c      **** 	do {
 1610              		.loc 1 1217 0
 1611 0016 0846     		mov	r0, r1
 1612              	.LVL215:
 1613 0018 FFF7FEFF 		bl	null_ptr_check
 1614              	.LVL216:
 1615 001c 0646     		mov	r6, r0
 1616              	.LVL217:
1214:bme680.c      **** 
 1617              		.loc 1 1214 0
 1618 001e 0A24     		movs	r4, #10
 1619              	.LVL218:
 1620              	.L96:
1219:bme680.c      **** 			rslt = bme680_get_regs(((uint8_t) (BME680_FIELD0_ADDR)), buff, (uint16_t) BME680_FIELD_LENGTH,
 1621              		.loc 1 1219 0
 1622 0020 002E     		cmp	r6, #0
 1623 0022 59D1     		bne	.L93
1220:bme680.c      **** 				dev);
 1624              		.loc 1 1220 0
 1625 0024 5346     		mov	r3, r10
 1626 0026 0F22     		movs	r2, #15
 1627 0028 6946     		mov	r1, sp
 1628 002a 1D20     		movs	r0, #29
 1629 002c FFF7FEFF 		bl	bme680_get_regs
 1630              	.LVL219:
 1631 0030 0646     		mov	r6, r0
 1632              	.LVL220:
1223:bme680.c      **** 			data->gas_index = buff[0] & BME680_GAS_INDEX_MSK;
 1633              		.loc 1 1223 0
 1634 0032 9DF80030 		ldrb	r3, [sp]	@ zero_extendqisi2
 1635 0036 03F0800E 		and	lr, r3, #128
1224:bme680.c      **** 			data->meas_index = buff[1];
 1636              		.loc 1 1224 0
 1637 003a 03F00F03 		and	r3, r3, #15
 1638 003e 7B70     		strb	r3, [r7, #1]
1225:bme680.c      **** 
ARM GAS  C:\Users\adria\AppData\Local\Temp\cciNfgxb.s 			page 60


 1639              		.loc 1 1225 0
 1640 0040 9DF80130 		ldrb	r3, [sp, #1]	@ zero_extendqisi2
 1641 0044 BB70     		strb	r3, [r7, #2]
1228:bme680.c      **** 				| ((uint32_t) buff[4] / 16));
 1642              		.loc 1 1228 0
 1643 0046 9DF80250 		ldrb	r5, [sp, #2]	@ zero_extendqisi2
 1644 004a 9DF80330 		ldrb	r3, [sp, #3]	@ zero_extendqisi2
 1645 004e 1B01     		lsls	r3, r3, #4
 1646 0050 43EA0533 		orr	r3, r3, r5, lsl #12
1229:bme680.c      **** 			adc_temp = (uint32_t) (((uint32_t) buff[5] * 4096) | ((uint32_t) buff[6] * 16)
 1647              		.loc 1 1229 0
 1648 0054 9DF80450 		ldrb	r5, [sp, #4]	@ zero_extendqisi2
1228:bme680.c      **** 				| ((uint32_t) buff[4] / 16));
 1649              		.loc 1 1228 0
 1650 0058 43EA1515 		orr	r5, r3, r5, lsr #4
 1651              	.LVL221:
1230:bme680.c      **** 				| ((uint32_t) buff[7] / 16));
 1652              		.loc 1 1230 0
 1653 005c 9DF80500 		ldrb	r0, [sp, #5]	@ zero_extendqisi2
 1654 0060 9DF80610 		ldrb	r1, [sp, #6]	@ zero_extendqisi2
 1655 0064 0901     		lsls	r1, r1, #4
 1656 0066 41EA0031 		orr	r1, r1, r0, lsl #12
1231:bme680.c      **** 			adc_hum = (uint16_t) (((uint32_t) buff[8] * 256) | (uint32_t) buff[9]);
 1657              		.loc 1 1231 0
 1658 006a 9DF80700 		ldrb	r0, [sp, #7]	@ zero_extendqisi2
1230:bme680.c      **** 				| ((uint32_t) buff[7] / 16));
 1659              		.loc 1 1230 0
 1660 006e 41EA1010 		orr	r0, r1, r0, lsr #4
 1661              	.LVL222:
1232:bme680.c      **** 			adc_gas_res = (uint16_t) ((uint32_t) buff[13] * 4 | (((uint32_t) buff[14]) / 64));
 1662              		.loc 1 1232 0
 1663 0072 9DF80890 		ldrb	r9, [sp, #8]	@ zero_extendqisi2
 1664 0076 9DF80930 		ldrb	r3, [sp, #9]	@ zero_extendqisi2
 1665 007a 43EA0929 		orr	r9, r3, r9, lsl #8
 1666              	.LVL223:
1233:bme680.c      **** 			gas_range = buff[14] & BME680_GAS_RANGE_MSK;
 1667              		.loc 1 1233 0
 1668 007e 9DF80D80 		ldrb	r8, [sp, #13]	@ zero_extendqisi2
 1669 0082 9DF80E30 		ldrb	r3, [sp, #14]	@ zero_extendqisi2
 1670 0086 9A09     		lsrs	r2, r3, #6
 1671 0088 42EA8808 		orr	r8, r2, r8, lsl #2
 1672              	.LVL224:
1234:bme680.c      **** 
 1673              		.loc 1 1234 0
 1674 008c 03F00F0B 		and	fp, r3, #15
 1675              	.LVL225:
1236:bme680.c      **** 			data->status |= buff[14] & BME680_HEAT_STAB_MSK;
 1676              		.loc 1 1236 0
 1677 0090 03F02002 		and	r2, r3, #32
 1678 0094 4EEA0202 		orr	r2, lr, r2
 1679 0098 52B2     		sxtb	r2, r2
1237:bme680.c      **** 
 1680              		.loc 1 1237 0
 1681 009a 03F01003 		and	r3, r3, #16
 1682 009e 1343     		orrs	r3, r3, r2
 1683 00a0 3B70     		strb	r3, [r7]
1239:bme680.c      **** 				data->temperature = calc_temperature(adc_temp, dev);
ARM GAS  C:\Users\adria\AppData\Local\Temp\cciNfgxb.s 			page 61


 1684              		.loc 1 1239 0
 1685 00a2 002B     		cmp	r3, #0
 1686 00a4 14DA     		bge	.L94
1240:bme680.c      **** 				data->pressure = calc_pressure(adc_pres, dev);
 1687              		.loc 1 1240 0
 1688 00a6 5146     		mov	r1, r10
 1689 00a8 FFF7FEFF 		bl	calc_temperature
 1690              	.LVL226:
 1691 00ac B880     		strh	r0, [r7, #4]	@ movhi
1241:bme680.c      **** 				data->humidity = calc_humidity(adc_hum, dev);
 1692              		.loc 1 1241 0
 1693 00ae 5146     		mov	r1, r10
 1694 00b0 2846     		mov	r0, r5
 1695 00b2 FFF7FEFF 		bl	calc_pressure
 1696              	.LVL227:
 1697 00b6 B860     		str	r0, [r7, #8]
1242:bme680.c      **** 				data->gas_resistance = calc_gas_resistance(adc_gas_res, gas_range, dev);
 1698              		.loc 1 1242 0
 1699 00b8 5146     		mov	r1, r10
 1700 00ba 4846     		mov	r0, r9
 1701 00bc FFF7FEFF 		bl	calc_humidity
 1702              	.LVL228:
 1703 00c0 F860     		str	r0, [r7, #12]
1243:bme680.c      **** 				break;
 1704              		.loc 1 1243 0
 1705 00c2 5246     		mov	r2, r10
 1706 00c4 5946     		mov	r1, fp
 1707 00c6 4046     		mov	r0, r8
 1708 00c8 FFF7FEFF 		bl	calc_gas_resistance
 1709              	.LVL229:
 1710 00cc 3861     		str	r0, [r7, #16]
1244:bme680.c      **** 			}
 1711              		.loc 1 1244 0
 1712 00ce 07E0     		b	.L95
 1713              	.LVL230:
 1714              	.L94:
1247:bme680.c      **** 		}
 1715              		.loc 1 1247 0
 1716 00d0 DAF85030 		ldr	r3, [r10, #80]
 1717 00d4 0A20     		movs	r0, #10
 1718              	.LVL231:
 1719 00d6 9847     		blx	r3
 1720              	.LVL232:
 1721              	.L93:
1249:bme680.c      **** 	} while (tries);
 1722              		.loc 1 1249 0
 1723 00d8 631E     		subs	r3, r4, #1
 1724              	.LVL233:
1250:bme680.c      **** 
 1725              		.loc 1 1250 0
 1726 00da 13F0FF04 		ands	r4, r3, #255
 1727 00de 9FD1     		bne	.L96
 1728              	.LVL234:
 1729              	.L95:
1252:bme680.c      **** 		rslt = BME680_W_NO_NEW_DATA;
 1730              		.loc 1 1252 0
 1731 00e0 04B9     		cbnz	r4, .L97
ARM GAS  C:\Users\adria\AppData\Local\Temp\cciNfgxb.s 			page 62


1253:bme680.c      **** 
 1732              		.loc 1 1253 0
 1733 00e2 0226     		movs	r6, #2
 1734              	.LVL235:
 1735              	.L97:
1256:bme680.c      **** 
 1736              		.loc 1 1256 0
 1737 00e4 3046     		mov	r0, r6
 1738 00e6 05B0     		add	sp, sp, #20
 1739              		.cfi_def_cfa_offset 36
 1740              		@ sp needed
 1741 00e8 BDE8F08F 		pop	{r4, r5, r6, r7, r8, r9, r10, fp, pc}
 1742              		.cfi_endproc
 1743              	.LFE83:
 1744              		.size	read_field_data, .-read_field_data
 1745              		.section	.text.bme680_set_regs,"ax",%progbits
 1746              		.align	2
 1747              		.global	bme680_set_regs
 1748              		.thumb
 1749              		.thumb_func
 1750              		.type	bme680_set_regs, %function
 1751              	bme680_set_regs:
 1752              	.LFB65:
 337:bme680.c      **** 	int8_t rslt;
 1753              		.loc 1 337 0
 1754              		.cfi_startproc
 1755              		@ args = 0, pretend = 0, frame = 40
 1756              		@ frame_needed = 0, uses_anonymous_args = 0
 1757              	.LVL236:
 1758 0000 2DE9F043 		push	{r4, r5, r6, r7, r8, r9, lr}
 1759              		.cfi_def_cfa_offset 28
 1760              		.cfi_offset 4, -28
 1761              		.cfi_offset 5, -24
 1762              		.cfi_offset 6, -20
 1763              		.cfi_offset 7, -16
 1764              		.cfi_offset 8, -12
 1765              		.cfi_offset 9, -8
 1766              		.cfi_offset 14, -4
 1767 0004 8BB0     		sub	sp, sp, #44
 1768              		.cfi_def_cfa_offset 72
 1769 0006 0646     		mov	r6, r0
 1770 0008 8846     		mov	r8, r1
 1771 000a 1746     		mov	r7, r2
 1772 000c 1D46     		mov	r5, r3
 340:bme680.c      **** 	uint16_t index;
 1773              		.loc 1 340 0
 1774 000e 2822     		movs	r2, #40
 1775              	.LVL237:
 1776 0010 0021     		movs	r1, #0
 1777              	.LVL238:
 1778 0012 6846     		mov	r0, sp
 1779              	.LVL239:
 1780 0014 FFF7FEFF 		bl	memset
 1781              	.LVL240:
 344:bme680.c      **** 	if (rslt == BME680_OK) {
 1782              		.loc 1 344 0
 1783 0018 2846     		mov	r0, r5
ARM GAS  C:\Users\adria\AppData\Local\Temp\cciNfgxb.s 			page 63


 1784 001a FFF7FEFF 		bl	null_ptr_check
 1785              	.LVL241:
 345:bme680.c      **** 		if ((len > 0) && (len < BME680_TMP_BUFFER_LENGTH / 2)) {
 1786              		.loc 1 345 0
 1787 001e 8146     		mov	r9, r0
 1788 0020 0028     		cmp	r0, #0
 1789 0022 3DD1     		bne	.L101
 346:bme680.c      **** 			/* Interleave the 2 arrays */
 1790              		.loc 1 346 0
 1791 0024 7B1E     		subs	r3, r7, #1
 1792 0026 DBB2     		uxtb	r3, r3
 1793 0028 122B     		cmp	r3, #18
 1794 002a 23D9     		bls	.L106
 365:bme680.c      **** 		}
 1795              		.loc 1 365 0
 1796 002c 6FF00309 		mvn	r9, #3
 1797 0030 36E0     		b	.L101
 1798              	.LVL242:
 1799              	.L105:
 349:bme680.c      **** 					/* Set the memory page */
 1800              		.loc 1 349 0
 1801 0032 AB78     		ldrb	r3, [r5, #2]	@ zero_extendqisi2
 1802 0034 6BB9     		cbnz	r3, .L103
 351:bme680.c      **** 					tmp_buff[(2 * index)] = reg_addr[index] & BME680_SPI_WR_MSK;
 1803              		.loc 1 351 0
 1804 0036 2946     		mov	r1, r5
 1805 0038 305D     		ldrb	r0, [r6, r4]	@ zero_extendqisi2
 1806 003a FFF7FEFF 		bl	set_mem_page
 1807              	.LVL243:
 1808 003e 8146     		mov	r9, r0
 1809              	.LVL244:
 352:bme680.c      **** 				} else {
 1810              		.loc 1 352 0
 1811 0040 325D     		ldrb	r2, [r6, r4]	@ zero_extendqisi2
 1812 0042 02F07F02 		and	r2, r2, #127
 1813 0046 0AAB     		add	r3, sp, #40
 1814 0048 03EB4403 		add	r3, r3, r4, lsl #1
 1815 004c 03F8282C 		strb	r2, [r3, #-40]
 1816 0050 05E0     		b	.L104
 1817              	.L103:
 354:bme680.c      **** 				}
 1818              		.loc 1 354 0
 1819 0052 325D     		ldrb	r2, [r6, r4]	@ zero_extendqisi2
 1820 0054 0AAB     		add	r3, sp, #40
 1821 0056 03EB4403 		add	r3, r3, r4, lsl #1
 1822 005a 03F8282C 		strb	r2, [r3, #-40]
 1823              	.L104:
 356:bme680.c      **** 			}
 1824              		.loc 1 356 0 discriminator 2
 1825 005e 6300     		lsls	r3, r4, #1
 1826 0060 0133     		adds	r3, r3, #1
 1827 0062 18F80420 		ldrb	r2, [r8, r4]	@ zero_extendqisi2
 1828 0066 0AA9     		add	r1, sp, #40
 1829 0068 0B44     		add	r3, r3, r1
 1830 006a 03F8282C 		strb	r2, [r3, #-40]
 348:bme680.c      **** 				if (dev->intf == BME680_SPI_INTF) {
 1831              		.loc 1 348 0 discriminator 2
ARM GAS  C:\Users\adria\AppData\Local\Temp\cciNfgxb.s 			page 64


 1832 006e 0134     		adds	r4, r4, #1
 1833              	.LVL245:
 1834 0070 A4B2     		uxth	r4, r4
 1835              	.LVL246:
 1836 0072 00E0     		b	.L102
 1837              	.LVL247:
 1838              	.L106:
 1839 0074 0024     		movs	r4, #0
 1840              	.LVL248:
 1841              	.L102:
 348:bme680.c      **** 				if (dev->intf == BME680_SPI_INTF) {
 1842              		.loc 1 348 0 is_stmt 0 discriminator 1
 1843 0076 BBB2     		uxth	r3, r7
 1844 0078 9C42     		cmp	r4, r3
 1845 007a DAD3     		bcc	.L105
 359:bme680.c      **** 				dev->com_rslt = dev->write(dev->dev_id, tmp_buff[0], &tmp_buff[1], (2 * len) - 1);
 1846              		.loc 1 359 0 is_stmt 1
 1847 007c B9F1000F 		cmp	r9, #0
 1848 0080 0ED1     		bne	.L101
 360:bme680.c      **** 				if (dev->com_rslt != 0)
 1849              		.loc 1 360 0
 1850 0082 EC6C     		ldr	r4, [r5, #76]
 1851              	.LVL249:
 1852 0084 5B00     		lsls	r3, r3, #1
 1853 0086 013B     		subs	r3, r3, #1
 1854 0088 9BB2     		uxth	r3, r3
 1855 008a 0DF10102 		add	r2, sp, #1
 1856 008e 9DF80010 		ldrb	r1, [sp]	@ zero_extendqisi2
 1857 0092 6878     		ldrb	r0, [r5, #1]	@ zero_extendqisi2
 1858 0094 A047     		blx	r4
 1859              	.LVL250:
 1860 0096 85F85400 		strb	r0, [r5, #84]
 361:bme680.c      **** 					rslt = BME680_E_COM_FAIL;
 1861              		.loc 1 361 0
 1862 009a 08B1     		cbz	r0, .L101
 362:bme680.c      **** 			}
 1863              		.loc 1 362 0
 1864 009c 6FF00109 		mvn	r9, #1
 1865              	.LVL251:
 1866              	.L101:
 370:bme680.c      **** 
 1867              		.loc 1 370 0
 1868 00a0 4846     		mov	r0, r9
 1869 00a2 0BB0     		add	sp, sp, #44
 1870              		.cfi_def_cfa_offset 28
 1871              		@ sp needed
 1872 00a4 BDE8F083 		pop	{r4, r5, r6, r7, r8, r9, pc}
 1873              		.cfi_endproc
 1874              	.LFE65:
 1875              		.size	bme680_set_regs, .-bme680_set_regs
 1876              		.section	.text.set_gas_config,"ax",%progbits
 1877              		.align	2
 1878              		.thumb
 1879              		.thumb_func
 1880              		.type	set_gas_config, %function
 1881              	set_gas_config:
 1882              	.LFB75:
ARM GAS  C:\Users\adria\AppData\Local\Temp\cciNfgxb.s 			page 65


 804:bme680.c      **** 	int8_t rslt;
 1883              		.loc 1 804 0
 1884              		.cfi_startproc
 1885              		@ args = 0, pretend = 0, frame = 8
 1886              		@ frame_needed = 0, uses_anonymous_args = 0
 1887              	.LVL252:
 1888 0000 30B5     		push	{r4, r5, lr}
 1889              		.cfi_def_cfa_offset 12
 1890              		.cfi_offset 4, -12
 1891              		.cfi_offset 5, -8
 1892              		.cfi_offset 14, -4
 1893 0002 83B0     		sub	sp, sp, #12
 1894              		.cfi_def_cfa_offset 24
 1895 0004 0546     		mov	r5, r0
 808:bme680.c      **** 	if (rslt == BME680_OK) {
 1896              		.loc 1 808 0
 1897 0006 FFF7FEFF 		bl	null_ptr_check
 1898              	.LVL253:
 809:bme680.c      **** 
 1899              		.loc 1 809 0
 1900 000a 0446     		mov	r4, r0
 1901 000c 40BB     		cbnz	r0, .L110
 1902              	.LBB2:
 811:bme680.c      **** 		uint8_t reg_data[2] = {0};
 1903              		.loc 1 811 0
 1904 000e 0023     		movs	r3, #0
 1905 0010 ADF80030 		strh	r3, [sp]	@ movhi
 812:bme680.c      **** 
 1906              		.loc 1 812 0
 1907 0014 ADF80430 		strh	r3, [sp, #4]	@ movhi
 814:bme680.c      **** 			reg_addr[0] = BME680_RES_HEAT0_ADDR;
 1908              		.loc 1 814 0
 1909 0018 95F84430 		ldrb	r3, [r5, #68]	@ zero_extendqisi2
 1910 001c 012B     		cmp	r3, #1
 1911 001e 16D1     		bne	.L113
 815:bme680.c      **** 			reg_data[0] = calc_heater_res(dev->gas_sett.heatr_temp, dev);
 1912              		.loc 1 815 0
 1913 0020 5A23     		movs	r3, #90
 1914 0022 8DF80030 		strb	r3, [sp]
 816:bme680.c      **** 			reg_addr[1] = BME680_GAS_WAIT0_ADDR;
 1915              		.loc 1 816 0
 1916 0026 2946     		mov	r1, r5
 1917 0028 B5F84000 		ldrh	r0, [r5, #64]
 1918              	.LVL254:
 1919 002c FFF7FEFF 		bl	calc_heater_res
 1920              	.LVL255:
 1921 0030 8DF80400 		strb	r0, [sp, #4]
 817:bme680.c      **** 			reg_data[1] = calc_heater_dur(dev->gas_sett.heatr_dur);
 1922              		.loc 1 817 0
 1923 0034 6423     		movs	r3, #100
 1924 0036 8DF80130 		strb	r3, [sp, #1]
 818:bme680.c      **** 			dev->gas_sett.nb_conv = 0;
 1925              		.loc 1 818 0
 1926 003a B5F84200 		ldrh	r0, [r5, #66]
 1927 003e FFF7FEFF 		bl	calc_heater_dur
 1928              	.LVL256:
 1929 0042 8DF80500 		strb	r0, [sp, #5]
ARM GAS  C:\Users\adria\AppData\Local\Temp\cciNfgxb.s 			page 66


 819:bme680.c      **** 		} else {
 1930              		.loc 1 819 0
 1931 0046 0023     		movs	r3, #0
 1932 0048 85F83C30 		strb	r3, [r5, #60]
 1933 004c 00E0     		b	.L111
 1934              	.LVL257:
 1935              	.L113:
 821:bme680.c      **** 		}
 1936              		.loc 1 821 0
 1937 004e 0124     		movs	r4, #1
 1938              	.LVL258:
 1939              	.L111:
 823:bme680.c      **** 			rslt = bme680_set_regs(reg_addr, reg_data, 2, dev);
 1940              		.loc 1 823 0
 1941 0050 34B9     		cbnz	r4, .L110
 824:bme680.c      **** 	}
 1942              		.loc 1 824 0
 1943 0052 2B46     		mov	r3, r5
 1944 0054 0222     		movs	r2, #2
 1945 0056 01A9     		add	r1, sp, #4
 1946 0058 6846     		mov	r0, sp
 1947 005a FFF7FEFF 		bl	bme680_set_regs
 1948              	.LVL259:
 1949 005e 0446     		mov	r4, r0
 1950              	.LVL260:
 1951              	.L110:
 1952              	.LBE2:
 828:bme680.c      **** 
 1953              		.loc 1 828 0
 1954 0060 2046     		mov	r0, r4
 1955 0062 03B0     		add	sp, sp, #12
 1956              		.cfi_def_cfa_offset 12
 1957              		@ sp needed
 1958 0064 30BD     		pop	{r4, r5, pc}
 1959              		.cfi_endproc
 1960              	.LFE75:
 1961              		.size	set_gas_config, .-set_gas_config
 1962 0066 00BF     		.section	.text.bme680_soft_reset,"ax",%progbits
 1963              		.align	2
 1964              		.global	bme680_soft_reset
 1965              		.thumb
 1966              		.thumb_func
 1967              		.type	bme680_soft_reset, %function
 1968              	bme680_soft_reset:
 1969              	.LFB66:
 376:bme680.c      **** 	int8_t rslt;
 1970              		.loc 1 376 0
 1971              		.cfi_startproc
 1972              		@ args = 0, pretend = 0, frame = 8
 1973              		@ frame_needed = 0, uses_anonymous_args = 0
 1974              	.LVL261:
 1975 0000 30B5     		push	{r4, r5, lr}
 1976              		.cfi_def_cfa_offset 12
 1977              		.cfi_offset 4, -12
 1978              		.cfi_offset 5, -8
 1979              		.cfi_offset 14, -4
 1980 0002 83B0     		sub	sp, sp, #12
ARM GAS  C:\Users\adria\AppData\Local\Temp\cciNfgxb.s 			page 67


 1981              		.cfi_def_cfa_offset 24
 1982 0004 0546     		mov	r5, r0
 378:bme680.c      **** 	/* 0xb6 is the soft reset command */
 1983              		.loc 1 378 0
 1984 0006 E023     		movs	r3, #224
 1985 0008 8DF80730 		strb	r3, [sp, #7]
 380:bme680.c      **** 
 1986              		.loc 1 380 0
 1987 000c B623     		movs	r3, #182
 1988 000e 8DF80630 		strb	r3, [sp, #6]
 383:bme680.c      **** 	if (rslt == BME680_OK) {
 1989              		.loc 1 383 0
 1990 0012 FFF7FEFF 		bl	null_ptr_check
 1991              	.LVL262:
 384:bme680.c      **** 		if (dev->intf == BME680_SPI_INTF)
 1992              		.loc 1 384 0
 1993 0016 0446     		mov	r4, r0
 1994 0018 C8B9     		cbnz	r0, .L116
 385:bme680.c      **** 			rslt = get_mem_page(dev);
 1995              		.loc 1 385 0
 1996 001a AB78     		ldrb	r3, [r5, #2]	@ zero_extendqisi2
 1997 001c 1BB9     		cbnz	r3, .L117
 386:bme680.c      **** 
 1998              		.loc 1 386 0
 1999 001e 2846     		mov	r0, r5
 2000              	.LVL263:
 2001 0020 FFF7FEFF 		bl	get_mem_page
 2002              	.LVL264:
 2003 0024 0446     		mov	r4, r0
 2004              	.LVL265:
 2005              	.L117:
 389:bme680.c      **** 			rslt = bme680_set_regs(&reg_addr, &soft_rst_cmd, 1, dev);
 2006              		.loc 1 389 0
 2007 0026 94B9     		cbnz	r4, .L116
 390:bme680.c      **** 			/* Wait for 5ms */
 2008              		.loc 1 390 0
 2009 0028 2B46     		mov	r3, r5
 2010 002a 0122     		movs	r2, #1
 2011 002c 0DF10601 		add	r1, sp, #6
 2012 0030 0DF10700 		add	r0, sp, #7
 2013 0034 FFF7FEFF 		bl	bme680_set_regs
 2014              	.LVL266:
 2015 0038 0446     		mov	r4, r0
 2016              	.LVL267:
 392:bme680.c      **** 
 2017              		.loc 1 392 0
 2018 003a 2B6D     		ldr	r3, [r5, #80]
 2019 003c 0A20     		movs	r0, #10
 2020 003e 9847     		blx	r3
 2021              	.LVL268:
 394:bme680.c      **** 				/* After reset get the memory page */
 2022              		.loc 1 394 0
 2023 0040 2CB9     		cbnz	r4, .L116
 396:bme680.c      **** 					rslt = get_mem_page(dev);
 2024              		.loc 1 396 0
 2025 0042 AB78     		ldrb	r3, [r5, #2]	@ zero_extendqisi2
 2026 0044 1BB9     		cbnz	r3, .L116
ARM GAS  C:\Users\adria\AppData\Local\Temp\cciNfgxb.s 			page 68


 397:bme680.c      **** 			}
 2027              		.loc 1 397 0
 2028 0046 2846     		mov	r0, r5
 2029 0048 FFF7FEFF 		bl	get_mem_page
 2030              	.LVL269:
 2031 004c 0446     		mov	r4, r0
 2032              	.LVL270:
 2033              	.L116:
 403:bme680.c      **** 
 2034              		.loc 1 403 0
 2035 004e 2046     		mov	r0, r4
 2036 0050 03B0     		add	sp, sp, #12
 2037              		.cfi_def_cfa_offset 12
 2038              		@ sp needed
 2039 0052 30BD     		pop	{r4, r5, pc}
 2040              		.cfi_endproc
 2041              	.LFE66:
 2042              		.size	bme680_soft_reset, .-bme680_soft_reset
 2043              		.section	.text.bme680_init,"ax",%progbits
 2044              		.align	2
 2045              		.global	bme680_init
 2046              		.thumb
 2047              		.thumb_func
 2048              		.type	bme680_init, %function
 2049              	bme680_init:
 2050              	.LFB63:
 284:bme680.c      **** 	int8_t rslt;
 2051              		.loc 1 284 0
 2052              		.cfi_startproc
 2053              		@ args = 0, pretend = 0, frame = 0
 2054              		@ frame_needed = 0, uses_anonymous_args = 0
 2055              	.LVL271:
 2056 0000 10B5     		push	{r4, lr}
 2057              		.cfi_def_cfa_offset 8
 2058              		.cfi_offset 4, -8
 2059              		.cfi_offset 14, -4
 2060 0002 0446     		mov	r4, r0
 288:bme680.c      **** 	if (rslt == BME680_OK) {
 2061              		.loc 1 288 0
 2062 0004 FFF7FEFF 		bl	null_ptr_check
 2063              	.LVL272:
 289:bme680.c      **** 		/* Soft reset to restore it to default values*/
 2064              		.loc 1 289 0
 2065 0008 0346     		mov	r3, r0
 2066 000a B0B9     		cbnz	r0, .L120
 291:bme680.c      **** 		if (rslt == BME680_OK) {
 2067              		.loc 1 291 0
 2068 000c 2046     		mov	r0, r4
 2069              	.LVL273:
 2070 000e FFF7FEFF 		bl	bme680_soft_reset
 2071              	.LVL274:
 292:bme680.c      **** 			rslt = bme680_get_regs(BME680_CHIP_ID_ADDR, &dev->chip_id, 1, dev);
 2072              		.loc 1 292 0
 2073 0012 0346     		mov	r3, r0
 2074 0014 88B9     		cbnz	r0, .L120
 293:bme680.c      **** 			if (rslt == BME680_OK) {
 2075              		.loc 1 293 0
ARM GAS  C:\Users\adria\AppData\Local\Temp\cciNfgxb.s 			page 69


 2076 0016 2346     		mov	r3, r4
 2077 0018 0122     		movs	r2, #1
 2078 001a 2146     		mov	r1, r4
 2079 001c D020     		movs	r0, #208
 2080              	.LVL275:
 2081 001e FFF7FEFF 		bl	bme680_get_regs
 2082              	.LVL276:
 294:bme680.c      **** 				if (dev->chip_id == BME680_CHIP_ID) {
 2083              		.loc 1 294 0
 2084 0022 0346     		mov	r3, r0
 2085 0024 48B9     		cbnz	r0, .L120
 295:bme680.c      **** 					/* Get the Calibration data */
 2086              		.loc 1 295 0
 2087 0026 2378     		ldrb	r3, [r4]	@ zero_extendqisi2
 2088 0028 612B     		cmp	r3, #97
 2089 002a 04D1     		bne	.L121
 297:bme680.c      **** 				} else {
 2090              		.loc 1 297 0
 2091 002c 2046     		mov	r0, r4
 2092              	.LVL277:
 2093 002e FFF7FEFF 		bl	get_calib_data
 2094              	.LVL278:
 2095 0032 0346     		mov	r3, r0
 2096              	.LVL279:
 2097 0034 01E0     		b	.L120
 2098              	.LVL280:
 2099              	.L121:
 299:bme680.c      **** 				}
 2100              		.loc 1 299 0
 2101 0036 6FF00203 		mvn	r3, #2
 2102              	.LVL281:
 2103              	.L120:
 306:bme680.c      **** 
 2104              		.loc 1 306 0
 2105 003a 1846     		mov	r0, r3
 2106 003c 10BD     		pop	{r4, pc}
 2107              		.cfi_endproc
 2108              	.LFE63:
 2109              		.size	bme680_init, .-bme680_init
 2110 003e 00BF     		.section	.text.bme680_get_sensor_settings,"ax",%progbits
 2111              		.align	2
 2112              		.global	bme680_get_sensor_settings
 2113              		.thumb
 2114              		.thumb_func
 2115              		.type	bme680_get_sensor_settings, %function
 2116              	bme680_get_sensor_settings:
 2117              	.LFB68:
 534:bme680.c      **** 	int8_t rslt;
 2118              		.loc 1 534 0
 2119              		.cfi_startproc
 2120              		@ args = 0, pretend = 0, frame = 8
 2121              		@ frame_needed = 0, uses_anonymous_args = 0
 2122              	.LVL282:
 2123 0000 30B5     		push	{r4, r5, lr}
 2124              		.cfi_def_cfa_offset 12
 2125              		.cfi_offset 4, -12
 2126              		.cfi_offset 5, -8
ARM GAS  C:\Users\adria\AppData\Local\Temp\cciNfgxb.s 			page 70


 2127              		.cfi_offset 14, -4
 2128 0002 83B0     		sub	sp, sp, #12
 2129              		.cfi_def_cfa_offset 24
 2130 0004 0546     		mov	r5, r0
 2131 0006 0C46     		mov	r4, r1
 2132              	.LVL283:
 538:bme680.c      **** 
 2133              		.loc 1 538 0
 2134 0008 0023     		movs	r3, #0
 2135 000a 0093     		str	r3, [sp]
 2136 000c ADF80430 		strh	r3, [sp, #4]	@ movhi
 541:bme680.c      **** 	if (rslt == BME680_OK) {
 2137              		.loc 1 541 0
 2138 0010 0846     		mov	r0, r1
 2139              	.LVL284:
 2140 0012 FFF7FEFF 		bl	null_ptr_check
 2141              	.LVL285:
 542:bme680.c      **** 		rslt = bme680_get_regs(reg_addr, data_array, BME680_REG_BUFFER_LENGTH, dev);
 2142              		.loc 1 542 0
 2143 0016 0028     		cmp	r0, #0
 2144 0018 48D1     		bne	.L130
 543:bme680.c      **** 
 2145              		.loc 1 543 0
 2146 001a 2346     		mov	r3, r4
 2147 001c 0622     		movs	r2, #6
 2148 001e 6946     		mov	r1, sp
 2149 0020 7020     		movs	r0, #112
 2150              	.LVL286:
 2151 0022 FFF7FEFF 		bl	bme680_get_regs
 2152              	.LVL287:
 545:bme680.c      **** 			if (desired_settings & BME680_GAS_MEAS_SEL)
 2153              		.loc 1 545 0
 2154 0026 0246     		mov	r2, r0
 2155 0028 0028     		cmp	r0, #0
 2156 002a 41D1     		bne	.L124
 546:bme680.c      **** 				rslt = get_gas_config(dev);
 2157              		.loc 1 546 0
 2158 002c 05F00803 		and	r3, r5, #8
 2159 0030 9BB2     		uxth	r3, r3
 2160 0032 1BB1     		cbz	r3, .L125
 547:bme680.c      **** 
 2161              		.loc 1 547 0
 2162 0034 2046     		mov	r0, r4
 2163              	.LVL288:
 2164 0036 FFF7FEFF 		bl	get_gas_config
 2165              	.LVL289:
 2166 003a 0246     		mov	r2, r0
 2167              	.LVL290:
 2168              	.L125:
 550:bme680.c      **** 				dev->tph_sett.filter = BME680_GET_BITS(data_array[BME680_REG_FILTER_INDEX],
 2169              		.loc 1 550 0
 2170 003c 05F01003 		and	r3, r5, #16
 2171 0040 9BB2     		uxth	r3, r3
 2172 0042 2BB1     		cbz	r3, .L126
 551:bme680.c      **** 					BME680_FILTER);
 2173              		.loc 1 551 0
 2174 0044 9DF80530 		ldrb	r3, [sp, #5]	@ zero_extendqisi2
ARM GAS  C:\Users\adria\AppData\Local\Temp\cciNfgxb.s 			page 71


 2175 0048 C3F38203 		ubfx	r3, r3, #2, #3
 2176 004c 84F83B30 		strb	r3, [r4, #59]
 2177              	.L126:
 554:bme680.c      **** 				dev->tph_sett.os_temp = BME680_GET_BITS(data_array[BME680_REG_TEMP_INDEX], BME680_OST);
 2178              		.loc 1 554 0
 2179 0050 15F0030F 		tst	r5, #3
 2180 0054 08D0     		beq	.L127
 555:bme680.c      **** 				dev->tph_sett.os_pres = BME680_GET_BITS(data_array[BME680_REG_PRES_INDEX], BME680_OSP);
 2181              		.loc 1 555 0
 2182 0056 9DF80430 		ldrb	r3, [sp, #4]	@ zero_extendqisi2
 2183 005a 5909     		lsrs	r1, r3, #5
 2184 005c 84F83910 		strb	r1, [r4, #57]
 556:bme680.c      **** 			}
 2185              		.loc 1 556 0
 2186 0060 C3F38203 		ubfx	r3, r3, #2, #3
 2187 0064 84F83A30 		strb	r3, [r4, #58]
 2188              	.L127:
 559:bme680.c      **** 				dev->tph_sett.os_hum = BME680_GET_BITS_POS_0(data_array[BME680_REG_HUM_INDEX],
 2189              		.loc 1 559 0
 2190 0068 05F00403 		and	r3, r5, #4
 2191 006c 9BB2     		uxth	r3, r3
 2192 006e 2BB1     		cbz	r3, .L128
 560:bme680.c      **** 					BME680_OSH);
 2193              		.loc 1 560 0
 2194 0070 9DF80230 		ldrb	r3, [sp, #2]	@ zero_extendqisi2
 2195 0074 03F00703 		and	r3, r3, #7
 2196 0078 84F83830 		strb	r3, [r4, #56]
 2197              	.L128:
 564:bme680.c      **** 				dev->gas_sett.heatr_ctrl = BME680_GET_BITS_POS_0(data_array[BME680_REG_HCTRL_INDEX],
 2198              		.loc 1 564 0
 2199 007c 05F02003 		and	r3, r5, #32
 2200 0080 9BB2     		uxth	r3, r3
 2201 0082 2BB1     		cbz	r3, .L129
 565:bme680.c      **** 					BME680_HCTRL);
 2202              		.loc 1 565 0
 2203 0084 9DF80030 		ldrb	r3, [sp]	@ zero_extendqisi2
 2204 0088 03F00803 		and	r3, r3, #8
 2205 008c 84F83D30 		strb	r3, [r4, #61]
 2206              	.L129:
 568:bme680.c      **** 				dev->gas_sett.nb_conv = BME680_GET_BITS_POS_0(data_array[BME680_REG_NBCONV_INDEX],
 2207              		.loc 1 568 0
 2208 0090 15F0C00F 		tst	r5, #192
 2209 0094 0CD0     		beq	.L124
 569:bme680.c      **** 					BME680_NBCONV);
 2210              		.loc 1 569 0
 2211 0096 9DF80130 		ldrb	r3, [sp, #1]	@ zero_extendqisi2
 2212 009a 03F00F01 		and	r1, r3, #15
 2213 009e 84F83C10 		strb	r1, [r4, #60]
 571:bme680.c      **** 					BME680_RUN_GAS);
 2214              		.loc 1 571 0
 2215 00a2 C3F30013 		ubfx	r3, r3, #4, #1
 2216 00a6 84F83E30 		strb	r3, [r4, #62]
 2217 00aa 01E0     		b	.L124
 2218              	.LVL291:
 2219              	.L130:
 576:bme680.c      **** 	}
 2220              		.loc 1 576 0
ARM GAS  C:\Users\adria\AppData\Local\Temp\cciNfgxb.s 			page 72


 2221 00ac 4FF0FF32 		mov	r2, #-1
 2222              	.LVL292:
 2223              	.L124:
 580:bme680.c      **** 
 2224              		.loc 1 580 0
 2225 00b0 1046     		mov	r0, r2
 2226 00b2 03B0     		add	sp, sp, #12
 2227              		.cfi_def_cfa_offset 12
 2228              		@ sp needed
 2229 00b4 30BD     		pop	{r4, r5, pc}
 2230              		.cfi_endproc
 2231              	.LFE68:
 2232              		.size	bme680_get_sensor_settings, .-bme680_get_sensor_settings
 2233 00b6 00BF     		.section	.text.bme680_set_sensor_mode,"ax",%progbits
 2234              		.align	2
 2235              		.global	bme680_set_sensor_mode
 2236              		.thumb
 2237              		.thumb_func
 2238              		.type	bme680_set_sensor_mode, %function
 2239              	bme680_set_sensor_mode:
 2240              	.LFB69:
 586:bme680.c      **** 	int8_t rslt;
 2241              		.loc 1 586 0
 2242              		.cfi_startproc
 2243              		@ args = 0, pretend = 0, frame = 8
 2244              		@ frame_needed = 0, uses_anonymous_args = 0
 2245              	.LVL293:
 2246 0000 70B5     		push	{r4, r5, r6, lr}
 2247              		.cfi_def_cfa_offset 16
 2248              		.cfi_offset 4, -16
 2249              		.cfi_offset 5, -12
 2250              		.cfi_offset 6, -8
 2251              		.cfi_offset 14, -4
 2252 0002 82B0     		sub	sp, sp, #8
 2253              		.cfi_def_cfa_offset 24
 2254 0004 0546     		mov	r5, r0
 2255              	.LVL294:
 590:bme680.c      **** 
 2256              		.loc 1 590 0
 2257 0006 7423     		movs	r3, #116
 2258 0008 8DF80630 		strb	r3, [sp, #6]
 593:bme680.c      **** 	if (rslt == BME680_OK) {
 2259              		.loc 1 593 0
 2260 000c FFF7FEFF 		bl	null_ptr_check
 2261              	.LVL295:
 594:bme680.c      **** 		/* Call repeatedly until in sleep */
 2262              		.loc 1 594 0
 2263 0010 0646     		mov	r6, r0
 2264 0012 A8BB     		cbnz	r0, .L133
 2265 0014 0024     		movs	r4, #0
 2266              	.LVL296:
 2267              	.L135:
 597:bme680.c      **** 			if (rslt == BME680_OK) {
 2268              		.loc 1 597 0
 2269 0016 2B46     		mov	r3, r5
 2270 0018 0122     		movs	r2, #1
 2271 001a 0DF10701 		add	r1, sp, #7
ARM GAS  C:\Users\adria\AppData\Local\Temp\cciNfgxb.s 			page 73


 2272 001e 7420     		movs	r0, #116
 2273 0020 FFF7FEFF 		bl	bme680_get_regs
 2274              	.LVL297:
 598:bme680.c      **** 				/* Put to sleep before changing mode */
 2275              		.loc 1 598 0
 2276 0024 0646     		mov	r6, r0
 2277 0026 98B9     		cbnz	r0, .L134
 600:bme680.c      **** 
 2278              		.loc 1 600 0
 2279 0028 9DF80730 		ldrb	r3, [sp, #7]	@ zero_extendqisi2
 2280              	.LVL298:
 602:bme680.c      **** 					tmp_pow_mode = tmp_pow_mode & (~BME680_MODE_MSK); /* Set to sleep */
 2281              		.loc 1 602 0
 2282 002c 13F00304 		ands	r4, r3, #3
 2283 0030 0ED0     		beq	.L134
 603:bme680.c      **** 					rslt = bme680_set_regs(&reg_addr, &tmp_pow_mode, 1, dev);
 2284              		.loc 1 603 0
 2285 0032 23F00303 		bic	r3, r3, #3
 2286              	.LVL299:
 2287 0036 02A9     		add	r1, sp, #8
 2288 0038 01F8013D 		strb	r3, [r1, #-1]!
 2289              	.LVL300:
 604:bme680.c      **** 					dev->delay_ms(BME680_POLL_PERIOD_MS);
 2290              		.loc 1 604 0
 2291 003c 2B46     		mov	r3, r5
 2292 003e 0122     		movs	r2, #1
 2293 0040 0DF10600 		add	r0, sp, #6
 2294              	.LVL301:
 2295 0044 FFF7FEFF 		bl	bme680_set_regs
 2296              	.LVL302:
 2297 0048 0646     		mov	r6, r0
 2298              	.LVL303:
 605:bme680.c      **** 				}
 2299              		.loc 1 605 0
 2300 004a 2B6D     		ldr	r3, [r5, #80]
 2301 004c 0A20     		movs	r0, #10
 2302 004e 9847     		blx	r3
 2303              	.LVL304:
 2304              	.L134:
 608:bme680.c      **** 
 2305              		.loc 1 608 0
 2306 0050 002C     		cmp	r4, #0
 2307 0052 E0D1     		bne	.L135
 611:bme680.c      **** 			tmp_pow_mode = (tmp_pow_mode & ~BME680_MODE_MSK) | (dev->power_mode & BME680_MODE_MSK);
 2308              		.loc 1 611 0
 2309 0054 95F84430 		ldrb	r3, [r5, #68]	@ zero_extendqisi2
 2310 0058 93B1     		cbz	r3, .L133
 612:bme680.c      **** 			if (rslt == BME680_OK)
 2311              		.loc 1 612 0
 2312 005a 9DF80720 		ldrb	r2, [sp, #7]	@ zero_extendqisi2
 2313 005e 22F00302 		bic	r2, r2, #3
 2314 0062 03F00303 		and	r3, r3, #3
 2315 0066 1343     		orrs	r3, r3, r2
 2316 0068 8DF80730 		strb	r3, [sp, #7]
 613:bme680.c      **** 				rslt = bme680_set_regs(&reg_addr, &tmp_pow_mode, 1, dev);
 2317              		.loc 1 613 0
 2318 006c 46B9     		cbnz	r6, .L133
ARM GAS  C:\Users\adria\AppData\Local\Temp\cciNfgxb.s 			page 74


 614:bme680.c      **** 		}
 2319              		.loc 1 614 0
 2320 006e 2B46     		mov	r3, r5
 2321 0070 0122     		movs	r2, #1
 2322 0072 0DF10701 		add	r1, sp, #7
 2323 0076 0DF10600 		add	r0, sp, #6
 2324 007a FFF7FEFF 		bl	bme680_set_regs
 2325              	.LVL305:
 2326 007e 0646     		mov	r6, r0
 2327              	.LVL306:
 2328              	.L133:
 619:bme680.c      **** 
 2329              		.loc 1 619 0
 2330 0080 3046     		mov	r0, r6
 2331 0082 02B0     		add	sp, sp, #8
 2332              		.cfi_def_cfa_offset 16
 2333              		@ sp needed
 2334 0084 70BD     		pop	{r4, r5, r6, pc}
 2335              		.cfi_endproc
 2336              	.LFE69:
 2337              		.size	bme680_set_sensor_mode, .-bme680_set_sensor_mode
 2338 0086 00BF     		.section	.text.bme680_set_sensor_settings,"ax",%progbits
 2339              		.align	2
 2340              		.global	bme680_set_sensor_settings
 2341              		.thumb
 2342              		.thumb_func
 2343              		.type	bme680_set_sensor_settings, %function
 2344              	bme680_set_sensor_settings:
 2345              	.LFB67:
 410:bme680.c      **** 	int8_t rslt;
 2346              		.loc 1 410 0
 2347              		.cfi_startproc
 2348              		@ args = 0, pretend = 0, frame = 16
 2349              		@ frame_needed = 0, uses_anonymous_args = 0
 2350              	.LVL307:
 2351 0000 F0B5     		push	{r4, r5, r6, r7, lr}
 2352              		.cfi_def_cfa_offset 20
 2353              		.cfi_offset 4, -20
 2354              		.cfi_offset 5, -16
 2355              		.cfi_offset 6, -12
 2356              		.cfi_offset 7, -8
 2357              		.cfi_offset 14, -4
 2358 0002 85B0     		sub	sp, sp, #20
 2359              		.cfi_def_cfa_offset 40
 2360 0004 0546     		mov	r5, r0
 2361 0006 0C46     		mov	r4, r1
 413:bme680.c      **** 	uint8_t count = 0;
 2362              		.loc 1 413 0
 2363 0008 0023     		movs	r3, #0
 2364 000a 8DF80F30 		strb	r3, [sp, #15]
 2365              	.LVL308:
 415:bme680.c      **** 	uint8_t data_array[BME680_REG_BUFFER_LENGTH] = { 0 };
 2366              		.loc 1 415 0
 2367 000e 0293     		str	r3, [sp, #8]
 2368 0010 ADF80C30 		strh	r3, [sp, #12]	@ movhi
 416:bme680.c      **** 	uint8_t intended_power_mode = dev->power_mode; /* Save intended power mode */
 2369              		.loc 1 416 0
ARM GAS  C:\Users\adria\AppData\Local\Temp\cciNfgxb.s 			page 75


 2370 0014 0093     		str	r3, [sp]
 2371 0016 ADF80430 		strh	r3, [sp, #4]	@ movhi
 417:bme680.c      **** 
 2372              		.loc 1 417 0
 2373 001a 91F84470 		ldrb	r7, [r1, #68]	@ zero_extendqisi2
 2374              	.LVL309:
 420:bme680.c      **** 	if (rslt == BME680_OK) {
 2375              		.loc 1 420 0
 2376 001e 0846     		mov	r0, r1
 2377              	.LVL310:
 2378 0020 FFF7FEFF 		bl	null_ptr_check
 2379              	.LVL311:
 421:bme680.c      **** 		if (desired_settings & BME680_GAS_MEAS_SEL)
 2380              		.loc 1 421 0
 2381 0024 0346     		mov	r3, r0
 2382 0026 0028     		cmp	r0, #0
 2383 0028 40F01B81 		bne	.L138
 422:bme680.c      **** 			rslt = set_gas_config(dev);
 2384              		.loc 1 422 0
 2385 002c 05F00802 		and	r2, r5, #8
 2386 0030 92B2     		uxth	r2, r2
 2387 0032 1AB1     		cbz	r2, .L139
 423:bme680.c      **** 
 2388              		.loc 1 423 0
 2389 0034 2046     		mov	r0, r4
 2390              	.LVL312:
 2391 0036 FFF7FEFF 		bl	set_gas_config
 2392              	.LVL313:
 2393 003a 0346     		mov	r3, r0
 2394              	.LVL314:
 2395              	.L139:
 425:bme680.c      **** 		if (rslt == BME680_OK)
 2396              		.loc 1 425 0
 2397 003c 0022     		movs	r2, #0
 2398 003e 84F84420 		strb	r2, [r4, #68]
 426:bme680.c      **** 			rslt = bme680_set_sensor_mode(dev);
 2399              		.loc 1 426 0
 2400 0042 1BB9     		cbnz	r3, .L140
 427:bme680.c      **** 
 2401              		.loc 1 427 0
 2402 0044 2046     		mov	r0, r4
 2403 0046 FFF7FEFF 		bl	bme680_set_sensor_mode
 2404              	.LVL315:
 2405 004a 0346     		mov	r3, r0
 2406              	.LVL316:
 2407              	.L140:
 2408 004c 05F01006 		and	r6, r5, #16
 2409 0050 B6B2     		uxth	r6, r6
 430:bme680.c      **** 			rslt = boundary_check(&dev->tph_sett.filter, BME680_FILTER_SIZE_0, BME680_FILTER_SIZE_127, dev);
 2410              		.loc 1 430 0
 2411 0052 36B3     		cbz	r6, .L158
 431:bme680.c      **** 			reg_addr = BME680_CONF_ODR_FILT_ADDR;
 2412              		.loc 1 431 0
 2413 0054 2346     		mov	r3, r4
 2414              	.LVL317:
 2415 0056 0722     		movs	r2, #7
 2416 0058 0021     		movs	r1, #0
ARM GAS  C:\Users\adria\AppData\Local\Temp\cciNfgxb.s 			page 76


 2417 005a 04F13B00 		add	r0, r4, #59
 2418 005e FFF7FEFF 		bl	boundary_check
 2419              	.LVL318:
 434:bme680.c      **** 				rslt = bme680_get_regs(reg_addr, &data, 1, dev);
 2420              		.loc 1 434 0
 2421 0062 0346     		mov	r3, r0
 2422 0064 38B9     		cbnz	r0, .L142
 435:bme680.c      **** 
 2423              		.loc 1 435 0
 2424 0066 2346     		mov	r3, r4
 2425 0068 0122     		movs	r2, #1
 2426 006a 0DF10F01 		add	r1, sp, #15
 2427 006e 7520     		movs	r0, #117
 2428              	.LVL319:
 2429 0070 FFF7FEFF 		bl	bme680_get_regs
 2430              	.LVL320:
 2431 0074 0346     		mov	r3, r0
 2432              	.LVL321:
 2433              	.L142:
 437:bme680.c      **** 				data = BME680_SET_BITS(data, BME680_FILTER, dev->tph_sett.filter);
 2434              		.loc 1 437 0
 2435 0076 5EB1     		cbz	r6, .L143
 438:bme680.c      **** 
 2436              		.loc 1 438 0
 2437 0078 94F83B20 		ldrb	r2, [r4, #59]	@ zero_extendqisi2
 2438 007c 9200     		lsls	r2, r2, #2
 2439 007e 9DF80F10 		ldrb	r1, [sp, #15]	@ zero_extendqisi2
 2440 0082 21F01C01 		bic	r1, r1, #28
 2441 0086 02F01C02 		and	r2, r2, #28
 2442 008a 0A43     		orrs	r2, r2, r1
 2443 008c 8DF80F20 		strb	r2, [sp, #15]
 2444              	.L143:
 440:bme680.c      **** 			data_array[count] = data;
 2445              		.loc 1 440 0
 2446 0090 7522     		movs	r2, #117
 2447 0092 8DF80820 		strb	r2, [sp, #8]
 441:bme680.c      **** 			count++;
 2448              		.loc 1 441 0
 2449 0096 9DF80F20 		ldrb	r2, [sp, #15]	@ zero_extendqisi2
 2450 009a 8DF80020 		strb	r2, [sp]
 2451              	.LVL322:
 442:bme680.c      **** 		}
 2452              		.loc 1 442 0
 2453 009e 0126     		movs	r6, #1
 2454 00a0 00E0     		b	.L141
 2455              	.LVL323:
 2456              	.L158:
 414:bme680.c      **** 	uint8_t reg_array[BME680_REG_BUFFER_LENGTH] = { 0 };
 2457              		.loc 1 414 0
 2458 00a2 0026     		movs	r6, #0
 2459              	.LVL324:
 2460              	.L141:
 446:bme680.c      **** 			rslt = boundary_check(&dev->gas_sett.heatr_ctrl, BME680_ENABLE_HEATER,
 2461              		.loc 1 446 0
 2462 00a4 05F02002 		and	r2, r5, #32
 2463 00a8 92B2     		uxth	r2, r2
 2464 00aa 22B3     		cbz	r2, .L144
ARM GAS  C:\Users\adria\AppData\Local\Temp\cciNfgxb.s 			page 77


 447:bme680.c      **** 				BME680_DISABLE_HEATER, dev);
 2465              		.loc 1 447 0
 2466 00ac 2346     		mov	r3, r4
 2467              	.LVL325:
 2468 00ae 0822     		movs	r2, #8
 2469 00b0 0021     		movs	r1, #0
 2470 00b2 04F13D00 		add	r0, r4, #61
 2471 00b6 FFF7FEFF 		bl	boundary_check
 2472              	.LVL326:
 451:bme680.c      **** 				rslt = bme680_get_regs(reg_addr, &data, 1, dev);
 2473              		.loc 1 451 0
 2474 00ba 0346     		mov	r3, r0
 2475 00bc 38B9     		cbnz	r0, .L145
 452:bme680.c      **** 			data = BME680_SET_BITS_POS_0(data, BME680_HCTRL, dev->gas_sett.heatr_ctrl);
 2476              		.loc 1 452 0
 2477 00be 2346     		mov	r3, r4
 2478 00c0 0122     		movs	r2, #1
 2479 00c2 0DF10F01 		add	r1, sp, #15
 2480 00c6 7020     		movs	r0, #112
 2481              	.LVL327:
 2482 00c8 FFF7FEFF 		bl	bme680_get_regs
 2483              	.LVL328:
 2484 00cc 0346     		mov	r3, r0
 2485              	.LVL329:
 2486              	.L145:
 453:bme680.c      **** 
 2487              		.loc 1 453 0
 2488 00ce 94F83D20 		ldrb	r2, [r4, #61]	@ zero_extendqisi2
 2489 00d2 9DF80F10 		ldrb	r1, [sp, #15]	@ zero_extendqisi2
 2490 00d6 21F00801 		bic	r1, r1, #8
 2491 00da 02F00802 		and	r2, r2, #8
 2492 00de 0A43     		orrs	r2, r2, r1
 2493 00e0 8DF80F20 		strb	r2, [sp, #15]
 455:bme680.c      **** 			data_array[count] = data;
 2494              		.loc 1 455 0
 2495 00e4 04A9     		add	r1, sp, #16
 2496 00e6 3144     		add	r1, r1, r6
 2497 00e8 7020     		movs	r0, #112
 2498 00ea 01F8080C 		strb	r0, [r1, #-8]
 456:bme680.c      **** 			count++;
 2499              		.loc 1 456 0
 2500 00ee 01F8102C 		strb	r2, [r1, #-16]
 457:bme680.c      **** 		}
 2501              		.loc 1 457 0
 2502 00f2 0136     		adds	r6, r6, #1
 2503              	.LVL330:
 2504 00f4 F6B2     		uxtb	r6, r6
 2505              	.LVL331:
 2506              	.L144:
 461:bme680.c      **** 			rslt = boundary_check(&dev->tph_sett.os_temp, BME680_OS_NONE, BME680_OS_16X, dev);
 2507              		.loc 1 461 0
 2508 00f6 15F0030F 		tst	r5, #3
 2509 00fa 38D0     		beq	.L146
 462:bme680.c      **** 			reg_addr = BME680_CONF_T_P_MODE_ADDR;
 2510              		.loc 1 462 0
 2511 00fc 2346     		mov	r3, r4
 2512              	.LVL332:
ARM GAS  C:\Users\adria\AppData\Local\Temp\cciNfgxb.s 			page 78


 2513 00fe 0522     		movs	r2, #5
 2514 0100 0021     		movs	r1, #0
 2515 0102 04F13900 		add	r0, r4, #57
 2516 0106 FFF7FEFF 		bl	boundary_check
 2517              	.LVL333:
 465:bme680.c      **** 				rslt = bme680_get_regs(reg_addr, &data, 1, dev);
 2518              		.loc 1 465 0
 2519 010a 0346     		mov	r3, r0
 2520 010c 38B9     		cbnz	r0, .L147
 466:bme680.c      **** 
 2521              		.loc 1 466 0
 2522 010e 2346     		mov	r3, r4
 2523 0110 0122     		movs	r2, #1
 2524 0112 0DF10F01 		add	r1, sp, #15
 2525 0116 7420     		movs	r0, #116
 2526              	.LVL334:
 2527 0118 FFF7FEFF 		bl	bme680_get_regs
 2528              	.LVL335:
 2529 011c 0346     		mov	r3, r0
 2530              	.LVL336:
 2531              	.L147:
 468:bme680.c      **** 				data = BME680_SET_BITS(data, BME680_OST, dev->tph_sett.os_temp);
 2532              		.loc 1 468 0
 2533 011e 15F0010F 		tst	r5, #1
 2534 0122 09D0     		beq	.L148
 469:bme680.c      **** 
 2535              		.loc 1 469 0
 2536 0124 94F83910 		ldrb	r1, [r4, #57]	@ zero_extendqisi2
 2537 0128 9DF80F20 		ldrb	r2, [sp, #15]	@ zero_extendqisi2
 2538 012c 02F01F02 		and	r2, r2, #31
 2539 0130 42EA4112 		orr	r2, r2, r1, lsl #5
 2540 0134 8DF80F20 		strb	r2, [sp, #15]
 2541              	.L148:
 471:bme680.c      **** 				data = BME680_SET_BITS(data, BME680_OSP, dev->tph_sett.os_pres);
 2542              		.loc 1 471 0
 2543 0138 05F00202 		and	r2, r5, #2
 2544 013c 92B2     		uxth	r2, r2
 2545 013e 5AB1     		cbz	r2, .L149
 472:bme680.c      **** 
 2546              		.loc 1 472 0
 2547 0140 94F83A20 		ldrb	r2, [r4, #58]	@ zero_extendqisi2
 2548 0144 9200     		lsls	r2, r2, #2
 2549 0146 9DF80F10 		ldrb	r1, [sp, #15]	@ zero_extendqisi2
 2550 014a 21F01C01 		bic	r1, r1, #28
 2551 014e 02F01C02 		and	r2, r2, #28
 2552 0152 0A43     		orrs	r2, r2, r1
 2553 0154 8DF80F20 		strb	r2, [sp, #15]
 2554              	.L149:
 474:bme680.c      **** 			data_array[count] = data;
 2555              		.loc 1 474 0
 2556 0158 04AA     		add	r2, sp, #16
 2557 015a 3244     		add	r2, r2, r6
 2558 015c 7421     		movs	r1, #116
 2559 015e 02F8081C 		strb	r1, [r2, #-8]
 475:bme680.c      **** 			count++;
 2560              		.loc 1 475 0
 2561 0162 9DF80F10 		ldrb	r1, [sp, #15]	@ zero_extendqisi2
ARM GAS  C:\Users\adria\AppData\Local\Temp\cciNfgxb.s 			page 79


 2562 0166 02F8101C 		strb	r1, [r2, #-16]
 476:bme680.c      **** 		}
 2563              		.loc 1 476 0
 2564 016a 0136     		adds	r6, r6, #1
 2565              	.LVL337:
 2566 016c F6B2     		uxtb	r6, r6
 2567              	.LVL338:
 2568              	.L146:
 480:bme680.c      **** 			rslt = boundary_check(&dev->tph_sett.os_hum, BME680_OS_NONE, BME680_OS_16X, dev);
 2569              		.loc 1 480 0
 2570 016e 05F00402 		and	r2, r5, #4
 2571 0172 92B2     		uxth	r2, r2
 2572 0174 22B3     		cbz	r2, .L150
 481:bme680.c      **** 			reg_addr = BME680_CONF_OS_H_ADDR;
 2573              		.loc 1 481 0
 2574 0176 2346     		mov	r3, r4
 2575              	.LVL339:
 2576 0178 0522     		movs	r2, #5
 2577 017a 0021     		movs	r1, #0
 2578 017c 04F13800 		add	r0, r4, #56
 2579 0180 FFF7FEFF 		bl	boundary_check
 2580              	.LVL340:
 484:bme680.c      **** 				rslt = bme680_get_regs(reg_addr, &data, 1, dev);
 2581              		.loc 1 484 0
 2582 0184 0346     		mov	r3, r0
 2583 0186 38B9     		cbnz	r0, .L151
 485:bme680.c      **** 			data = BME680_SET_BITS_POS_0(data, BME680_OSH, dev->tph_sett.os_hum);
 2584              		.loc 1 485 0
 2585 0188 2346     		mov	r3, r4
 2586 018a 0122     		movs	r2, #1
 2587 018c 0DF10F01 		add	r1, sp, #15
 2588 0190 7220     		movs	r0, #114
 2589              	.LVL341:
 2590 0192 FFF7FEFF 		bl	bme680_get_regs
 2591              	.LVL342:
 2592 0196 0346     		mov	r3, r0
 2593              	.LVL343:
 2594              	.L151:
 486:bme680.c      **** 
 2595              		.loc 1 486 0
 2596 0198 94F83820 		ldrb	r2, [r4, #56]	@ zero_extendqisi2
 2597 019c 9DF80F10 		ldrb	r1, [sp, #15]	@ zero_extendqisi2
 2598 01a0 21F00701 		bic	r1, r1, #7
 2599 01a4 02F00702 		and	r2, r2, #7
 2600 01a8 0A43     		orrs	r2, r2, r1
 2601 01aa 8DF80F20 		strb	r2, [sp, #15]
 488:bme680.c      **** 			data_array[count] = data;
 2602              		.loc 1 488 0
 2603 01ae 04A9     		add	r1, sp, #16
 2604 01b0 3144     		add	r1, r1, r6
 2605 01b2 7220     		movs	r0, #114
 2606 01b4 01F8080C 		strb	r0, [r1, #-8]
 489:bme680.c      **** 			count++;
 2607              		.loc 1 489 0
 2608 01b8 01F8102C 		strb	r2, [r1, #-16]
 490:bme680.c      **** 		}
 2609              		.loc 1 490 0
ARM GAS  C:\Users\adria\AppData\Local\Temp\cciNfgxb.s 			page 80


 2610 01bc 0136     		adds	r6, r6, #1
 2611              	.LVL344:
 2612 01be F6B2     		uxtb	r6, r6
 2613              	.LVL345:
 2614              	.L150:
 494:bme680.c      **** 			rslt = boundary_check(&dev->gas_sett.run_gas, BME680_RUN_GAS_DISABLE,
 2615              		.loc 1 494 0
 2616 01c0 15F0C00F 		tst	r5, #192
 2617 01c4 43D0     		beq	.L152
 495:bme680.c      **** 				BME680_RUN_GAS_ENABLE, dev);
 2618              		.loc 1 495 0
 2619 01c6 2346     		mov	r3, r4
 2620              	.LVL346:
 2621 01c8 0122     		movs	r2, #1
 2622 01ca 0021     		movs	r1, #0
 2623 01cc 04F13E00 		add	r0, r4, #62
 2624 01d0 FFF7FEFF 		bl	boundary_check
 2625              	.LVL347:
 497:bme680.c      **** 				/* Validate boundary conditions */
 2626              		.loc 1 497 0
 2627 01d4 0346     		mov	r3, r0
 2628 01d6 38B9     		cbnz	r0, .L153
 499:bme680.c      **** 					BME680_NBCONV_MAX, dev);
 2629              		.loc 1 499 0
 2630 01d8 2346     		mov	r3, r4
 2631 01da 0A22     		movs	r2, #10
 2632 01dc 0021     		movs	r1, #0
 2633 01de 04F13C00 		add	r0, r4, #60
 2634              	.LVL348:
 2635 01e2 FFF7FEFF 		bl	boundary_check
 2636              	.LVL349:
 2637 01e6 0346     		mov	r3, r0
 2638              	.LVL350:
 2639              	.L153:
 505:bme680.c      **** 				rslt = bme680_get_regs(reg_addr, &data, 1, dev);
 2640              		.loc 1 505 0
 2641 01e8 3BB9     		cbnz	r3, .L154
 506:bme680.c      **** 
 2642              		.loc 1 506 0
 2643 01ea 2346     		mov	r3, r4
 2644              	.LVL351:
 2645 01ec 0122     		movs	r2, #1
 2646 01ee 0DF10F01 		add	r1, sp, #15
 2647 01f2 7120     		movs	r0, #113
 2648 01f4 FFF7FEFF 		bl	bme680_get_regs
 2649              	.LVL352:
 2650 01f8 0346     		mov	r3, r0
 2651              	.LVL353:
 2652              	.L154:
 508:bme680.c      **** 				data = BME680_SET_BITS(data, BME680_RUN_GAS, dev->gas_sett.run_gas);
 2653              		.loc 1 508 0
 2654 01fa 05F04002 		and	r2, r5, #64
 2655 01fe 92B2     		uxth	r2, r2
 2656 0200 5AB1     		cbz	r2, .L155
 509:bme680.c      **** 
 2657              		.loc 1 509 0
 2658 0202 94F83E20 		ldrb	r2, [r4, #62]	@ zero_extendqisi2
ARM GAS  C:\Users\adria\AppData\Local\Temp\cciNfgxb.s 			page 81


 2659 0206 1201     		lsls	r2, r2, #4
 2660 0208 9DF80F10 		ldrb	r1, [sp, #15]	@ zero_extendqisi2
 2661 020c 21F01001 		bic	r1, r1, #16
 2662 0210 02F01002 		and	r2, r2, #16
 2663 0214 0A43     		orrs	r2, r2, r1
 2664 0216 8DF80F20 		strb	r2, [sp, #15]
 2665              	.L155:
 511:bme680.c      **** 				data = BME680_SET_BITS_POS_0(data, BME680_NBCONV, dev->gas_sett.nb_conv);
 2666              		.loc 1 511 0
 2667 021a 05F08005 		and	r5, r5, #128
 2668 021e ADB2     		uxth	r5, r5
 2669 0220 55B1     		cbz	r5, .L156
 512:bme680.c      **** 
 2670              		.loc 1 512 0
 2671 0222 94F83C20 		ldrb	r2, [r4, #60]	@ zero_extendqisi2
 2672 0226 9DF80F10 		ldrb	r1, [sp, #15]	@ zero_extendqisi2
 2673 022a 21F00F01 		bic	r1, r1, #15
 2674 022e 02F00F02 		and	r2, r2, #15
 2675 0232 0A43     		orrs	r2, r2, r1
 2676 0234 8DF80F20 		strb	r2, [sp, #15]
 2677              	.L156:
 514:bme680.c      **** 			data_array[count] = data;
 2678              		.loc 1 514 0
 2679 0238 04AA     		add	r2, sp, #16
 2680 023a 3244     		add	r2, r2, r6
 2681 023c 7121     		movs	r1, #113
 2682 023e 02F8081C 		strb	r1, [r2, #-8]
 515:bme680.c      **** 			count++;
 2683              		.loc 1 515 0
 2684 0242 9DF80F10 		ldrb	r1, [sp, #15]	@ zero_extendqisi2
 2685 0246 02F8101C 		strb	r1, [r2, #-16]
 516:bme680.c      **** 		}
 2686              		.loc 1 516 0
 2687 024a 0136     		adds	r6, r6, #1
 2688              	.LVL354:
 2689 024c F6B2     		uxtb	r6, r6
 2690              	.LVL355:
 2691              	.L152:
 519:bme680.c      **** 			rslt = bme680_set_regs(reg_array, data_array, count, dev);
 2692              		.loc 1 519 0
 2693 024e 33B9     		cbnz	r3, .L157
 520:bme680.c      **** 
 2694              		.loc 1 520 0
 2695 0250 2346     		mov	r3, r4
 2696              	.LVL356:
 2697 0252 3246     		mov	r2, r6
 2698 0254 6946     		mov	r1, sp
 2699 0256 02A8     		add	r0, sp, #8
 2700 0258 FFF7FEFF 		bl	bme680_set_regs
 2701              	.LVL357:
 2702 025c 0346     		mov	r3, r0
 2703              	.LVL358:
 2704              	.L157:
 523:bme680.c      **** 	}
 2705              		.loc 1 523 0
 2706 025e 84F84470 		strb	r7, [r4, #68]
 2707              	.LVL359:
ARM GAS  C:\Users\adria\AppData\Local\Temp\cciNfgxb.s 			page 82


 2708              	.L138:
 527:bme680.c      **** 
 2709              		.loc 1 527 0
 2710 0262 1846     		mov	r0, r3
 2711 0264 05B0     		add	sp, sp, #20
 2712              		.cfi_def_cfa_offset 20
 2713              		@ sp needed
 2714 0266 F0BD     		pop	{r4, r5, r6, r7, pc}
 2715              		.cfi_endproc
 2716              	.LFE67:
 2717              		.size	bme680_set_sensor_settings, .-bme680_set_sensor_settings
 2718              		.section	.text.bme680_get_sensor_mode,"ax",%progbits
 2719              		.align	2
 2720              		.global	bme680_get_sensor_mode
 2721              		.thumb
 2722              		.thumb_func
 2723              		.type	bme680_get_sensor_mode, %function
 2724              	bme680_get_sensor_mode:
 2725              	.LFB70:
 625:bme680.c      **** 	int8_t rslt;
 2726              		.loc 1 625 0
 2727              		.cfi_startproc
 2728              		@ args = 0, pretend = 0, frame = 8
 2729              		@ frame_needed = 0, uses_anonymous_args = 0
 2730              	.LVL360:
 2731 0000 10B5     		push	{r4, lr}
 2732              		.cfi_def_cfa_offset 8
 2733              		.cfi_offset 4, -8
 2734              		.cfi_offset 14, -4
 2735 0002 82B0     		sub	sp, sp, #8
 2736              		.cfi_def_cfa_offset 16
 2737 0004 0446     		mov	r4, r0
 630:bme680.c      **** 	if (rslt == BME680_OK) {
 2738              		.loc 1 630 0
 2739 0006 FFF7FEFF 		bl	null_ptr_check
 2740              	.LVL361:
 631:bme680.c      **** 		rslt = bme680_get_regs(BME680_CONF_T_P_MODE_ADDR, &mode, 1, dev);
 2741              		.loc 1 631 0
 2742 000a 0346     		mov	r3, r0
 2743 000c 68B9     		cbnz	r0, .L161
 632:bme680.c      **** 		/* Masking the other register bit info*/
 2744              		.loc 1 632 0
 2745 000e 2346     		mov	r3, r4
 2746 0010 0122     		movs	r2, #1
 2747 0012 0DF10701 		add	r1, sp, #7
 2748 0016 7420     		movs	r0, #116
 2749              	.LVL362:
 2750 0018 FFF7FEFF 		bl	bme680_get_regs
 2751              	.LVL363:
 2752 001c 0346     		mov	r3, r0
 2753              	.LVL364:
 634:bme680.c      **** 	}
 2754              		.loc 1 634 0
 2755 001e 9DF80720 		ldrb	r2, [sp, #7]	@ zero_extendqisi2
 2756 0022 02F00302 		and	r2, r2, #3
 2757 0026 84F84420 		strb	r2, [r4, #68]
 2758              	.LVL365:
ARM GAS  C:\Users\adria\AppData\Local\Temp\cciNfgxb.s 			page 83


 2759              	.L161:
 638:bme680.c      **** 
 2760              		.loc 1 638 0
 2761 002a 1846     		mov	r0, r3
 2762 002c 02B0     		add	sp, sp, #8
 2763              		.cfi_def_cfa_offset 8
 2764              		@ sp needed
 2765 002e 10BD     		pop	{r4, pc}
 2766              		.cfi_endproc
 2767              	.LFE70:
 2768              		.size	bme680_get_sensor_mode, .-bme680_get_sensor_mode
 2769              		.section	.text.bme680_set_profile_dur,"ax",%progbits
 2770              		.align	2
 2771              		.global	bme680_set_profile_dur
 2772              		.thumb
 2773              		.thumb_func
 2774              		.type	bme680_set_profile_dur, %function
 2775              	bme680_set_profile_dur:
 2776              	.LFB71:
 644:bme680.c      **** 	uint32_t tph_dur; /* Calculate in us */
 2777              		.loc 1 644 0
 2778              		.cfi_startproc
 2779              		@ args = 0, pretend = 0, frame = 8
 2780              		@ frame_needed = 0, uses_anonymous_args = 0
 2781              		@ link register save eliminated.
 2782              	.LVL366:
 2783 0000 10B4     		push	{r4}
 2784              		.cfi_def_cfa_offset 4
 2785              		.cfi_offset 4, -4
 2786 0002 83B0     		sub	sp, sp, #12
 2787              		.cfi_def_cfa_offset 16
 2788 0004 0246     		mov	r2, r0
 647:bme680.c      **** 
 2789              		.loc 1 647 0
 2790 0006 154B     		ldr	r3, .L165
 2791 0008 53F8800F 		ldr	r0, [r3, #128]!	@ unaligned
 2792              	.LVL367:
 2793 000c 0090     		str	r0, [sp]	@ unaligned
 2794 000e 9B88     		ldrh	r3, [r3, #4]	@ unaligned
 2795 0010 ADF80430 		strh	r3, [sp, #4]	@ unaligned
 649:bme680.c      **** 	meas_cycles += os_to_meas_cycles[dev->tph_sett.os_pres];
 2796              		.loc 1 649 0
 2797 0014 91F83930 		ldrb	r3, [r1, #57]	@ zero_extendqisi2
 2798 0018 02A8     		add	r0, sp, #8
 2799 001a 0344     		add	r3, r3, r0
 2800 001c 13F8083C 		ldrb	r3, [r3, #-8]	@ zero_extendqisi2
 2801              	.LVL368:
 650:bme680.c      **** 	meas_cycles += os_to_meas_cycles[dev->tph_sett.os_hum];
 2802              		.loc 1 650 0
 2803 0020 91F83A00 		ldrb	r0, [r1, #58]	@ zero_extendqisi2
 2804 0024 02AC     		add	r4, sp, #8
 2805 0026 2044     		add	r0, r0, r4
 2806 0028 10F8080C 		ldrb	r0, [r0, #-8]	@ zero_extendqisi2
 2807 002c 0344     		add	r3, r3, r0
 2808              	.LVL369:
 651:bme680.c      **** 
 2809              		.loc 1 651 0
ARM GAS  C:\Users\adria\AppData\Local\Temp\cciNfgxb.s 			page 84


 2810 002e 91F83800 		ldrb	r0, [r1, #56]	@ zero_extendqisi2
 2811 0032 2044     		add	r0, r0, r4
 2812 0034 10F8080C 		ldrb	r0, [r0, #-8]	@ zero_extendqisi2
 2813 0038 0344     		add	r3, r3, r0
 2814              	.LVL370:
 657:bme680.c      **** 	tph_dur /= UINT32_C(1000); /* Convert to ms */
 2815              		.loc 1 657 0
 2816 003a 41F2B920 		movw	r0, #4793
 2817 003e 40F2AB74 		movw	r4, #1963
 2818 0042 04FB0300 		mla	r0, r4, r3, r0
 2819              	.LVL371:
 658:bme680.c      **** 
 2820              		.loc 1 658 0
 2821 0046 064B     		ldr	r3, .L165+4
 2822              	.LVL372:
 2823 0048 A3FB0030 		umull	r3, r0, r3, r0
 2824              	.LVL373:
 2825 004c 8009     		lsrs	r0, r0, #6
 2826              	.LVL374:
 660:bme680.c      **** 	/* The remaining time should be used for heating */
 2827              		.loc 1 660 0
 2828 004e 0130     		adds	r0, r0, #1
 2829              	.LVL375:
 662:bme680.c      **** }
 2830              		.loc 1 662 0
 2831 0050 101A     		subs	r0, r2, r0
 2832              	.LVL376:
 2833 0052 A1F84200 		strh	r0, [r1, #66]	@ movhi
 663:bme680.c      **** 
 2834              		.loc 1 663 0
 2835 0056 03B0     		add	sp, sp, #12
 2836              		.cfi_def_cfa_offset 4
 2837              		@ sp needed
 2838 0058 10BC     		pop	{r4}
 2839              		.cfi_restore 4
 2840              		.cfi_def_cfa_offset 0
 2841              	.LVL377:
 2842 005a 7047     		bx	lr
 2843              	.L166:
 2844              		.align	2
 2845              	.L165:
 2846 005c 00000000 		.word	.LANCHOR0
 2847 0060 D34D6210 		.word	274877907
 2848              		.cfi_endproc
 2849              	.LFE71:
 2850              		.size	bme680_set_profile_dur, .-bme680_set_profile_dur
 2851              		.section	.text.bme680_get_profile_dur,"ax",%progbits
 2852              		.align	2
 2853              		.global	bme680_get_profile_dur
 2854              		.thumb
 2855              		.thumb_func
 2856              		.type	bme680_get_profile_dur, %function
 2857              	bme680_get_profile_dur:
 2858              	.LFB72:
 669:bme680.c      **** 	uint32_t tph_dur; /* Calculate in us */
 2859              		.loc 1 669 0
 2860              		.cfi_startproc
ARM GAS  C:\Users\adria\AppData\Local\Temp\cciNfgxb.s 			page 85


 2861              		@ args = 0, pretend = 0, frame = 8
 2862              		@ frame_needed = 0, uses_anonymous_args = 0
 2863              		@ link register save eliminated.
 2864              	.LVL378:
 2865 0000 10B4     		push	{r4}
 2866              		.cfi_def_cfa_offset 4
 2867              		.cfi_offset 4, -4
 2868 0002 83B0     		sub	sp, sp, #12
 2869              		.cfi_def_cfa_offset 16
 2870 0004 0446     		mov	r4, r0
 672:bme680.c      **** 
 2871              		.loc 1 672 0
 2872 0006 184B     		ldr	r3, .L170
 2873 0008 53F8800F 		ldr	r0, [r3, #128]!	@ unaligned
 2874              	.LVL379:
 2875 000c 0090     		str	r0, [sp]	@ unaligned
 2876 000e 9B88     		ldrh	r3, [r3, #4]	@ unaligned
 2877 0010 ADF80430 		strh	r3, [sp, #4]	@ unaligned
 674:bme680.c      **** 	meas_cycles += os_to_meas_cycles[dev->tph_sett.os_pres];
 2878              		.loc 1 674 0
 2879 0014 91F83930 		ldrb	r3, [r1, #57]	@ zero_extendqisi2
 2880 0018 02AA     		add	r2, sp, #8
 2881 001a 1344     		add	r3, r3, r2
 2882 001c 13F8083C 		ldrb	r3, [r3, #-8]	@ zero_extendqisi2
 2883              	.LVL380:
 675:bme680.c      **** 	meas_cycles += os_to_meas_cycles[dev->tph_sett.os_hum];
 2884              		.loc 1 675 0
 2885 0020 91F83A20 		ldrb	r2, [r1, #58]	@ zero_extendqisi2
 2886 0024 02A8     		add	r0, sp, #8
 2887 0026 0244     		add	r2, r2, r0
 2888 0028 12F8082C 		ldrb	r2, [r2, #-8]	@ zero_extendqisi2
 2889 002c 1344     		add	r3, r3, r2
 2890              	.LVL381:
 676:bme680.c      **** 
 2891              		.loc 1 676 0
 2892 002e 91F83820 		ldrb	r2, [r1, #56]	@ zero_extendqisi2
 2893 0032 0244     		add	r2, r2, r0
 2894 0034 12F8082C 		ldrb	r2, [r2, #-8]	@ zero_extendqisi2
 2895 0038 1A44     		add	r2, r2, r3
 2896              	.LVL382:
 682:bme680.c      **** 	tph_dur /= UINT32_C(1000); /* Convert to ms */
 2897              		.loc 1 682 0
 2898 003a 41F2B923 		movw	r3, #4793
 2899 003e 40F2AB70 		movw	r0, #1963
 2900 0042 00FB0233 		mla	r3, r0, r2, r3
 2901              	.LVL383:
 683:bme680.c      **** 
 2902              		.loc 1 683 0
 2903 0046 094A     		ldr	r2, .L170+4
 2904              	.LVL384:
 2905 0048 A2FB0323 		umull	r2, r3, r2, r3
 2906              	.LVL385:
 2907 004c 9B09     		lsrs	r3, r3, #6
 2908              	.LVL386:
 685:bme680.c      **** 
 2909              		.loc 1 685 0
 2910 004e 0133     		adds	r3, r3, #1
ARM GAS  C:\Users\adria\AppData\Local\Temp\cciNfgxb.s 			page 86


 2911              	.LVL387:
 687:bme680.c      **** 
 2912              		.loc 1 687 0
 2913 0050 9BB2     		uxth	r3, r3
 2914              	.LVL388:
 2915 0052 2380     		strh	r3, [r4]	@ movhi
 2916              	.LVL389:
 690:bme680.c      **** 		/* The remaining time should be used for heating */
 2917              		.loc 1 690 0
 2918 0054 91F83E20 		ldrb	r2, [r1, #62]	@ zero_extendqisi2
 2919 0058 1AB1     		cbz	r2, .L167
 692:bme680.c      **** 	}
 2920              		.loc 1 692 0
 2921 005a B1F84220 		ldrh	r2, [r1, #66]
 2922 005e 1344     		add	r3, r3, r2
 2923 0060 2380     		strh	r3, [r4]	@ movhi
 2924              	.L167:
 694:bme680.c      **** 
 2925              		.loc 1 694 0
 2926 0062 03B0     		add	sp, sp, #12
 2927              		.cfi_def_cfa_offset 4
 2928              		@ sp needed
 2929 0064 10BC     		pop	{r4}
 2930              		.cfi_restore 4
 2931              		.cfi_def_cfa_offset 0
 2932              	.LVL390:
 2933 0066 7047     		bx	lr
 2934              	.L171:
 2935              		.align	2
 2936              	.L170:
 2937 0068 00000000 		.word	.LANCHOR0
 2938 006c D34D6210 		.word	274877907
 2939              		.cfi_endproc
 2940              	.LFE72:
 2941              		.size	bme680_get_profile_dur, .-bme680_get_profile_dur
 2942              		.section	.text.bme680_get_sensor_data,"ax",%progbits
 2943              		.align	2
 2944              		.global	bme680_get_sensor_data
 2945              		.thumb
 2946              		.thumb_func
 2947              		.type	bme680_get_sensor_data, %function
 2948              	bme680_get_sensor_data:
 2949              	.LFB73:
 702:bme680.c      **** 	int8_t rslt;
 2950              		.loc 1 702 0
 2951              		.cfi_startproc
 2952              		@ args = 0, pretend = 0, frame = 0
 2953              		@ frame_needed = 0, uses_anonymous_args = 0
 2954              	.LVL391:
 2955 0000 38B5     		push	{r3, r4, r5, lr}
 2956              		.cfi_def_cfa_offset 16
 2957              		.cfi_offset 3, -16
 2958              		.cfi_offset 4, -12
 2959              		.cfi_offset 5, -8
 2960              		.cfi_offset 14, -4
 2961 0002 0546     		mov	r5, r0
 2962 0004 0C46     		mov	r4, r1
ARM GAS  C:\Users\adria\AppData\Local\Temp\cciNfgxb.s 			page 87


 706:bme680.c      **** 	if (rslt == BME680_OK) {
 2963              		.loc 1 706 0
 2964 0006 0846     		mov	r0, r1
 2965              	.LVL392:
 2966 0008 FFF7FEFF 		bl	null_ptr_check
 2967              	.LVL393:
 707:bme680.c      **** 		/* Reading the sensor data in forced mode only */
 2968              		.loc 1 707 0
 2969 000c 0346     		mov	r3, r0
 2970 000e 80B9     		cbnz	r0, .L173
 709:bme680.c      **** 		if (rslt == BME680_OK) {
 2971              		.loc 1 709 0
 2972 0010 2146     		mov	r1, r4
 2973 0012 2846     		mov	r0, r5
 2974              	.LVL394:
 2975 0014 FFF7FEFF 		bl	read_field_data
 2976              	.LVL395:
 710:bme680.c      **** 			if (data->status & BME680_NEW_DATA_MSK)
 2977              		.loc 1 710 0
 2978 0018 0346     		mov	r3, r0
 2979 001a 50B9     		cbnz	r0, .L173
 711:bme680.c      **** 				dev->new_fields = 1;
 2980              		.loc 1 711 0
 2981 001c 95F90020 		ldrsb	r2, [r5]
 2982 0020 002A     		cmp	r2, #0
 2983 0022 03DA     		bge	.L174
 712:bme680.c      **** 			else
 2984              		.loc 1 712 0
 2985 0024 0122     		movs	r2, #1
 2986 0026 84F84520 		strb	r2, [r4, #69]
 2987 002a 02E0     		b	.L173
 2988              	.L174:
 714:bme680.c      **** 		}
 2989              		.loc 1 714 0
 2990 002c 0022     		movs	r2, #0
 2991 002e 84F84520 		strb	r2, [r4, #69]
 2992              	.L173:
 2993              	.LVL396:
 719:bme680.c      **** 
 2994              		.loc 1 719 0
 2995 0032 1846     		mov	r0, r3
 2996 0034 38BD     		pop	{r3, r4, r5, pc}
 2997              		.cfi_endproc
 2998              	.LFE73:
 2999              		.size	bme680_get_sensor_data, .-bme680_get_sensor_data
 3000 0036 00BF     		.section	.text.bme680_self_test,"ax",%progbits
 3001              		.align	2
 3002              		.global	bme680_self_test
 3003              		.thumb
 3004              		.thumb_func
 3005              		.type	bme680_self_test, %function
 3006              	bme680_self_test:
 3007              	.LFB88:
1381:bme680.c      **** 	int8_t rslt = BME680_OK;
 3008              		.loc 1 1381 0
 3009              		.cfi_startproc
 3010              		@ args = 0, pretend = 0, frame = 216
ARM GAS  C:\Users\adria\AppData\Local\Temp\cciNfgxb.s 			page 88


 3011              		@ frame_needed = 0, uses_anonymous_args = 0
 3012              	.LVL397:
 3013 0000 30B5     		push	{r4, r5, lr}
 3014              		.cfi_def_cfa_offset 12
 3015              		.cfi_offset 4, -12
 3016              		.cfi_offset 5, -8
 3017              		.cfi_offset 14, -4
 3018 0002 B7B0     		sub	sp, sp, #220
 3019              		.cfi_def_cfa_offset 232
 3020              	.LVL398:
1388:bme680.c      **** 	t_dev.amb_temp = 25;
 3021              		.loc 1 1388 0
 3022 0004 4378     		ldrb	r3, [r0, #1]	@ zero_extendqisi2
 3023 0006 8DF80930 		strb	r3, [sp, #9]
1389:bme680.c      **** 	t_dev.read = dev->read;
 3024              		.loc 1 1389 0
 3025 000a 1923     		movs	r3, #25
 3026 000c 8DF80C30 		strb	r3, [sp, #12]
1390:bme680.c      **** 	t_dev.write = dev->write;
 3027              		.loc 1 1390 0
 3028 0010 836C     		ldr	r3, [r0, #72]
 3029 0012 1493     		str	r3, [sp, #80]
1391:bme680.c      **** 	t_dev.intf = dev->intf;
 3030              		.loc 1 1391 0
 3031 0014 C36C     		ldr	r3, [r0, #76]
 3032 0016 1593     		str	r3, [sp, #84]
1392:bme680.c      **** 	t_dev.delay_ms = dev->delay_ms;
 3033              		.loc 1 1392 0
 3034 0018 8378     		ldrb	r3, [r0, #2]	@ zero_extendqisi2
 3035 001a 8DF80A30 		strb	r3, [sp, #10]
1393:bme680.c      **** 
 3036              		.loc 1 1393 0
 3037 001e 036D     		ldr	r3, [r0, #80]
 3038 0020 1693     		str	r3, [sp, #88]
1395:bme680.c      **** 
 3039              		.loc 1 1395 0
 3040 0022 02A8     		add	r0, sp, #8
 3041              	.LVL399:
 3042 0024 FFF7FEFF 		bl	bme680_init
 3043              	.LVL400:
1397:bme680.c      **** 		/* Select the power mode */
 3044              		.loc 1 1397 0
 3045 0028 0546     		mov	r5, r0
 3046 002a 0028     		cmp	r0, #0
 3047 002c 46D1     		bne	.L177
 3048              	.LBB3:
1400:bme680.c      **** 
 3049              		.loc 1 1400 0
 3050 002e 0123     		movs	r3, #1
 3051 0030 8DF84C30 		strb	r3, [sp, #76]
1405:bme680.c      **** 		t_dev.tph_sett.os_pres = BME680_OS_16X;
 3052              		.loc 1 1405 0
 3053 0034 8DF84030 		strb	r3, [sp, #64]
1406:bme680.c      **** 		t_dev.tph_sett.os_temp = BME680_OS_2X;
 3054              		.loc 1 1406 0
 3055 0038 0522     		movs	r2, #5
 3056 003a 8DF84220 		strb	r2, [sp, #66]
ARM GAS  C:\Users\adria\AppData\Local\Temp\cciNfgxb.s 			page 89


1407:bme680.c      **** 
 3057              		.loc 1 1407 0
 3058 003e 0222     		movs	r2, #2
 3059 0040 8DF84120 		strb	r2, [sp, #65]
1410:bme680.c      **** 		t_dev.gas_sett.heatr_dur = HEATR_DUR;
 3060              		.loc 1 1410 0
 3061 0044 8DF84630 		strb	r3, [sp, #70]
1411:bme680.c      **** 
 3062              		.loc 1 1411 0
 3063 0048 4FF4FA63 		mov	r3, #2000
 3064 004c ADF84A30 		strh	r3, [sp, #74]	@ movhi
 3065              	.LVL401:
1415:bme680.c      **** 		bme680_get_profile_dur(&profile_dur, &t_dev);
 3066              		.loc 1 1415 0
 3067 0050 0024     		movs	r4, #0
 3068 0052 ADF80640 		strh	r4, [sp, #6]	@ movhi
1416:bme680.c      **** 
 3069              		.loc 1 1416 0
 3070 0056 02A9     		add	r1, sp, #8
 3071 0058 0DF10600 		add	r0, sp, #6
 3072              	.LVL402:
 3073 005c FFF7FEFF 		bl	bme680_get_profile_dur
 3074              	.LVL403:
1419:bme680.c      **** 			if (rslt == BME680_OK) {
 3075              		.loc 1 1419 0
 3076 0060 23E0     		b	.L178
 3077              	.LVL404:
 3078              	.L183:
1420:bme680.c      **** 
 3079              		.loc 1 1420 0
 3080 0062 05BB     		cbnz	r5, .L179
1422:bme680.c      **** 					t_dev.gas_sett.heatr_temp = HIGH_TEMP; /* Higher temperature */
 3081              		.loc 1 1422 0
 3082 0064 14F0010F 		tst	r4, #1
 3083 0068 04D1     		bne	.L180
1423:bme680.c      **** 				else
 3084              		.loc 1 1423 0
 3085 006a 4FF4AF73 		mov	r3, #350
 3086 006e ADF84830 		strh	r3, [sp, #72]	@ movhi
 3087 0072 02E0     		b	.L181
 3088              	.L180:
1425:bme680.c      **** 
 3089              		.loc 1 1425 0
 3090 0074 9623     		movs	r3, #150
 3091 0076 ADF84830 		strh	r3, [sp, #72]	@ movhi
 3092              	.L181:
1427:bme680.c      **** 
 3093              		.loc 1 1427 0
 3094 007a 02A9     		add	r1, sp, #8
 3095 007c CF20     		movs	r0, #207
 3096 007e FFF7FEFF 		bl	bme680_set_sensor_settings
 3097              	.LVL405:
1429:bme680.c      **** 
 3098              		.loc 1 1429 0
 3099 0082 0546     		mov	r5, r0
 3100 0084 78B9     		cbnz	r0, .L179
1431:bme680.c      **** 
ARM GAS  C:\Users\adria\AppData\Local\Temp\cciNfgxb.s 			page 90


 3101              		.loc 1 1431 0
 3102 0086 02A8     		add	r0, sp, #8
 3103              	.LVL406:
 3104 0088 FFF7FEFF 		bl	bme680_set_sensor_mode
 3105              	.LVL407:
1433:bme680.c      **** 
 3106              		.loc 1 1433 0
 3107 008c BDF80600 		ldrh	r0, [sp, #6]
 3108 0090 169B     		ldr	r3, [sp, #88]
 3109 0092 9847     		blx	r3
 3110              	.LVL408:
1435:bme680.c      **** 				}
 3111              		.loc 1 1435 0
 3112 0094 04EB8403 		add	r3, r4, r4, lsl #2
 3113 0098 9800     		lsls	r0, r3, #2
 3114 009a 02A9     		add	r1, sp, #8
 3115 009c 18AB     		add	r3, sp, #96
 3116 009e 1844     		add	r0, r0, r3
 3117 00a0 FFF7FEFF 		bl	bme680_get_sensor_data
 3118              	.LVL409:
 3119 00a4 0546     		mov	r5, r0
 3120              	.LVL410:
 3121              	.L179:
1439:bme680.c      **** 		}
 3122              		.loc 1 1439 0
 3123 00a6 0134     		adds	r4, r4, #1
 3124              	.LVL411:
 3125 00a8 E4B2     		uxtb	r4, r4
 3126              	.LVL412:
 3127              	.L178:
1419:bme680.c      **** 			if (rslt == BME680_OK) {
 3128              		.loc 1 1419 0
 3129 00aa 0DB9     		cbnz	r5, .L182
1419:bme680.c      **** 			if (rslt == BME680_OK) {
 3130              		.loc 1 1419 0 is_stmt 0 discriminator 1
 3131 00ac 052C     		cmp	r4, #5
 3132 00ae D8D9     		bls	.L183
 3133              	.L182:
1442:bme680.c      **** 			rslt = analyze_sensor_data(data, N_MEAS);
 3134              		.loc 1 1442 0 is_stmt 1
 3135 00b0 25B9     		cbnz	r5, .L177
1443:bme680.c      **** 	}
 3136              		.loc 1 1443 0
 3137 00b2 0621     		movs	r1, #6
 3138 00b4 18A8     		add	r0, sp, #96
 3139 00b6 FFF7FEFF 		bl	analyze_sensor_data
 3140              	.LVL413:
 3141 00ba 0546     		mov	r5, r0
 3142              	.LVL414:
 3143              	.L177:
 3144              	.LBE3:
1447:bme680.c      **** 
 3145              		.loc 1 1447 0
 3146 00bc 2846     		mov	r0, r5
 3147 00be 37B0     		add	sp, sp, #220
 3148              		.cfi_def_cfa_offset 12
 3149              		@ sp needed
ARM GAS  C:\Users\adria\AppData\Local\Temp\cciNfgxb.s 			page 91


 3150 00c0 30BD     		pop	{r4, r5, pc}
 3151              		.cfi_endproc
 3152              	.LFE88:
 3153              		.size	bme680_self_test, .-bme680_self_test
 3154 00c2 00BF     		.section	.text.bme680_setup,"ax",%progbits
 3155              		.align	2
 3156              		.global	bme680_setup
 3157              		.thumb
 3158              		.thumb_func
 3159              		.type	bme680_setup, %function
 3160              	bme680_setup:
 3161              	.LFB93:
1584:bme680.c      **** 
1585:bme680.c      **** int8_t bme680_setup(struct bme680_dev *dev)
1586:bme680.c      **** {
 3162              		.loc 1 1586 0
 3163              		.cfi_startproc
 3164              		@ args = 0, pretend = 0, frame = 0
 3165              		@ frame_needed = 0, uses_anonymous_args = 0
 3166              	.LVL415:
 3167 0000 08B5     		push	{r3, lr}
 3168              		.cfi_def_cfa_offset 8
 3169              		.cfi_offset 3, -8
 3170              		.cfi_offset 14, -4
1587:bme680.c      ****     dev->dev_id = BME680_I2C_ADDR_PRIMARY;
 3171              		.loc 1 1587 0
 3172 0002 7622     		movs	r2, #118
 3173 0004 4270     		strb	r2, [r0, #1]
1588:bme680.c      ****     dev->intf = BME680_I2C_INTF;
 3174              		.loc 1 1588 0
 3175 0006 0122     		movs	r2, #1
 3176 0008 8270     		strb	r2, [r0, #2]
1589:bme680.c      ****     dev->read = user_i2c_read;
 3177              		.loc 1 1589 0
 3178 000a 054A     		ldr	r2, .L188
 3179 000c 8264     		str	r2, [r0, #72]
1590:bme680.c      ****     dev->write = user_i2c_write;
 3180              		.loc 1 1590 0
 3181 000e 054A     		ldr	r2, .L188+4
 3182 0010 C264     		str	r2, [r0, #76]
1591:bme680.c      ****     dev->delay_ms = user_delay_ms;
 3183              		.loc 1 1591 0
 3184 0012 054A     		ldr	r2, .L188+8
 3185 0014 0265     		str	r2, [r0, #80]
1592:bme680.c      ****     /* amb_temp can be set to 25 prior to configuring the gas sensor 
1593:bme680.c      ****      * or by performing a few temperature readings without operating the gas sensor.
1594:bme680.c      ****      */
1595:bme680.c      ****     dev->amb_temp = 25;
 3186              		.loc 1 1595 0
 3187 0016 1922     		movs	r2, #25
 3188 0018 0271     		strb	r2, [r0, #4]
 3189              	.LVL416:
1596:bme680.c      ****     
1597:bme680.c      ****     int8_t rslt = BME680_OK;
1598:bme680.c      ****     rslt = bme680_init(dev);
 3190              		.loc 1 1598 0
 3191 001a FFF7FEFF 		bl	bme680_init
ARM GAS  C:\Users\adria\AppData\Local\Temp\cciNfgxb.s 			page 92


 3192              	.LVL417:
1599:bme680.c      ****     
1600:bme680.c      ****     return rslt;
1601:bme680.c      **** }
 3193              		.loc 1 1601 0
 3194 001e 08BD     		pop	{r3, pc}
 3195              	.L189:
 3196              		.align	2
 3197              	.L188:
 3198 0020 00000000 		.word	user_i2c_read
 3199 0024 00000000 		.word	user_i2c_write
 3200 0028 00000000 		.word	user_delay_ms
 3201              		.cfi_endproc
 3202              	.LFE93:
 3203              		.size	bme680_setup, .-bme680_setup
 3204              		.section	.text.bme680_config,"ax",%progbits
 3205              		.align	2
 3206              		.global	bme680_config
 3207              		.thumb
 3208              		.thumb_func
 3209              		.type	bme680_config, %function
 3210              	bme680_config:
 3211              	.LFB94:
1602:bme680.c      **** 
1603:bme680.c      **** int8_t bme680_config(struct bme680_dev *dev)
1604:bme680.c      **** {
 3212              		.loc 1 1604 0
 3213              		.cfi_startproc
 3214              		@ args = 0, pretend = 0, frame = 0
 3215              		@ frame_needed = 0, uses_anonymous_args = 0
 3216              	.LVL418:
 3217 0000 10B5     		push	{r4, lr}
 3218              		.cfi_def_cfa_offset 8
 3219              		.cfi_offset 4, -8
 3220              		.cfi_offset 14, -4
 3221 0002 0446     		mov	r4, r0
1605:bme680.c      ****     uint8_t set_required_settings;
1606:bme680.c      ****     
1607:bme680.c      ****     /* Set the temperature, pressure and humidity settings */
1608:bme680.c      ****     dev->tph_sett.os_hum = BME680_OS_2X;
 3222              		.loc 1 1608 0
 3223 0004 0223     		movs	r3, #2
 3224 0006 80F83830 		strb	r3, [r0, #56]
1609:bme680.c      ****     dev->tph_sett.os_pres = BME680_OS_4X;
 3225              		.loc 1 1609 0
 3226 000a 0322     		movs	r2, #3
 3227 000c 80F83A20 		strb	r2, [r0, #58]
1610:bme680.c      ****     dev->tph_sett.os_temp = BME680_OS_8X;
 3228              		.loc 1 1610 0
 3229 0010 0422     		movs	r2, #4
 3230 0012 80F83920 		strb	r2, [r0, #57]
1611:bme680.c      ****     dev->tph_sett.filter = BME680_FILTER_SIZE_3;
 3231              		.loc 1 1611 0
 3232 0016 80F83B30 		strb	r3, [r0, #59]
1612:bme680.c      ****     
1613:bme680.c      ****     /* Set the remaining gas sensor settings and link the heating profile */
1614:bme680.c      ****     dev->gas_sett.run_gas = BME680_ENABLE_GAS_MEAS;
ARM GAS  C:\Users\adria\AppData\Local\Temp\cciNfgxb.s 			page 93


 3233              		.loc 1 1614 0
 3234 001a 0123     		movs	r3, #1
 3235 001c 80F83E30 		strb	r3, [r0, #62]
1615:bme680.c      ****     /* Create a ramp heat waveform in 3 steps */
1616:bme680.c      ****     dev->gas_sett.heatr_temp = 320; /* degree Celsius */
 3236              		.loc 1 1616 0
 3237 0020 4FF4A072 		mov	r2, #320
 3238 0024 A0F84020 		strh	r2, [r0, #64]	@ movhi
1617:bme680.c      ****     dev->gas_sett.heatr_dur = 150; /* milliseconds */
 3239              		.loc 1 1617 0
 3240 0028 9622     		movs	r2, #150
 3241 002a A0F84220 		strh	r2, [r0, #66]	@ movhi
1618:bme680.c      ****     
1619:bme680.c      ****     /* Select the power mode */
1620:bme680.c      ****     /* Must be set before writing the sensor configuration */
1621:bme680.c      ****     dev->power_mode = BME680_FORCED_MODE;
 3242              		.loc 1 1621 0
 3243 002e 80F84430 		strb	r3, [r0, #68]
 3244              	.LVL419:
1622:bme680.c      ****     
1623:bme680.c      ****     /* Set the required sensor settings needed */
1624:bme680.c      ****     set_required_settings = BME680_OST_SEL | BME680_OSP_SEL | BME680_OSH_SEL | BME680_FILTER_SEL 
1625:bme680.c      ****         | BME680_GAS_SENSOR_SEL;
1626:bme680.c      ****     
1627:bme680.c      ****     int8_t rslt = BME680_OK;
1628:bme680.c      **** 
1629:bme680.c      ****     /* Set the desired sensor configuration */
1630:bme680.c      ****     rslt = bme680_set_sensor_settings(set_required_settings,dev);
 3245              		.loc 1 1630 0
 3246 0032 0146     		mov	r1, r0
 3247 0034 DF20     		movs	r0, #223
 3248              	.LVL420:
 3249 0036 FFF7FEFF 		bl	bme680_set_sensor_settings
 3250              	.LVL421:
1631:bme680.c      **** 
1632:bme680.c      ****     /* Set the power mode */
1633:bme680.c      ****     rslt = bme680_set_sensor_mode(dev);
 3251              		.loc 1 1633 0
 3252 003a 2046     		mov	r0, r4
 3253 003c FFF7FEFF 		bl	bme680_set_sensor_mode
 3254              	.LVL422:
1634:bme680.c      ****     
1635:bme680.c      ****     return rslt;
1636:bme680.c      **** }
 3255              		.loc 1 1636 0
 3256 0040 10BD     		pop	{r4, pc}
 3257              		.cfi_endproc
 3258              	.LFE94:
 3259              		.size	bme680_config, .-bme680_config
 3260 0042 00BF     		.section	.text.bme680_readData,"ax",%progbits
 3261              		.align	2
 3262              		.global	bme680_readData
 3263              		.thumb
 3264              		.thumb_func
 3265              		.type	bme680_readData, %function
 3266              	bme680_readData:
 3267              	.LFB95:
ARM GAS  C:\Users\adria\AppData\Local\Temp\cciNfgxb.s 			page 94


1637:bme680.c      **** 
1638:bme680.c      **** sdata_bme680 bme680_readData(struct bme680_dev *dev)
1639:bme680.c      **** {
 3268              		.loc 1 1639 0
 3269              		.cfi_startproc
 3270              		@ args = 0, pretend = 0, frame = 24
 3271              		@ frame_needed = 0, uses_anonymous_args = 0
 3272              	.LVL423:
 3273 0000 70B5     		push	{r4, r5, r6, lr}
 3274              		.cfi_def_cfa_offset 16
 3275              		.cfi_offset 4, -16
 3276              		.cfi_offset 5, -12
 3277              		.cfi_offset 6, -8
 3278              		.cfi_offset 14, -4
 3279 0002 86B0     		sub	sp, sp, #24
 3280              		.cfi_def_cfa_offset 40
 3281 0004 0646     		mov	r6, r0
 3282 0006 0C46     		mov	r4, r1
1640:bme680.c      ****     uint16_t meas_period;
1641:bme680.c      ****     uint8_t rslt;
1642:bme680.c      ****     
1643:bme680.c      ****     bme680_get_profile_dur(&meas_period, dev);
 3283              		.loc 1 1643 0
 3284 0008 0DF11600 		add	r0, sp, #22
 3285              	.LVL424:
 3286 000c FFF7FEFF 		bl	bme680_get_profile_dur
 3287              	.LVL425:
1644:bme680.c      **** 
1645:bme680.c      ****     sdata_bme680 data;
1646:bme680.c      **** 
1647:bme680.c      ****     user_delay_ms(meas_period); /* Delay till the measurement is ready */
 3288              		.loc 1 1647 0
 3289 0010 BDF81600 		ldrh	r0, [sp, #22]
 3290 0014 FFF7FEFF 		bl	user_delay_ms
 3291              	.LVL426:
1648:bme680.c      **** 
1649:bme680.c      ****     rslt = bme680_get_sensor_data(&data, dev);
 3292              		.loc 1 1649 0
 3293 0018 2146     		mov	r1, r4
 3294 001a 6846     		mov	r0, sp
 3295 001c FFF7FEFF 		bl	bme680_get_sensor_data
 3296              	.LVL427:
1650:bme680.c      ****     
1651:bme680.c      ****     /* Trigger the next measurement if you would like to read data out continuously */
1652:bme680.c      ****     if (dev->power_mode == BME680_FORCED_MODE) {
 3297              		.loc 1 1652 0
 3298 0020 94F84430 		ldrb	r3, [r4, #68]	@ zero_extendqisi2
 3299 0024 012B     		cmp	r3, #1
 3300 0026 02D1     		bne	.L193
1653:bme680.c      ****         rslt = bme680_set_sensor_mode(dev);
 3301              		.loc 1 1653 0
 3302 0028 2046     		mov	r0, r4
 3303 002a FFF7FEFF 		bl	bme680_set_sensor_mode
 3304              	.LVL428:
 3305              	.L193:
1654:bme680.c      ****     }
1655:bme680.c      ****         
ARM GAS  C:\Users\adria\AppData\Local\Temp\cciNfgxb.s 			page 95


1656:bme680.c      ****     return data;
 3306              		.loc 1 1656 0
 3307 002e 3446     		mov	r4, r6
 3308              	.LVL429:
 3309 0030 6D46     		mov	r5, sp
 3310 0032 0FCD     		ldmia	r5!, {r0, r1, r2, r3}
 3311 0034 0FC4     		stmia	r4!, {r0, r1, r2, r3}
 3312 0036 2B68     		ldr	r3, [r5]
 3313 0038 2360     		str	r3, [r4]
1657:bme680.c      **** }
 3314              		.loc 1 1657 0
 3315 003a 3046     		mov	r0, r6
 3316 003c 06B0     		add	sp, sp, #24
 3317              		.cfi_def_cfa_offset 16
 3318              		@ sp needed
 3319 003e 70BD     		pop	{r4, r5, r6, pc}
 3320              		.cfi_endproc
 3321              	.LFE95:
 3322              		.size	bme680_readData, .-bme680_readData
 3323              		.section	.text.bme680_Start,"ax",%progbits
 3324              		.align	2
 3325              		.global	bme680_Start
 3326              		.thumb
 3327              		.thumb_func
 3328              		.type	bme680_Start, %function
 3329              	bme680_Start:
 3330              	.LFB96:
1658:bme680.c      **** 
1659:bme680.c      **** int8_t bme680_Start(struct bme680_dev *dev)
1660:bme680.c      **** {
 3331              		.loc 1 1660 0
 3332              		.cfi_startproc
 3333              		@ args = 0, pretend = 0, frame = 0
 3334              		@ frame_needed = 0, uses_anonymous_args = 0
 3335              	.LVL430:
 3336 0000 10B5     		push	{r4, lr}
 3337              		.cfi_def_cfa_offset 8
 3338              		.cfi_offset 4, -8
 3339              		.cfi_offset 14, -4
 3340 0002 0446     		mov	r4, r0
1661:bme680.c      ****     int8_t rslt;
1662:bme680.c      ****     
1663:bme680.c      ****     rslt = bme680_setup(dev);
 3341              		.loc 1 1663 0
 3342 0004 FFF7FEFF 		bl	bme680_setup
 3343              	.LVL431:
1664:bme680.c      ****     rslt = bme680_config(dev);
 3344              		.loc 1 1664 0
 3345 0008 2046     		mov	r0, r4
 3346 000a FFF7FEFF 		bl	bme680_config
 3347              	.LVL432:
1665:bme680.c      ****     
1666:bme680.c      ****     return rslt;
1667:bme680.c      **** }
 3348              		.loc 1 1667 0
 3349 000e 10BD     		pop	{r4, pc}
 3350              		.cfi_endproc
ARM GAS  C:\Users\adria\AppData\Local\Temp\cciNfgxb.s 			page 96


 3351              	.LFE96:
 3352              		.size	bme680_Start, .-bme680_Start
 3353              		.comm	sensor_bme680,88,4
 3354              		.section	.rodata
 3355              		.align	2
 3356              		.set	.LANCHOR0,. + 0
 3357              	.LC1:
 3358 0000 FFFFFF7F 		.word	2147483647
 3359 0004 FFFFFF7F 		.word	2147483647
 3360 0008 FFFFFF7F 		.word	2147483647
 3361 000c FFFFFF7F 		.word	2147483647
 3362 0010 FFFFFF7F 		.word	2147483647
 3363 0014 EA51B87E 		.word	2126008810
 3364 0018 FFFFFF7F 		.word	2147483647
 3365 001c 21DBF97E 		.word	2130303777
 3366 0020 FFFFFF7F 		.word	2147483647
 3367 0024 FFFFFF7F 		.word	2147483647
 3368 0028 C776BE7F 		.word	2143188679
 3369 002c F4285C7F 		.word	2136746228
 3370 0030 FFFFFF7F 		.word	2147483647
 3371 0034 EA51B87E 		.word	2126008810
 3372 0038 FFFFFF7F 		.word	2147483647
 3373 003c FFFFFF7F 		.word	2147483647
 3374              	.LC2:
 3375 0040 000024F4 		.word	-198967296
 3376 0044 0000127A 		.word	2048000000
 3377 0048 0000093D 		.word	1024000000
 3378 004c 0080841E 		.word	512000000
 3379 0050 FF583E0F 		.word	255744255
 3380 0054 548C9307 		.word	127110228
 3381 0058 0090D003 		.word	64000000
 3382 005c 1038EC01 		.word	32258064
 3383 0060 9062F400 		.word	16016016
 3384 0064 00127A00 		.word	8000000
 3385 0068 00093D00 		.word	4000000
 3386 006c 80841E00 		.word	2000000
 3387 0070 40420F00 		.word	1000000
 3388 0074 20A10700 		.word	500000
 3389 0078 90D00300 		.word	250000
 3390 007c 48E80100 		.word	125000
 3391              	.LC0:
 3392 0080 00       		.byte	0
 3393 0081 01       		.byte	1
 3394 0082 02       		.byte	2
 3395 0083 04       		.byte	4
 3396 0084 08       		.byte	8
 3397 0085 10       		.byte	16
 3398              		.text
 3399              	.Letext0:
 3400              		.file 2 "c:\\program files (x86)\\cypress\\psoc creator\\4.4\\psoc creator\\import\\gnu\\arm\\5.4.
 3401              		.file 3 "c:\\program files (x86)\\cypress\\psoc creator\\4.4\\psoc creator\\import\\gnu\\arm\\5.4.
 3402              		.file 4 "bme680_defs.h"
 3403              		.file 5 "bme680.h"
 3404              		.file 6 "Generated_Source\\PSoC5/core_cm3.h"
 3405              		.file 7 "Generated_Source\\PSoC5/CyLib.h"
 3406              		.file 8 "Generated_Source\\PSoC5/I2C.h"
 3407              		.section	.debug_info,"",%progbits
ARM GAS  C:\Users\adria\AppData\Local\Temp\cciNfgxb.s 			page 97


 3408              	.Ldebug_info0:
 3409 0000 651D0000 		.4byte	0x1d65
 3410 0004 0400     		.2byte	0x4
 3411 0006 00000000 		.4byte	.Ldebug_abbrev0
 3412 000a 04       		.byte	0x4
 3413 000b 01       		.uleb128 0x1
 3414 000c F3020000 		.4byte	.LASF201
 3415 0010 0C       		.byte	0xc
 3416 0011 22070000 		.4byte	.LASF202
 3417 0015 1F020000 		.4byte	.LASF203
 3418 0019 00000000 		.4byte	.Ldebug_ranges0+0
 3419 001d 00000000 		.4byte	0
 3420 0021 00000000 		.4byte	.Ldebug_line0
 3421 0025 02       		.uleb128 0x2
 3422 0026 08       		.byte	0x8
 3423 0027 07       		.byte	0x7
 3424 0028 7E020000 		.4byte	.LASF0
 3425 002c 02       		.uleb128 0x2
 3426 002d 04       		.byte	0x4
 3427 002e 07       		.byte	0x7
 3428 002f E5000000 		.4byte	.LASF1
 3429 0033 03       		.uleb128 0x3
 3430 0034 04       		.byte	0x4
 3431 0035 05       		.byte	0x5
 3432 0036 696E7400 		.ascii	"int\000"
 3433 003a 02       		.uleb128 0x2
 3434 003b 01       		.byte	0x1
 3435 003c 06       		.byte	0x6
 3436 003d 13090000 		.4byte	.LASF2
 3437 0041 04       		.uleb128 0x4
 3438 0042 38060000 		.4byte	.LASF3
 3439 0046 02       		.byte	0x2
 3440 0047 1B       		.byte	0x1b
 3441 0048 3A000000 		.4byte	0x3a
 3442 004c 04       		.uleb128 0x4
 3443 004d BC070000 		.4byte	.LASF4
 3444 0051 02       		.byte	0x2
 3445 0052 1D       		.byte	0x1d
 3446 0053 57000000 		.4byte	0x57
 3447 0057 02       		.uleb128 0x2
 3448 0058 01       		.byte	0x1
 3449 0059 08       		.byte	0x8
 3450 005a 57080000 		.4byte	.LASF5
 3451 005e 04       		.uleb128 0x4
 3452 005f BC050000 		.4byte	.LASF6
 3453 0063 02       		.byte	0x2
 3454 0064 29       		.byte	0x29
 3455 0065 69000000 		.4byte	0x69
 3456 0069 02       		.uleb128 0x2
 3457 006a 02       		.byte	0x2
 3458 006b 05       		.byte	0x5
 3459 006c E0060000 		.4byte	.LASF7
 3460 0070 04       		.uleb128 0x4
 3461 0071 A9020000 		.4byte	.LASF8
 3462 0075 02       		.byte	0x2
 3463 0076 2B       		.byte	0x2b
 3464 0077 7B000000 		.4byte	0x7b
ARM GAS  C:\Users\adria\AppData\Local\Temp\cciNfgxb.s 			page 98


 3465 007b 02       		.uleb128 0x2
 3466 007c 02       		.byte	0x2
 3467 007d 07       		.byte	0x7
 3468 007e 51090000 		.4byte	.LASF9
 3469 0082 04       		.uleb128 0x4
 3470 0083 06010000 		.4byte	.LASF10
 3471 0087 02       		.byte	0x2
 3472 0088 3F       		.byte	0x3f
 3473 0089 8D000000 		.4byte	0x8d
 3474 008d 02       		.uleb128 0x2
 3475 008e 04       		.byte	0x4
 3476 008f 05       		.byte	0x5
 3477 0090 07070000 		.4byte	.LASF11
 3478 0094 04       		.uleb128 0x4
 3479 0095 7A080000 		.4byte	.LASF12
 3480 0099 02       		.byte	0x2
 3481 009a 41       		.byte	0x41
 3482 009b 9F000000 		.4byte	0x9f
 3483 009f 02       		.uleb128 0x2
 3484 00a0 04       		.byte	0x4
 3485 00a1 07       		.byte	0x7
 3486 00a2 EC070000 		.4byte	.LASF13
 3487 00a6 04       		.uleb128 0x4
 3488 00a7 6E060000 		.4byte	.LASF14
 3489 00ab 02       		.byte	0x2
 3490 00ac 59       		.byte	0x59
 3491 00ad B1000000 		.4byte	0xb1
 3492 00b1 02       		.uleb128 0x2
 3493 00b2 08       		.byte	0x8
 3494 00b3 05       		.byte	0x5
 3495 00b4 6F050000 		.4byte	.LASF15
 3496 00b8 04       		.uleb128 0x4
 3497 00b9 F6030000 		.4byte	.LASF16
 3498 00bd 02       		.byte	0x2
 3499 00be 5B       		.byte	0x5b
 3500 00bf 25000000 		.4byte	0x25
 3501 00c3 04       		.uleb128 0x4
 3502 00c4 D7010000 		.4byte	.LASF17
 3503 00c8 03       		.byte	0x3
 3504 00c9 14       		.byte	0x14
 3505 00ca 41000000 		.4byte	0x41
 3506 00ce 04       		.uleb128 0x4
 3507 00cf E5040000 		.4byte	.LASF18
 3508 00d3 03       		.byte	0x3
 3509 00d4 18       		.byte	0x18
 3510 00d5 4C000000 		.4byte	0x4c
 3511 00d9 04       		.uleb128 0x4
 3512 00da 17020000 		.4byte	.LASF19
 3513 00de 03       		.byte	0x3
 3514 00df 20       		.byte	0x20
 3515 00e0 5E000000 		.4byte	0x5e
 3516 00e4 04       		.uleb128 0x4
 3517 00e5 84060000 		.4byte	.LASF20
 3518 00e9 03       		.byte	0x3
 3519 00ea 24       		.byte	0x24
 3520 00eb 70000000 		.4byte	0x70
 3521 00ef 04       		.uleb128 0x4
ARM GAS  C:\Users\adria\AppData\Local\Temp\cciNfgxb.s 			page 99


 3522 00f0 12080000 		.4byte	.LASF21
 3523 00f4 03       		.byte	0x3
 3524 00f5 2C       		.byte	0x2c
 3525 00f6 82000000 		.4byte	0x82
 3526 00fa 04       		.uleb128 0x4
 3527 00fb CE010000 		.4byte	.LASF22
 3528 00ff 03       		.byte	0x3
 3529 0100 30       		.byte	0x30
 3530 0101 94000000 		.4byte	0x94
 3531 0105 04       		.uleb128 0x4
 3532 0106 A6030000 		.4byte	.LASF23
 3533 010a 03       		.byte	0x3
 3534 010b 38       		.byte	0x38
 3535 010c A6000000 		.4byte	0xa6
 3536 0110 04       		.uleb128 0x4
 3537 0111 3F070000 		.4byte	.LASF24
 3538 0115 03       		.byte	0x3
 3539 0116 3C       		.byte	0x3c
 3540 0117 B8000000 		.4byte	0xb8
 3541 011b 02       		.uleb128 0x2
 3542 011c 08       		.byte	0x8
 3543 011d 04       		.byte	0x4
 3544 011e 78060000 		.4byte	.LASF25
 3545 0122 05       		.uleb128 0x5
 3546 0123 3C050000 		.4byte	.LASF26
 3547 0127 04       		.byte	0x4
 3548 0128 6901     		.2byte	0x169
 3549 012a 2E010000 		.4byte	0x12e
 3550 012e 06       		.uleb128 0x6
 3551 012f 04       		.byte	0x4
 3552 0130 34010000 		.4byte	0x134
 3553 0134 07       		.uleb128 0x7
 3554 0135 C3000000 		.4byte	0xc3
 3555 0139 52010000 		.4byte	0x152
 3556 013d 08       		.uleb128 0x8
 3557 013e CE000000 		.4byte	0xce
 3558 0142 08       		.uleb128 0x8
 3559 0143 CE000000 		.4byte	0xce
 3560 0147 08       		.uleb128 0x8
 3561 0148 52010000 		.4byte	0x152
 3562 014c 08       		.uleb128 0x8
 3563 014d E4000000 		.4byte	0xe4
 3564 0151 00       		.byte	0
 3565 0152 06       		.uleb128 0x6
 3566 0153 04       		.byte	0x4
 3567 0154 CE000000 		.4byte	0xce
 3568 0158 05       		.uleb128 0x5
 3569 0159 7D070000 		.4byte	.LASF27
 3570 015d 04       		.byte	0x4
 3571 015e 6F01     		.2byte	0x16f
 3572 0160 64010000 		.4byte	0x164
 3573 0164 06       		.uleb128 0x6
 3574 0165 04       		.byte	0x4
 3575 0166 6A010000 		.4byte	0x16a
 3576 016a 09       		.uleb128 0x9
 3577 016b 75010000 		.4byte	0x175
 3578 016f 08       		.uleb128 0x8
ARM GAS  C:\Users\adria\AppData\Local\Temp\cciNfgxb.s 			page 100


 3579 0170 FA000000 		.4byte	0xfa
 3580 0174 00       		.byte	0
 3581 0175 0A       		.uleb128 0xa
 3582 0176 C5040000 		.4byte	.LASF204
 3583 017a 01       		.byte	0x1
 3584 017b 57000000 		.4byte	0x57
 3585 017f 04       		.byte	0x4
 3586 0180 7501     		.2byte	0x175
 3587 0182 93010000 		.4byte	0x193
 3588 0186 0B       		.uleb128 0xb
 3589 0187 43010000 		.4byte	.LASF28
 3590 018b 00       		.byte	0
 3591 018c 0B       		.uleb128 0xb
 3592 018d 7D010000 		.4byte	.LASF29
 3593 0191 01       		.byte	0x1
 3594 0192 00       		.byte	0
 3595 0193 0C       		.uleb128 0xc
 3596 0194 01090000 		.4byte	.LASF37
 3597 0198 14       		.byte	0x14
 3598 0199 04       		.byte	0x4
 3599 019a 8001     		.2byte	0x180
 3600 019c FC010000 		.4byte	0x1fc
 3601 01a0 0D       		.uleb128 0xd
 3602 01a1 FB040000 		.4byte	.LASF30
 3603 01a5 04       		.byte	0x4
 3604 01a6 8201     		.2byte	0x182
 3605 01a8 CE000000 		.4byte	0xce
 3606 01ac 00       		.byte	0
 3607 01ad 0D       		.uleb128 0xd
 3608 01ae 73070000 		.4byte	.LASF31
 3609 01b2 04       		.byte	0x4
 3610 01b3 8401     		.2byte	0x184
 3611 01b5 CE000000 		.4byte	0xce
 3612 01b9 01       		.byte	0x1
 3613 01ba 0D       		.uleb128 0xd
 3614 01bb 95020000 		.4byte	.LASF32
 3615 01bf 04       		.byte	0x4
 3616 01c0 8601     		.2byte	0x186
 3617 01c2 CE000000 		.4byte	0xce
 3618 01c6 02       		.byte	0x2
 3619 01c7 0D       		.uleb128 0xd
 3620 01c8 67000000 		.4byte	.LASF33
 3621 01cc 04       		.byte	0x4
 3622 01cd 8A01     		.2byte	0x18a
 3623 01cf D9000000 		.4byte	0xd9
 3624 01d3 04       		.byte	0x4
 3625 01d4 0D       		.uleb128 0xd
 3626 01d5 78000000 		.4byte	.LASF34
 3627 01d9 04       		.byte	0x4
 3628 01da 8C01     		.2byte	0x18c
 3629 01dc FA000000 		.4byte	0xfa
 3630 01e0 08       		.byte	0x8
 3631 01e1 0D       		.uleb128 0xd
 3632 01e2 BE090000 		.4byte	.LASF35
 3633 01e6 04       		.byte	0x4
 3634 01e7 8E01     		.2byte	0x18e
 3635 01e9 FA000000 		.4byte	0xfa
ARM GAS  C:\Users\adria\AppData\Local\Temp\cciNfgxb.s 			page 101


 3636 01ed 0C       		.byte	0xc
 3637 01ee 0D       		.uleb128 0xd
 3638 01ef 8D000000 		.4byte	.LASF36
 3639 01f3 04       		.byte	0x4
 3640 01f4 9001     		.2byte	0x190
 3641 01f6 FA000000 		.4byte	0xfa
 3642 01fa 10       		.byte	0x10
 3643 01fb 00       		.byte	0
 3644 01fc 0C       		.uleb128 0xc
 3645 01fd 0F060000 		.4byte	.LASF38
 3646 0201 30       		.byte	0x30
 3647 0202 04       		.byte	0x4
 3648 0203 A201     		.2byte	0x1a2
 3649 0205 69030000 		.4byte	0x369
 3650 0209 0D       		.uleb128 0xd
 3651 020a 50080000 		.4byte	.LASF39
 3652 020e 04       		.byte	0x4
 3653 020f A401     		.2byte	0x1a4
 3654 0211 E4000000 		.4byte	0xe4
 3655 0215 00       		.byte	0
 3656 0216 0D       		.uleb128 0xd
 3657 0217 CB020000 		.4byte	.LASF40
 3658 021b 04       		.byte	0x4
 3659 021c A601     		.2byte	0x1a6
 3660 021e E4000000 		.4byte	0xe4
 3661 0222 02       		.byte	0x2
 3662 0223 0D       		.uleb128 0xd
 3663 0224 65080000 		.4byte	.LASF41
 3664 0228 04       		.byte	0x4
 3665 0229 A801     		.2byte	0x1a8
 3666 022b C3000000 		.4byte	0xc3
 3667 022f 04       		.byte	0x4
 3668 0230 0D       		.uleb128 0xd
 3669 0231 6C080000 		.4byte	.LASF42
 3670 0235 04       		.byte	0x4
 3671 0236 AA01     		.2byte	0x1aa
 3672 0238 C3000000 		.4byte	0xc3
 3673 023c 05       		.byte	0x5
 3674 023d 0D       		.uleb128 0xd
 3675 023e 73080000 		.4byte	.LASF43
 3676 0242 04       		.byte	0x4
 3677 0243 AC01     		.2byte	0x1ac
 3678 0245 C3000000 		.4byte	0xc3
 3679 0249 06       		.byte	0x6
 3680 024a 0D       		.uleb128 0xd
 3681 024b DA020000 		.4byte	.LASF44
 3682 024f 04       		.byte	0x4
 3683 0250 AE01     		.2byte	0x1ae
 3684 0252 CE000000 		.4byte	0xce
 3685 0256 07       		.byte	0x7
 3686 0257 0D       		.uleb128 0xd
 3687 0258 85080000 		.4byte	.LASF45
 3688 025c 04       		.byte	0x4
 3689 025d B001     		.2byte	0x1b0
 3690 025f C3000000 		.4byte	0xc3
 3691 0263 08       		.byte	0x8
 3692 0264 0D       		.uleb128 0xd
ARM GAS  C:\Users\adria\AppData\Local\Temp\cciNfgxb.s 			page 102


 3693 0265 83050000 		.4byte	.LASF46
 3694 0269 04       		.byte	0x4
 3695 026a B201     		.2byte	0x1b2
 3696 026c C3000000 		.4byte	0xc3
 3697 0270 09       		.byte	0x9
 3698 0271 0D       		.uleb128 0xd
 3699 0272 8B050000 		.4byte	.LASF47
 3700 0276 04       		.byte	0x4
 3701 0277 B401     		.2byte	0x1b4
 3702 0279 D9000000 		.4byte	0xd9
 3703 027d 0A       		.byte	0xa
 3704 027e 0D       		.uleb128 0xd
 3705 027f 93050000 		.4byte	.LASF48
 3706 0283 04       		.byte	0x4
 3707 0284 B601     		.2byte	0x1b6
 3708 0286 C3000000 		.4byte	0xc3
 3709 028a 0C       		.byte	0xc
 3710 028b 0D       		.uleb128 0xd
 3711 028c 60060000 		.4byte	.LASF49
 3712 0290 04       		.byte	0x4
 3713 0291 B801     		.2byte	0x1b8
 3714 0293 E4000000 		.4byte	0xe4
 3715 0297 0E       		.byte	0xe
 3716 0298 0D       		.uleb128 0xd
 3717 0299 67060000 		.4byte	.LASF50
 3718 029d 04       		.byte	0x4
 3719 029e BA01     		.2byte	0x1ba
 3720 02a0 D9000000 		.4byte	0xd9
 3721 02a4 10       		.byte	0x10
 3722 02a5 0D       		.uleb128 0xd
 3723 02a6 9D080000 		.4byte	.LASF51
 3724 02aa 04       		.byte	0x4
 3725 02ab BC01     		.2byte	0x1bc
 3726 02ad C3000000 		.4byte	0xc3
 3727 02b1 12       		.byte	0x12
 3728 02b2 0D       		.uleb128 0xd
 3729 02b3 DA030000 		.4byte	.LASF52
 3730 02b7 04       		.byte	0x4
 3731 02b8 BE01     		.2byte	0x1be
 3732 02ba E4000000 		.4byte	0xe4
 3733 02be 14       		.byte	0x14
 3734 02bf 0D       		.uleb128 0xd
 3735 02c0 E1030000 		.4byte	.LASF53
 3736 02c4 04       		.byte	0x4
 3737 02c5 C001     		.2byte	0x1c0
 3738 02c7 D9000000 		.4byte	0xd9
 3739 02cb 16       		.byte	0x16
 3740 02cc 0D       		.uleb128 0xd
 3741 02cd E8030000 		.4byte	.LASF54
 3742 02d1 04       		.byte	0x4
 3743 02d2 C201     		.2byte	0x1c2
 3744 02d4 C3000000 		.4byte	0xc3
 3745 02d8 18       		.byte	0x18
 3746 02d9 0D       		.uleb128 0xd
 3747 02da EF030000 		.4byte	.LASF55
 3748 02de 04       		.byte	0x4
 3749 02df C401     		.2byte	0x1c4
ARM GAS  C:\Users\adria\AppData\Local\Temp\cciNfgxb.s 			page 103


 3750 02e1 D9000000 		.4byte	0xd9
 3751 02e5 1A       		.byte	0x1a
 3752 02e6 0D       		.uleb128 0xd
 3753 02e7 AE030000 		.4byte	.LASF56
 3754 02eb 04       		.byte	0x4
 3755 02ec C601     		.2byte	0x1c6
 3756 02ee D9000000 		.4byte	0xd9
 3757 02f2 1C       		.byte	0x1c
 3758 02f3 0D       		.uleb128 0xd
 3759 02f4 01040000 		.4byte	.LASF57
 3760 02f8 04       		.byte	0x4
 3761 02f9 C801     		.2byte	0x1c8
 3762 02fb C3000000 		.4byte	0xc3
 3763 02ff 1E       		.byte	0x1e
 3764 0300 0D       		.uleb128 0xd
 3765 0301 08040000 		.4byte	.LASF58
 3766 0305 04       		.byte	0x4
 3767 0306 CA01     		.2byte	0x1ca
 3768 0308 C3000000 		.4byte	0xc3
 3769 030c 1F       		.byte	0x1f
 3770 030d 0D       		.uleb128 0xd
 3771 030e 0F040000 		.4byte	.LASF59
 3772 0312 04       		.byte	0x4
 3773 0313 CC01     		.2byte	0x1cc
 3774 0315 D9000000 		.4byte	0xd9
 3775 0319 20       		.byte	0x20
 3776 031a 0D       		.uleb128 0xd
 3777 031b 16040000 		.4byte	.LASF60
 3778 031f 04       		.byte	0x4
 3779 0320 CE01     		.2byte	0x1ce
 3780 0322 D9000000 		.4byte	0xd9
 3781 0326 22       		.byte	0x22
 3782 0327 0D       		.uleb128 0xd
 3783 0328 20050000 		.4byte	.LASF61
 3784 032c 04       		.byte	0x4
 3785 032d D001     		.2byte	0x1d0
 3786 032f CE000000 		.4byte	0xce
 3787 0333 24       		.byte	0x24
 3788 0334 0D       		.uleb128 0xd
 3789 0335 28050000 		.4byte	.LASF62
 3790 0339 04       		.byte	0x4
 3791 033a D401     		.2byte	0x1d4
 3792 033c EF000000 		.4byte	0xef
 3793 0340 28       		.byte	0x28
 3794 0341 0D       		.uleb128 0xd
 3795 0342 C7090000 		.4byte	.LASF63
 3796 0346 04       		.byte	0x4
 3797 0347 DA01     		.2byte	0x1da
 3798 0349 CE000000 		.4byte	0xce
 3799 034d 2C       		.byte	0x2c
 3800 034e 0D       		.uleb128 0xd
 3801 034f 41060000 		.4byte	.LASF64
 3802 0353 04       		.byte	0x4
 3803 0354 DC01     		.2byte	0x1dc
 3804 0356 C3000000 		.4byte	0xc3
 3805 035a 2D       		.byte	0x2d
 3806 035b 0D       		.uleb128 0xd
ARM GAS  C:\Users\adria\AppData\Local\Temp\cciNfgxb.s 			page 104


 3807 035c FB010000 		.4byte	.LASF65
 3808 0360 04       		.byte	0x4
 3809 0361 DE01     		.2byte	0x1de
 3810 0363 C3000000 		.4byte	0xc3
 3811 0367 2E       		.byte	0x2e
 3812 0368 00       		.byte	0
 3813 0369 0C       		.uleb128 0xc
 3814 036a 63070000 		.4byte	.LASF66
 3815 036e 04       		.byte	0x4
 3816 036f 04       		.byte	0x4
 3817 0370 E501     		.2byte	0x1e5
 3818 0372 AB030000 		.4byte	0x3ab
 3819 0376 0D       		.uleb128 0xd
 3820 0377 D1040000 		.4byte	.LASF67
 3821 037b 04       		.byte	0x4
 3822 037c E701     		.2byte	0x1e7
 3823 037e CE000000 		.4byte	0xce
 3824 0382 00       		.byte	0
 3825 0383 0D       		.uleb128 0xd
 3826 0384 3B010000 		.4byte	.LASF68
 3827 0388 04       		.byte	0x4
 3828 0389 E901     		.2byte	0x1e9
 3829 038b CE000000 		.4byte	0xce
 3830 038f 01       		.byte	0x1
 3831 0390 0D       		.uleb128 0xd
 3832 0391 18050000 		.4byte	.LASF69
 3833 0395 04       		.byte	0x4
 3834 0396 EB01     		.2byte	0x1eb
 3835 0398 CE000000 		.4byte	0xce
 3836 039c 02       		.byte	0x2
 3837 039d 0D       		.uleb128 0xd
 3838 039e 38070000 		.4byte	.LASF70
 3839 03a2 04       		.byte	0x4
 3840 03a3 ED01     		.2byte	0x1ed
 3841 03a5 CE000000 		.4byte	0xce
 3842 03a9 03       		.byte	0x3
 3843 03aa 00       		.byte	0
 3844 03ab 0C       		.uleb128 0xc
 3845 03ac 8E030000 		.4byte	.LASF71
 3846 03b0 08       		.byte	0x8
 3847 03b1 04       		.byte	0x4
 3848 03b2 F401     		.2byte	0x1f4
 3849 03b4 FA030000 		.4byte	0x3fa
 3850 03b8 0D       		.uleb128 0xd
 3851 03b9 4E050000 		.4byte	.LASF72
 3852 03bd 04       		.byte	0x4
 3853 03be F601     		.2byte	0x1f6
 3854 03c0 CE000000 		.4byte	0xce
 3855 03c4 00       		.byte	0
 3856 03c5 0D       		.uleb128 0xd
 3857 03c6 71040000 		.4byte	.LASF73
 3858 03ca 04       		.byte	0x4
 3859 03cb F801     		.2byte	0x1f8
 3860 03cd CE000000 		.4byte	0xce
 3861 03d1 01       		.byte	0x1
 3862 03d2 0D       		.uleb128 0xd
 3863 03d3 BF060000 		.4byte	.LASF74
ARM GAS  C:\Users\adria\AppData\Local\Temp\cciNfgxb.s 			page 105


 3864 03d7 04       		.byte	0x4
 3865 03d8 FA01     		.2byte	0x1fa
 3866 03da CE000000 		.4byte	0xce
 3867 03de 02       		.byte	0x2
 3868 03df 0D       		.uleb128 0xd
 3869 03e0 7E090000 		.4byte	.LASF75
 3870 03e4 04       		.byte	0x4
 3871 03e5 FC01     		.2byte	0x1fc
 3872 03e7 E4000000 		.4byte	0xe4
 3873 03eb 04       		.byte	0x4
 3874 03ec 0D       		.uleb128 0xd
 3875 03ed 4A040000 		.4byte	.LASF76
 3876 03f1 04       		.byte	0x4
 3877 03f2 FE01     		.2byte	0x1fe
 3878 03f4 E4000000 		.4byte	0xe4
 3879 03f8 06       		.byte	0x6
 3880 03f9 00       		.byte	0
 3881 03fa 0C       		.uleb128 0xc
 3882 03fb 5C000000 		.4byte	.LASF77
 3883 03ff 58       		.byte	0x58
 3884 0400 04       		.byte	0x4
 3885 0401 0402     		.2byte	0x204
 3886 0403 CB040000 		.4byte	0x4cb
 3887 0407 0D       		.uleb128 0xd
 3888 0408 9E030000 		.4byte	.LASF78
 3889 040c 04       		.byte	0x4
 3890 040d 0602     		.2byte	0x206
 3891 040f CE000000 		.4byte	0xce
 3892 0413 00       		.byte	0
 3893 0414 0D       		.uleb128 0xd
 3894 0415 B6080000 		.4byte	.LASF79
 3895 0419 04       		.byte	0x4
 3896 041a 0802     		.2byte	0x208
 3897 041c CE000000 		.4byte	0xce
 3898 0420 01       		.byte	0x1
 3899 0421 0D       		.uleb128 0xd
 3900 0422 62050000 		.4byte	.LASF80
 3901 0426 04       		.byte	0x4
 3902 0427 0A02     		.2byte	0x20a
 3903 0429 75010000 		.4byte	0x175
 3904 042d 02       		.byte	0x2
 3905 042e 0D       		.uleb128 0xd
 3906 042f 97010000 		.4byte	.LASF81
 3907 0433 04       		.byte	0x4
 3908 0434 0C02     		.2byte	0x20c
 3909 0436 CE000000 		.4byte	0xce
 3910 043a 03       		.byte	0x3
 3911 043b 0D       		.uleb128 0xd
 3912 043c C6080000 		.4byte	.LASF82
 3913 0440 04       		.byte	0x4
 3914 0441 0E02     		.2byte	0x20e
 3915 0443 C3000000 		.4byte	0xc3
 3916 0447 04       		.byte	0x4
 3917 0448 0D       		.uleb128 0xd
 3918 0449 68020000 		.4byte	.LASF83
 3919 044d 04       		.byte	0x4
 3920 044e 1002     		.2byte	0x210
ARM GAS  C:\Users\adria\AppData\Local\Temp\cciNfgxb.s 			page 106


 3921 0450 FC010000 		.4byte	0x1fc
 3922 0454 08       		.byte	0x8
 3923 0455 0D       		.uleb128 0xd
 3924 0456 00000000 		.4byte	.LASF84
 3925 045a 04       		.byte	0x4
 3926 045b 1202     		.2byte	0x212
 3927 045d 69030000 		.4byte	0x369
 3928 0461 38       		.byte	0x38
 3929 0462 0D       		.uleb128 0xd
 3930 0463 06060000 		.4byte	.LASF85
 3931 0467 04       		.byte	0x4
 3932 0468 1402     		.2byte	0x214
 3933 046a AB030000 		.4byte	0x3ab
 3934 046e 3C       		.byte	0x3c
 3935 046f 0D       		.uleb128 0xd
 3936 0470 93060000 		.4byte	.LASF86
 3937 0474 04       		.byte	0x4
 3938 0475 1602     		.2byte	0x216
 3939 0477 CE000000 		.4byte	0xce
 3940 047b 44       		.byte	0x44
 3941 047c 0D       		.uleb128 0xd
 3942 047d 7C040000 		.4byte	.LASF87
 3943 0481 04       		.byte	0x4
 3944 0482 1802     		.2byte	0x218
 3945 0484 CE000000 		.4byte	0xce
 3946 0488 45       		.byte	0x45
 3947 0489 0D       		.uleb128 0xd
 3948 048a B6060000 		.4byte	.LASF88
 3949 048e 04       		.byte	0x4
 3950 048f 1A02     		.2byte	0x21a
 3951 0491 CE000000 		.4byte	0xce
 3952 0495 46       		.byte	0x46
 3953 0496 0D       		.uleb128 0xd
 3954 0497 C6070000 		.4byte	.LASF89
 3955 049b 04       		.byte	0x4
 3956 049c 1C02     		.2byte	0x21c
 3957 049e 22010000 		.4byte	0x122
 3958 04a2 48       		.byte	0x48
 3959 04a3 0D       		.uleb128 0xd
 3960 04a4 7D050000 		.4byte	.LASF90
 3961 04a8 04       		.byte	0x4
 3962 04a9 1E02     		.2byte	0x21e
 3963 04ab 22010000 		.4byte	0x122
 3964 04af 4C       		.byte	0x4c
 3965 04b0 0D       		.uleb128 0xd
 3966 04b1 1D040000 		.4byte	.LASF91
 3967 04b5 04       		.byte	0x4
 3968 04b6 2002     		.2byte	0x220
 3969 04b8 58010000 		.4byte	0x158
 3970 04bc 50       		.byte	0x50
 3971 04bd 0D       		.uleb128 0xd
 3972 04be 31080000 		.4byte	.LASF92
 3973 04c2 04       		.byte	0x4
 3974 04c3 2202     		.2byte	0x222
 3975 04c5 C3000000 		.4byte	0xc3
 3976 04c9 54       		.byte	0x54
 3977 04ca 00       		.byte	0
ARM GAS  C:\Users\adria\AppData\Local\Temp\cciNfgxb.s 			page 107


 3978 04cb 04       		.uleb128 0x4
 3979 04cc 87040000 		.4byte	.LASF93
 3980 04d0 05       		.byte	0x5
 3981 04d1 3C       		.byte	0x3c
 3982 04d2 93010000 		.4byte	0x193
 3983 04d6 02       		.uleb128 0x2
 3984 04d7 04       		.byte	0x4
 3985 04d8 04       		.byte	0x4
 3986 04d9 F5010000 		.4byte	.LASF94
 3987 04dd 02       		.uleb128 0x2
 3988 04de 08       		.byte	0x8
 3989 04df 04       		.byte	0x4
 3990 04e0 97090000 		.4byte	.LASF95
 3991 04e4 02       		.uleb128 0x2
 3992 04e5 01       		.byte	0x1
 3993 04e6 08       		.byte	0x8
 3994 04e7 94040000 		.4byte	.LASF96
 3995 04eb 02       		.uleb128 0x2
 3996 04ec 04       		.byte	0x4
 3997 04ed 07       		.byte	0x7
 3998 04ee E3070000 		.4byte	.LASF97
 3999 04f2 0E       		.uleb128 0xe
 4000 04f3 8C080000 		.4byte	.LASF102
 4001 04f7 01       		.byte	0x1
 4002 04f8 6803     		.2byte	0x368
 4003 04fa D9000000 		.4byte	0xd9
 4004 04fe 00000000 		.4byte	.LFB77
 4005 0502 70000000 		.4byte	.LFE77-.LFB77
 4006 0506 01       		.uleb128 0x1
 4007 0507 9C       		.byte	0x9c
 4008 0508 67050000 		.4byte	0x567
 4009 050c 0F       		.uleb128 0xf
 4010 050d CB070000 		.4byte	.LASF98
 4011 0511 01       		.byte	0x1
 4012 0512 6803     		.2byte	0x368
 4013 0514 FA000000 		.4byte	0xfa
 4014 0518 00000000 		.4byte	.LLST0
 4015 051c 10       		.uleb128 0x10
 4016 051d 64657600 		.ascii	"dev\000"
 4017 0521 01       		.byte	0x1
 4018 0522 6803     		.2byte	0x368
 4019 0524 67050000 		.4byte	0x567
 4020 0528 01       		.uleb128 0x1
 4021 0529 51       		.byte	0x51
 4022 052a 11       		.uleb128 0x11
 4023 052b CF050000 		.4byte	.LASF99
 4024 052f 01       		.byte	0x1
 4025 0530 6A03     		.2byte	0x36a
 4026 0532 05010000 		.4byte	0x105
 4027 0536 21000000 		.4byte	.LLST1
 4028 053a 12       		.uleb128 0x12
 4029 053b D4050000 		.4byte	.LASF105
 4030 053f 01       		.byte	0x1
 4031 0540 6B03     		.2byte	0x36b
 4032 0542 05010000 		.4byte	0x105
 4033 0546 11       		.uleb128 0x11
 4034 0547 D9050000 		.4byte	.LASF100
ARM GAS  C:\Users\adria\AppData\Local\Temp\cciNfgxb.s 			page 108


 4035 054b 01       		.byte	0x1
 4036 054c 6C03     		.2byte	0x36c
 4037 054e 05010000 		.4byte	0x105
 4038 0552 39000000 		.4byte	.LLST2
 4039 0556 11       		.uleb128 0x11
 4040 0557 9E090000 		.4byte	.LASF101
 4041 055b 01       		.byte	0x1
 4042 055c 6D03     		.2byte	0x36d
 4043 055e D9000000 		.4byte	0xd9
 4044 0562 51000000 		.4byte	.LLST3
 4045 0566 00       		.byte	0
 4046 0567 06       		.uleb128 0x6
 4047 0568 04       		.byte	0x4
 4048 0569 FA030000 		.4byte	0x3fa
 4049 056d 0E       		.uleb128 0xe
 4050 056e 89090000 		.4byte	.LASF103
 4051 0572 01       		.byte	0x1
 4052 0573 7C03     		.2byte	0x37c
 4053 0575 FA000000 		.4byte	0xfa
 4054 0579 00000000 		.4byte	.LFB78
 4055 057d C4000000 		.4byte	.LFE78-.LFB78
 4056 0581 01       		.uleb128 0x1
 4057 0582 9C       		.byte	0x9c
 4058 0583 E6050000 		.4byte	0x5e6
 4059 0587 0F       		.uleb128 0xf
 4060 0588 AD060000 		.4byte	.LASF104
 4061 058c 01       		.byte	0x1
 4062 058d 7C03     		.2byte	0x37c
 4063 058f FA000000 		.4byte	0xfa
 4064 0593 85000000 		.4byte	.LLST4
 4065 0597 10       		.uleb128 0x10
 4066 0598 64657600 		.ascii	"dev\000"
 4067 059c 01       		.byte	0x1
 4068 059d 7C03     		.2byte	0x37c
 4069 059f E6050000 		.4byte	0x5e6
 4070 05a3 01       		.uleb128 0x1
 4071 05a4 51       		.byte	0x51
 4072 05a5 11       		.uleb128 0x11
 4073 05a6 CF050000 		.4byte	.LASF99
 4074 05aa 01       		.byte	0x1
 4075 05ab 7E03     		.2byte	0x37e
 4076 05ad EF000000 		.4byte	0xef
 4077 05b1 A6000000 		.4byte	.LLST5
 4078 05b5 11       		.uleb128 0x11
 4079 05b6 D4050000 		.4byte	.LASF105
 4080 05ba 01       		.byte	0x1
 4081 05bb 7F03     		.2byte	0x37f
 4082 05bd EF000000 		.4byte	0xef
 4083 05c1 B5010000 		.4byte	.LLST6
 4084 05c5 11       		.uleb128 0x11
 4085 05c6 D9050000 		.4byte	.LASF100
 4086 05ca 01       		.byte	0x1
 4087 05cb 8003     		.2byte	0x380
 4088 05cd EF000000 		.4byte	0xef
 4089 05d1 4D020000 		.4byte	.LLST7
 4090 05d5 11       		.uleb128 0x11
 4091 05d6 1F090000 		.4byte	.LASF106
ARM GAS  C:\Users\adria\AppData\Local\Temp\cciNfgxb.s 			page 109


 4092 05da 01       		.byte	0x1
 4093 05db 8103     		.2byte	0x381
 4094 05dd EF000000 		.4byte	0xef
 4095 05e1 A5020000 		.4byte	.LLST8
 4096 05e5 00       		.byte	0
 4097 05e6 06       		.uleb128 0x6
 4098 05e7 04       		.byte	0x4
 4099 05e8 EC050000 		.4byte	0x5ec
 4100 05ec 13       		.uleb128 0x13
 4101 05ed FA030000 		.4byte	0x3fa
 4102 05f1 0E       		.uleb128 0xe
 4103 05f2 3C040000 		.4byte	.LASF107
 4104 05f6 01       		.byte	0x1
 4105 05f7 A503     		.2byte	0x3a5
 4106 05f9 FA000000 		.4byte	0xfa
 4107 05fd 00000000 		.4byte	.LFB79
 4108 0601 C4000000 		.4byte	.LFE79-.LFB79
 4109 0605 01       		.uleb128 0x1
 4110 0606 9C       		.byte	0x9c
 4111 0607 AA060000 		.4byte	0x6aa
 4112 060b 0F       		.uleb128 0xf
 4113 060c D2020000 		.4byte	.LASF108
 4114 0610 01       		.byte	0x1
 4115 0611 A503     		.2byte	0x3a5
 4116 0613 E4000000 		.4byte	0xe4
 4117 0617 06030000 		.4byte	.LLST9
 4118 061b 10       		.uleb128 0x10
 4119 061c 64657600 		.ascii	"dev\000"
 4120 0620 01       		.byte	0x1
 4121 0621 A503     		.2byte	0x3a5
 4122 0623 E6050000 		.4byte	0x5e6
 4123 0627 01       		.uleb128 0x1
 4124 0628 51       		.byte	0x51
 4125 0629 11       		.uleb128 0x11
 4126 062a CF050000 		.4byte	.LASF99
 4127 062e 01       		.byte	0x1
 4128 062f A703     		.2byte	0x3a7
 4129 0631 EF000000 		.4byte	0xef
 4130 0635 27030000 		.4byte	.LLST10
 4131 0639 11       		.uleb128 0x11
 4132 063a D4050000 		.4byte	.LASF105
 4133 063e 01       		.byte	0x1
 4134 063f A803     		.2byte	0x3a8
 4135 0641 EF000000 		.4byte	0xef
 4136 0645 3A030000 		.4byte	.LLST11
 4137 0649 11       		.uleb128 0x11
 4138 064a D9050000 		.4byte	.LASF100
 4139 064e 01       		.byte	0x1
 4140 064f A903     		.2byte	0x3a9
 4141 0651 EF000000 		.4byte	0xef
 4142 0655 11050000 		.4byte	.LLST12
 4143 0659 11       		.uleb128 0x11
 4144 065a DE050000 		.4byte	.LASF109
 4145 065e 01       		.byte	0x1
 4146 065f AA03     		.2byte	0x3aa
 4147 0661 EF000000 		.4byte	0xef
 4148 0665 24050000 		.4byte	.LLST13
ARM GAS  C:\Users\adria\AppData\Local\Temp\cciNfgxb.s 			page 110


 4149 0669 11       		.uleb128 0x11
 4150 066a E3050000 		.4byte	.LASF110
 4151 066e 01       		.byte	0x1
 4152 066f AB03     		.2byte	0x3ab
 4153 0671 EF000000 		.4byte	0xef
 4154 0675 F8050000 		.4byte	.LLST14
 4155 0679 11       		.uleb128 0x11
 4156 067a E8050000 		.4byte	.LASF111
 4157 067e 01       		.byte	0x1
 4158 067f AC03     		.2byte	0x3ac
 4159 0681 EF000000 		.4byte	0xef
 4160 0685 0B060000 		.4byte	.LLST15
 4161 0689 11       		.uleb128 0x11
 4162 068a E9010000 		.4byte	.LASF112
 4163 068e 01       		.byte	0x1
 4164 068f AD03     		.2byte	0x3ad
 4165 0691 EF000000 		.4byte	0xef
 4166 0695 22060000 		.4byte	.LLST16
 4167 0699 11       		.uleb128 0x11
 4168 069a D6090000 		.4byte	.LASF113
 4169 069e 01       		.byte	0x1
 4170 069f AE03     		.2byte	0x3ae
 4171 06a1 EF000000 		.4byte	0xef
 4172 06a5 4A060000 		.4byte	.LLST17
 4173 06a9 00       		.byte	0
 4174 06aa 14       		.uleb128 0x14
 4175 06ab F2000000 		.4byte	.LASF114
 4176 06af 01       		.byte	0x1
 4177 06b0 C903     		.2byte	0x3c9
 4178 06b2 FA000000 		.4byte	0xfa
 4179 06b6 00000000 		.4byte	.LFB80
 4180 06ba AC000000 		.4byte	.LFE80-.LFB80
 4181 06be 01       		.uleb128 0x1
 4182 06bf 9C       		.byte	0x9c
 4183 06c0 53070000 		.4byte	0x753
 4184 06c4 0F       		.uleb128 0xf
 4185 06c5 81000000 		.4byte	.LASF115
 4186 06c9 01       		.byte	0x1
 4187 06ca C903     		.2byte	0x3c9
 4188 06cc E4000000 		.4byte	0xe4
 4189 06d0 68060000 		.4byte	.LLST18
 4190 06d4 0F       		.uleb128 0xf
 4191 06d5 8D010000 		.4byte	.LASF116
 4192 06d9 01       		.byte	0x1
 4193 06da C903     		.2byte	0x3c9
 4194 06dc CE000000 		.4byte	0xce
 4195 06e0 89060000 		.4byte	.LLST19
 4196 06e4 15       		.uleb128 0x15
 4197 06e5 64657600 		.ascii	"dev\000"
 4198 06e9 01       		.byte	0x1
 4199 06ea C903     		.2byte	0x3c9
 4200 06ec E6050000 		.4byte	0x5e6
 4201 06f0 AA060000 		.4byte	.LLST20
 4202 06f4 11       		.uleb128 0x11
 4203 06f5 CF050000 		.4byte	.LASF99
 4204 06f9 01       		.byte	0x1
 4205 06fa CB03     		.2byte	0x3cb
ARM GAS  C:\Users\adria\AppData\Local\Temp\cciNfgxb.s 			page 111


 4206 06fc 05010000 		.4byte	0x105
 4207 0700 D6060000 		.4byte	.LLST21
 4208 0704 11       		.uleb128 0x11
 4209 0705 D4050000 		.4byte	.LASF105
 4210 0709 01       		.byte	0x1
 4211 070a CC03     		.2byte	0x3cc
 4212 070c 10010000 		.4byte	0x110
 4213 0710 EE060000 		.4byte	.LLST22
 4214 0714 11       		.uleb128 0x11
 4215 0715 D9050000 		.4byte	.LASF100
 4216 0719 01       		.byte	0x1
 4217 071a CD03     		.2byte	0x3cd
 4218 071c 05010000 		.4byte	0x105
 4219 0720 06070000 		.4byte	.LLST23
 4220 0724 16       		.uleb128 0x16
 4221 0725 2B070000 		.4byte	.LASF117
 4222 0729 01       		.byte	0x1
 4223 072a CE03     		.2byte	0x3ce
 4224 072c FA000000 		.4byte	0xfa
 4225 0730 01       		.uleb128 0x1
 4226 0731 50       		.byte	0x50
 4227 0732 16       		.uleb128 0x16
 4228 0733 64090000 		.4byte	.LASF118
 4229 0737 01       		.byte	0x1
 4230 0738 D003     		.2byte	0x3d0
 4231 073a 53070000 		.4byte	0x753
 4232 073e 03       		.uleb128 0x3
 4233 073f 91       		.byte	0x91
 4234 0740 A87F     		.sleb128 -88
 4235 0742 16       		.uleb128 0x16
 4236 0743 71090000 		.4byte	.LASF119
 4237 0747 01       		.byte	0x1
 4238 0748 D503     		.2byte	0x3d5
 4239 074a 53070000 		.4byte	0x753
 4240 074e 03       		.uleb128 0x3
 4241 074f 91       		.byte	0x91
 4242 0750 E87E     		.sleb128 -152
 4243 0752 00       		.byte	0
 4244 0753 17       		.uleb128 0x17
 4245 0754 FA000000 		.4byte	0xfa
 4246 0758 63070000 		.4byte	0x763
 4247 075c 18       		.uleb128 0x18
 4248 075d EB040000 		.4byte	0x4eb
 4249 0761 0F       		.byte	0xf
 4250 0762 00       		.byte	0
 4251 0763 0E       		.uleb128 0xe
 4252 0764 9E070000 		.4byte	.LASF120
 4253 0768 01       		.byte	0x1
 4254 0769 E603     		.2byte	0x3e6
 4255 076b CE000000 		.4byte	0xce
 4256 076f 00000000 		.4byte	.LFB81
 4257 0773 B0000000 		.4byte	.LFE81-.LFB81
 4258 0777 01       		.uleb128 0x1
 4259 0778 9C       		.byte	0x9c
 4260 0779 0C080000 		.4byte	0x80c
 4261 077d 0F       		.uleb128 0xf
 4262 077e 73000000 		.4byte	.LASF121
ARM GAS  C:\Users\adria\AppData\Local\Temp\cciNfgxb.s 			page 112


 4263 0782 01       		.byte	0x1
 4264 0783 E603     		.2byte	0x3e6
 4265 0785 E4000000 		.4byte	0xe4
 4266 0789 1E070000 		.4byte	.LLST24
 4267 078d 15       		.uleb128 0x15
 4268 078e 64657600 		.ascii	"dev\000"
 4269 0792 01       		.byte	0x1
 4270 0793 E603     		.2byte	0x3e6
 4271 0795 E6050000 		.4byte	0x5e6
 4272 0799 3C070000 		.4byte	.LLST25
 4273 079d 16       		.uleb128 0x16
 4274 079e DE080000 		.4byte	.LASF122
 4275 07a2 01       		.byte	0x1
 4276 07a3 E803     		.2byte	0x3e8
 4277 07a5 CE000000 		.4byte	0xce
 4278 07a9 01       		.uleb128 0x1
 4279 07aa 50       		.byte	0x50
 4280 07ab 11       		.uleb128 0x11
 4281 07ac CF050000 		.4byte	.LASF99
 4282 07b0 01       		.byte	0x1
 4283 07b1 E903     		.2byte	0x3e9
 4284 07b3 EF000000 		.4byte	0xef
 4285 07b7 5D070000 		.4byte	.LLST26
 4286 07bb 11       		.uleb128 0x11
 4287 07bc D4050000 		.4byte	.LASF105
 4288 07c0 01       		.byte	0x1
 4289 07c1 EA03     		.2byte	0x3ea
 4290 07c3 EF000000 		.4byte	0xef
 4291 07c7 C3070000 		.4byte	.LLST27
 4292 07cb 11       		.uleb128 0x11
 4293 07cc D9050000 		.4byte	.LASF100
 4294 07d0 01       		.byte	0x1
 4295 07d1 EB03     		.2byte	0x3eb
 4296 07d3 EF000000 		.4byte	0xef
 4297 07d7 E6070000 		.4byte	.LLST28
 4298 07db 11       		.uleb128 0x11
 4299 07dc DE050000 		.4byte	.LASF109
 4300 07e0 01       		.byte	0x1
 4301 07e1 EC03     		.2byte	0x3ec
 4302 07e3 EF000000 		.4byte	0xef
 4303 07e7 F9070000 		.4byte	.LLST29
 4304 07eb 11       		.uleb128 0x11
 4305 07ec E3050000 		.4byte	.LASF110
 4306 07f0 01       		.byte	0x1
 4307 07f1 ED03     		.2byte	0x3ed
 4308 07f3 EF000000 		.4byte	0xef
 4309 07f7 26080000 		.4byte	.LLST30
 4310 07fb 11       		.uleb128 0x11
 4311 07fc 54070000 		.4byte	.LASF123
 4312 0800 01       		.byte	0x1
 4313 0801 EE03     		.2byte	0x3ee
 4314 0803 EF000000 		.4byte	0xef
 4315 0807 58080000 		.4byte	.LLST31
 4316 080b 00       		.byte	0
 4317 080c 0E       		.uleb128 0xe
 4318 080d 6E020000 		.4byte	.LASF124
 4319 0811 01       		.byte	0x1
ARM GAS  C:\Users\adria\AppData\Local\Temp\cciNfgxb.s 			page 113


 4320 0812 A004     		.2byte	0x4a0
 4321 0814 CE000000 		.4byte	0xce
 4322 0818 00000000 		.4byte	.LFB82
 4323 081c 24000000 		.4byte	.LFE82-.LFB82
 4324 0820 01       		.uleb128 0x1
 4325 0821 9C       		.byte	0x9c
 4326 0822 57080000 		.4byte	0x857
 4327 0826 15       		.uleb128 0x15
 4328 0827 64757200 		.ascii	"dur\000"
 4329 082b 01       		.byte	0x1
 4330 082c A004     		.2byte	0x4a0
 4331 082e E4000000 		.4byte	0xe4
 4332 0832 AE080000 		.4byte	.LLST32
 4333 0836 11       		.uleb128 0x11
 4334 0837 A8090000 		.4byte	.LASF125
 4335 083b 01       		.byte	0x1
 4336 083c A204     		.2byte	0x4a2
 4337 083e CE000000 		.4byte	0xce
 4338 0842 E5080000 		.4byte	.LLST33
 4339 0846 11       		.uleb128 0x11
 4340 0847 B5030000 		.4byte	.LASF126
 4341 084b 01       		.byte	0x1
 4342 084c A304     		.2byte	0x4a3
 4343 084e CE000000 		.4byte	0xce
 4344 0852 1B090000 		.4byte	.LLST34
 4345 0856 00       		.byte	0
 4346 0857 0E       		.uleb128 0xe
 4347 0858 AD050000 		.4byte	.LASF127
 4348 085c 01       		.byte	0x1
 4349 085d 2A05     		.2byte	0x52a
 4350 085f C3000000 		.4byte	0xc3
 4351 0863 00000000 		.4byte	.LFB86
 4352 0867 3E000000 		.4byte	.LFE86-.LFB86
 4353 086b 01       		.uleb128 0x1
 4354 086c 9C       		.byte	0x9c
 4355 086d C0080000 		.4byte	0x8c0
 4356 0871 0F       		.uleb128 0xf
 4357 0872 ED020000 		.4byte	.LASF128
 4358 0876 01       		.byte	0x1
 4359 0877 2A05     		.2byte	0x52a
 4360 0879 52010000 		.4byte	0x152
 4361 087d 39090000 		.4byte	.LLST35
 4362 0881 15       		.uleb128 0x15
 4363 0882 6D696E00 		.ascii	"min\000"
 4364 0886 01       		.byte	0x1
 4365 0887 2A05     		.2byte	0x52a
 4366 0889 CE000000 		.4byte	0xce
 4367 088d 89090000 		.4byte	.LLST36
 4368 0891 15       		.uleb128 0x15
 4369 0892 6D617800 		.ascii	"max\000"
 4370 0896 01       		.byte	0x1
 4371 0897 2A05     		.2byte	0x52a
 4372 0899 CE000000 		.4byte	0xce
 4373 089d CF090000 		.4byte	.LLST37
 4374 08a1 10       		.uleb128 0x10
 4375 08a2 64657600 		.ascii	"dev\000"
 4376 08a6 01       		.byte	0x1
ARM GAS  C:\Users\adria\AppData\Local\Temp\cciNfgxb.s 			page 114


 4377 08a7 2A05     		.2byte	0x52a
 4378 08a9 67050000 		.4byte	0x567
 4379 08ad 01       		.uleb128 0x1
 4380 08ae 53       		.byte	0x53
 4381 08af 11       		.uleb128 0x11
 4382 08b0 10070000 		.4byte	.LASF129
 4383 08b4 01       		.byte	0x1
 4384 08b5 2C05     		.2byte	0x52c
 4385 08b7 C3000000 		.4byte	0xc3
 4386 08bb 150A0000 		.4byte	.LLST38
 4387 08bf 00       		.byte	0
 4388 08c0 0E       		.uleb128 0xe
 4389 08c1 09050000 		.4byte	.LASF130
 4390 08c5 01       		.byte	0x1
 4391 08c6 4605     		.2byte	0x546
 4392 08c8 C3000000 		.4byte	0xc3
 4393 08cc 00000000 		.4byte	.LFB87
 4394 08d0 2A000000 		.4byte	.LFE87-.LFB87
 4395 08d4 01       		.uleb128 0x1
 4396 08d5 9C       		.byte	0x9c
 4397 08d6 F9080000 		.4byte	0x8f9
 4398 08da 15       		.uleb128 0x15
 4399 08db 64657600 		.ascii	"dev\000"
 4400 08df 01       		.byte	0x1
 4401 08e0 4605     		.2byte	0x546
 4402 08e2 E6050000 		.4byte	0x5e6
 4403 08e6 4B0A0000 		.4byte	.LLST39
 4404 08ea 16       		.uleb128 0x16
 4405 08eb 10070000 		.4byte	.LASF129
 4406 08ef 01       		.byte	0x1
 4407 08f0 4805     		.2byte	0x548
 4408 08f2 C3000000 		.4byte	0xc3
 4409 08f6 01       		.uleb128 0x1
 4410 08f7 50       		.byte	0x50
 4411 08f8 00       		.byte	0
 4412 08f9 0E       		.uleb128 0xe
 4413 08fa 2F050000 		.4byte	.LASF131
 4414 08fe 01       		.byte	0x1
 4415 08ff ED04     		.2byte	0x4ed
 4416 0901 C3000000 		.4byte	0xc3
 4417 0905 00000000 		.4byte	.LFB84
 4418 0909 70000000 		.4byte	.LFE84-.LFB84
 4419 090d 01       		.uleb128 0x1
 4420 090e 9C       		.byte	0x9c
 4421 090f AF090000 		.4byte	0x9af
 4422 0913 0F       		.uleb128 0xf
 4423 0914 FE060000 		.4byte	.LASF132
 4424 0918 01       		.byte	0x1
 4425 0919 ED04     		.2byte	0x4ed
 4426 091b CE000000 		.4byte	0xce
 4427 091f D00A0000 		.4byte	.LLST40
 4428 0923 15       		.uleb128 0x15
 4429 0924 64657600 		.ascii	"dev\000"
 4430 0928 01       		.byte	0x1
 4431 0929 ED04     		.2byte	0x4ed
 4432 092b 67050000 		.4byte	0x567
 4433 092f F10A0000 		.4byte	.LLST41
ARM GAS  C:\Users\adria\AppData\Local\Temp\cciNfgxb.s 			page 115


 4434 0933 11       		.uleb128 0x11
 4435 0934 10070000 		.4byte	.LASF129
 4436 0938 01       		.byte	0x1
 4437 0939 EF04     		.2byte	0x4ef
 4438 093b C3000000 		.4byte	0xc3
 4439 093f 0F0B0000 		.4byte	.LLST42
 4440 0943 19       		.uleb128 0x19
 4441 0944 72656700 		.ascii	"reg\000"
 4442 0948 01       		.byte	0x1
 4443 0949 F004     		.2byte	0x4f0
 4444 094b CE000000 		.4byte	0xce
 4445 094f 02       		.uleb128 0x2
 4446 0950 91       		.byte	0x91
 4447 0951 6F       		.sleb128 -17
 4448 0952 11       		.uleb128 0x11
 4449 0953 97010000 		.4byte	.LASF81
 4450 0957 01       		.byte	0x1
 4451 0958 F104     		.2byte	0x4f1
 4452 095a CE000000 		.4byte	0xce
 4453 095e 2D0B0000 		.4byte	.LLST43
 4454 0962 1A       		.uleb128 0x1a
 4455 0963 0E000000 		.4byte	.LVL117
 4456 0967 C0080000 		.4byte	0x8c0
 4457 096b 76090000 		.4byte	0x976
 4458 096f 1B       		.uleb128 0x1b
 4459 0970 01       		.uleb128 0x1
 4460 0971 50       		.byte	0x50
 4461 0972 02       		.uleb128 0x2
 4462 0973 74       		.byte	0x74
 4463 0974 00       		.sleb128 0
 4464 0975 00       		.byte	0
 4465 0976 1C       		.uleb128 0x1c
 4466 0977 34000000 		.4byte	.LVL121
 4467 097b 02       		.uleb128 0x2
 4468 097c 76       		.byte	0x76
 4469 097d 00       		.sleb128 0
 4470 097e 94090000 		.4byte	0x994
 4471 0982 1B       		.uleb128 0x1b
 4472 0983 01       		.uleb128 0x1
 4473 0984 51       		.byte	0x51
 4474 0985 02       		.uleb128 0x2
 4475 0986 09       		.byte	0x9
 4476 0987 F3       		.byte	0xf3
 4477 0988 1B       		.uleb128 0x1b
 4478 0989 01       		.uleb128 0x1
 4479 098a 52       		.byte	0x52
 4480 098b 02       		.uleb128 0x2
 4481 098c 91       		.byte	0x91
 4482 098d 6F       		.sleb128 -17
 4483 098e 1B       		.uleb128 0x1b
 4484 098f 01       		.uleb128 0x1
 4485 0990 53       		.byte	0x53
 4486 0991 01       		.uleb128 0x1
 4487 0992 31       		.byte	0x31
 4488 0993 00       		.byte	0
 4489 0994 1D       		.uleb128 0x1d
 4490 0995 60000000 		.4byte	.LVL123
ARM GAS  C:\Users\adria\AppData\Local\Temp\cciNfgxb.s 			page 116


 4491 0999 02       		.uleb128 0x2
 4492 099a 76       		.byte	0x76
 4493 099b 00       		.sleb128 0
 4494 099c 1B       		.uleb128 0x1b
 4495 099d 01       		.uleb128 0x1
 4496 099e 51       		.byte	0x51
 4497 099f 02       		.uleb128 0x2
 4498 09a0 08       		.byte	0x8
 4499 09a1 73       		.byte	0x73
 4500 09a2 1B       		.uleb128 0x1b
 4501 09a3 01       		.uleb128 0x1
 4502 09a4 52       		.byte	0x52
 4503 09a5 02       		.uleb128 0x2
 4504 09a6 91       		.byte	0x91
 4505 09a7 6F       		.sleb128 -17
 4506 09a8 1B       		.uleb128 0x1b
 4507 09a9 01       		.uleb128 0x1
 4508 09aa 53       		.byte	0x53
 4509 09ab 01       		.uleb128 0x1
 4510 09ac 31       		.byte	0x31
 4511 09ad 00       		.byte	0
 4512 09ae 00       		.byte	0
 4513 09af 0E       		.uleb128 0xe
 4514 09b0 81030000 		.4byte	.LASF133
 4515 09b4 01       		.byte	0x1
 4516 09b5 1405     		.2byte	0x514
 4517 09b7 C3000000 		.4byte	0xc3
 4518 09bb 00000000 		.4byte	.LFB85
 4519 09bf 38000000 		.4byte	.LFE85-.LFB85
 4520 09c3 01       		.uleb128 0x1
 4521 09c4 9C       		.byte	0x9c
 4522 09c5 270A0000 		.4byte	0xa27
 4523 09c9 15       		.uleb128 0x15
 4524 09ca 64657600 		.ascii	"dev\000"
 4525 09ce 01       		.byte	0x1
 4526 09cf 1405     		.2byte	0x514
 4527 09d1 67050000 		.4byte	0x567
 4528 09d5 4C0B0000 		.4byte	.LLST44
 4529 09d9 11       		.uleb128 0x11
 4530 09da 10070000 		.4byte	.LASF129
 4531 09de 01       		.byte	0x1
 4532 09df 1605     		.2byte	0x516
 4533 09e1 C3000000 		.4byte	0xc3
 4534 09e5 6A0B0000 		.4byte	.LLST45
 4535 09e9 19       		.uleb128 0x19
 4536 09ea 72656700 		.ascii	"reg\000"
 4537 09ee 01       		.byte	0x1
 4538 09ef 1705     		.2byte	0x517
 4539 09f1 CE000000 		.4byte	0xce
 4540 09f5 02       		.uleb128 0x2
 4541 09f6 91       		.byte	0x91
 4542 09f7 6F       		.sleb128 -17
 4543 09f8 1A       		.uleb128 0x1a
 4544 09f9 0A000000 		.4byte	.LVL126
 4545 09fd C0080000 		.4byte	0x8c0
 4546 0a01 0C0A0000 		.4byte	0xa0c
 4547 0a05 1B       		.uleb128 0x1b
ARM GAS  C:\Users\adria\AppData\Local\Temp\cciNfgxb.s 			page 117


 4548 0a06 01       		.uleb128 0x1
 4549 0a07 50       		.byte	0x50
 4550 0a08 02       		.uleb128 0x2
 4551 0a09 74       		.byte	0x74
 4552 0a0a 00       		.sleb128 0
 4553 0a0b 00       		.byte	0
 4554 0a0c 1D       		.uleb128 0x1d
 4555 0a0d 1C000000 		.4byte	.LVL128
 4556 0a11 02       		.uleb128 0x2
 4557 0a12 76       		.byte	0x76
 4558 0a13 00       		.sleb128 0
 4559 0a14 1B       		.uleb128 0x1b
 4560 0a15 01       		.uleb128 0x1
 4561 0a16 51       		.byte	0x51
 4562 0a17 02       		.uleb128 0x2
 4563 0a18 09       		.byte	0x9
 4564 0a19 F3       		.byte	0xf3
 4565 0a1a 1B       		.uleb128 0x1b
 4566 0a1b 01       		.uleb128 0x1
 4567 0a1c 52       		.byte	0x52
 4568 0a1d 02       		.uleb128 0x2
 4569 0a1e 91       		.byte	0x91
 4570 0a1f 6F       		.sleb128 -17
 4571 0a20 1B       		.uleb128 0x1b
 4572 0a21 01       		.uleb128 0x1
 4573 0a22 53       		.byte	0x53
 4574 0a23 01       		.uleb128 0x1
 4575 0a24 31       		.byte	0x31
 4576 0a25 00       		.byte	0
 4577 0a26 00       		.byte	0
 4578 0a27 0E       		.uleb128 0xe
 4579 0a28 EA060000 		.4byte	.LASF134
 4580 0a2c 01       		.byte	0x1
 4581 0a2d AC05     		.2byte	0x5ac
 4582 0a2f C3000000 		.4byte	0xc3
 4583 0a33 00000000 		.4byte	.LFB89
 4584 0a37 88000000 		.4byte	.LFE89-.LFB89
 4585 0a3b 01       		.uleb128 0x1
 4586 0a3c 9C       		.byte	0x9c
 4587 0a3d 9E0A0000 		.4byte	0xa9e
 4588 0a41 0F       		.uleb128 0xf
 4589 0a42 E0040000 		.4byte	.LASF135
 4590 0a46 01       		.byte	0x1
 4591 0a47 AC05     		.2byte	0x5ac
 4592 0a49 9E0A0000 		.4byte	0xa9e
 4593 0a4d 880B0000 		.4byte	.LLST46
 4594 0a51 1E       		.uleb128 0x1e
 4595 0a52 02050000 		.4byte	.LASF136
 4596 0a56 01       		.byte	0x1
 4597 0a57 AC05     		.2byte	0x5ac
 4598 0a59 CE000000 		.4byte	0xce
 4599 0a5d 01       		.uleb128 0x1
 4600 0a5e 51       		.byte	0x51
 4601 0a5f 11       		.uleb128 0x11
 4602 0a60 10070000 		.4byte	.LASF129
 4603 0a64 01       		.byte	0x1
 4604 0a65 AE05     		.2byte	0x5ae
ARM GAS  C:\Users\adria\AppData\Local\Temp\cciNfgxb.s 			page 118


 4605 0a67 C3000000 		.4byte	0xc3
 4606 0a6b C20B0000 		.4byte	.LLST47
 4607 0a6f 11       		.uleb128 0x11
 4608 0a70 C9030000 		.4byte	.LASF137
 4609 0a74 01       		.byte	0x1
 4610 0a75 AF05     		.2byte	0x5af
 4611 0a77 CE000000 		.4byte	0xce
 4612 0a7b E10B0000 		.4byte	.LLST48
 4613 0a7f 1F       		.uleb128 0x1f
 4614 0a80 6900     		.ascii	"i\000"
 4615 0a82 01       		.byte	0x1
 4616 0a83 AF05     		.2byte	0x5af
 4617 0a85 CE000000 		.4byte	0xce
 4618 0a89 2C0C0000 		.4byte	.LLST49
 4619 0a8d 11       		.uleb128 0x11
 4620 0a8e D7060000 		.4byte	.LASF138
 4621 0a92 01       		.byte	0x1
 4622 0a93 B005     		.2byte	0x5b0
 4623 0a95 FA000000 		.4byte	0xfa
 4624 0a99 550C0000 		.4byte	.LLST50
 4625 0a9d 00       		.byte	0
 4626 0a9e 06       		.uleb128 0x6
 4627 0a9f 04       		.byte	0x4
 4628 0aa0 93010000 		.4byte	0x193
 4629 0aa4 20       		.uleb128 0x20
 4630 0aa5 10010000 		.4byte	.LASF205
 4631 0aa9 01       		.byte	0x1
 4632 0aaa CB05     		.2byte	0x5cb
 4633 0aac 00000000 		.4byte	.LFB90
 4634 0ab0 08000000 		.4byte	.LFE90-.LFB90
 4635 0ab4 01       		.uleb128 0x1
 4636 0ab5 9C       		.byte	0x9c
 4637 0ab6 DC0A0000 		.4byte	0xadc
 4638 0aba 0F       		.uleb128 0xf
 4639 0abb 38000000 		.4byte	.LASF139
 4640 0abf 01       		.byte	0x1
 4641 0ac0 CB05     		.2byte	0x5cb
 4642 0ac2 FA000000 		.4byte	0xfa
 4643 0ac6 8B0C0000 		.4byte	.LLST51
 4644 0aca 21       		.uleb128 0x21
 4645 0acb 06000000 		.4byte	.LVL154
 4646 0acf 1D1D0000 		.4byte	0x1d1d
 4647 0ad3 1B       		.uleb128 0x1b
 4648 0ad4 01       		.uleb128 0x1
 4649 0ad5 50       		.byte	0x50
 4650 0ad6 03       		.uleb128 0x3
 4651 0ad7 F3       		.byte	0xf3
 4652 0ad8 01       		.uleb128 0x1
 4653 0ad9 50       		.byte	0x50
 4654 0ada 00       		.byte	0
 4655 0adb 00       		.byte	0
 4656 0adc 0E       		.uleb128 0xe
 4657 0add AF090000 		.4byte	.LASF140
 4658 0ae1 01       		.byte	0x1
 4659 0ae2 0706     		.2byte	0x607
 4660 0ae4 C3000000 		.4byte	0xc3
 4661 0ae8 00000000 		.4byte	.LFB92
ARM GAS  C:\Users\adria\AppData\Local\Temp\cciNfgxb.s 			page 119


 4662 0aec 30000000 		.4byte	.LFE92-.LFB92
 4663 0af0 01       		.uleb128 0x1
 4664 0af1 9C       		.byte	0x9c
 4665 0af2 8B0B0000 		.4byte	0xb8b
 4666 0af6 0F       		.uleb128 0xf
 4667 0af7 B6080000 		.4byte	.LASF79
 4668 0afb 01       		.byte	0x1
 4669 0afc 0706     		.2byte	0x607
 4670 0afe CE000000 		.4byte	0xce
 4671 0b02 AC0C0000 		.4byte	.LLST52
 4672 0b06 0F       		.uleb128 0xf
 4673 0b07 FE060000 		.4byte	.LASF132
 4674 0b0b 01       		.byte	0x1
 4675 0b0c 0706     		.2byte	0x607
 4676 0b0e CE000000 		.4byte	0xce
 4677 0b12 CD0C0000 		.4byte	.LLST53
 4678 0b16 0F       		.uleb128 0xf
 4679 0b17 A0020000 		.4byte	.LASF141
 4680 0b1b 01       		.byte	0x1
 4681 0b1c 0706     		.2byte	0x607
 4682 0b1e 52010000 		.4byte	0x152
 4683 0b22 EE0C0000 		.4byte	.LLST54
 4684 0b26 15       		.uleb128 0x15
 4685 0b27 6C656E00 		.ascii	"len\000"
 4686 0b2b 01       		.byte	0x1
 4687 0b2c 0706     		.2byte	0x607
 4688 0b2e E4000000 		.4byte	0xe4
 4689 0b32 240D0000 		.4byte	.LLST55
 4690 0b36 22       		.uleb128 0x22
 4691 0b37 10070000 		.4byte	.LASF129
 4692 0b3b 01       		.byte	0x1
 4693 0b3c 0906     		.2byte	0x609
 4694 0b3e C3000000 		.4byte	0xc3
 4695 0b42 00       		.byte	0
 4696 0b43 1F       		.uleb128 0x1f
 4697 0b44 6900     		.ascii	"i\000"
 4698 0b46 01       		.byte	0x1
 4699 0b47 0A06     		.2byte	0x60a
 4700 0b49 E4000000 		.4byte	0xe4
 4701 0b4d 450D0000 		.4byte	.LLST56
 4702 0b51 1A       		.uleb128 0x1a
 4703 0b52 0E000000 		.4byte	.LVL158
 4704 0b56 281D0000 		.4byte	0x1d28
 4705 0b5a 640B0000 		.4byte	0xb64
 4706 0b5e 1B       		.uleb128 0x1b
 4707 0b5f 01       		.uleb128 0x1
 4708 0b60 51       		.byte	0x51
 4709 0b61 01       		.uleb128 0x1
 4710 0b62 30       		.byte	0x30
 4711 0b63 00       		.byte	0
 4712 0b64 1A       		.uleb128 0x1a
 4713 0b65 14000000 		.4byte	.LVL159
 4714 0b69 331D0000 		.4byte	0x1d33
 4715 0b6d 780B0000 		.4byte	0xb78
 4716 0b71 1B       		.uleb128 0x1b
 4717 0b72 01       		.uleb128 0x1
 4718 0b73 50       		.byte	0x50
ARM GAS  C:\Users\adria\AppData\Local\Temp\cciNfgxb.s 			page 120


 4719 0b74 02       		.uleb128 0x2
 4720 0b75 74       		.byte	0x74
 4721 0b76 00       		.sleb128 0
 4722 0b77 00       		.byte	0
 4723 0b78 23       		.uleb128 0x23
 4724 0b79 20000000 		.4byte	.LVL162
 4725 0b7d 331D0000 		.4byte	0x1d33
 4726 0b81 23       		.uleb128 0x23
 4727 0b82 2C000000 		.4byte	.LVL165
 4728 0b86 3E1D0000 		.4byte	0x1d3e
 4729 0b8a 00       		.byte	0
 4730 0b8b 0E       		.uleb128 0xe
 4731 0b8c ED040000 		.4byte	.LASF142
 4732 0b90 01       		.byte	0x1
 4733 0b91 D405     		.2byte	0x5d4
 4734 0b93 C3000000 		.4byte	0xc3
 4735 0b97 00000000 		.4byte	.LFB91
 4736 0b9b 3E000000 		.4byte	.LFE91-.LFB91
 4737 0b9f 01       		.uleb128 0x1
 4738 0ba0 9C       		.byte	0x9c
 4739 0ba1 790C0000 		.4byte	0xc79
 4740 0ba5 0F       		.uleb128 0xf
 4741 0ba6 B6080000 		.4byte	.LASF79
 4742 0baa 01       		.byte	0x1
 4743 0bab D405     		.2byte	0x5d4
 4744 0bad CE000000 		.4byte	0xce
 4745 0bb1 6F0D0000 		.4byte	.LLST57
 4746 0bb5 0F       		.uleb128 0xf
 4747 0bb6 FE060000 		.4byte	.LASF132
 4748 0bba 01       		.byte	0x1
 4749 0bbb D405     		.2byte	0x5d4
 4750 0bbd CE000000 		.4byte	0xce
 4751 0bc1 900D0000 		.4byte	.LLST58
 4752 0bc5 0F       		.uleb128 0xf
 4753 0bc6 A0020000 		.4byte	.LASF141
 4754 0bca 01       		.byte	0x1
 4755 0bcb D405     		.2byte	0x5d4
 4756 0bcd 52010000 		.4byte	0x152
 4757 0bd1 B10D0000 		.4byte	.LLST59
 4758 0bd5 15       		.uleb128 0x15
 4759 0bd6 6C656E00 		.ascii	"len\000"
 4760 0bda 01       		.byte	0x1
 4761 0bdb D405     		.2byte	0x5d4
 4762 0bdd E4000000 		.4byte	0xe4
 4763 0be1 D20D0000 		.4byte	.LLST60
 4764 0be5 11       		.uleb128 0x11
 4765 0be6 10070000 		.4byte	.LASF129
 4766 0bea 01       		.byte	0x1
 4767 0beb D605     		.2byte	0x5d6
 4768 0bed C3000000 		.4byte	0xc3
 4769 0bf1 F30D0000 		.4byte	.LLST61
 4770 0bf5 1F       		.uleb128 0x1f
 4771 0bf6 6900     		.ascii	"i\000"
 4772 0bf8 01       		.byte	0x1
 4773 0bf9 D705     		.2byte	0x5d7
 4774 0bfb E4000000 		.4byte	0xe4
 4775 0bff 120E0000 		.4byte	.LLST62
ARM GAS  C:\Users\adria\AppData\Local\Temp\cciNfgxb.s 			page 121


 4776 0c03 1A       		.uleb128 0x1a
 4777 0c04 0E000000 		.4byte	.LVL169
 4778 0c08 281D0000 		.4byte	0x1d28
 4779 0c0c 1C0C0000 		.4byte	0xc1c
 4780 0c10 1B       		.uleb128 0x1b
 4781 0c11 01       		.uleb128 0x1
 4782 0c12 50       		.byte	0x50
 4783 0c13 02       		.uleb128 0x2
 4784 0c14 74       		.byte	0x74
 4785 0c15 00       		.sleb128 0
 4786 0c16 1B       		.uleb128 0x1b
 4787 0c17 01       		.uleb128 0x1
 4788 0c18 51       		.byte	0x51
 4789 0c19 01       		.uleb128 0x1
 4790 0c1a 30       		.byte	0x30
 4791 0c1b 00       		.byte	0
 4792 0c1c 1A       		.uleb128 0x1a
 4793 0c1d 14000000 		.4byte	.LVL170
 4794 0c21 331D0000 		.4byte	0x1d33
 4795 0c25 300C0000 		.4byte	0xc30
 4796 0c29 1B       		.uleb128 0x1b
 4797 0c2a 01       		.uleb128 0x1
 4798 0c2b 50       		.byte	0x50
 4799 0c2c 02       		.uleb128 0x2
 4800 0c2d 76       		.byte	0x76
 4801 0c2e 00       		.sleb128 0
 4802 0c2f 00       		.byte	0
 4803 0c30 1A       		.uleb128 0x1a
 4804 0c31 1C000000 		.4byte	.LVL171
 4805 0c35 491D0000 		.4byte	0x1d49
 4806 0c39 490C0000 		.4byte	0xc49
 4807 0c3d 1B       		.uleb128 0x1b
 4808 0c3e 01       		.uleb128 0x1
 4809 0c3f 50       		.byte	0x50
 4810 0c40 02       		.uleb128 0x2
 4811 0c41 74       		.byte	0x74
 4812 0c42 00       		.sleb128 0
 4813 0c43 1B       		.uleb128 0x1b
 4814 0c44 01       		.uleb128 0x1
 4815 0c45 51       		.byte	0x51
 4816 0c46 01       		.uleb128 0x1
 4817 0c47 31       		.byte	0x31
 4818 0c48 00       		.byte	0
 4819 0c49 1A       		.uleb128 0x1a
 4820 0c4a 26000000 		.4byte	.LVL173
 4821 0c4e 541D0000 		.4byte	0x1d54
 4822 0c52 5C0C0000 		.4byte	0xc5c
 4823 0c56 1B       		.uleb128 0x1b
 4824 0c57 01       		.uleb128 0x1
 4825 0c58 50       		.byte	0x50
 4826 0c59 01       		.uleb128 0x1
 4827 0c5a 31       		.byte	0x31
 4828 0c5b 00       		.byte	0
 4829 0c5c 1A       		.uleb128 0x1a
 4830 0c5d 36000000 		.4byte	.LVL176
 4831 0c61 541D0000 		.4byte	0x1d54
 4832 0c65 6F0C0000 		.4byte	0xc6f
ARM GAS  C:\Users\adria\AppData\Local\Temp\cciNfgxb.s 			page 122


 4833 0c69 1B       		.uleb128 0x1b
 4834 0c6a 01       		.uleb128 0x1
 4835 0c6b 50       		.byte	0x50
 4836 0c6c 01       		.uleb128 0x1
 4837 0c6d 30       		.byte	0x30
 4838 0c6e 00       		.byte	0
 4839 0c6f 23       		.uleb128 0x23
 4840 0c70 3A000000 		.4byte	.LVL177
 4841 0c74 3E1D0000 		.4byte	0x1d3e
 4842 0c78 00       		.byte	0
 4843 0c79 24       		.uleb128 0x24
 4844 0c7a C7060000 		.4byte	.LASF156
 4845 0c7e 01       		.byte	0x1
 4846 0c7f 3701     		.2byte	0x137
 4847 0c81 C3000000 		.4byte	0xc3
 4848 0c85 00000000 		.4byte	.LFB64
 4849 0c89 46000000 		.4byte	.LFE64-.LFB64
 4850 0c8d 01       		.uleb128 0x1
 4851 0c8e 9C       		.byte	0x9c
 4852 0c8f 2D0D0000 		.4byte	0xd2d
 4853 0c93 0F       		.uleb128 0xf
 4854 0c94 FE060000 		.4byte	.LASF132
 4855 0c98 01       		.byte	0x1
 4856 0c99 3701     		.2byte	0x137
 4857 0c9b CE000000 		.4byte	0xce
 4858 0c9f 3C0E0000 		.4byte	.LLST63
 4859 0ca3 0F       		.uleb128 0xf
 4860 0ca4 A0020000 		.4byte	.LASF141
 4861 0ca8 01       		.byte	0x1
 4862 0ca9 3701     		.2byte	0x137
 4863 0cab 52010000 		.4byte	0x152
 4864 0caf 680E0000 		.4byte	.LLST64
 4865 0cb3 15       		.uleb128 0x15
 4866 0cb4 6C656E00 		.ascii	"len\000"
 4867 0cb8 01       		.byte	0x1
 4868 0cb9 3701     		.2byte	0x137
 4869 0cbb E4000000 		.4byte	0xe4
 4870 0cbf 860E0000 		.4byte	.LLST65
 4871 0cc3 15       		.uleb128 0x15
 4872 0cc4 64657600 		.ascii	"dev\000"
 4873 0cc8 01       		.byte	0x1
 4874 0cc9 3701     		.2byte	0x137
 4875 0ccb 67050000 		.4byte	0x567
 4876 0ccf A70E0000 		.4byte	.LLST66
 4877 0cd3 11       		.uleb128 0x11
 4878 0cd4 10070000 		.4byte	.LASF129
 4879 0cd8 01       		.byte	0x1
 4880 0cd9 3901     		.2byte	0x139
 4881 0cdb C3000000 		.4byte	0xc3
 4882 0cdf C50E0000 		.4byte	.LLST67
 4883 0ce3 1A       		.uleb128 0x1a
 4884 0ce4 12000000 		.4byte	.LVL180
 4885 0ce8 C0080000 		.4byte	0x8c0
 4886 0cec F70C0000 		.4byte	0xcf7
 4887 0cf0 1B       		.uleb128 0x1b
 4888 0cf1 01       		.uleb128 0x1
 4889 0cf2 50       		.byte	0x50
ARM GAS  C:\Users\adria\AppData\Local\Temp\cciNfgxb.s 			page 123


 4890 0cf3 02       		.uleb128 0x2
 4891 0cf4 74       		.byte	0x74
 4892 0cf5 00       		.sleb128 0
 4893 0cf6 00       		.byte	0
 4894 0cf7 1A       		.uleb128 0x1a
 4895 0cf8 22000000 		.4byte	.LVL182
 4896 0cfc F9080000 		.4byte	0x8f9
 4897 0d00 110D0000 		.4byte	0xd11
 4898 0d04 1B       		.uleb128 0x1b
 4899 0d05 01       		.uleb128 0x1
 4900 0d06 50       		.byte	0x50
 4901 0d07 02       		.uleb128 0x2
 4902 0d08 76       		.byte	0x76
 4903 0d09 00       		.sleb128 0
 4904 0d0a 1B       		.uleb128 0x1b
 4905 0d0b 01       		.uleb128 0x1
 4906 0d0c 51       		.byte	0x51
 4907 0d0d 02       		.uleb128 0x2
 4908 0d0e 74       		.byte	0x74
 4909 0d0f 00       		.sleb128 0
 4910 0d10 00       		.byte	0
 4911 0d11 1D       		.uleb128 0x1d
 4912 0d12 36000000 		.4byte	.LVL184
 4913 0d16 02       		.uleb128 0x2
 4914 0d17 77       		.byte	0x77
 4915 0d18 00       		.sleb128 0
 4916 0d19 1B       		.uleb128 0x1b
 4917 0d1a 01       		.uleb128 0x1
 4918 0d1b 51       		.byte	0x51
 4919 0d1c 02       		.uleb128 0x2
 4920 0d1d 76       		.byte	0x76
 4921 0d1e 00       		.sleb128 0
 4922 0d1f 1B       		.uleb128 0x1b
 4923 0d20 01       		.uleb128 0x1
 4924 0d21 52       		.byte	0x52
 4925 0d22 02       		.uleb128 0x2
 4926 0d23 78       		.byte	0x78
 4927 0d24 00       		.sleb128 0
 4928 0d25 1B       		.uleb128 0x1b
 4929 0d26 01       		.uleb128 0x1
 4930 0d27 53       		.byte	0x53
 4931 0d28 02       		.uleb128 0x2
 4932 0d29 79       		.byte	0x79
 4933 0d2a 00       		.sleb128 0
 4934 0d2b 00       		.byte	0
 4935 0d2c 00       		.byte	0
 4936 0d2d 0E       		.uleb128 0xe
 4937 0d2e CF080000 		.4byte	.LASF143
 4938 0d32 01       		.byte	0x1
 4939 0d33 D402     		.2byte	0x2d4
 4940 0d35 C3000000 		.4byte	0xc3
 4941 0d39 00000000 		.4byte	.LFB74
 4942 0d3d 8A010000 		.4byte	.LFE74-.LFB74
 4943 0d41 01       		.uleb128 0x1
 4944 0d42 9C       		.byte	0x9c
 4945 0d43 660E0000 		.4byte	0xe66
 4946 0d47 15       		.uleb128 0x15
ARM GAS  C:\Users\adria\AppData\Local\Temp\cciNfgxb.s 			page 124


 4947 0d48 64657600 		.ascii	"dev\000"
 4948 0d4c 01       		.byte	0x1
 4949 0d4d D402     		.2byte	0x2d4
 4950 0d4f 67050000 		.4byte	0x567
 4951 0d53 EE0E0000 		.4byte	.LLST68
 4952 0d57 11       		.uleb128 0x11
 4953 0d58 10070000 		.4byte	.LASF129
 4954 0d5c 01       		.byte	0x1
 4955 0d5d D602     		.2byte	0x2d6
 4956 0d5f C3000000 		.4byte	0xc3
 4957 0d63 0C0F0000 		.4byte	.LLST69
 4958 0d67 16       		.uleb128 0x16
 4959 0d68 3F000000 		.4byte	.LASF144
 4960 0d6c 01       		.byte	0x1
 4961 0d6d D702     		.2byte	0x2d7
 4962 0d6f 660E0000 		.4byte	0xe66
 4963 0d73 02       		.uleb128 0x2
 4964 0d74 91       		.byte	0x91
 4965 0d75 4C       		.sleb128 -52
 4966 0d76 16       		.uleb128 0x16
 4967 0d77 2D090000 		.4byte	.LASF145
 4968 0d7b 01       		.byte	0x1
 4969 0d7c D802     		.2byte	0x2d8
 4970 0d7e CE000000 		.4byte	0xce
 4971 0d82 02       		.uleb128 0x2
 4972 0d83 91       		.byte	0x91
 4973 0d84 4B       		.sleb128 -53
 4974 0d85 1A       		.uleb128 0x1a
 4975 0d86 10000000 		.4byte	.LVL188
 4976 0d8a 5F1D0000 		.4byte	0x1d5f
 4977 0d8e A40D0000 		.4byte	0xda4
 4978 0d92 1B       		.uleb128 0x1b
 4979 0d93 01       		.uleb128 0x1
 4980 0d94 50       		.byte	0x50
 4981 0d95 02       		.uleb128 0x2
 4982 0d96 91       		.byte	0x91
 4983 0d97 4C       		.sleb128 -52
 4984 0d98 1B       		.uleb128 0x1b
 4985 0d99 01       		.uleb128 0x1
 4986 0d9a 51       		.byte	0x51
 4987 0d9b 01       		.uleb128 0x1
 4988 0d9c 30       		.byte	0x30
 4989 0d9d 1B       		.uleb128 0x1b
 4990 0d9e 01       		.uleb128 0x1
 4991 0d9f 52       		.byte	0x52
 4992 0da0 02       		.uleb128 0x2
 4993 0da1 08       		.byte	0x8
 4994 0da2 29       		.byte	0x29
 4995 0da3 00       		.byte	0
 4996 0da4 1A       		.uleb128 0x1a
 4997 0da5 1C000000 		.4byte	.LVL189
 4998 0da9 C0080000 		.4byte	0x8c0
 4999 0dad B80D0000 		.4byte	0xdb8
 5000 0db1 1B       		.uleb128 0x1b
 5001 0db2 01       		.uleb128 0x1
 5002 0db3 50       		.byte	0x50
 5003 0db4 02       		.uleb128 0x2
ARM GAS  C:\Users\adria\AppData\Local\Temp\cciNfgxb.s 			page 125


 5004 0db5 74       		.byte	0x74
 5005 0db6 00       		.sleb128 0
 5006 0db7 00       		.byte	0
 5007 0db8 1A       		.uleb128 0x1a
 5008 0db9 30000000 		.4byte	.LVL191
 5009 0dbd 790C0000 		.4byte	0xc79
 5010 0dc1 DD0D0000 		.4byte	0xddd
 5011 0dc5 1B       		.uleb128 0x1b
 5012 0dc6 01       		.uleb128 0x1
 5013 0dc7 50       		.byte	0x50
 5014 0dc8 02       		.uleb128 0x2
 5015 0dc9 09       		.byte	0x9
 5016 0dca 89       		.byte	0x89
 5017 0dcb 1B       		.uleb128 0x1b
 5018 0dcc 01       		.uleb128 0x1
 5019 0dcd 51       		.byte	0x51
 5020 0dce 02       		.uleb128 0x2
 5021 0dcf 91       		.byte	0x91
 5022 0dd0 4C       		.sleb128 -52
 5023 0dd1 1B       		.uleb128 0x1b
 5024 0dd2 01       		.uleb128 0x1
 5025 0dd3 52       		.byte	0x52
 5026 0dd4 01       		.uleb128 0x1
 5027 0dd5 49       		.byte	0x49
 5028 0dd6 1B       		.uleb128 0x1b
 5029 0dd7 01       		.uleb128 0x1
 5030 0dd8 53       		.byte	0x53
 5031 0dd9 02       		.uleb128 0x2
 5032 0dda 74       		.byte	0x74
 5033 0ddb 00       		.sleb128 0
 5034 0ddc 00       		.byte	0
 5035 0ddd 1A       		.uleb128 0x1a
 5036 0dde 42000000 		.4byte	.LVL193
 5037 0de2 790C0000 		.4byte	0xc79
 5038 0de6 020E0000 		.4byte	0xe02
 5039 0dea 1B       		.uleb128 0x1b
 5040 0deb 01       		.uleb128 0x1
 5041 0dec 50       		.byte	0x50
 5042 0ded 02       		.uleb128 0x2
 5043 0dee 09       		.byte	0x9
 5044 0def E1       		.byte	0xe1
 5045 0df0 1B       		.uleb128 0x1b
 5046 0df1 01       		.uleb128 0x1
 5047 0df2 51       		.byte	0x51
 5048 0df3 02       		.uleb128 0x2
 5049 0df4 91       		.byte	0x91
 5050 0df5 65       		.sleb128 -27
 5051 0df6 1B       		.uleb128 0x1b
 5052 0df7 01       		.uleb128 0x1
 5053 0df8 52       		.byte	0x52
 5054 0df9 01       		.uleb128 0x1
 5055 0dfa 40       		.byte	0x40
 5056 0dfb 1B       		.uleb128 0x1b
 5057 0dfc 01       		.uleb128 0x1
 5058 0dfd 53       		.byte	0x53
 5059 0dfe 02       		.uleb128 0x2
 5060 0dff 74       		.byte	0x74
ARM GAS  C:\Users\adria\AppData\Local\Temp\cciNfgxb.s 			page 126


 5061 0e00 00       		.sleb128 0
 5062 0e01 00       		.byte	0
 5063 0e02 1A       		.uleb128 0x1a
 5064 0e03 40010000 		.4byte	.LVL196
 5065 0e07 790C0000 		.4byte	0xc79
 5066 0e0b 260E0000 		.4byte	0xe26
 5067 0e0f 1B       		.uleb128 0x1b
 5068 0e10 01       		.uleb128 0x1
 5069 0e11 50       		.byte	0x50
 5070 0e12 01       		.uleb128 0x1
 5071 0e13 32       		.byte	0x32
 5072 0e14 1B       		.uleb128 0x1b
 5073 0e15 01       		.uleb128 0x1
 5074 0e16 51       		.byte	0x51
 5075 0e17 02       		.uleb128 0x2
 5076 0e18 91       		.byte	0x91
 5077 0e19 4B       		.sleb128 -53
 5078 0e1a 1B       		.uleb128 0x1b
 5079 0e1b 01       		.uleb128 0x1
 5080 0e1c 52       		.byte	0x52
 5081 0e1d 01       		.uleb128 0x1
 5082 0e1e 31       		.byte	0x31
 5083 0e1f 1B       		.uleb128 0x1b
 5084 0e20 01       		.uleb128 0x1
 5085 0e21 53       		.byte	0x53
 5086 0e22 02       		.uleb128 0x2
 5087 0e23 74       		.byte	0x74
 5088 0e24 00       		.sleb128 0
 5089 0e25 00       		.byte	0
 5090 0e26 1A       		.uleb128 0x1a
 5091 0e27 5E010000 		.4byte	.LVL197
 5092 0e2b 790C0000 		.4byte	0xc79
 5093 0e2f 450E0000 		.4byte	0xe45
 5094 0e33 1B       		.uleb128 0x1b
 5095 0e34 01       		.uleb128 0x1
 5096 0e35 51       		.byte	0x51
 5097 0e36 02       		.uleb128 0x2
 5098 0e37 91       		.byte	0x91
 5099 0e38 4B       		.sleb128 -53
 5100 0e39 1B       		.uleb128 0x1b
 5101 0e3a 01       		.uleb128 0x1
 5102 0e3b 52       		.byte	0x52
 5103 0e3c 01       		.uleb128 0x1
 5104 0e3d 31       		.byte	0x31
 5105 0e3e 1B       		.uleb128 0x1b
 5106 0e3f 01       		.uleb128 0x1
 5107 0e40 53       		.byte	0x53
 5108 0e41 02       		.uleb128 0x2
 5109 0e42 74       		.byte	0x74
 5110 0e43 00       		.sleb128 0
 5111 0e44 00       		.byte	0
 5112 0e45 21       		.uleb128 0x21
 5113 0e46 78010000 		.4byte	.LVL199
 5114 0e4a 790C0000 		.4byte	0xc79
 5115 0e4e 1B       		.uleb128 0x1b
 5116 0e4f 01       		.uleb128 0x1
 5117 0e50 50       		.byte	0x50
ARM GAS  C:\Users\adria\AppData\Local\Temp\cciNfgxb.s 			page 127


 5118 0e51 01       		.uleb128 0x1
 5119 0e52 34       		.byte	0x34
 5120 0e53 1B       		.uleb128 0x1b
 5121 0e54 01       		.uleb128 0x1
 5122 0e55 51       		.byte	0x51
 5123 0e56 02       		.uleb128 0x2
 5124 0e57 91       		.byte	0x91
 5125 0e58 4B       		.sleb128 -53
 5126 0e59 1B       		.uleb128 0x1b
 5127 0e5a 01       		.uleb128 0x1
 5128 0e5b 52       		.byte	0x52
 5129 0e5c 01       		.uleb128 0x1
 5130 0e5d 31       		.byte	0x31
 5131 0e5e 1B       		.uleb128 0x1b
 5132 0e5f 01       		.uleb128 0x1
 5133 0e60 53       		.byte	0x53
 5134 0e61 02       		.uleb128 0x2
 5135 0e62 74       		.byte	0x74
 5136 0e63 00       		.sleb128 0
 5137 0e64 00       		.byte	0
 5138 0e65 00       		.byte	0
 5139 0e66 17       		.uleb128 0x17
 5140 0e67 CE000000 		.4byte	0xce
 5141 0e6b 760E0000 		.4byte	0xe76
 5142 0e6f 18       		.uleb128 0x18
 5143 0e70 EB040000 		.4byte	0x4eb
 5144 0e74 28       		.byte	0x28
 5145 0e75 00       		.byte	0
 5146 0e76 0E       		.uleb128 0xe
 5147 0e77 D4070000 		.4byte	.LASF146
 5148 0e7b 01       		.byte	0x1
 5149 0e7c 4303     		.2byte	0x343
 5150 0e7e C3000000 		.4byte	0xc3
 5151 0e82 00000000 		.4byte	.LFB76
 5152 0e86 5C000000 		.4byte	.LFE76-.LFB76
 5153 0e8a 01       		.uleb128 0x1
 5154 0e8b 9C       		.byte	0x9c
 5155 0e8c 4E0F0000 		.4byte	0xf4e
 5156 0e90 15       		.uleb128 0x15
 5157 0e91 64657600 		.ascii	"dev\000"
 5158 0e95 01       		.byte	0x1
 5159 0e96 4303     		.2byte	0x343
 5160 0e98 67050000 		.4byte	0x567
 5161 0e9c 560F0000 		.4byte	.LLST70
 5162 0ea0 11       		.uleb128 0x11
 5163 0ea1 10070000 		.4byte	.LASF129
 5164 0ea5 01       		.byte	0x1
 5165 0ea6 4503     		.2byte	0x345
 5166 0ea8 C3000000 		.4byte	0xc3
 5167 0eac 740F0000 		.4byte	.LLST71
 5168 0eb0 22       		.uleb128 0x22
 5169 0eb1 9E040000 		.4byte	.LASF147
 5170 0eb5 01       		.byte	0x1
 5171 0eb6 4703     		.2byte	0x347
 5172 0eb8 CE000000 		.4byte	0xce
 5173 0ebc 5A       		.byte	0x5a
 5174 0ebd 22       		.uleb128 0x22
ARM GAS  C:\Users\adria\AppData\Local\Temp\cciNfgxb.s 			page 128


 5175 0ebe A8040000 		.4byte	.LASF148
 5176 0ec2 01       		.byte	0x1
 5177 0ec3 4803     		.2byte	0x348
 5178 0ec5 CE000000 		.4byte	0xce
 5179 0ec9 64       		.byte	0x64
 5180 0eca 16       		.uleb128 0x16
 5181 0ecb A0020000 		.4byte	.LASF141
 5182 0ecf 01       		.byte	0x1
 5183 0ed0 4903     		.2byte	0x349
 5184 0ed2 CE000000 		.4byte	0xce
 5185 0ed6 02       		.uleb128 0x2
 5186 0ed7 91       		.byte	0x91
 5187 0ed8 77       		.sleb128 -9
 5188 0ed9 1A       		.uleb128 0x1a
 5189 0eda 10000000 		.4byte	.LVL204
 5190 0ede C0080000 		.4byte	0x8c0
 5191 0ee2 ED0E0000 		.4byte	0xeed
 5192 0ee6 1B       		.uleb128 0x1b
 5193 0ee7 01       		.uleb128 0x1
 5194 0ee8 50       		.byte	0x50
 5195 0ee9 02       		.uleb128 0x2
 5196 0eea 74       		.byte	0x74
 5197 0eeb 00       		.sleb128 0
 5198 0eec 00       		.byte	0
 5199 0eed 1A       		.uleb128 0x1a
 5200 0eee 20000000 		.4byte	.LVL206
 5201 0ef2 F9080000 		.4byte	0x8f9
 5202 0ef6 070F0000 		.4byte	0xf07
 5203 0efa 1B       		.uleb128 0x1b
 5204 0efb 01       		.uleb128 0x1
 5205 0efc 50       		.byte	0x50
 5206 0efd 02       		.uleb128 0x2
 5207 0efe 08       		.byte	0x8
 5208 0eff 5A       		.byte	0x5a
 5209 0f00 1B       		.uleb128 0x1b
 5210 0f01 01       		.uleb128 0x1
 5211 0f02 51       		.byte	0x51
 5212 0f03 02       		.uleb128 0x2
 5213 0f04 74       		.byte	0x74
 5214 0f05 00       		.sleb128 0
 5215 0f06 00       		.byte	0
 5216 0f07 1A       		.uleb128 0x1a
 5217 0f08 32000000 		.4byte	.LVL209
 5218 0f0c 790C0000 		.4byte	0xc79
 5219 0f10 2C0F0000 		.4byte	0xf2c
 5220 0f14 1B       		.uleb128 0x1b
 5221 0f15 01       		.uleb128 0x1
 5222 0f16 50       		.byte	0x50
 5223 0f17 02       		.uleb128 0x2
 5224 0f18 08       		.byte	0x8
 5225 0f19 5A       		.byte	0x5a
 5226 0f1a 1B       		.uleb128 0x1b
 5227 0f1b 01       		.uleb128 0x1
 5228 0f1c 51       		.byte	0x51
 5229 0f1d 02       		.uleb128 0x2
 5230 0f1e 91       		.byte	0x91
 5231 0f1f 77       		.sleb128 -9
ARM GAS  C:\Users\adria\AppData\Local\Temp\cciNfgxb.s 			page 129


 5232 0f20 1B       		.uleb128 0x1b
 5233 0f21 01       		.uleb128 0x1
 5234 0f22 52       		.byte	0x52
 5235 0f23 01       		.uleb128 0x1
 5236 0f24 31       		.byte	0x31
 5237 0f25 1B       		.uleb128 0x1b
 5238 0f26 01       		.uleb128 0x1
 5239 0f27 53       		.byte	0x53
 5240 0f28 02       		.uleb128 0x2
 5241 0f29 74       		.byte	0x74
 5242 0f2a 00       		.sleb128 0
 5243 0f2b 00       		.byte	0
 5244 0f2c 21       		.uleb128 0x21
 5245 0f2d 4A000000 		.4byte	.LVL211
 5246 0f31 790C0000 		.4byte	0xc79
 5247 0f35 1B       		.uleb128 0x1b
 5248 0f36 01       		.uleb128 0x1
 5249 0f37 50       		.byte	0x50
 5250 0f38 02       		.uleb128 0x2
 5251 0f39 08       		.byte	0x8
 5252 0f3a 64       		.byte	0x64
 5253 0f3b 1B       		.uleb128 0x1b
 5254 0f3c 01       		.uleb128 0x1
 5255 0f3d 51       		.byte	0x51
 5256 0f3e 02       		.uleb128 0x2
 5257 0f3f 91       		.byte	0x91
 5258 0f40 77       		.sleb128 -9
 5259 0f41 1B       		.uleb128 0x1b
 5260 0f42 01       		.uleb128 0x1
 5261 0f43 52       		.byte	0x52
 5262 0f44 01       		.uleb128 0x1
 5263 0f45 31       		.byte	0x31
 5264 0f46 1B       		.uleb128 0x1b
 5265 0f47 01       		.uleb128 0x1
 5266 0f48 53       		.byte	0x53
 5267 0f49 02       		.uleb128 0x2
 5268 0f4a 74       		.byte	0x74
 5269 0f4b 00       		.sleb128 0
 5270 0f4c 00       		.byte	0
 5271 0f4d 00       		.byte	0
 5272 0f4e 0E       		.uleb128 0xe
 5273 0f4f F6050000 		.4byte	.LASF149
 5274 0f53 01       		.byte	0x1
 5275 0f54 B504     		.2byte	0x4b5
 5276 0f56 C3000000 		.4byte	0xc3
 5277 0f5a 00000000 		.4byte	.LFB83
 5278 0f5e EC000000 		.4byte	.LFE83-.LFB83
 5279 0f62 01       		.uleb128 0x1
 5280 0f63 9C       		.byte	0x9c
 5281 0f64 B1100000 		.4byte	0x10b1
 5282 0f68 0F       		.uleb128 0xf
 5283 0f69 E0040000 		.4byte	.LASF135
 5284 0f6d 01       		.byte	0x1
 5285 0f6e B504     		.2byte	0x4b5
 5286 0f70 9E0A0000 		.4byte	0xa9e
 5287 0f74 B30F0000 		.4byte	.LLST72
 5288 0f78 15       		.uleb128 0x15
ARM GAS  C:\Users\adria\AppData\Local\Temp\cciNfgxb.s 			page 130


 5289 0f79 64657600 		.ascii	"dev\000"
 5290 0f7d 01       		.byte	0x1
 5291 0f7e B504     		.2byte	0x4b5
 5292 0f80 67050000 		.4byte	0x567
 5293 0f84 D10F0000 		.4byte	.LLST73
 5294 0f88 16       		.uleb128 0x16
 5295 0f89 10070000 		.4byte	.LASF129
 5296 0f8d 01       		.byte	0x1
 5297 0f8e B704     		.2byte	0x4b7
 5298 0f90 C3000000 		.4byte	0xc3
 5299 0f94 01       		.uleb128 0x1
 5300 0f95 56       		.byte	0x56
 5301 0f96 16       		.uleb128 0x16
 5302 0f97 99040000 		.4byte	.LASF150
 5303 0f9b 01       		.byte	0x1
 5304 0f9c B804     		.2byte	0x4b8
 5305 0f9e B1100000 		.4byte	0x10b1
 5306 0fa2 02       		.uleb128 0x2
 5307 0fa3 91       		.byte	0x91
 5308 0fa4 48       		.sleb128 -56
 5309 0fa5 11       		.uleb128 0x11
 5310 0fa6 8D010000 		.4byte	.LASF116
 5311 0faa 01       		.byte	0x1
 5312 0fab B904     		.2byte	0x4b9
 5313 0fad CE000000 		.4byte	0xce
 5314 0fb1 EF0F0000 		.4byte	.LLST74
 5315 0fb5 11       		.uleb128 0x11
 5316 0fb6 ED050000 		.4byte	.LASF151
 5317 0fba 01       		.byte	0x1
 5318 0fbb BA04     		.2byte	0x4ba
 5319 0fbd FA000000 		.4byte	0xfa
 5320 0fc1 02100000 		.4byte	.LLST75
 5321 0fc5 11       		.uleb128 0x11
 5322 0fc6 BD080000 		.4byte	.LASF152
 5323 0fca 01       		.byte	0x1
 5324 0fcb BB04     		.2byte	0x4bb
 5325 0fcd FA000000 		.4byte	0xfa
 5326 0fd1 20100000 		.4byte	.LLST76
 5327 0fd5 11       		.uleb128 0x11
 5328 0fd6 67050000 		.4byte	.LASF153
 5329 0fda 01       		.byte	0x1
 5330 0fdb BC04     		.2byte	0x4bc
 5331 0fdd E4000000 		.4byte	0xe4
 5332 0fe1 33100000 		.4byte	.LLST77
 5333 0fe5 11       		.uleb128 0x11
 5334 0fe6 56050000 		.4byte	.LASF154
 5335 0fea 01       		.byte	0x1
 5336 0feb BD04     		.2byte	0x4bd
 5337 0fed E4000000 		.4byte	0xe4
 5338 0ff1 46100000 		.4byte	.LLST78
 5339 0ff5 11       		.uleb128 0x11
 5340 0ff6 B0080000 		.4byte	.LASF155
 5341 0ffa 01       		.byte	0x1
 5342 0ffb BE04     		.2byte	0x4be
 5343 0ffd CE000000 		.4byte	0xce
 5344 1001 59100000 		.4byte	.LLST79
 5345 1005 1A       		.uleb128 0x1a
ARM GAS  C:\Users\adria\AppData\Local\Temp\cciNfgxb.s 			page 131


 5346 1006 1C000000 		.4byte	.LVL216
 5347 100a C0080000 		.4byte	0x8c0
 5348 100e 19100000 		.4byte	0x1019
 5349 1012 1B       		.uleb128 0x1b
 5350 1013 01       		.uleb128 0x1
 5351 1014 50       		.byte	0x50
 5352 1015 02       		.uleb128 0x2
 5353 1016 7A       		.byte	0x7a
 5354 1017 00       		.sleb128 0
 5355 1018 00       		.byte	0
 5356 1019 1A       		.uleb128 0x1a
 5357 101a 30000000 		.4byte	.LVL219
 5358 101e 790C0000 		.4byte	0xc79
 5359 1022 3D100000 		.4byte	0x103d
 5360 1026 1B       		.uleb128 0x1b
 5361 1027 01       		.uleb128 0x1
 5362 1028 50       		.byte	0x50
 5363 1029 01       		.uleb128 0x1
 5364 102a 4D       		.byte	0x4d
 5365 102b 1B       		.uleb128 0x1b
 5366 102c 01       		.uleb128 0x1
 5367 102d 51       		.byte	0x51
 5368 102e 02       		.uleb128 0x2
 5369 102f 7D       		.byte	0x7d
 5370 1030 00       		.sleb128 0
 5371 1031 1B       		.uleb128 0x1b
 5372 1032 01       		.uleb128 0x1
 5373 1033 52       		.byte	0x52
 5374 1034 01       		.uleb128 0x1
 5375 1035 3F       		.byte	0x3f
 5376 1036 1B       		.uleb128 0x1b
 5377 1037 01       		.uleb128 0x1
 5378 1038 53       		.byte	0x53
 5379 1039 02       		.uleb128 0x2
 5380 103a 7A       		.byte	0x7a
 5381 103b 00       		.sleb128 0
 5382 103c 00       		.byte	0
 5383 103d 1A       		.uleb128 0x1a
 5384 103e AC000000 		.4byte	.LVL226
 5385 1042 F2040000 		.4byte	0x4f2
 5386 1046 51100000 		.4byte	0x1051
 5387 104a 1B       		.uleb128 0x1b
 5388 104b 01       		.uleb128 0x1
 5389 104c 51       		.byte	0x51
 5390 104d 02       		.uleb128 0x2
 5391 104e 7A       		.byte	0x7a
 5392 104f 00       		.sleb128 0
 5393 1050 00       		.byte	0
 5394 1051 1A       		.uleb128 0x1a
 5395 1052 B6000000 		.4byte	.LVL227
 5396 1056 6D050000 		.4byte	0x56d
 5397 105a 6B100000 		.4byte	0x106b
 5398 105e 1B       		.uleb128 0x1b
 5399 105f 01       		.uleb128 0x1
 5400 1060 50       		.byte	0x50
 5401 1061 02       		.uleb128 0x2
 5402 1062 75       		.byte	0x75
ARM GAS  C:\Users\adria\AppData\Local\Temp\cciNfgxb.s 			page 132


 5403 1063 00       		.sleb128 0
 5404 1064 1B       		.uleb128 0x1b
 5405 1065 01       		.uleb128 0x1
 5406 1066 51       		.byte	0x51
 5407 1067 02       		.uleb128 0x2
 5408 1068 7A       		.byte	0x7a
 5409 1069 00       		.sleb128 0
 5410 106a 00       		.byte	0
 5411 106b 1A       		.uleb128 0x1a
 5412 106c C0000000 		.4byte	.LVL228
 5413 1070 F1050000 		.4byte	0x5f1
 5414 1074 85100000 		.4byte	0x1085
 5415 1078 1B       		.uleb128 0x1b
 5416 1079 01       		.uleb128 0x1
 5417 107a 50       		.byte	0x50
 5418 107b 02       		.uleb128 0x2
 5419 107c 79       		.byte	0x79
 5420 107d 00       		.sleb128 0
 5421 107e 1B       		.uleb128 0x1b
 5422 107f 01       		.uleb128 0x1
 5423 1080 51       		.byte	0x51
 5424 1081 02       		.uleb128 0x2
 5425 1082 7A       		.byte	0x7a
 5426 1083 00       		.sleb128 0
 5427 1084 00       		.byte	0
 5428 1085 1A       		.uleb128 0x1a
 5429 1086 CC000000 		.4byte	.LVL229
 5430 108a AA060000 		.4byte	0x6aa
 5431 108e A5100000 		.4byte	0x10a5
 5432 1092 1B       		.uleb128 0x1b
 5433 1093 01       		.uleb128 0x1
 5434 1094 50       		.byte	0x50
 5435 1095 02       		.uleb128 0x2
 5436 1096 78       		.byte	0x78
 5437 1097 00       		.sleb128 0
 5438 1098 1B       		.uleb128 0x1b
 5439 1099 01       		.uleb128 0x1
 5440 109a 51       		.byte	0x51
 5441 109b 02       		.uleb128 0x2
 5442 109c 7B       		.byte	0x7b
 5443 109d 00       		.sleb128 0
 5444 109e 1B       		.uleb128 0x1b
 5445 109f 01       		.uleb128 0x1
 5446 10a0 52       		.byte	0x52
 5447 10a1 02       		.uleb128 0x2
 5448 10a2 7A       		.byte	0x7a
 5449 10a3 00       		.sleb128 0
 5450 10a4 00       		.byte	0
 5451 10a5 25       		.uleb128 0x25
 5452 10a6 D8000000 		.4byte	.LVL232
 5453 10aa 1B       		.uleb128 0x1b
 5454 10ab 01       		.uleb128 0x1
 5455 10ac 50       		.byte	0x50
 5456 10ad 01       		.uleb128 0x1
 5457 10ae 3A       		.byte	0x3a
 5458 10af 00       		.byte	0
 5459 10b0 00       		.byte	0
ARM GAS  C:\Users\adria\AppData\Local\Temp\cciNfgxb.s 			page 133


 5460 10b1 17       		.uleb128 0x17
 5461 10b2 CE000000 		.4byte	0xce
 5462 10b6 C1100000 		.4byte	0x10c1
 5463 10ba 18       		.uleb128 0x18
 5464 10bb EB040000 		.4byte	0x4eb
 5465 10bf 0E       		.byte	0xe
 5466 10c0 00       		.byte	0
 5467 10c1 24       		.uleb128 0x24
 5468 10c2 AA000000 		.4byte	.LASF157
 5469 10c6 01       		.byte	0x1
 5470 10c7 5001     		.2byte	0x150
 5471 10c9 C3000000 		.4byte	0xc3
 5472 10cd 00000000 		.4byte	.LFB65
 5473 10d1 A8000000 		.4byte	.LFE65-.LFB65
 5474 10d5 01       		.uleb128 0x1
 5475 10d6 9C       		.byte	0x9c
 5476 10d7 B1110000 		.4byte	0x11b1
 5477 10db 0F       		.uleb128 0xf
 5478 10dc FE060000 		.4byte	.LASF132
 5479 10e0 01       		.byte	0x1
 5480 10e1 5001     		.2byte	0x150
 5481 10e3 B1110000 		.4byte	0x11b1
 5482 10e7 8E100000 		.4byte	.LLST80
 5483 10eb 0F       		.uleb128 0xf
 5484 10ec A0020000 		.4byte	.LASF141
 5485 10f0 01       		.byte	0x1
 5486 10f1 5001     		.2byte	0x150
 5487 10f3 B1110000 		.4byte	0x11b1
 5488 10f7 AC100000 		.4byte	.LLST81
 5489 10fb 15       		.uleb128 0x15
 5490 10fc 6C656E00 		.ascii	"len\000"
 5491 1100 01       		.byte	0x1
 5492 1101 5001     		.2byte	0x150
 5493 1103 CE000000 		.4byte	0xce
 5494 1107 CA100000 		.4byte	.LLST82
 5495 110b 15       		.uleb128 0x15
 5496 110c 64657600 		.ascii	"dev\000"
 5497 1110 01       		.byte	0x1
 5498 1111 5001     		.2byte	0x150
 5499 1113 67050000 		.4byte	0x567
 5500 1117 EB100000 		.4byte	.LLST83
 5501 111b 11       		.uleb128 0x11
 5502 111c 10070000 		.4byte	.LASF129
 5503 1120 01       		.byte	0x1
 5504 1121 5201     		.2byte	0x152
 5505 1123 C3000000 		.4byte	0xc3
 5506 1127 09110000 		.4byte	.LLST84
 5507 112b 16       		.uleb128 0x16
 5508 112c 3A080000 		.4byte	.LASF158
 5509 1130 01       		.byte	0x1
 5510 1131 5401     		.2byte	0x154
 5511 1133 BC110000 		.4byte	0x11bc
 5512 1137 03       		.uleb128 0x3
 5513 1138 91       		.byte	0x91
 5514 1139 B87F     		.sleb128 -72
 5515 113b 11       		.uleb128 0x11
 5516 113c 08020000 		.4byte	.LASF159
ARM GAS  C:\Users\adria\AppData\Local\Temp\cciNfgxb.s 			page 134


 5517 1140 01       		.byte	0x1
 5518 1141 5501     		.2byte	0x155
 5519 1143 E4000000 		.4byte	0xe4
 5520 1147 3D110000 		.4byte	.LLST85
 5521 114b 1A       		.uleb128 0x1a
 5522 114c 18000000 		.4byte	.LVL240
 5523 1150 5F1D0000 		.4byte	0x1d5f
 5524 1154 6A110000 		.4byte	0x116a
 5525 1158 1B       		.uleb128 0x1b
 5526 1159 01       		.uleb128 0x1
 5527 115a 50       		.byte	0x50
 5528 115b 02       		.uleb128 0x2
 5529 115c 7D       		.byte	0x7d
 5530 115d 00       		.sleb128 0
 5531 115e 1B       		.uleb128 0x1b
 5532 115f 01       		.uleb128 0x1
 5533 1160 51       		.byte	0x51
 5534 1161 01       		.uleb128 0x1
 5535 1162 30       		.byte	0x30
 5536 1163 1B       		.uleb128 0x1b
 5537 1164 01       		.uleb128 0x1
 5538 1165 52       		.byte	0x52
 5539 1166 02       		.uleb128 0x2
 5540 1167 08       		.byte	0x8
 5541 1168 28       		.byte	0x28
 5542 1169 00       		.byte	0
 5543 116a 1A       		.uleb128 0x1a
 5544 116b 1E000000 		.4byte	.LVL241
 5545 116f C0080000 		.4byte	0x8c0
 5546 1173 7E110000 		.4byte	0x117e
 5547 1177 1B       		.uleb128 0x1b
 5548 1178 01       		.uleb128 0x1
 5549 1179 50       		.byte	0x50
 5550 117a 02       		.uleb128 0x2
 5551 117b 75       		.byte	0x75
 5552 117c 00       		.sleb128 0
 5553 117d 00       		.byte	0
 5554 117e 1A       		.uleb128 0x1a
 5555 117f 3E000000 		.4byte	.LVL243
 5556 1183 F9080000 		.4byte	0x8f9
 5557 1187 92110000 		.4byte	0x1192
 5558 118b 1B       		.uleb128 0x1b
 5559 118c 01       		.uleb128 0x1
 5560 118d 51       		.byte	0x51
 5561 118e 02       		.uleb128 0x2
 5562 118f 75       		.byte	0x75
 5563 1190 00       		.sleb128 0
 5564 1191 00       		.byte	0
 5565 1192 1D       		.uleb128 0x1d
 5566 1193 96000000 		.4byte	.LVL250
 5567 1197 02       		.uleb128 0x2
 5568 1198 74       		.byte	0x74
 5569 1199 00       		.sleb128 0
 5570 119a 1B       		.uleb128 0x1b
 5571 119b 01       		.uleb128 0x1
 5572 119c 52       		.byte	0x52
 5573 119d 03       		.uleb128 0x3
ARM GAS  C:\Users\adria\AppData\Local\Temp\cciNfgxb.s 			page 135


 5574 119e 91       		.byte	0x91
 5575 119f B97F     		.sleb128 -71
 5576 11a1 1B       		.uleb128 0x1b
 5577 11a2 01       		.uleb128 0x1
 5578 11a3 53       		.byte	0x53
 5579 11a4 0A       		.uleb128 0xa
 5580 11a5 77       		.byte	0x77
 5581 11a6 00       		.sleb128 0
 5582 11a7 0A       		.byte	0xa
 5583 11a8 FFFF     		.2byte	0xffff
 5584 11aa 1A       		.byte	0x1a
 5585 11ab 31       		.byte	0x31
 5586 11ac 24       		.byte	0x24
 5587 11ad 31       		.byte	0x31
 5588 11ae 1C       		.byte	0x1c
 5589 11af 00       		.byte	0
 5590 11b0 00       		.byte	0
 5591 11b1 06       		.uleb128 0x6
 5592 11b2 04       		.byte	0x4
 5593 11b3 B7110000 		.4byte	0x11b7
 5594 11b7 13       		.uleb128 0x13
 5595 11b8 CE000000 		.4byte	0xce
 5596 11bc 17       		.uleb128 0x17
 5597 11bd CE000000 		.4byte	0xce
 5598 11c1 CC110000 		.4byte	0x11cc
 5599 11c5 18       		.uleb128 0x18
 5600 11c6 EB040000 		.4byte	0x4eb
 5601 11ca 27       		.byte	0x27
 5602 11cb 00       		.byte	0
 5603 11cc 0E       		.uleb128 0xe
 5604 11cd 9E060000 		.4byte	.LASF160
 5605 11d1 01       		.byte	0x1
 5606 11d2 2303     		.2byte	0x323
 5607 11d4 C3000000 		.4byte	0xc3
 5608 11d8 00000000 		.4byte	.LFB75
 5609 11dc 66000000 		.4byte	.LFE75-.LFB75
 5610 11e0 01       		.uleb128 0x1
 5611 11e1 9C       		.byte	0x9c
 5612 11e2 81120000 		.4byte	0x1281
 5613 11e6 15       		.uleb128 0x15
 5614 11e7 64657600 		.ascii	"dev\000"
 5615 11eb 01       		.byte	0x1
 5616 11ec 2303     		.2byte	0x323
 5617 11ee 67050000 		.4byte	0x567
 5618 11f2 66110000 		.4byte	.LLST86
 5619 11f6 11       		.uleb128 0x11
 5620 11f7 10070000 		.4byte	.LASF129
 5621 11fb 01       		.byte	0x1
 5622 11fc 2503     		.2byte	0x325
 5623 11fe C3000000 		.4byte	0xc3
 5624 1202 84110000 		.4byte	.LLST87
 5625 1206 26       		.uleb128 0x26
 5626 1207 0E000000 		.4byte	.LBB2
 5627 120b 52000000 		.4byte	.LBE2-.LBB2
 5628 120f 70120000 		.4byte	0x1270
 5629 1213 16       		.uleb128 0x16
 5630 1214 FE060000 		.4byte	.LASF132
ARM GAS  C:\Users\adria\AppData\Local\Temp\cciNfgxb.s 			page 136


 5631 1218 01       		.byte	0x1
 5632 1219 2B03     		.2byte	0x32b
 5633 121b 81120000 		.4byte	0x1281
 5634 121f 02       		.uleb128 0x2
 5635 1220 91       		.byte	0x91
 5636 1221 68       		.sleb128 -24
 5637 1222 16       		.uleb128 0x16
 5638 1223 A0020000 		.4byte	.LASF141
 5639 1227 01       		.byte	0x1
 5640 1228 2C03     		.2byte	0x32c
 5641 122a 81120000 		.4byte	0x1281
 5642 122e 02       		.uleb128 0x2
 5643 122f 91       		.byte	0x91
 5644 1230 6C       		.sleb128 -20
 5645 1231 1A       		.uleb128 0x1a
 5646 1232 30000000 		.4byte	.LVL255
 5647 1236 63070000 		.4byte	0x763
 5648 123a 45120000 		.4byte	0x1245
 5649 123e 1B       		.uleb128 0x1b
 5650 123f 01       		.uleb128 0x1
 5651 1240 51       		.byte	0x51
 5652 1241 02       		.uleb128 0x2
 5653 1242 75       		.byte	0x75
 5654 1243 00       		.sleb128 0
 5655 1244 00       		.byte	0
 5656 1245 23       		.uleb128 0x23
 5657 1246 42000000 		.4byte	.LVL256
 5658 124a 0C080000 		.4byte	0x80c
 5659 124e 21       		.uleb128 0x21
 5660 124f 5E000000 		.4byte	.LVL259
 5661 1253 C1100000 		.4byte	0x10c1
 5662 1257 1B       		.uleb128 0x1b
 5663 1258 01       		.uleb128 0x1
 5664 1259 50       		.byte	0x50
 5665 125a 02       		.uleb128 0x2
 5666 125b 7D       		.byte	0x7d
 5667 125c 00       		.sleb128 0
 5668 125d 1B       		.uleb128 0x1b
 5669 125e 01       		.uleb128 0x1
 5670 125f 51       		.byte	0x51
 5671 1260 02       		.uleb128 0x2
 5672 1261 91       		.byte	0x91
 5673 1262 6C       		.sleb128 -20
 5674 1263 1B       		.uleb128 0x1b
 5675 1264 01       		.uleb128 0x1
 5676 1265 52       		.byte	0x52
 5677 1266 01       		.uleb128 0x1
 5678 1267 32       		.byte	0x32
 5679 1268 1B       		.uleb128 0x1b
 5680 1269 01       		.uleb128 0x1
 5681 126a 53       		.byte	0x53
 5682 126b 02       		.uleb128 0x2
 5683 126c 75       		.byte	0x75
 5684 126d 00       		.sleb128 0
 5685 126e 00       		.byte	0
 5686 126f 00       		.byte	0
 5687 1270 21       		.uleb128 0x21
ARM GAS  C:\Users\adria\AppData\Local\Temp\cciNfgxb.s 			page 137


 5688 1271 0A000000 		.4byte	.LVL253
 5689 1275 C0080000 		.4byte	0x8c0
 5690 1279 1B       		.uleb128 0x1b
 5691 127a 01       		.uleb128 0x1
 5692 127b 50       		.byte	0x50
 5693 127c 02       		.uleb128 0x2
 5694 127d 75       		.byte	0x75
 5695 127e 00       		.sleb128 0
 5696 127f 00       		.byte	0
 5697 1280 00       		.byte	0
 5698 1281 17       		.uleb128 0x17
 5699 1282 CE000000 		.4byte	0xce
 5700 1286 91120000 		.4byte	0x1291
 5701 128a 18       		.uleb128 0x18
 5702 128b EB040000 		.4byte	0x4eb
 5703 128f 01       		.byte	0x1
 5704 1290 00       		.byte	0
 5705 1291 24       		.uleb128 0x24
 5706 1292 4E060000 		.4byte	.LASF161
 5707 1296 01       		.byte	0x1
 5708 1297 7701     		.2byte	0x177
 5709 1299 C3000000 		.4byte	0xc3
 5710 129d 00000000 		.4byte	.LFB66
 5711 12a1 54000000 		.4byte	.LFE66-.LFB66
 5712 12a5 01       		.uleb128 0x1
 5713 12a6 9C       		.byte	0x9c
 5714 12a7 56130000 		.4byte	0x1356
 5715 12ab 15       		.uleb128 0x15
 5716 12ac 64657600 		.ascii	"dev\000"
 5717 12b0 01       		.byte	0x1
 5718 12b1 7701     		.2byte	0x177
 5719 12b3 67050000 		.4byte	0x567
 5720 12b7 AD110000 		.4byte	.LLST88
 5721 12bb 11       		.uleb128 0x11
 5722 12bc 10070000 		.4byte	.LASF129
 5723 12c0 01       		.byte	0x1
 5724 12c1 7901     		.2byte	0x179
 5725 12c3 C3000000 		.4byte	0xc3
 5726 12c7 CB110000 		.4byte	.LLST89
 5727 12cb 16       		.uleb128 0x16
 5728 12cc FE060000 		.4byte	.LASF132
 5729 12d0 01       		.byte	0x1
 5730 12d1 7A01     		.2byte	0x17a
 5731 12d3 CE000000 		.4byte	0xce
 5732 12d7 02       		.uleb128 0x2
 5733 12d8 91       		.byte	0x91
 5734 12d9 6F       		.sleb128 -17
 5735 12da 16       		.uleb128 0x16
 5736 12db BC030000 		.4byte	.LASF162
 5737 12df 01       		.byte	0x1
 5738 12e0 7C01     		.2byte	0x17c
 5739 12e2 CE000000 		.4byte	0xce
 5740 12e6 02       		.uleb128 0x2
 5741 12e7 91       		.byte	0x91
 5742 12e8 6E       		.sleb128 -18
 5743 12e9 1A       		.uleb128 0x1a
 5744 12ea 16000000 		.4byte	.LVL262
ARM GAS  C:\Users\adria\AppData\Local\Temp\cciNfgxb.s 			page 138


 5745 12ee C0080000 		.4byte	0x8c0
 5746 12f2 FD120000 		.4byte	0x12fd
 5747 12f6 1B       		.uleb128 0x1b
 5748 12f7 01       		.uleb128 0x1
 5749 12f8 50       		.byte	0x50
 5750 12f9 02       		.uleb128 0x2
 5751 12fa 75       		.byte	0x75
 5752 12fb 00       		.sleb128 0
 5753 12fc 00       		.byte	0
 5754 12fd 1A       		.uleb128 0x1a
 5755 12fe 24000000 		.4byte	.LVL264
 5756 1302 AF090000 		.4byte	0x9af
 5757 1306 11130000 		.4byte	0x1311
 5758 130a 1B       		.uleb128 0x1b
 5759 130b 01       		.uleb128 0x1
 5760 130c 50       		.byte	0x50
 5761 130d 02       		.uleb128 0x2
 5762 130e 75       		.byte	0x75
 5763 130f 00       		.sleb128 0
 5764 1310 00       		.byte	0
 5765 1311 1A       		.uleb128 0x1a
 5766 1312 38000000 		.4byte	.LVL266
 5767 1316 C1100000 		.4byte	0x10c1
 5768 131a 36130000 		.4byte	0x1336
 5769 131e 1B       		.uleb128 0x1b
 5770 131f 01       		.uleb128 0x1
 5771 1320 50       		.byte	0x50
 5772 1321 02       		.uleb128 0x2
 5773 1322 91       		.byte	0x91
 5774 1323 6F       		.sleb128 -17
 5775 1324 1B       		.uleb128 0x1b
 5776 1325 01       		.uleb128 0x1
 5777 1326 51       		.byte	0x51
 5778 1327 02       		.uleb128 0x2
 5779 1328 91       		.byte	0x91
 5780 1329 6E       		.sleb128 -18
 5781 132a 1B       		.uleb128 0x1b
 5782 132b 01       		.uleb128 0x1
 5783 132c 52       		.byte	0x52
 5784 132d 01       		.uleb128 0x1
 5785 132e 31       		.byte	0x31
 5786 132f 1B       		.uleb128 0x1b
 5787 1330 01       		.uleb128 0x1
 5788 1331 53       		.byte	0x53
 5789 1332 02       		.uleb128 0x2
 5790 1333 75       		.byte	0x75
 5791 1334 00       		.sleb128 0
 5792 1335 00       		.byte	0
 5793 1336 27       		.uleb128 0x27
 5794 1337 40000000 		.4byte	.LVL268
 5795 133b 45130000 		.4byte	0x1345
 5796 133f 1B       		.uleb128 0x1b
 5797 1340 01       		.uleb128 0x1
 5798 1341 50       		.byte	0x50
 5799 1342 01       		.uleb128 0x1
 5800 1343 3A       		.byte	0x3a
 5801 1344 00       		.byte	0
ARM GAS  C:\Users\adria\AppData\Local\Temp\cciNfgxb.s 			page 139


 5802 1345 21       		.uleb128 0x21
 5803 1346 4C000000 		.4byte	.LVL269
 5804 134a AF090000 		.4byte	0x9af
 5805 134e 1B       		.uleb128 0x1b
 5806 134f 01       		.uleb128 0x1
 5807 1350 50       		.byte	0x50
 5808 1351 02       		.uleb128 0x2
 5809 1352 75       		.byte	0x75
 5810 1353 00       		.sleb128 0
 5811 1354 00       		.byte	0
 5812 1355 00       		.byte	0
 5813 1356 24       		.uleb128 0x24
 5814 1357 48070000 		.4byte	.LASF163
 5815 135b 01       		.byte	0x1
 5816 135c 1B01     		.2byte	0x11b
 5817 135e C3000000 		.4byte	0xc3
 5818 1362 00000000 		.4byte	.LFB63
 5819 1366 3E000000 		.4byte	.LFE63-.LFB63
 5820 136a 01       		.uleb128 0x1
 5821 136b 9C       		.byte	0x9c
 5822 136c EE130000 		.4byte	0x13ee
 5823 1370 15       		.uleb128 0x15
 5824 1371 64657600 		.ascii	"dev\000"
 5825 1375 01       		.byte	0x1
 5826 1376 1B01     		.2byte	0x11b
 5827 1378 67050000 		.4byte	0x567
 5828 137c E9110000 		.4byte	.LLST90
 5829 1380 11       		.uleb128 0x11
 5830 1381 10070000 		.4byte	.LASF129
 5831 1385 01       		.byte	0x1
 5832 1386 1D01     		.2byte	0x11d
 5833 1388 C3000000 		.4byte	0xc3
 5834 138c 07120000 		.4byte	.LLST91
 5835 1390 1A       		.uleb128 0x1a
 5836 1391 08000000 		.4byte	.LVL272
 5837 1395 C0080000 		.4byte	0x8c0
 5838 1399 A4130000 		.4byte	0x13a4
 5839 139d 1B       		.uleb128 0x1b
 5840 139e 01       		.uleb128 0x1
 5841 139f 50       		.byte	0x50
 5842 13a0 02       		.uleb128 0x2
 5843 13a1 74       		.byte	0x74
 5844 13a2 00       		.sleb128 0
 5845 13a3 00       		.byte	0
 5846 13a4 1A       		.uleb128 0x1a
 5847 13a5 12000000 		.4byte	.LVL274
 5848 13a9 91120000 		.4byte	0x1291
 5849 13ad B8130000 		.4byte	0x13b8
 5850 13b1 1B       		.uleb128 0x1b
 5851 13b2 01       		.uleb128 0x1
 5852 13b3 50       		.byte	0x50
 5853 13b4 02       		.uleb128 0x2
 5854 13b5 74       		.byte	0x74
 5855 13b6 00       		.sleb128 0
 5856 13b7 00       		.byte	0
 5857 13b8 1A       		.uleb128 0x1a
 5858 13b9 22000000 		.4byte	.LVL276
ARM GAS  C:\Users\adria\AppData\Local\Temp\cciNfgxb.s 			page 140


 5859 13bd 790C0000 		.4byte	0xc79
 5860 13c1 DD130000 		.4byte	0x13dd
 5861 13c5 1B       		.uleb128 0x1b
 5862 13c6 01       		.uleb128 0x1
 5863 13c7 50       		.byte	0x50
 5864 13c8 02       		.uleb128 0x2
 5865 13c9 09       		.byte	0x9
 5866 13ca D0       		.byte	0xd0
 5867 13cb 1B       		.uleb128 0x1b
 5868 13cc 01       		.uleb128 0x1
 5869 13cd 51       		.byte	0x51
 5870 13ce 02       		.uleb128 0x2
 5871 13cf 74       		.byte	0x74
 5872 13d0 00       		.sleb128 0
 5873 13d1 1B       		.uleb128 0x1b
 5874 13d2 01       		.uleb128 0x1
 5875 13d3 52       		.byte	0x52
 5876 13d4 01       		.uleb128 0x1
 5877 13d5 31       		.byte	0x31
 5878 13d6 1B       		.uleb128 0x1b
 5879 13d7 01       		.uleb128 0x1
 5880 13d8 53       		.byte	0x53
 5881 13d9 02       		.uleb128 0x2
 5882 13da 74       		.byte	0x74
 5883 13db 00       		.sleb128 0
 5884 13dc 00       		.byte	0
 5885 13dd 21       		.uleb128 0x21
 5886 13de 32000000 		.4byte	.LVL278
 5887 13e2 2D0D0000 		.4byte	0xd2d
 5888 13e6 1B       		.uleb128 0x1b
 5889 13e7 01       		.uleb128 0x1
 5890 13e8 50       		.byte	0x50
 5891 13e9 02       		.uleb128 0x2
 5892 13ea 74       		.byte	0x74
 5893 13eb 00       		.sleb128 0
 5894 13ec 00       		.byte	0
 5895 13ed 00       		.byte	0
 5896 13ee 24       		.uleb128 0x24
 5897 13ef B3010000 		.4byte	.LASF164
 5898 13f3 01       		.byte	0x1
 5899 13f4 1502     		.2byte	0x215
 5900 13f6 C3000000 		.4byte	0xc3
 5901 13fa 00000000 		.4byte	.LFB68
 5902 13fe B6000000 		.4byte	.LFE68-.LFB68
 5903 1402 01       		.uleb128 0x1
 5904 1403 9C       		.byte	0x9c
 5905 1404 9E140000 		.4byte	0x149e
 5906 1408 0F       		.uleb128 0xf
 5907 1409 6C010000 		.4byte	.LASF165
 5908 140d 01       		.byte	0x1
 5909 140e 1502     		.2byte	0x215
 5910 1410 E4000000 		.4byte	0xe4
 5911 1414 51120000 		.4byte	.LLST92
 5912 1418 15       		.uleb128 0x15
 5913 1419 64657600 		.ascii	"dev\000"
 5914 141d 01       		.byte	0x1
 5915 141e 1502     		.2byte	0x215
ARM GAS  C:\Users\adria\AppData\Local\Temp\cciNfgxb.s 			page 141


 5916 1420 67050000 		.4byte	0x567
 5917 1424 72120000 		.4byte	.LLST93
 5918 1428 11       		.uleb128 0x11
 5919 1429 10070000 		.4byte	.LASF129
 5920 142d 01       		.byte	0x1
 5921 142e 1702     		.2byte	0x217
 5922 1430 C3000000 		.4byte	0xc3
 5923 1434 90120000 		.4byte	.LLST94
 5924 1438 22       		.uleb128 0x22
 5925 1439 FE060000 		.4byte	.LASF132
 5926 143d 01       		.byte	0x1
 5927 143e 1902     		.2byte	0x219
 5928 1440 CE000000 		.4byte	0xce
 5929 1444 70       		.byte	0x70
 5930 1445 16       		.uleb128 0x16
 5931 1446 DE010000 		.4byte	.LASF166
 5932 144a 01       		.byte	0x1
 5933 144b 1A02     		.2byte	0x21a
 5934 144d 9E140000 		.4byte	0x149e
 5935 1451 02       		.uleb128 0x2
 5936 1452 91       		.byte	0x91
 5937 1453 68       		.sleb128 -24
 5938 1454 1A       		.uleb128 0x1a
 5939 1455 16000000 		.4byte	.LVL285
 5940 1459 C0080000 		.4byte	0x8c0
 5941 145d 68140000 		.4byte	0x1468
 5942 1461 1B       		.uleb128 0x1b
 5943 1462 01       		.uleb128 0x1
 5944 1463 50       		.byte	0x50
 5945 1464 02       		.uleb128 0x2
 5946 1465 74       		.byte	0x74
 5947 1466 00       		.sleb128 0
 5948 1467 00       		.byte	0
 5949 1468 1A       		.uleb128 0x1a
 5950 1469 26000000 		.4byte	.LVL287
 5951 146d 790C0000 		.4byte	0xc79
 5952 1471 8D140000 		.4byte	0x148d
 5953 1475 1B       		.uleb128 0x1b
 5954 1476 01       		.uleb128 0x1
 5955 1477 50       		.byte	0x50
 5956 1478 02       		.uleb128 0x2
 5957 1479 08       		.byte	0x8
 5958 147a 70       		.byte	0x70
 5959 147b 1B       		.uleb128 0x1b
 5960 147c 01       		.uleb128 0x1
 5961 147d 51       		.byte	0x51
 5962 147e 02       		.uleb128 0x2
 5963 147f 7D       		.byte	0x7d
 5964 1480 00       		.sleb128 0
 5965 1481 1B       		.uleb128 0x1b
 5966 1482 01       		.uleb128 0x1
 5967 1483 52       		.byte	0x52
 5968 1484 01       		.uleb128 0x1
 5969 1485 36       		.byte	0x36
 5970 1486 1B       		.uleb128 0x1b
 5971 1487 01       		.uleb128 0x1
 5972 1488 53       		.byte	0x53
ARM GAS  C:\Users\adria\AppData\Local\Temp\cciNfgxb.s 			page 142


 5973 1489 02       		.uleb128 0x2
 5974 148a 74       		.byte	0x74
 5975 148b 00       		.sleb128 0
 5976 148c 00       		.byte	0
 5977 148d 21       		.uleb128 0x21
 5978 148e 3A000000 		.4byte	.LVL289
 5979 1492 760E0000 		.4byte	0xe76
 5980 1496 1B       		.uleb128 0x1b
 5981 1497 01       		.uleb128 0x1
 5982 1498 50       		.byte	0x50
 5983 1499 02       		.uleb128 0x2
 5984 149a 74       		.byte	0x74
 5985 149b 00       		.sleb128 0
 5986 149c 00       		.byte	0
 5987 149d 00       		.byte	0
 5988 149e 17       		.uleb128 0x17
 5989 149f CE000000 		.4byte	0xce
 5990 14a3 AE140000 		.4byte	0x14ae
 5991 14a7 18       		.uleb128 0x18
 5992 14a8 EB040000 		.4byte	0x4eb
 5993 14ac 05       		.byte	0x5
 5994 14ad 00       		.byte	0
 5995 14ae 24       		.uleb128 0x24
 5996 14af 21060000 		.4byte	.LASF167
 5997 14b3 01       		.byte	0x1
 5998 14b4 4902     		.2byte	0x249
 5999 14b6 C3000000 		.4byte	0xc3
 6000 14ba 00000000 		.4byte	.LFB69
 6001 14be 86000000 		.4byte	.LFE69-.LFB69
 6002 14c2 01       		.uleb128 0x1
 6003 14c3 9C       		.byte	0x9c
 6004 14c4 A5150000 		.4byte	0x15a5
 6005 14c8 15       		.uleb128 0x15
 6006 14c9 64657600 		.ascii	"dev\000"
 6007 14cd 01       		.byte	0x1
 6008 14ce 4902     		.2byte	0x249
 6009 14d0 67050000 		.4byte	0x567
 6010 14d4 CF120000 		.4byte	.LLST95
 6011 14d8 11       		.uleb128 0x11
 6012 14d9 10070000 		.4byte	.LASF129
 6013 14dd 01       		.byte	0x1
 6014 14de 4B02     		.2byte	0x24b
 6015 14e0 C3000000 		.4byte	0xc3
 6016 14e4 ED120000 		.4byte	.LLST96
 6017 14e8 16       		.uleb128 0x16
 6018 14e9 F4080000 		.4byte	.LASF168
 6019 14ed 01       		.byte	0x1
 6020 14ee 4C02     		.2byte	0x24c
 6021 14f0 CE000000 		.4byte	0xce
 6022 14f4 02       		.uleb128 0x2
 6023 14f5 91       		.byte	0x91
 6024 14f6 6F       		.sleb128 -17
 6025 14f7 11       		.uleb128 0x11
 6026 14f8 C6050000 		.4byte	.LASF169
 6027 14fc 01       		.byte	0x1
 6028 14fd 4D02     		.2byte	0x24d
 6029 14ff CE000000 		.4byte	0xce
ARM GAS  C:\Users\adria\AppData\Local\Temp\cciNfgxb.s 			page 143


 6030 1503 16130000 		.4byte	.LLST97
 6031 1507 16       		.uleb128 0x16
 6032 1508 FE060000 		.4byte	.LASF132
 6033 150c 01       		.byte	0x1
 6034 150d 4E02     		.2byte	0x24e
 6035 150f CE000000 		.4byte	0xce
 6036 1513 02       		.uleb128 0x2
 6037 1514 91       		.byte	0x91
 6038 1515 6E       		.sleb128 -18
 6039 1516 1A       		.uleb128 0x1a
 6040 1517 10000000 		.4byte	.LVL295
 6041 151b C0080000 		.4byte	0x8c0
 6042 151f 2A150000 		.4byte	0x152a
 6043 1523 1B       		.uleb128 0x1b
 6044 1524 01       		.uleb128 0x1
 6045 1525 50       		.byte	0x50
 6046 1526 02       		.uleb128 0x2
 6047 1527 75       		.byte	0x75
 6048 1528 00       		.sleb128 0
 6049 1529 00       		.byte	0
 6050 152a 1A       		.uleb128 0x1a
 6051 152b 24000000 		.4byte	.LVL297
 6052 152f 790C0000 		.4byte	0xc79
 6053 1533 4F150000 		.4byte	0x154f
 6054 1537 1B       		.uleb128 0x1b
 6055 1538 01       		.uleb128 0x1
 6056 1539 50       		.byte	0x50
 6057 153a 02       		.uleb128 0x2
 6058 153b 08       		.byte	0x8
 6059 153c 74       		.byte	0x74
 6060 153d 1B       		.uleb128 0x1b
 6061 153e 01       		.uleb128 0x1
 6062 153f 51       		.byte	0x51
 6063 1540 02       		.uleb128 0x2
 6064 1541 91       		.byte	0x91
 6065 1542 6F       		.sleb128 -17
 6066 1543 1B       		.uleb128 0x1b
 6067 1544 01       		.uleb128 0x1
 6068 1545 52       		.byte	0x52
 6069 1546 01       		.uleb128 0x1
 6070 1547 31       		.byte	0x31
 6071 1548 1B       		.uleb128 0x1b
 6072 1549 01       		.uleb128 0x1
 6073 154a 53       		.byte	0x53
 6074 154b 02       		.uleb128 0x2
 6075 154c 75       		.byte	0x75
 6076 154d 00       		.sleb128 0
 6077 154e 00       		.byte	0
 6078 154f 1A       		.uleb128 0x1a
 6079 1550 48000000 		.4byte	.LVL302
 6080 1554 C1100000 		.4byte	0x10c1
 6081 1558 74150000 		.4byte	0x1574
 6082 155c 1B       		.uleb128 0x1b
 6083 155d 01       		.uleb128 0x1
 6084 155e 50       		.byte	0x50
 6085 155f 02       		.uleb128 0x2
 6086 1560 91       		.byte	0x91
ARM GAS  C:\Users\adria\AppData\Local\Temp\cciNfgxb.s 			page 144


 6087 1561 6E       		.sleb128 -18
 6088 1562 1B       		.uleb128 0x1b
 6089 1563 01       		.uleb128 0x1
 6090 1564 51       		.byte	0x51
 6091 1565 02       		.uleb128 0x2
 6092 1566 91       		.byte	0x91
 6093 1567 6F       		.sleb128 -17
 6094 1568 1B       		.uleb128 0x1b
 6095 1569 01       		.uleb128 0x1
 6096 156a 52       		.byte	0x52
 6097 156b 01       		.uleb128 0x1
 6098 156c 31       		.byte	0x31
 6099 156d 1B       		.uleb128 0x1b
 6100 156e 01       		.uleb128 0x1
 6101 156f 53       		.byte	0x53
 6102 1570 02       		.uleb128 0x2
 6103 1571 75       		.byte	0x75
 6104 1572 00       		.sleb128 0
 6105 1573 00       		.byte	0
 6106 1574 27       		.uleb128 0x27
 6107 1575 50000000 		.4byte	.LVL304
 6108 1579 83150000 		.4byte	0x1583
 6109 157d 1B       		.uleb128 0x1b
 6110 157e 01       		.uleb128 0x1
 6111 157f 50       		.byte	0x50
 6112 1580 01       		.uleb128 0x1
 6113 1581 3A       		.byte	0x3a
 6114 1582 00       		.byte	0
 6115 1583 21       		.uleb128 0x21
 6116 1584 7E000000 		.4byte	.LVL305
 6117 1588 C1100000 		.4byte	0x10c1
 6118 158c 1B       		.uleb128 0x1b
 6119 158d 01       		.uleb128 0x1
 6120 158e 50       		.byte	0x50
 6121 158f 02       		.uleb128 0x2
 6122 1590 91       		.byte	0x91
 6123 1591 6E       		.sleb128 -18
 6124 1592 1B       		.uleb128 0x1b
 6125 1593 01       		.uleb128 0x1
 6126 1594 51       		.byte	0x51
 6127 1595 02       		.uleb128 0x2
 6128 1596 91       		.byte	0x91
 6129 1597 6F       		.sleb128 -17
 6130 1598 1B       		.uleb128 0x1b
 6131 1599 01       		.uleb128 0x1
 6132 159a 52       		.byte	0x52
 6133 159b 01       		.uleb128 0x1
 6134 159c 31       		.byte	0x31
 6135 159d 1B       		.uleb128 0x1b
 6136 159e 01       		.uleb128 0x1
 6137 159f 53       		.byte	0x53
 6138 15a0 02       		.uleb128 0x2
 6139 15a1 75       		.byte	0x75
 6140 15a2 00       		.sleb128 0
 6141 15a3 00       		.byte	0
 6142 15a4 00       		.byte	0
 6143 15a5 24       		.uleb128 0x24
ARM GAS  C:\Users\adria\AppData\Local\Temp\cciNfgxb.s 			page 145


 6144 15a6 36090000 		.4byte	.LASF170
 6145 15aa 01       		.byte	0x1
 6146 15ab 9901     		.2byte	0x199
 6147 15ad C3000000 		.4byte	0xc3
 6148 15b1 00000000 		.4byte	.LFB67
 6149 15b5 68020000 		.4byte	.LFE67-.LFB67
 6150 15b9 01       		.uleb128 0x1
 6151 15ba 9C       		.byte	0x9c
 6152 15bb 3A180000 		.4byte	0x183a
 6153 15bf 0F       		.uleb128 0xf
 6154 15c0 6C010000 		.4byte	.LASF165
 6155 15c4 01       		.byte	0x1
 6156 15c5 9901     		.2byte	0x199
 6157 15c7 E4000000 		.4byte	0xe4
 6158 15cb 60130000 		.4byte	.LLST98
 6159 15cf 15       		.uleb128 0x15
 6160 15d0 64657600 		.ascii	"dev\000"
 6161 15d4 01       		.byte	0x1
 6162 15d5 9901     		.2byte	0x199
 6163 15d7 67050000 		.4byte	0x567
 6164 15db 81130000 		.4byte	.LLST99
 6165 15df 11       		.uleb128 0x11
 6166 15e0 10070000 		.4byte	.LASF129
 6167 15e4 01       		.byte	0x1
 6168 15e5 9B01     		.2byte	0x19b
 6169 15e7 C3000000 		.4byte	0xc3
 6170 15eb 9F130000 		.4byte	.LLST100
 6171 15ef 11       		.uleb128 0x11
 6172 15f0 FE060000 		.4byte	.LASF132
 6173 15f4 01       		.byte	0x1
 6174 15f5 9C01     		.2byte	0x19c
 6175 15f7 CE000000 		.4byte	0xce
 6176 15fb 4C140000 		.4byte	.LLST101
 6177 15ff 16       		.uleb128 0x16
 6178 1600 E0040000 		.4byte	.LASF135
 6179 1604 01       		.byte	0x1
 6180 1605 9D01     		.2byte	0x19d
 6181 1607 CE000000 		.4byte	0xce
 6182 160b 02       		.uleb128 0x2
 6183 160c 91       		.byte	0x91
 6184 160d 67       		.sleb128 -25
 6185 160e 11       		.uleb128 0x11
 6186 160f 6B040000 		.4byte	.LASF171
 6187 1613 01       		.byte	0x1
 6188 1614 9E01     		.2byte	0x19e
 6189 1616 CE000000 		.4byte	0xce
 6190 161a 95140000 		.4byte	.LLST102
 6191 161e 16       		.uleb128 0x16
 6192 161f 09000000 		.4byte	.LASF172
 6193 1623 01       		.byte	0x1
 6194 1624 9F01     		.2byte	0x19f
 6195 1626 9E140000 		.4byte	0x149e
 6196 162a 02       		.uleb128 0x2
 6197 162b 91       		.byte	0x91
 6198 162c 60       		.sleb128 -32
 6199 162d 16       		.uleb128 0x16
 6200 162e DE010000 		.4byte	.LASF166
ARM GAS  C:\Users\adria\AppData\Local\Temp\cciNfgxb.s 			page 146


 6201 1632 01       		.byte	0x1
 6202 1633 A001     		.2byte	0x1a0
 6203 1635 9E140000 		.4byte	0x149e
 6204 1639 02       		.uleb128 0x2
 6205 163a 91       		.byte	0x91
 6206 163b 58       		.sleb128 -40
 6207 163c 16       		.uleb128 0x16
 6208 163d BA000000 		.4byte	.LASF173
 6209 1641 01       		.byte	0x1
 6210 1642 A101     		.2byte	0x1a1
 6211 1644 CE000000 		.4byte	0xce
 6212 1648 01       		.uleb128 0x1
 6213 1649 57       		.byte	0x57
 6214 164a 1A       		.uleb128 0x1a
 6215 164b 24000000 		.4byte	.LVL311
 6216 164f C0080000 		.4byte	0x8c0
 6217 1653 5E160000 		.4byte	0x165e
 6218 1657 1B       		.uleb128 0x1b
 6219 1658 01       		.uleb128 0x1
 6220 1659 50       		.byte	0x50
 6221 165a 02       		.uleb128 0x2
 6222 165b 74       		.byte	0x74
 6223 165c 00       		.sleb128 0
 6224 165d 00       		.byte	0
 6225 165e 1A       		.uleb128 0x1a
 6226 165f 3A000000 		.4byte	.LVL313
 6227 1663 CC110000 		.4byte	0x11cc
 6228 1667 72160000 		.4byte	0x1672
 6229 166b 1B       		.uleb128 0x1b
 6230 166c 01       		.uleb128 0x1
 6231 166d 50       		.byte	0x50
 6232 166e 02       		.uleb128 0x2
 6233 166f 74       		.byte	0x74
 6234 1670 00       		.sleb128 0
 6235 1671 00       		.byte	0
 6236 1672 1A       		.uleb128 0x1a
 6237 1673 4A000000 		.4byte	.LVL315
 6238 1677 AE140000 		.4byte	0x14ae
 6239 167b 86160000 		.4byte	0x1686
 6240 167f 1B       		.uleb128 0x1b
 6241 1680 01       		.uleb128 0x1
 6242 1681 50       		.byte	0x50
 6243 1682 02       		.uleb128 0x2
 6244 1683 74       		.byte	0x74
 6245 1684 00       		.sleb128 0
 6246 1685 00       		.byte	0
 6247 1686 1A       		.uleb128 0x1a
 6248 1687 62000000 		.4byte	.LVL318
 6249 168b 57080000 		.4byte	0x857
 6250 168f AA160000 		.4byte	0x16aa
 6251 1693 1B       		.uleb128 0x1b
 6252 1694 01       		.uleb128 0x1
 6253 1695 50       		.byte	0x50
 6254 1696 02       		.uleb128 0x2
 6255 1697 74       		.byte	0x74
 6256 1698 3B       		.sleb128 59
 6257 1699 1B       		.uleb128 0x1b
ARM GAS  C:\Users\adria\AppData\Local\Temp\cciNfgxb.s 			page 147


 6258 169a 01       		.uleb128 0x1
 6259 169b 51       		.byte	0x51
 6260 169c 01       		.uleb128 0x1
 6261 169d 30       		.byte	0x30
 6262 169e 1B       		.uleb128 0x1b
 6263 169f 01       		.uleb128 0x1
 6264 16a0 52       		.byte	0x52
 6265 16a1 01       		.uleb128 0x1
 6266 16a2 37       		.byte	0x37
 6267 16a3 1B       		.uleb128 0x1b
 6268 16a4 01       		.uleb128 0x1
 6269 16a5 53       		.byte	0x53
 6270 16a6 02       		.uleb128 0x2
 6271 16a7 74       		.byte	0x74
 6272 16a8 00       		.sleb128 0
 6273 16a9 00       		.byte	0
 6274 16aa 1A       		.uleb128 0x1a
 6275 16ab 74000000 		.4byte	.LVL320
 6276 16af 790C0000 		.4byte	0xc79
 6277 16b3 CF160000 		.4byte	0x16cf
 6278 16b7 1B       		.uleb128 0x1b
 6279 16b8 01       		.uleb128 0x1
 6280 16b9 50       		.byte	0x50
 6281 16ba 02       		.uleb128 0x2
 6282 16bb 08       		.byte	0x8
 6283 16bc 75       		.byte	0x75
 6284 16bd 1B       		.uleb128 0x1b
 6285 16be 01       		.uleb128 0x1
 6286 16bf 51       		.byte	0x51
 6287 16c0 02       		.uleb128 0x2
 6288 16c1 91       		.byte	0x91
 6289 16c2 67       		.sleb128 -25
 6290 16c3 1B       		.uleb128 0x1b
 6291 16c4 01       		.uleb128 0x1
 6292 16c5 52       		.byte	0x52
 6293 16c6 01       		.uleb128 0x1
 6294 16c7 31       		.byte	0x31
 6295 16c8 1B       		.uleb128 0x1b
 6296 16c9 01       		.uleb128 0x1
 6297 16ca 53       		.byte	0x53
 6298 16cb 02       		.uleb128 0x2
 6299 16cc 74       		.byte	0x74
 6300 16cd 00       		.sleb128 0
 6301 16ce 00       		.byte	0
 6302 16cf 1A       		.uleb128 0x1a
 6303 16d0 BA000000 		.4byte	.LVL326
 6304 16d4 57080000 		.4byte	0x857
 6305 16d8 F3160000 		.4byte	0x16f3
 6306 16dc 1B       		.uleb128 0x1b
 6307 16dd 01       		.uleb128 0x1
 6308 16de 50       		.byte	0x50
 6309 16df 02       		.uleb128 0x2
 6310 16e0 74       		.byte	0x74
 6311 16e1 3D       		.sleb128 61
 6312 16e2 1B       		.uleb128 0x1b
 6313 16e3 01       		.uleb128 0x1
 6314 16e4 51       		.byte	0x51
ARM GAS  C:\Users\adria\AppData\Local\Temp\cciNfgxb.s 			page 148


 6315 16e5 01       		.uleb128 0x1
 6316 16e6 30       		.byte	0x30
 6317 16e7 1B       		.uleb128 0x1b
 6318 16e8 01       		.uleb128 0x1
 6319 16e9 52       		.byte	0x52
 6320 16ea 01       		.uleb128 0x1
 6321 16eb 38       		.byte	0x38
 6322 16ec 1B       		.uleb128 0x1b
 6323 16ed 01       		.uleb128 0x1
 6324 16ee 53       		.byte	0x53
 6325 16ef 02       		.uleb128 0x2
 6326 16f0 74       		.byte	0x74
 6327 16f1 00       		.sleb128 0
 6328 16f2 00       		.byte	0
 6329 16f3 1A       		.uleb128 0x1a
 6330 16f4 CC000000 		.4byte	.LVL328
 6331 16f8 790C0000 		.4byte	0xc79
 6332 16fc 18170000 		.4byte	0x1718
 6333 1700 1B       		.uleb128 0x1b
 6334 1701 01       		.uleb128 0x1
 6335 1702 50       		.byte	0x50
 6336 1703 02       		.uleb128 0x2
 6337 1704 08       		.byte	0x8
 6338 1705 70       		.byte	0x70
 6339 1706 1B       		.uleb128 0x1b
 6340 1707 01       		.uleb128 0x1
 6341 1708 51       		.byte	0x51
 6342 1709 02       		.uleb128 0x2
 6343 170a 91       		.byte	0x91
 6344 170b 67       		.sleb128 -25
 6345 170c 1B       		.uleb128 0x1b
 6346 170d 01       		.uleb128 0x1
 6347 170e 52       		.byte	0x52
 6348 170f 01       		.uleb128 0x1
 6349 1710 31       		.byte	0x31
 6350 1711 1B       		.uleb128 0x1b
 6351 1712 01       		.uleb128 0x1
 6352 1713 53       		.byte	0x53
 6353 1714 02       		.uleb128 0x2
 6354 1715 74       		.byte	0x74
 6355 1716 00       		.sleb128 0
 6356 1717 00       		.byte	0
 6357 1718 1A       		.uleb128 0x1a
 6358 1719 0A010000 		.4byte	.LVL333
 6359 171d 57080000 		.4byte	0x857
 6360 1721 3C170000 		.4byte	0x173c
 6361 1725 1B       		.uleb128 0x1b
 6362 1726 01       		.uleb128 0x1
 6363 1727 50       		.byte	0x50
 6364 1728 02       		.uleb128 0x2
 6365 1729 74       		.byte	0x74
 6366 172a 39       		.sleb128 57
 6367 172b 1B       		.uleb128 0x1b
 6368 172c 01       		.uleb128 0x1
 6369 172d 51       		.byte	0x51
 6370 172e 01       		.uleb128 0x1
 6371 172f 30       		.byte	0x30
ARM GAS  C:\Users\adria\AppData\Local\Temp\cciNfgxb.s 			page 149


 6372 1730 1B       		.uleb128 0x1b
 6373 1731 01       		.uleb128 0x1
 6374 1732 52       		.byte	0x52
 6375 1733 01       		.uleb128 0x1
 6376 1734 35       		.byte	0x35
 6377 1735 1B       		.uleb128 0x1b
 6378 1736 01       		.uleb128 0x1
 6379 1737 53       		.byte	0x53
 6380 1738 02       		.uleb128 0x2
 6381 1739 74       		.byte	0x74
 6382 173a 00       		.sleb128 0
 6383 173b 00       		.byte	0
 6384 173c 1A       		.uleb128 0x1a
 6385 173d 1C010000 		.4byte	.LVL335
 6386 1741 790C0000 		.4byte	0xc79
 6387 1745 61170000 		.4byte	0x1761
 6388 1749 1B       		.uleb128 0x1b
 6389 174a 01       		.uleb128 0x1
 6390 174b 50       		.byte	0x50
 6391 174c 02       		.uleb128 0x2
 6392 174d 08       		.byte	0x8
 6393 174e 74       		.byte	0x74
 6394 174f 1B       		.uleb128 0x1b
 6395 1750 01       		.uleb128 0x1
 6396 1751 51       		.byte	0x51
 6397 1752 02       		.uleb128 0x2
 6398 1753 91       		.byte	0x91
 6399 1754 67       		.sleb128 -25
 6400 1755 1B       		.uleb128 0x1b
 6401 1756 01       		.uleb128 0x1
 6402 1757 52       		.byte	0x52
 6403 1758 01       		.uleb128 0x1
 6404 1759 31       		.byte	0x31
 6405 175a 1B       		.uleb128 0x1b
 6406 175b 01       		.uleb128 0x1
 6407 175c 53       		.byte	0x53
 6408 175d 02       		.uleb128 0x2
 6409 175e 74       		.byte	0x74
 6410 175f 00       		.sleb128 0
 6411 1760 00       		.byte	0
 6412 1761 1A       		.uleb128 0x1a
 6413 1762 84010000 		.4byte	.LVL340
 6414 1766 57080000 		.4byte	0x857
 6415 176a 85170000 		.4byte	0x1785
 6416 176e 1B       		.uleb128 0x1b
 6417 176f 01       		.uleb128 0x1
 6418 1770 50       		.byte	0x50
 6419 1771 02       		.uleb128 0x2
 6420 1772 74       		.byte	0x74
 6421 1773 38       		.sleb128 56
 6422 1774 1B       		.uleb128 0x1b
 6423 1775 01       		.uleb128 0x1
 6424 1776 51       		.byte	0x51
 6425 1777 01       		.uleb128 0x1
 6426 1778 30       		.byte	0x30
 6427 1779 1B       		.uleb128 0x1b
 6428 177a 01       		.uleb128 0x1
ARM GAS  C:\Users\adria\AppData\Local\Temp\cciNfgxb.s 			page 150


 6429 177b 52       		.byte	0x52
 6430 177c 01       		.uleb128 0x1
 6431 177d 35       		.byte	0x35
 6432 177e 1B       		.uleb128 0x1b
 6433 177f 01       		.uleb128 0x1
 6434 1780 53       		.byte	0x53
 6435 1781 02       		.uleb128 0x2
 6436 1782 74       		.byte	0x74
 6437 1783 00       		.sleb128 0
 6438 1784 00       		.byte	0
 6439 1785 1A       		.uleb128 0x1a
 6440 1786 96010000 		.4byte	.LVL342
 6441 178a 790C0000 		.4byte	0xc79
 6442 178e AA170000 		.4byte	0x17aa
 6443 1792 1B       		.uleb128 0x1b
 6444 1793 01       		.uleb128 0x1
 6445 1794 50       		.byte	0x50
 6446 1795 02       		.uleb128 0x2
 6447 1796 08       		.byte	0x8
 6448 1797 72       		.byte	0x72
 6449 1798 1B       		.uleb128 0x1b
 6450 1799 01       		.uleb128 0x1
 6451 179a 51       		.byte	0x51
 6452 179b 02       		.uleb128 0x2
 6453 179c 91       		.byte	0x91
 6454 179d 67       		.sleb128 -25
 6455 179e 1B       		.uleb128 0x1b
 6456 179f 01       		.uleb128 0x1
 6457 17a0 52       		.byte	0x52
 6458 17a1 01       		.uleb128 0x1
 6459 17a2 31       		.byte	0x31
 6460 17a3 1B       		.uleb128 0x1b
 6461 17a4 01       		.uleb128 0x1
 6462 17a5 53       		.byte	0x53
 6463 17a6 02       		.uleb128 0x2
 6464 17a7 74       		.byte	0x74
 6465 17a8 00       		.sleb128 0
 6466 17a9 00       		.byte	0
 6467 17aa 1A       		.uleb128 0x1a
 6468 17ab D4010000 		.4byte	.LVL347
 6469 17af 57080000 		.4byte	0x857
 6470 17b3 CE170000 		.4byte	0x17ce
 6471 17b7 1B       		.uleb128 0x1b
 6472 17b8 01       		.uleb128 0x1
 6473 17b9 50       		.byte	0x50
 6474 17ba 02       		.uleb128 0x2
 6475 17bb 74       		.byte	0x74
 6476 17bc 3E       		.sleb128 62
 6477 17bd 1B       		.uleb128 0x1b
 6478 17be 01       		.uleb128 0x1
 6479 17bf 51       		.byte	0x51
 6480 17c0 01       		.uleb128 0x1
 6481 17c1 30       		.byte	0x30
 6482 17c2 1B       		.uleb128 0x1b
 6483 17c3 01       		.uleb128 0x1
 6484 17c4 52       		.byte	0x52
 6485 17c5 01       		.uleb128 0x1
ARM GAS  C:\Users\adria\AppData\Local\Temp\cciNfgxb.s 			page 151


 6486 17c6 31       		.byte	0x31
 6487 17c7 1B       		.uleb128 0x1b
 6488 17c8 01       		.uleb128 0x1
 6489 17c9 53       		.byte	0x53
 6490 17ca 02       		.uleb128 0x2
 6491 17cb 74       		.byte	0x74
 6492 17cc 00       		.sleb128 0
 6493 17cd 00       		.byte	0
 6494 17ce 1A       		.uleb128 0x1a
 6495 17cf E6010000 		.4byte	.LVL349
 6496 17d3 57080000 		.4byte	0x857
 6497 17d7 F2170000 		.4byte	0x17f2
 6498 17db 1B       		.uleb128 0x1b
 6499 17dc 01       		.uleb128 0x1
 6500 17dd 50       		.byte	0x50
 6501 17de 02       		.uleb128 0x2
 6502 17df 74       		.byte	0x74
 6503 17e0 3C       		.sleb128 60
 6504 17e1 1B       		.uleb128 0x1b
 6505 17e2 01       		.uleb128 0x1
 6506 17e3 51       		.byte	0x51
 6507 17e4 01       		.uleb128 0x1
 6508 17e5 30       		.byte	0x30
 6509 17e6 1B       		.uleb128 0x1b
 6510 17e7 01       		.uleb128 0x1
 6511 17e8 52       		.byte	0x52
 6512 17e9 01       		.uleb128 0x1
 6513 17ea 3A       		.byte	0x3a
 6514 17eb 1B       		.uleb128 0x1b
 6515 17ec 01       		.uleb128 0x1
 6516 17ed 53       		.byte	0x53
 6517 17ee 02       		.uleb128 0x2
 6518 17ef 74       		.byte	0x74
 6519 17f0 00       		.sleb128 0
 6520 17f1 00       		.byte	0
 6521 17f2 1A       		.uleb128 0x1a
 6522 17f3 F8010000 		.4byte	.LVL352
 6523 17f7 790C0000 		.4byte	0xc79
 6524 17fb 17180000 		.4byte	0x1817
 6525 17ff 1B       		.uleb128 0x1b
 6526 1800 01       		.uleb128 0x1
 6527 1801 50       		.byte	0x50
 6528 1802 02       		.uleb128 0x2
 6529 1803 08       		.byte	0x8
 6530 1804 71       		.byte	0x71
 6531 1805 1B       		.uleb128 0x1b
 6532 1806 01       		.uleb128 0x1
 6533 1807 51       		.byte	0x51
 6534 1808 02       		.uleb128 0x2
 6535 1809 91       		.byte	0x91
 6536 180a 67       		.sleb128 -25
 6537 180b 1B       		.uleb128 0x1b
 6538 180c 01       		.uleb128 0x1
 6539 180d 52       		.byte	0x52
 6540 180e 01       		.uleb128 0x1
 6541 180f 31       		.byte	0x31
 6542 1810 1B       		.uleb128 0x1b
ARM GAS  C:\Users\adria\AppData\Local\Temp\cciNfgxb.s 			page 152


 6543 1811 01       		.uleb128 0x1
 6544 1812 53       		.byte	0x53
 6545 1813 02       		.uleb128 0x2
 6546 1814 74       		.byte	0x74
 6547 1815 00       		.sleb128 0
 6548 1816 00       		.byte	0
 6549 1817 21       		.uleb128 0x21
 6550 1818 5C020000 		.4byte	.LVL357
 6551 181c C1100000 		.4byte	0x10c1
 6552 1820 1B       		.uleb128 0x1b
 6553 1821 01       		.uleb128 0x1
 6554 1822 50       		.byte	0x50
 6555 1823 02       		.uleb128 0x2
 6556 1824 91       		.byte	0x91
 6557 1825 60       		.sleb128 -32
 6558 1826 1B       		.uleb128 0x1b
 6559 1827 01       		.uleb128 0x1
 6560 1828 51       		.byte	0x51
 6561 1829 02       		.uleb128 0x2
 6562 182a 7D       		.byte	0x7d
 6563 182b 00       		.sleb128 0
 6564 182c 1B       		.uleb128 0x1b
 6565 182d 01       		.uleb128 0x1
 6566 182e 52       		.byte	0x52
 6567 182f 02       		.uleb128 0x2
 6568 1830 76       		.byte	0x76
 6569 1831 00       		.sleb128 0
 6570 1832 1B       		.uleb128 0x1b
 6571 1833 01       		.uleb128 0x1
 6572 1834 53       		.byte	0x53
 6573 1835 02       		.uleb128 0x2
 6574 1836 74       		.byte	0x74
 6575 1837 00       		.sleb128 0
 6576 1838 00       		.byte	0
 6577 1839 00       		.byte	0
 6578 183a 24       		.uleb128 0x24
 6579 183b B4020000 		.4byte	.LASF174
 6580 183f 01       		.byte	0x1
 6581 1840 7002     		.2byte	0x270
 6582 1842 C3000000 		.4byte	0xc3
 6583 1846 00000000 		.4byte	.LFB70
 6584 184a 30000000 		.4byte	.LFE70-.LFB70
 6585 184e 01       		.uleb128 0x1
 6586 184f 9C       		.byte	0x9c
 6587 1850 B9180000 		.4byte	0x18b9
 6588 1854 15       		.uleb128 0x15
 6589 1855 64657600 		.ascii	"dev\000"
 6590 1859 01       		.byte	0x1
 6591 185a 7002     		.2byte	0x270
 6592 185c 67050000 		.4byte	0x567
 6593 1860 F8140000 		.4byte	.LLST103
 6594 1864 11       		.uleb128 0x11
 6595 1865 10070000 		.4byte	.LASF129
 6596 1869 01       		.byte	0x1
 6597 186a 7202     		.2byte	0x272
 6598 186c C3000000 		.4byte	0xc3
 6599 1870 16150000 		.4byte	.LLST104
ARM GAS  C:\Users\adria\AppData\Local\Temp\cciNfgxb.s 			page 153


 6600 1874 16       		.uleb128 0x16
 6601 1875 67010000 		.4byte	.LASF175
 6602 1879 01       		.byte	0x1
 6603 187a 7302     		.2byte	0x273
 6604 187c CE000000 		.4byte	0xce
 6605 1880 02       		.uleb128 0x2
 6606 1881 91       		.byte	0x91
 6607 1882 77       		.sleb128 -9
 6608 1883 1A       		.uleb128 0x1a
 6609 1884 0A000000 		.4byte	.LVL361
 6610 1888 C0080000 		.4byte	0x8c0
 6611 188c 97180000 		.4byte	0x1897
 6612 1890 1B       		.uleb128 0x1b
 6613 1891 01       		.uleb128 0x1
 6614 1892 50       		.byte	0x50
 6615 1893 02       		.uleb128 0x2
 6616 1894 74       		.byte	0x74
 6617 1895 00       		.sleb128 0
 6618 1896 00       		.byte	0
 6619 1897 21       		.uleb128 0x21
 6620 1898 1C000000 		.4byte	.LVL363
 6621 189c 790C0000 		.4byte	0xc79
 6622 18a0 1B       		.uleb128 0x1b
 6623 18a1 01       		.uleb128 0x1
 6624 18a2 50       		.byte	0x50
 6625 18a3 02       		.uleb128 0x2
 6626 18a4 08       		.byte	0x8
 6627 18a5 74       		.byte	0x74
 6628 18a6 1B       		.uleb128 0x1b
 6629 18a7 01       		.uleb128 0x1
 6630 18a8 51       		.byte	0x51
 6631 18a9 02       		.uleb128 0x2
 6632 18aa 91       		.byte	0x91
 6633 18ab 77       		.sleb128 -9
 6634 18ac 1B       		.uleb128 0x1b
 6635 18ad 01       		.uleb128 0x1
 6636 18ae 52       		.byte	0x52
 6637 18af 01       		.uleb128 0x1
 6638 18b0 31       		.byte	0x31
 6639 18b1 1B       		.uleb128 0x1b
 6640 18b2 01       		.uleb128 0x1
 6641 18b3 53       		.byte	0x53
 6642 18b4 02       		.uleb128 0x2
 6643 18b5 74       		.byte	0x74
 6644 18b6 00       		.sleb128 0
 6645 18b7 00       		.byte	0
 6646 18b8 00       		.byte	0
 6647 18b9 28       		.uleb128 0x28
 6648 18ba 54040000 		.4byte	.LASF180
 6649 18be 01       		.byte	0x1
 6650 18bf 8302     		.2byte	0x283
 6651 18c1 00000000 		.4byte	.LFB71
 6652 18c5 64000000 		.4byte	.LFE71-.LFB71
 6653 18c9 01       		.uleb128 0x1
 6654 18ca 9C       		.byte	0x9c
 6655 18cb 1D190000 		.4byte	0x191d
 6656 18cf 0F       		.uleb128 0xf
ARM GAS  C:\Users\adria\AppData\Local\Temp\cciNfgxb.s 			page 154


 6657 18d0 0E020000 		.4byte	.LASF176
 6658 18d4 01       		.byte	0x1
 6659 18d5 8302     		.2byte	0x283
 6660 18d7 E4000000 		.4byte	0xe4
 6661 18db 34150000 		.4byte	.LLST105
 6662 18df 10       		.uleb128 0x10
 6663 18e0 64657600 		.ascii	"dev\000"
 6664 18e4 01       		.byte	0x1
 6665 18e5 8302     		.2byte	0x283
 6666 18e7 67050000 		.4byte	0x567
 6667 18eb 01       		.uleb128 0x1
 6668 18ec 51       		.byte	0x51
 6669 18ed 11       		.uleb128 0x11
 6670 18ee 30000000 		.4byte	.LASF177
 6671 18f2 01       		.byte	0x1
 6672 18f3 8502     		.2byte	0x285
 6673 18f5 FA000000 		.4byte	0xfa
 6674 18f9 55150000 		.4byte	.LLST106
 6675 18fd 11       		.uleb128 0x11
 6676 18fe E8080000 		.4byte	.LASF178
 6677 1902 01       		.byte	0x1
 6678 1903 8602     		.2byte	0x286
 6679 1905 FA000000 		.4byte	0xfa
 6680 1909 88160000 		.4byte	.LLST107
 6681 190d 16       		.uleb128 0x16
 6682 190e 9B050000 		.4byte	.LASF179
 6683 1912 01       		.byte	0x1
 6684 1913 8702     		.2byte	0x287
 6685 1915 9E140000 		.4byte	0x149e
 6686 1919 02       		.uleb128 0x2
 6687 191a 91       		.byte	0x91
 6688 191b 70       		.sleb128 -16
 6689 191c 00       		.byte	0
 6690 191d 28       		.uleb128 0x28
 6691 191e CE000000 		.4byte	.LASF181
 6692 1922 01       		.byte	0x1
 6693 1923 9C02     		.2byte	0x29c
 6694 1925 00000000 		.4byte	.LFB72
 6695 1929 70000000 		.4byte	.LFE72-.LFB72
 6696 192d 01       		.uleb128 0x1
 6697 192e 9C       		.byte	0x9c
 6698 192f 81190000 		.4byte	0x1981
 6699 1933 0F       		.uleb128 0xf
 6700 1934 0E020000 		.4byte	.LASF176
 6701 1938 01       		.byte	0x1
 6702 1939 9C02     		.2byte	0x29c
 6703 193b 81190000 		.4byte	0x1981
 6704 193f 1B170000 		.4byte	.LLST108
 6705 1943 10       		.uleb128 0x10
 6706 1944 64657600 		.ascii	"dev\000"
 6707 1948 01       		.byte	0x1
 6708 1949 9C02     		.2byte	0x29c
 6709 194b E6050000 		.4byte	0x5e6
 6710 194f 01       		.uleb128 0x1
 6711 1950 51       		.byte	0x51
 6712 1951 11       		.uleb128 0x11
 6713 1952 30000000 		.4byte	.LASF177
ARM GAS  C:\Users\adria\AppData\Local\Temp\cciNfgxb.s 			page 155


 6714 1956 01       		.byte	0x1
 6715 1957 9E02     		.2byte	0x29e
 6716 1959 FA000000 		.4byte	0xfa
 6717 195d 47170000 		.4byte	.LLST109
 6718 1961 11       		.uleb128 0x11
 6719 1962 E8080000 		.4byte	.LASF178
 6720 1966 01       		.byte	0x1
 6721 1967 9F02     		.2byte	0x29f
 6722 1969 FA000000 		.4byte	0xfa
 6723 196d 1C180000 		.4byte	.LLST110
 6724 1971 16       		.uleb128 0x16
 6725 1972 9B050000 		.4byte	.LASF179
 6726 1976 01       		.byte	0x1
 6727 1977 A002     		.2byte	0x2a0
 6728 1979 9E140000 		.4byte	0x149e
 6729 197d 02       		.uleb128 0x2
 6730 197e 91       		.byte	0x91
 6731 197f 70       		.sleb128 -16
 6732 1980 00       		.byte	0
 6733 1981 06       		.uleb128 0x6
 6734 1982 04       		.byte	0x4
 6735 1983 E4000000 		.4byte	0xe4
 6736 1987 24       		.uleb128 0x24
 6737 1988 1A080000 		.4byte	.LASF182
 6738 198c 01       		.byte	0x1
 6739 198d BD02     		.2byte	0x2bd
 6740 198f C3000000 		.4byte	0xc3
 6741 1993 00000000 		.4byte	.LFB73
 6742 1997 36000000 		.4byte	.LFE73-.LFB73
 6743 199b 01       		.uleb128 0x1
 6744 199c 9C       		.byte	0x9c
 6745 199d FC190000 		.4byte	0x19fc
 6746 19a1 0F       		.uleb128 0xf
 6747 19a2 E0040000 		.4byte	.LASF135
 6748 19a6 01       		.byte	0x1
 6749 19a7 BD02     		.2byte	0x2bd
 6750 19a9 9E0A0000 		.4byte	0xa9e
 6751 19ad 7A180000 		.4byte	.LLST111
 6752 19b1 15       		.uleb128 0x15
 6753 19b2 64657600 		.ascii	"dev\000"
 6754 19b6 01       		.byte	0x1
 6755 19b7 BD02     		.2byte	0x2bd
 6756 19b9 67050000 		.4byte	0x567
 6757 19bd 98180000 		.4byte	.LLST112
 6758 19c1 11       		.uleb128 0x11
 6759 19c2 10070000 		.4byte	.LASF129
 6760 19c6 01       		.byte	0x1
 6761 19c7 BF02     		.2byte	0x2bf
 6762 19c9 C3000000 		.4byte	0xc3
 6763 19cd B6180000 		.4byte	.LLST113
 6764 19d1 1A       		.uleb128 0x1a
 6765 19d2 0C000000 		.4byte	.LVL393
 6766 19d6 C0080000 		.4byte	0x8c0
 6767 19da E5190000 		.4byte	0x19e5
 6768 19de 1B       		.uleb128 0x1b
 6769 19df 01       		.uleb128 0x1
 6770 19e0 50       		.byte	0x50
ARM GAS  C:\Users\adria\AppData\Local\Temp\cciNfgxb.s 			page 156


 6771 19e1 02       		.uleb128 0x2
 6772 19e2 74       		.byte	0x74
 6773 19e3 00       		.sleb128 0
 6774 19e4 00       		.byte	0
 6775 19e5 21       		.uleb128 0x21
 6776 19e6 18000000 		.4byte	.LVL395
 6777 19ea 4E0F0000 		.4byte	0xf4e
 6778 19ee 1B       		.uleb128 0x1b
 6779 19ef 01       		.uleb128 0x1
 6780 19f0 50       		.byte	0x50
 6781 19f1 02       		.uleb128 0x2
 6782 19f2 75       		.byte	0x75
 6783 19f3 00       		.sleb128 0
 6784 19f4 1B       		.uleb128 0x1b
 6785 19f5 01       		.uleb128 0x1
 6786 19f6 51       		.byte	0x51
 6787 19f7 02       		.uleb128 0x2
 6788 19f8 74       		.byte	0x74
 6789 19f9 00       		.sleb128 0
 6790 19fa 00       		.byte	0
 6791 19fb 00       		.byte	0
 6792 19fc 29       		.uleb128 0x29
 6793 19fd 4B000000 		.4byte	.LASF183
 6794 1a01 01       		.byte	0x1
 6795 1a02 6405     		.2byte	0x564
 6796 1a04 C3000000 		.4byte	0xc3
 6797 1a08 00000000 		.4byte	.LFB88
 6798 1a0c C2000000 		.4byte	.LFE88-.LFB88
 6799 1a10 01       		.uleb128 0x1
 6800 1a11 9C       		.byte	0x9c
 6801 1a12 2E1B0000 		.4byte	0x1b2e
 6802 1a16 15       		.uleb128 0x15
 6803 1a17 64657600 		.ascii	"dev\000"
 6804 1a1b 01       		.byte	0x1
 6805 1a1c 6405     		.2byte	0x564
 6806 1a1e 67050000 		.4byte	0x567
 6807 1a22 DF180000 		.4byte	.LLST114
 6808 1a26 11       		.uleb128 0x11
 6809 1a27 10070000 		.4byte	.LASF129
 6810 1a2b 01       		.byte	0x1
 6811 1a2c 6605     		.2byte	0x566
 6812 1a2e C3000000 		.4byte	0xc3
 6813 1a32 00190000 		.4byte	.LLST115
 6814 1a36 16       		.uleb128 0x16
 6815 1a37 E0040000 		.4byte	.LASF135
 6816 1a3b 01       		.byte	0x1
 6817 1a3c 6705     		.2byte	0x567
 6818 1a3e 2E1B0000 		.4byte	0x1b2e
 6819 1a42 03       		.uleb128 0x3
 6820 1a43 91       		.byte	0x91
 6821 1a44 F87E     		.sleb128 -136
 6822 1a46 16       		.uleb128 0x16
 6823 1a47 8D060000 		.4byte	.LASF184
 6824 1a4b 01       		.byte	0x1
 6825 1a4c 6905     		.2byte	0x569
 6826 1a4e FA030000 		.4byte	0x3fa
 6827 1a52 03       		.uleb128 0x3
ARM GAS  C:\Users\adria\AppData\Local\Temp\cciNfgxb.s 			page 157


 6828 1a53 91       		.byte	0x91
 6829 1a54 A07E     		.sleb128 -224
 6830 1a56 26       		.uleb128 0x26
 6831 1a57 2E000000 		.4byte	.LBB3
 6832 1a5b 8E000000 		.4byte	.LBE3-.LBB3
 6833 1a5f 1C1B0000 		.4byte	0x1b1c
 6834 1a63 11       		.uleb128 0x11
 6835 1a64 15070000 		.4byte	.LASF185
 6836 1a68 01       		.byte	0x1
 6837 1a69 7A05     		.2byte	0x57a
 6838 1a6b E4000000 		.4byte	0xe4
 6839 1a6f 40190000 		.4byte	.LLST116
 6840 1a73 16       		.uleb128 0x16
 6841 1a74 E1020000 		.4byte	.LASF186
 6842 1a78 01       		.byte	0x1
 6843 1a79 8705     		.2byte	0x587
 6844 1a7b E4000000 		.4byte	0xe4
 6845 1a7f 03       		.uleb128 0x3
 6846 1a80 91       		.byte	0x91
 6847 1a81 9E7E     		.sleb128 -226
 6848 1a83 1F       		.uleb128 0x1f
 6849 1a84 6900     		.ascii	"i\000"
 6850 1a86 01       		.byte	0x1
 6851 1a87 8A05     		.2byte	0x58a
 6852 1a89 CE000000 		.4byte	0xce
 6853 1a8d 55190000 		.4byte	.LLST117
 6854 1a91 1A       		.uleb128 0x1a
 6855 1a92 60000000 		.4byte	.LVL403
 6856 1a96 1D190000 		.4byte	0x191d
 6857 1a9a AD1A0000 		.4byte	0x1aad
 6858 1a9e 1B       		.uleb128 0x1b
 6859 1a9f 01       		.uleb128 0x1
 6860 1aa0 50       		.byte	0x50
 6861 1aa1 03       		.uleb128 0x3
 6862 1aa2 91       		.byte	0x91
 6863 1aa3 9E7E     		.sleb128 -226
 6864 1aa5 1B       		.uleb128 0x1b
 6865 1aa6 01       		.uleb128 0x1
 6866 1aa7 51       		.byte	0x51
 6867 1aa8 03       		.uleb128 0x3
 6868 1aa9 91       		.byte	0x91
 6869 1aaa A07E     		.sleb128 -224
 6870 1aac 00       		.byte	0
 6871 1aad 1A       		.uleb128 0x1a
 6872 1aae 82000000 		.4byte	.LVL405
 6873 1ab2 A5150000 		.4byte	0x15a5
 6874 1ab6 C81A0000 		.4byte	0x1ac8
 6875 1aba 1B       		.uleb128 0x1b
 6876 1abb 01       		.uleb128 0x1
 6877 1abc 50       		.byte	0x50
 6878 1abd 02       		.uleb128 0x2
 6879 1abe 08       		.byte	0x8
 6880 1abf CF       		.byte	0xcf
 6881 1ac0 1B       		.uleb128 0x1b
 6882 1ac1 01       		.uleb128 0x1
 6883 1ac2 51       		.byte	0x51
 6884 1ac3 03       		.uleb128 0x3
ARM GAS  C:\Users\adria\AppData\Local\Temp\cciNfgxb.s 			page 158


 6885 1ac4 91       		.byte	0x91
 6886 1ac5 A07E     		.sleb128 -224
 6887 1ac7 00       		.byte	0
 6888 1ac8 1A       		.uleb128 0x1a
 6889 1ac9 8C000000 		.4byte	.LVL407
 6890 1acd AE140000 		.4byte	0x14ae
 6891 1ad1 DD1A0000 		.4byte	0x1add
 6892 1ad5 1B       		.uleb128 0x1b
 6893 1ad6 01       		.uleb128 0x1
 6894 1ad7 50       		.byte	0x50
 6895 1ad8 03       		.uleb128 0x3
 6896 1ad9 91       		.byte	0x91
 6897 1ada A07E     		.sleb128 -224
 6898 1adc 00       		.byte	0
 6899 1add 1A       		.uleb128 0x1a
 6900 1ade A4000000 		.4byte	.LVL409
 6901 1ae2 87190000 		.4byte	0x1987
 6902 1ae6 051B0000 		.4byte	0x1b05
 6903 1aea 1B       		.uleb128 0x1b
 6904 1aeb 01       		.uleb128 0x1
 6905 1aec 50       		.byte	0x50
 6906 1aed 0F       		.uleb128 0xf
 6907 1aee 74       		.byte	0x74
 6908 1aef 00       		.sleb128 0
 6909 1af0 32       		.byte	0x32
 6910 1af1 24       		.byte	0x24
 6911 1af2 74       		.byte	0x74
 6912 1af3 00       		.sleb128 0
 6913 1af4 22       		.byte	0x22
 6914 1af5 32       		.byte	0x32
 6915 1af6 24       		.byte	0x24
 6916 1af7 91       		.byte	0x91
 6917 1af8 00       		.sleb128 0
 6918 1af9 22       		.byte	0x22
 6919 1afa 08       		.byte	0x8
 6920 1afb 88       		.byte	0x88
 6921 1afc 1C       		.byte	0x1c
 6922 1afd 1B       		.uleb128 0x1b
 6923 1afe 01       		.uleb128 0x1
 6924 1aff 51       		.byte	0x51
 6925 1b00 03       		.uleb128 0x3
 6926 1b01 91       		.byte	0x91
 6927 1b02 A07E     		.sleb128 -224
 6928 1b04 00       		.byte	0
 6929 1b05 21       		.uleb128 0x21
 6930 1b06 BA000000 		.4byte	.LVL413
 6931 1b0a 270A0000 		.4byte	0xa27
 6932 1b0e 1B       		.uleb128 0x1b
 6933 1b0f 01       		.uleb128 0x1
 6934 1b10 50       		.byte	0x50
 6935 1b11 03       		.uleb128 0x3
 6936 1b12 91       		.byte	0x91
 6937 1b13 F87E     		.sleb128 -136
 6938 1b15 1B       		.uleb128 0x1b
 6939 1b16 01       		.uleb128 0x1
 6940 1b17 51       		.byte	0x51
 6941 1b18 01       		.uleb128 0x1
ARM GAS  C:\Users\adria\AppData\Local\Temp\cciNfgxb.s 			page 159


 6942 1b19 36       		.byte	0x36
 6943 1b1a 00       		.byte	0
 6944 1b1b 00       		.byte	0
 6945 1b1c 21       		.uleb128 0x21
 6946 1b1d 28000000 		.4byte	.LVL400
 6947 1b21 56130000 		.4byte	0x1356
 6948 1b25 1B       		.uleb128 0x1b
 6949 1b26 01       		.uleb128 0x1
 6950 1b27 50       		.byte	0x50
 6951 1b28 03       		.uleb128 0x3
 6952 1b29 91       		.byte	0x91
 6953 1b2a A07E     		.sleb128 -224
 6954 1b2c 00       		.byte	0
 6955 1b2d 00       		.byte	0
 6956 1b2e 17       		.uleb128 0x17
 6957 1b2f 93010000 		.4byte	0x193
 6958 1b33 3E1B0000 		.4byte	0x1b3e
 6959 1b37 18       		.uleb128 0x18
 6960 1b38 EB040000 		.4byte	0x4eb
 6961 1b3c 05       		.byte	0x5
 6962 1b3d 00       		.byte	0
 6963 1b3e 24       		.uleb128 0x24
 6964 1b3f 91070000 		.4byte	.LASF187
 6965 1b43 01       		.byte	0x1
 6966 1b44 3106     		.2byte	0x631
 6967 1b46 C3000000 		.4byte	0xc3
 6968 1b4a 00000000 		.4byte	.LFB93
 6969 1b4e 2C000000 		.4byte	.LFE93-.LFB93
 6970 1b52 01       		.uleb128 0x1
 6971 1b53 9C       		.byte	0x9c
 6972 1b54 8A1B0000 		.4byte	0x1b8a
 6973 1b58 15       		.uleb128 0x15
 6974 1b59 64657600 		.ascii	"dev\000"
 6975 1b5d 01       		.byte	0x1
 6976 1b5e 3106     		.2byte	0x631
 6977 1b60 67050000 		.4byte	0x567
 6978 1b64 7F190000 		.4byte	.LLST118
 6979 1b68 11       		.uleb128 0x11
 6980 1b69 10070000 		.4byte	.LASF129
 6981 1b6d 01       		.byte	0x1
 6982 1b6e 3D06     		.2byte	0x63d
 6983 1b70 C3000000 		.4byte	0xc3
 6984 1b74 A0190000 		.4byte	.LLST119
 6985 1b78 21       		.uleb128 0x21
 6986 1b79 1E000000 		.4byte	.LVL417
 6987 1b7d 56130000 		.4byte	0x1356
 6988 1b81 1B       		.uleb128 0x1b
 6989 1b82 01       		.uleb128 0x1
 6990 1b83 50       		.byte	0x50
 6991 1b84 03       		.uleb128 0x3
 6992 1b85 F3       		.byte	0xf3
 6993 1b86 01       		.uleb128 0x1
 6994 1b87 50       		.byte	0x50
 6995 1b88 00       		.byte	0
 6996 1b89 00       		.byte	0
 6997 1b8a 24       		.uleb128 0x24
 6998 1b8b 9C000000 		.4byte	.LASF188
ARM GAS  C:\Users\adria\AppData\Local\Temp\cciNfgxb.s 			page 160


 6999 1b8f 01       		.byte	0x1
 7000 1b90 4306     		.2byte	0x643
 7001 1b92 C3000000 		.4byte	0xc3
 7002 1b96 00000000 		.4byte	.LFB94
 7003 1b9a 42000000 		.4byte	.LFE94-.LFB94
 7004 1b9e 01       		.uleb128 0x1
 7005 1b9f 9C       		.byte	0x9c
 7006 1ba0 FC1B0000 		.4byte	0x1bfc
 7007 1ba4 15       		.uleb128 0x15
 7008 1ba5 64657600 		.ascii	"dev\000"
 7009 1ba9 01       		.byte	0x1
 7010 1baa 4306     		.2byte	0x643
 7011 1bac 67050000 		.4byte	0x567
 7012 1bb0 BF190000 		.4byte	.LLST120
 7013 1bb4 2A       		.uleb128 0x2a
 7014 1bb5 25010000 		.4byte	.LASF189
 7015 1bb9 01       		.byte	0x1
 7016 1bba 4506     		.2byte	0x645
 7017 1bbc CE000000 		.4byte	0xce
 7018 1bc0 5F       		.sleb128 -33
 7019 1bc1 11       		.uleb128 0x11
 7020 1bc2 10070000 		.4byte	.LASF129
 7021 1bc6 01       		.byte	0x1
 7022 1bc7 5B06     		.2byte	0x65b
 7023 1bc9 C3000000 		.4byte	0xc3
 7024 1bcd E8190000 		.4byte	.LLST121
 7025 1bd1 1A       		.uleb128 0x1a
 7026 1bd2 3A000000 		.4byte	.LVL421
 7027 1bd6 A5150000 		.4byte	0x15a5
 7028 1bda EB1B0000 		.4byte	0x1beb
 7029 1bde 1B       		.uleb128 0x1b
 7030 1bdf 01       		.uleb128 0x1
 7031 1be0 50       		.byte	0x50
 7032 1be1 02       		.uleb128 0x2
 7033 1be2 08       		.byte	0x8
 7034 1be3 DF       		.byte	0xdf
 7035 1be4 1B       		.uleb128 0x1b
 7036 1be5 01       		.uleb128 0x1
 7037 1be6 51       		.byte	0x51
 7038 1be7 02       		.uleb128 0x2
 7039 1be8 74       		.byte	0x74
 7040 1be9 00       		.sleb128 0
 7041 1bea 00       		.byte	0
 7042 1beb 21       		.uleb128 0x21
 7043 1bec 40000000 		.4byte	.LVL422
 7044 1bf0 AE140000 		.4byte	0x14ae
 7045 1bf4 1B       		.uleb128 0x1b
 7046 1bf5 01       		.uleb128 0x1
 7047 1bf6 50       		.byte	0x50
 7048 1bf7 02       		.uleb128 0x2
 7049 1bf8 74       		.byte	0x74
 7050 1bf9 00       		.sleb128 0
 7051 1bfa 00       		.byte	0
 7052 1bfb 00       		.byte	0
 7053 1bfc 24       		.uleb128 0x24
 7054 1bfd 13000000 		.4byte	.LASF190
 7055 1c01 01       		.byte	0x1
ARM GAS  C:\Users\adria\AppData\Local\Temp\cciNfgxb.s 			page 161


 7056 1c02 6606     		.2byte	0x666
 7057 1c04 CB040000 		.4byte	0x4cb
 7058 1c08 00000000 		.4byte	.LFB95
 7059 1c0c 40000000 		.4byte	.LFE95-.LFB95
 7060 1c10 01       		.uleb128 0x1
 7061 1c11 9C       		.byte	0x9c
 7062 1c12 9E1C0000 		.4byte	0x1c9e
 7063 1c16 15       		.uleb128 0x15
 7064 1c17 64657600 		.ascii	"dev\000"
 7065 1c1b 01       		.byte	0x1
 7066 1c1c 6606     		.2byte	0x666
 7067 1c1e 67050000 		.4byte	0x567
 7068 1c22 071A0000 		.4byte	.LLST122
 7069 1c26 16       		.uleb128 0x16
 7070 1c27 A4080000 		.4byte	.LASF191
 7071 1c2b 01       		.byte	0x1
 7072 1c2c 6806     		.2byte	0x668
 7073 1c2e E4000000 		.4byte	0xe4
 7074 1c32 02       		.uleb128 0x2
 7075 1c33 91       		.byte	0x91
 7076 1c34 6E       		.sleb128 -18
 7077 1c35 12       		.uleb128 0x12
 7078 1c36 10070000 		.4byte	.LASF129
 7079 1c3a 01       		.byte	0x1
 7080 1c3b 6906     		.2byte	0x669
 7081 1c3d CE000000 		.4byte	0xce
 7082 1c41 16       		.uleb128 0x16
 7083 1c42 E0040000 		.4byte	.LASF135
 7084 1c46 01       		.byte	0x1
 7085 1c47 6D06     		.2byte	0x66d
 7086 1c49 CB040000 		.4byte	0x4cb
 7087 1c4d 02       		.uleb128 0x2
 7088 1c4e 91       		.byte	0x91
 7089 1c4f 58       		.sleb128 -40
 7090 1c50 1A       		.uleb128 0x1a
 7091 1c51 10000000 		.4byte	.LVL425
 7092 1c55 1D190000 		.4byte	0x191d
 7093 1c59 6A1C0000 		.4byte	0x1c6a
 7094 1c5d 1B       		.uleb128 0x1b
 7095 1c5e 01       		.uleb128 0x1
 7096 1c5f 50       		.byte	0x50
 7097 1c60 02       		.uleb128 0x2
 7098 1c61 91       		.byte	0x91
 7099 1c62 6E       		.sleb128 -18
 7100 1c63 1B       		.uleb128 0x1b
 7101 1c64 01       		.uleb128 0x1
 7102 1c65 51       		.byte	0x51
 7103 1c66 02       		.uleb128 0x2
 7104 1c67 74       		.byte	0x74
 7105 1c68 00       		.sleb128 0
 7106 1c69 00       		.byte	0
 7107 1c6a 23       		.uleb128 0x23
 7108 1c6b 18000000 		.4byte	.LVL426
 7109 1c6f A40A0000 		.4byte	0xaa4
 7110 1c73 1A       		.uleb128 0x1a
 7111 1c74 20000000 		.4byte	.LVL427
 7112 1c78 87190000 		.4byte	0x1987
ARM GAS  C:\Users\adria\AppData\Local\Temp\cciNfgxb.s 			page 162


 7113 1c7c 8D1C0000 		.4byte	0x1c8d
 7114 1c80 1B       		.uleb128 0x1b
 7115 1c81 01       		.uleb128 0x1
 7116 1c82 50       		.byte	0x50
 7117 1c83 02       		.uleb128 0x2
 7118 1c84 7D       		.byte	0x7d
 7119 1c85 00       		.sleb128 0
 7120 1c86 1B       		.uleb128 0x1b
 7121 1c87 01       		.uleb128 0x1
 7122 1c88 51       		.byte	0x51
 7123 1c89 02       		.uleb128 0x2
 7124 1c8a 74       		.byte	0x74
 7125 1c8b 00       		.sleb128 0
 7126 1c8c 00       		.byte	0
 7127 1c8d 21       		.uleb128 0x21
 7128 1c8e 2E000000 		.4byte	.LVL428
 7129 1c92 AE140000 		.4byte	0x14ae
 7130 1c96 1B       		.uleb128 0x1b
 7131 1c97 01       		.uleb128 0x1
 7132 1c98 50       		.byte	0x50
 7133 1c99 02       		.uleb128 0x2
 7134 1c9a 74       		.byte	0x74
 7135 1c9b 00       		.sleb128 0
 7136 1c9c 00       		.byte	0
 7137 1c9d 00       		.byte	0
 7138 1c9e 24       		.uleb128 0x24
 7139 1c9f 43080000 		.4byte	.LASF192
 7140 1ca3 01       		.byte	0x1
 7141 1ca4 7B06     		.2byte	0x67b
 7142 1ca6 C3000000 		.4byte	0xc3
 7143 1caa 00000000 		.4byte	.LFB96
 7144 1cae 10000000 		.4byte	.LFE96-.LFB96
 7145 1cb2 01       		.uleb128 0x1
 7146 1cb3 9C       		.byte	0x9c
 7147 1cb4 FB1C0000 		.4byte	0x1cfb
 7148 1cb8 15       		.uleb128 0x15
 7149 1cb9 64657600 		.ascii	"dev\000"
 7150 1cbd 01       		.byte	0x1
 7151 1cbe 7B06     		.2byte	0x67b
 7152 1cc0 67050000 		.4byte	0x567
 7153 1cc4 331A0000 		.4byte	.LLST123
 7154 1cc8 16       		.uleb128 0x16
 7155 1cc9 10070000 		.4byte	.LASF129
 7156 1ccd 01       		.byte	0x1
 7157 1cce 7D06     		.2byte	0x67d
 7158 1cd0 C3000000 		.4byte	0xc3
 7159 1cd4 01       		.uleb128 0x1
 7160 1cd5 50       		.byte	0x50
 7161 1cd6 1A       		.uleb128 0x1a
 7162 1cd7 08000000 		.4byte	.LVL431
 7163 1cdb 3E1B0000 		.4byte	0x1b3e
 7164 1cdf EA1C0000 		.4byte	0x1cea
 7165 1ce3 1B       		.uleb128 0x1b
 7166 1ce4 01       		.uleb128 0x1
 7167 1ce5 50       		.byte	0x50
 7168 1ce6 02       		.uleb128 0x2
 7169 1ce7 74       		.byte	0x74
ARM GAS  C:\Users\adria\AppData\Local\Temp\cciNfgxb.s 			page 163


 7170 1ce8 00       		.sleb128 0
 7171 1ce9 00       		.byte	0
 7172 1cea 21       		.uleb128 0x21
 7173 1ceb 0E000000 		.4byte	.LVL432
 7174 1cef 8A1B0000 		.4byte	0x1b8a
 7175 1cf3 1B       		.uleb128 0x1b
 7176 1cf4 01       		.uleb128 0x1
 7177 1cf5 50       		.byte	0x50
 7178 1cf6 02       		.uleb128 0x2
 7179 1cf7 74       		.byte	0x74
 7180 1cf8 00       		.sleb128 0
 7181 1cf9 00       		.byte	0
 7182 1cfa 00       		.byte	0
 7183 1cfb 2B       		.uleb128 0x2b
 7184 1cfc AE070000 		.4byte	.LASF193
 7185 1d00 05       		.byte	0x5
 7186 1d01 3B       		.byte	0x3b
 7187 1d02 FA030000 		.4byte	0x3fa
 7188 1d06 05       		.uleb128 0x5
 7189 1d07 03       		.byte	0x3
 7190 1d08 00000000 		.4byte	sensor_bme680
 7191 1d0c 2C       		.uleb128 0x2c
 7192 1d0d 23000000 		.4byte	.LASF194
 7193 1d11 06       		.byte	0x6
 7194 1d12 1207     		.2byte	0x712
 7195 1d14 181D0000 		.4byte	0x1d18
 7196 1d18 2D       		.uleb128 0x2d
 7197 1d19 EF000000 		.4byte	0xef
 7198 1d1d 2E       		.uleb128 0x2e
 7199 1d1e D8040000 		.4byte	.LASF195
 7200 1d22 D8040000 		.4byte	.LASF195
 7201 1d26 07       		.byte	0x7
 7202 1d27 76       		.byte	0x76
 7203 1d28 2E       		.uleb128 0x2e
 7204 1d29 FE070000 		.4byte	.LASF196
 7205 1d2d FE070000 		.4byte	.LASF196
 7206 1d31 08       		.byte	0x8
 7207 1d32 B1       		.byte	0xb1
 7208 1d33 2E       		.uleb128 0x2e
 7209 1d34 53010000 		.4byte	.LASF197
 7210 1d38 53010000 		.4byte	.LASF197
 7211 1d3c 08       		.byte	0x8
 7212 1d3d B6       		.byte	0xb6
 7213 1d3e 2E       		.uleb128 0x2e
 7214 1d3f A0010000 		.4byte	.LASF198
 7215 1d43 A0010000 		.4byte	.LASF198
 7216 1d47 08       		.byte	0x8
 7217 1d48 B5       		.byte	0xb5
 7218 1d49 2E       		.uleb128 0x2e
 7219 1d4a 26040000 		.4byte	.LASF199
 7220 1d4e 26040000 		.4byte	.LASF199
 7221 1d52 08       		.byte	0x8
 7222 1d53 B3       		.byte	0xb3
 7223 1d54 2E       		.uleb128 0x2e
 7224 1d55 B2040000 		.4byte	.LASF200
 7225 1d59 B2040000 		.4byte	.LASF200
 7226 1d5d 08       		.byte	0x8
ARM GAS  C:\Users\adria\AppData\Local\Temp\cciNfgxb.s 			page 164


 7227 1d5e B7       		.byte	0xb7
 7228 1d5f 2F       		.uleb128 0x2f
 7229 1d60 1E010000 		.4byte	.LASF206
 7230 1d64 1E010000 		.4byte	.LASF206
 7231 1d68 00       		.byte	0
 7232              		.section	.debug_abbrev,"",%progbits
 7233              	.Ldebug_abbrev0:
 7234 0000 01       		.uleb128 0x1
 7235 0001 11       		.uleb128 0x11
 7236 0002 01       		.byte	0x1
 7237 0003 25       		.uleb128 0x25
 7238 0004 0E       		.uleb128 0xe
 7239 0005 13       		.uleb128 0x13
 7240 0006 0B       		.uleb128 0xb
 7241 0007 03       		.uleb128 0x3
 7242 0008 0E       		.uleb128 0xe
 7243 0009 1B       		.uleb128 0x1b
 7244 000a 0E       		.uleb128 0xe
 7245 000b 55       		.uleb128 0x55
 7246 000c 17       		.uleb128 0x17
 7247 000d 11       		.uleb128 0x11
 7248 000e 01       		.uleb128 0x1
 7249 000f 10       		.uleb128 0x10
 7250 0010 17       		.uleb128 0x17
 7251 0011 00       		.byte	0
 7252 0012 00       		.byte	0
 7253 0013 02       		.uleb128 0x2
 7254 0014 24       		.uleb128 0x24
 7255 0015 00       		.byte	0
 7256 0016 0B       		.uleb128 0xb
 7257 0017 0B       		.uleb128 0xb
 7258 0018 3E       		.uleb128 0x3e
 7259 0019 0B       		.uleb128 0xb
 7260 001a 03       		.uleb128 0x3
 7261 001b 0E       		.uleb128 0xe
 7262 001c 00       		.byte	0
 7263 001d 00       		.byte	0
 7264 001e 03       		.uleb128 0x3
 7265 001f 24       		.uleb128 0x24
 7266 0020 00       		.byte	0
 7267 0021 0B       		.uleb128 0xb
 7268 0022 0B       		.uleb128 0xb
 7269 0023 3E       		.uleb128 0x3e
 7270 0024 0B       		.uleb128 0xb
 7271 0025 03       		.uleb128 0x3
 7272 0026 08       		.uleb128 0x8
 7273 0027 00       		.byte	0
 7274 0028 00       		.byte	0
 7275 0029 04       		.uleb128 0x4
 7276 002a 16       		.uleb128 0x16
 7277 002b 00       		.byte	0
 7278 002c 03       		.uleb128 0x3
 7279 002d 0E       		.uleb128 0xe
 7280 002e 3A       		.uleb128 0x3a
 7281 002f 0B       		.uleb128 0xb
 7282 0030 3B       		.uleb128 0x3b
 7283 0031 0B       		.uleb128 0xb
ARM GAS  C:\Users\adria\AppData\Local\Temp\cciNfgxb.s 			page 165


 7284 0032 49       		.uleb128 0x49
 7285 0033 13       		.uleb128 0x13
 7286 0034 00       		.byte	0
 7287 0035 00       		.byte	0
 7288 0036 05       		.uleb128 0x5
 7289 0037 16       		.uleb128 0x16
 7290 0038 00       		.byte	0
 7291 0039 03       		.uleb128 0x3
 7292 003a 0E       		.uleb128 0xe
 7293 003b 3A       		.uleb128 0x3a
 7294 003c 0B       		.uleb128 0xb
 7295 003d 3B       		.uleb128 0x3b
 7296 003e 05       		.uleb128 0x5
 7297 003f 49       		.uleb128 0x49
 7298 0040 13       		.uleb128 0x13
 7299 0041 00       		.byte	0
 7300 0042 00       		.byte	0
 7301 0043 06       		.uleb128 0x6
 7302 0044 0F       		.uleb128 0xf
 7303 0045 00       		.byte	0
 7304 0046 0B       		.uleb128 0xb
 7305 0047 0B       		.uleb128 0xb
 7306 0048 49       		.uleb128 0x49
 7307 0049 13       		.uleb128 0x13
 7308 004a 00       		.byte	0
 7309 004b 00       		.byte	0
 7310 004c 07       		.uleb128 0x7
 7311 004d 15       		.uleb128 0x15
 7312 004e 01       		.byte	0x1
 7313 004f 27       		.uleb128 0x27
 7314 0050 19       		.uleb128 0x19
 7315 0051 49       		.uleb128 0x49
 7316 0052 13       		.uleb128 0x13
 7317 0053 01       		.uleb128 0x1
 7318 0054 13       		.uleb128 0x13
 7319 0055 00       		.byte	0
 7320 0056 00       		.byte	0
 7321 0057 08       		.uleb128 0x8
 7322 0058 05       		.uleb128 0x5
 7323 0059 00       		.byte	0
 7324 005a 49       		.uleb128 0x49
 7325 005b 13       		.uleb128 0x13
 7326 005c 00       		.byte	0
 7327 005d 00       		.byte	0
 7328 005e 09       		.uleb128 0x9
 7329 005f 15       		.uleb128 0x15
 7330 0060 01       		.byte	0x1
 7331 0061 27       		.uleb128 0x27
 7332 0062 19       		.uleb128 0x19
 7333 0063 01       		.uleb128 0x1
 7334 0064 13       		.uleb128 0x13
 7335 0065 00       		.byte	0
 7336 0066 00       		.byte	0
 7337 0067 0A       		.uleb128 0xa
 7338 0068 04       		.uleb128 0x4
 7339 0069 01       		.byte	0x1
 7340 006a 03       		.uleb128 0x3
ARM GAS  C:\Users\adria\AppData\Local\Temp\cciNfgxb.s 			page 166


 7341 006b 0E       		.uleb128 0xe
 7342 006c 0B       		.uleb128 0xb
 7343 006d 0B       		.uleb128 0xb
 7344 006e 49       		.uleb128 0x49
 7345 006f 13       		.uleb128 0x13
 7346 0070 3A       		.uleb128 0x3a
 7347 0071 0B       		.uleb128 0xb
 7348 0072 3B       		.uleb128 0x3b
 7349 0073 05       		.uleb128 0x5
 7350 0074 01       		.uleb128 0x1
 7351 0075 13       		.uleb128 0x13
 7352 0076 00       		.byte	0
 7353 0077 00       		.byte	0
 7354 0078 0B       		.uleb128 0xb
 7355 0079 28       		.uleb128 0x28
 7356 007a 00       		.byte	0
 7357 007b 03       		.uleb128 0x3
 7358 007c 0E       		.uleb128 0xe
 7359 007d 1C       		.uleb128 0x1c
 7360 007e 0B       		.uleb128 0xb
 7361 007f 00       		.byte	0
 7362 0080 00       		.byte	0
 7363 0081 0C       		.uleb128 0xc
 7364 0082 13       		.uleb128 0x13
 7365 0083 01       		.byte	0x1
 7366 0084 03       		.uleb128 0x3
 7367 0085 0E       		.uleb128 0xe
 7368 0086 0B       		.uleb128 0xb
 7369 0087 0B       		.uleb128 0xb
 7370 0088 3A       		.uleb128 0x3a
 7371 0089 0B       		.uleb128 0xb
 7372 008a 3B       		.uleb128 0x3b
 7373 008b 05       		.uleb128 0x5
 7374 008c 01       		.uleb128 0x1
 7375 008d 13       		.uleb128 0x13
 7376 008e 00       		.byte	0
 7377 008f 00       		.byte	0
 7378 0090 0D       		.uleb128 0xd
 7379 0091 0D       		.uleb128 0xd
 7380 0092 00       		.byte	0
 7381 0093 03       		.uleb128 0x3
 7382 0094 0E       		.uleb128 0xe
 7383 0095 3A       		.uleb128 0x3a
 7384 0096 0B       		.uleb128 0xb
 7385 0097 3B       		.uleb128 0x3b
 7386 0098 05       		.uleb128 0x5
 7387 0099 49       		.uleb128 0x49
 7388 009a 13       		.uleb128 0x13
 7389 009b 38       		.uleb128 0x38
 7390 009c 0B       		.uleb128 0xb
 7391 009d 00       		.byte	0
 7392 009e 00       		.byte	0
 7393 009f 0E       		.uleb128 0xe
 7394 00a0 2E       		.uleb128 0x2e
 7395 00a1 01       		.byte	0x1
 7396 00a2 03       		.uleb128 0x3
 7397 00a3 0E       		.uleb128 0xe
ARM GAS  C:\Users\adria\AppData\Local\Temp\cciNfgxb.s 			page 167


 7398 00a4 3A       		.uleb128 0x3a
 7399 00a5 0B       		.uleb128 0xb
 7400 00a6 3B       		.uleb128 0x3b
 7401 00a7 05       		.uleb128 0x5
 7402 00a8 27       		.uleb128 0x27
 7403 00a9 19       		.uleb128 0x19
 7404 00aa 49       		.uleb128 0x49
 7405 00ab 13       		.uleb128 0x13
 7406 00ac 11       		.uleb128 0x11
 7407 00ad 01       		.uleb128 0x1
 7408 00ae 12       		.uleb128 0x12
 7409 00af 06       		.uleb128 0x6
 7410 00b0 40       		.uleb128 0x40
 7411 00b1 18       		.uleb128 0x18
 7412 00b2 9742     		.uleb128 0x2117
 7413 00b4 19       		.uleb128 0x19
 7414 00b5 01       		.uleb128 0x1
 7415 00b6 13       		.uleb128 0x13
 7416 00b7 00       		.byte	0
 7417 00b8 00       		.byte	0
 7418 00b9 0F       		.uleb128 0xf
 7419 00ba 05       		.uleb128 0x5
 7420 00bb 00       		.byte	0
 7421 00bc 03       		.uleb128 0x3
 7422 00bd 0E       		.uleb128 0xe
 7423 00be 3A       		.uleb128 0x3a
 7424 00bf 0B       		.uleb128 0xb
 7425 00c0 3B       		.uleb128 0x3b
 7426 00c1 05       		.uleb128 0x5
 7427 00c2 49       		.uleb128 0x49
 7428 00c3 13       		.uleb128 0x13
 7429 00c4 02       		.uleb128 0x2
 7430 00c5 17       		.uleb128 0x17
 7431 00c6 00       		.byte	0
 7432 00c7 00       		.byte	0
 7433 00c8 10       		.uleb128 0x10
 7434 00c9 05       		.uleb128 0x5
 7435 00ca 00       		.byte	0
 7436 00cb 03       		.uleb128 0x3
 7437 00cc 08       		.uleb128 0x8
 7438 00cd 3A       		.uleb128 0x3a
 7439 00ce 0B       		.uleb128 0xb
 7440 00cf 3B       		.uleb128 0x3b
 7441 00d0 05       		.uleb128 0x5
 7442 00d1 49       		.uleb128 0x49
 7443 00d2 13       		.uleb128 0x13
 7444 00d3 02       		.uleb128 0x2
 7445 00d4 18       		.uleb128 0x18
 7446 00d5 00       		.byte	0
 7447 00d6 00       		.byte	0
 7448 00d7 11       		.uleb128 0x11
 7449 00d8 34       		.uleb128 0x34
 7450 00d9 00       		.byte	0
 7451 00da 03       		.uleb128 0x3
 7452 00db 0E       		.uleb128 0xe
 7453 00dc 3A       		.uleb128 0x3a
 7454 00dd 0B       		.uleb128 0xb
ARM GAS  C:\Users\adria\AppData\Local\Temp\cciNfgxb.s 			page 168


 7455 00de 3B       		.uleb128 0x3b
 7456 00df 05       		.uleb128 0x5
 7457 00e0 49       		.uleb128 0x49
 7458 00e1 13       		.uleb128 0x13
 7459 00e2 02       		.uleb128 0x2
 7460 00e3 17       		.uleb128 0x17
 7461 00e4 00       		.byte	0
 7462 00e5 00       		.byte	0
 7463 00e6 12       		.uleb128 0x12
 7464 00e7 34       		.uleb128 0x34
 7465 00e8 00       		.byte	0
 7466 00e9 03       		.uleb128 0x3
 7467 00ea 0E       		.uleb128 0xe
 7468 00eb 3A       		.uleb128 0x3a
 7469 00ec 0B       		.uleb128 0xb
 7470 00ed 3B       		.uleb128 0x3b
 7471 00ee 05       		.uleb128 0x5
 7472 00ef 49       		.uleb128 0x49
 7473 00f0 13       		.uleb128 0x13
 7474 00f1 00       		.byte	0
 7475 00f2 00       		.byte	0
 7476 00f3 13       		.uleb128 0x13
 7477 00f4 26       		.uleb128 0x26
 7478 00f5 00       		.byte	0
 7479 00f6 49       		.uleb128 0x49
 7480 00f7 13       		.uleb128 0x13
 7481 00f8 00       		.byte	0
 7482 00f9 00       		.byte	0
 7483 00fa 14       		.uleb128 0x14
 7484 00fb 2E       		.uleb128 0x2e
 7485 00fc 01       		.byte	0x1
 7486 00fd 03       		.uleb128 0x3
 7487 00fe 0E       		.uleb128 0xe
 7488 00ff 3A       		.uleb128 0x3a
 7489 0100 0B       		.uleb128 0xb
 7490 0101 3B       		.uleb128 0x3b
 7491 0102 05       		.uleb128 0x5
 7492 0103 27       		.uleb128 0x27
 7493 0104 19       		.uleb128 0x19
 7494 0105 49       		.uleb128 0x49
 7495 0106 13       		.uleb128 0x13
 7496 0107 11       		.uleb128 0x11
 7497 0108 01       		.uleb128 0x1
 7498 0109 12       		.uleb128 0x12
 7499 010a 06       		.uleb128 0x6
 7500 010b 40       		.uleb128 0x40
 7501 010c 18       		.uleb128 0x18
 7502 010d 9642     		.uleb128 0x2116
 7503 010f 19       		.uleb128 0x19
 7504 0110 01       		.uleb128 0x1
 7505 0111 13       		.uleb128 0x13
 7506 0112 00       		.byte	0
 7507 0113 00       		.byte	0
 7508 0114 15       		.uleb128 0x15
 7509 0115 05       		.uleb128 0x5
 7510 0116 00       		.byte	0
 7511 0117 03       		.uleb128 0x3
ARM GAS  C:\Users\adria\AppData\Local\Temp\cciNfgxb.s 			page 169


 7512 0118 08       		.uleb128 0x8
 7513 0119 3A       		.uleb128 0x3a
 7514 011a 0B       		.uleb128 0xb
 7515 011b 3B       		.uleb128 0x3b
 7516 011c 05       		.uleb128 0x5
 7517 011d 49       		.uleb128 0x49
 7518 011e 13       		.uleb128 0x13
 7519 011f 02       		.uleb128 0x2
 7520 0120 17       		.uleb128 0x17
 7521 0121 00       		.byte	0
 7522 0122 00       		.byte	0
 7523 0123 16       		.uleb128 0x16
 7524 0124 34       		.uleb128 0x34
 7525 0125 00       		.byte	0
 7526 0126 03       		.uleb128 0x3
 7527 0127 0E       		.uleb128 0xe
 7528 0128 3A       		.uleb128 0x3a
 7529 0129 0B       		.uleb128 0xb
 7530 012a 3B       		.uleb128 0x3b
 7531 012b 05       		.uleb128 0x5
 7532 012c 49       		.uleb128 0x49
 7533 012d 13       		.uleb128 0x13
 7534 012e 02       		.uleb128 0x2
 7535 012f 18       		.uleb128 0x18
 7536 0130 00       		.byte	0
 7537 0131 00       		.byte	0
 7538 0132 17       		.uleb128 0x17
 7539 0133 01       		.uleb128 0x1
 7540 0134 01       		.byte	0x1
 7541 0135 49       		.uleb128 0x49
 7542 0136 13       		.uleb128 0x13
 7543 0137 01       		.uleb128 0x1
 7544 0138 13       		.uleb128 0x13
 7545 0139 00       		.byte	0
 7546 013a 00       		.byte	0
 7547 013b 18       		.uleb128 0x18
 7548 013c 21       		.uleb128 0x21
 7549 013d 00       		.byte	0
 7550 013e 49       		.uleb128 0x49
 7551 013f 13       		.uleb128 0x13
 7552 0140 2F       		.uleb128 0x2f
 7553 0141 0B       		.uleb128 0xb
 7554 0142 00       		.byte	0
 7555 0143 00       		.byte	0
 7556 0144 19       		.uleb128 0x19
 7557 0145 34       		.uleb128 0x34
 7558 0146 00       		.byte	0
 7559 0147 03       		.uleb128 0x3
 7560 0148 08       		.uleb128 0x8
 7561 0149 3A       		.uleb128 0x3a
 7562 014a 0B       		.uleb128 0xb
 7563 014b 3B       		.uleb128 0x3b
 7564 014c 05       		.uleb128 0x5
 7565 014d 49       		.uleb128 0x49
 7566 014e 13       		.uleb128 0x13
 7567 014f 02       		.uleb128 0x2
 7568 0150 18       		.uleb128 0x18
ARM GAS  C:\Users\adria\AppData\Local\Temp\cciNfgxb.s 			page 170


 7569 0151 00       		.byte	0
 7570 0152 00       		.byte	0
 7571 0153 1A       		.uleb128 0x1a
 7572 0154 898201   		.uleb128 0x4109
 7573 0157 01       		.byte	0x1
 7574 0158 11       		.uleb128 0x11
 7575 0159 01       		.uleb128 0x1
 7576 015a 31       		.uleb128 0x31
 7577 015b 13       		.uleb128 0x13
 7578 015c 01       		.uleb128 0x1
 7579 015d 13       		.uleb128 0x13
 7580 015e 00       		.byte	0
 7581 015f 00       		.byte	0
 7582 0160 1B       		.uleb128 0x1b
 7583 0161 8A8201   		.uleb128 0x410a
 7584 0164 00       		.byte	0
 7585 0165 02       		.uleb128 0x2
 7586 0166 18       		.uleb128 0x18
 7587 0167 9142     		.uleb128 0x2111
 7588 0169 18       		.uleb128 0x18
 7589 016a 00       		.byte	0
 7590 016b 00       		.byte	0
 7591 016c 1C       		.uleb128 0x1c
 7592 016d 898201   		.uleb128 0x4109
 7593 0170 01       		.byte	0x1
 7594 0171 11       		.uleb128 0x11
 7595 0172 01       		.uleb128 0x1
 7596 0173 9342     		.uleb128 0x2113
 7597 0175 18       		.uleb128 0x18
 7598 0176 01       		.uleb128 0x1
 7599 0177 13       		.uleb128 0x13
 7600 0178 00       		.byte	0
 7601 0179 00       		.byte	0
 7602 017a 1D       		.uleb128 0x1d
 7603 017b 898201   		.uleb128 0x4109
 7604 017e 01       		.byte	0x1
 7605 017f 11       		.uleb128 0x11
 7606 0180 01       		.uleb128 0x1
 7607 0181 9342     		.uleb128 0x2113
 7608 0183 18       		.uleb128 0x18
 7609 0184 00       		.byte	0
 7610 0185 00       		.byte	0
 7611 0186 1E       		.uleb128 0x1e
 7612 0187 05       		.uleb128 0x5
 7613 0188 00       		.byte	0
 7614 0189 03       		.uleb128 0x3
 7615 018a 0E       		.uleb128 0xe
 7616 018b 3A       		.uleb128 0x3a
 7617 018c 0B       		.uleb128 0xb
 7618 018d 3B       		.uleb128 0x3b
 7619 018e 05       		.uleb128 0x5
 7620 018f 49       		.uleb128 0x49
 7621 0190 13       		.uleb128 0x13
 7622 0191 02       		.uleb128 0x2
 7623 0192 18       		.uleb128 0x18
 7624 0193 00       		.byte	0
 7625 0194 00       		.byte	0
ARM GAS  C:\Users\adria\AppData\Local\Temp\cciNfgxb.s 			page 171


 7626 0195 1F       		.uleb128 0x1f
 7627 0196 34       		.uleb128 0x34
 7628 0197 00       		.byte	0
 7629 0198 03       		.uleb128 0x3
 7630 0199 08       		.uleb128 0x8
 7631 019a 3A       		.uleb128 0x3a
 7632 019b 0B       		.uleb128 0xb
 7633 019c 3B       		.uleb128 0x3b
 7634 019d 05       		.uleb128 0x5
 7635 019e 49       		.uleb128 0x49
 7636 019f 13       		.uleb128 0x13
 7637 01a0 02       		.uleb128 0x2
 7638 01a1 17       		.uleb128 0x17
 7639 01a2 00       		.byte	0
 7640 01a3 00       		.byte	0
 7641 01a4 20       		.uleb128 0x20
 7642 01a5 2E       		.uleb128 0x2e
 7643 01a6 01       		.byte	0x1
 7644 01a7 03       		.uleb128 0x3
 7645 01a8 0E       		.uleb128 0xe
 7646 01a9 3A       		.uleb128 0x3a
 7647 01aa 0B       		.uleb128 0xb
 7648 01ab 3B       		.uleb128 0x3b
 7649 01ac 05       		.uleb128 0x5
 7650 01ad 27       		.uleb128 0x27
 7651 01ae 19       		.uleb128 0x19
 7652 01af 11       		.uleb128 0x11
 7653 01b0 01       		.uleb128 0x1
 7654 01b1 12       		.uleb128 0x12
 7655 01b2 06       		.uleb128 0x6
 7656 01b3 40       		.uleb128 0x40
 7657 01b4 18       		.uleb128 0x18
 7658 01b5 9742     		.uleb128 0x2117
 7659 01b7 19       		.uleb128 0x19
 7660 01b8 01       		.uleb128 0x1
 7661 01b9 13       		.uleb128 0x13
 7662 01ba 00       		.byte	0
 7663 01bb 00       		.byte	0
 7664 01bc 21       		.uleb128 0x21
 7665 01bd 898201   		.uleb128 0x4109
 7666 01c0 01       		.byte	0x1
 7667 01c1 11       		.uleb128 0x11
 7668 01c2 01       		.uleb128 0x1
 7669 01c3 31       		.uleb128 0x31
 7670 01c4 13       		.uleb128 0x13
 7671 01c5 00       		.byte	0
 7672 01c6 00       		.byte	0
 7673 01c7 22       		.uleb128 0x22
 7674 01c8 34       		.uleb128 0x34
 7675 01c9 00       		.byte	0
 7676 01ca 03       		.uleb128 0x3
 7677 01cb 0E       		.uleb128 0xe
 7678 01cc 3A       		.uleb128 0x3a
 7679 01cd 0B       		.uleb128 0xb
 7680 01ce 3B       		.uleb128 0x3b
 7681 01cf 05       		.uleb128 0x5
 7682 01d0 49       		.uleb128 0x49
ARM GAS  C:\Users\adria\AppData\Local\Temp\cciNfgxb.s 			page 172


 7683 01d1 13       		.uleb128 0x13
 7684 01d2 1C       		.uleb128 0x1c
 7685 01d3 0B       		.uleb128 0xb
 7686 01d4 00       		.byte	0
 7687 01d5 00       		.byte	0
 7688 01d6 23       		.uleb128 0x23
 7689 01d7 898201   		.uleb128 0x4109
 7690 01da 00       		.byte	0
 7691 01db 11       		.uleb128 0x11
 7692 01dc 01       		.uleb128 0x1
 7693 01dd 31       		.uleb128 0x31
 7694 01de 13       		.uleb128 0x13
 7695 01df 00       		.byte	0
 7696 01e0 00       		.byte	0
 7697 01e1 24       		.uleb128 0x24
 7698 01e2 2E       		.uleb128 0x2e
 7699 01e3 01       		.byte	0x1
 7700 01e4 3F       		.uleb128 0x3f
 7701 01e5 19       		.uleb128 0x19
 7702 01e6 03       		.uleb128 0x3
 7703 01e7 0E       		.uleb128 0xe
 7704 01e8 3A       		.uleb128 0x3a
 7705 01e9 0B       		.uleb128 0xb
 7706 01ea 3B       		.uleb128 0x3b
 7707 01eb 05       		.uleb128 0x5
 7708 01ec 27       		.uleb128 0x27
 7709 01ed 19       		.uleb128 0x19
 7710 01ee 49       		.uleb128 0x49
 7711 01ef 13       		.uleb128 0x13
 7712 01f0 11       		.uleb128 0x11
 7713 01f1 01       		.uleb128 0x1
 7714 01f2 12       		.uleb128 0x12
 7715 01f3 06       		.uleb128 0x6
 7716 01f4 40       		.uleb128 0x40
 7717 01f5 18       		.uleb128 0x18
 7718 01f6 9742     		.uleb128 0x2117
 7719 01f8 19       		.uleb128 0x19
 7720 01f9 01       		.uleb128 0x1
 7721 01fa 13       		.uleb128 0x13
 7722 01fb 00       		.byte	0
 7723 01fc 00       		.byte	0
 7724 01fd 25       		.uleb128 0x25
 7725 01fe 898201   		.uleb128 0x4109
 7726 0201 01       		.byte	0x1
 7727 0202 11       		.uleb128 0x11
 7728 0203 01       		.uleb128 0x1
 7729 0204 00       		.byte	0
 7730 0205 00       		.byte	0
 7731 0206 26       		.uleb128 0x26
 7732 0207 0B       		.uleb128 0xb
 7733 0208 01       		.byte	0x1
 7734 0209 11       		.uleb128 0x11
 7735 020a 01       		.uleb128 0x1
 7736 020b 12       		.uleb128 0x12
 7737 020c 06       		.uleb128 0x6
 7738 020d 01       		.uleb128 0x1
 7739 020e 13       		.uleb128 0x13
ARM GAS  C:\Users\adria\AppData\Local\Temp\cciNfgxb.s 			page 173


 7740 020f 00       		.byte	0
 7741 0210 00       		.byte	0
 7742 0211 27       		.uleb128 0x27
 7743 0212 898201   		.uleb128 0x4109
 7744 0215 01       		.byte	0x1
 7745 0216 11       		.uleb128 0x11
 7746 0217 01       		.uleb128 0x1
 7747 0218 01       		.uleb128 0x1
 7748 0219 13       		.uleb128 0x13
 7749 021a 00       		.byte	0
 7750 021b 00       		.byte	0
 7751 021c 28       		.uleb128 0x28
 7752 021d 2E       		.uleb128 0x2e
 7753 021e 01       		.byte	0x1
 7754 021f 3F       		.uleb128 0x3f
 7755 0220 19       		.uleb128 0x19
 7756 0221 03       		.uleb128 0x3
 7757 0222 0E       		.uleb128 0xe
 7758 0223 3A       		.uleb128 0x3a
 7759 0224 0B       		.uleb128 0xb
 7760 0225 3B       		.uleb128 0x3b
 7761 0226 05       		.uleb128 0x5
 7762 0227 27       		.uleb128 0x27
 7763 0228 19       		.uleb128 0x19
 7764 0229 11       		.uleb128 0x11
 7765 022a 01       		.uleb128 0x1
 7766 022b 12       		.uleb128 0x12
 7767 022c 06       		.uleb128 0x6
 7768 022d 40       		.uleb128 0x40
 7769 022e 18       		.uleb128 0x18
 7770 022f 9742     		.uleb128 0x2117
 7771 0231 19       		.uleb128 0x19
 7772 0232 01       		.uleb128 0x1
 7773 0233 13       		.uleb128 0x13
 7774 0234 00       		.byte	0
 7775 0235 00       		.byte	0
 7776 0236 29       		.uleb128 0x29
 7777 0237 2E       		.uleb128 0x2e
 7778 0238 01       		.byte	0x1
 7779 0239 3F       		.uleb128 0x3f
 7780 023a 19       		.uleb128 0x19
 7781 023b 03       		.uleb128 0x3
 7782 023c 0E       		.uleb128 0xe
 7783 023d 3A       		.uleb128 0x3a
 7784 023e 0B       		.uleb128 0xb
 7785 023f 3B       		.uleb128 0x3b
 7786 0240 05       		.uleb128 0x5
 7787 0241 27       		.uleb128 0x27
 7788 0242 19       		.uleb128 0x19
 7789 0243 49       		.uleb128 0x49
 7790 0244 13       		.uleb128 0x13
 7791 0245 11       		.uleb128 0x11
 7792 0246 01       		.uleb128 0x1
 7793 0247 12       		.uleb128 0x12
 7794 0248 06       		.uleb128 0x6
 7795 0249 40       		.uleb128 0x40
 7796 024a 18       		.uleb128 0x18
ARM GAS  C:\Users\adria\AppData\Local\Temp\cciNfgxb.s 			page 174


 7797 024b 9642     		.uleb128 0x2116
 7798 024d 19       		.uleb128 0x19
 7799 024e 01       		.uleb128 0x1
 7800 024f 13       		.uleb128 0x13
 7801 0250 00       		.byte	0
 7802 0251 00       		.byte	0
 7803 0252 2A       		.uleb128 0x2a
 7804 0253 34       		.uleb128 0x34
 7805 0254 00       		.byte	0
 7806 0255 03       		.uleb128 0x3
 7807 0256 0E       		.uleb128 0xe
 7808 0257 3A       		.uleb128 0x3a
 7809 0258 0B       		.uleb128 0xb
 7810 0259 3B       		.uleb128 0x3b
 7811 025a 05       		.uleb128 0x5
 7812 025b 49       		.uleb128 0x49
 7813 025c 13       		.uleb128 0x13
 7814 025d 1C       		.uleb128 0x1c
 7815 025e 0D       		.uleb128 0xd
 7816 025f 00       		.byte	0
 7817 0260 00       		.byte	0
 7818 0261 2B       		.uleb128 0x2b
 7819 0262 34       		.uleb128 0x34
 7820 0263 00       		.byte	0
 7821 0264 03       		.uleb128 0x3
 7822 0265 0E       		.uleb128 0xe
 7823 0266 3A       		.uleb128 0x3a
 7824 0267 0B       		.uleb128 0xb
 7825 0268 3B       		.uleb128 0x3b
 7826 0269 0B       		.uleb128 0xb
 7827 026a 49       		.uleb128 0x49
 7828 026b 13       		.uleb128 0x13
 7829 026c 3F       		.uleb128 0x3f
 7830 026d 19       		.uleb128 0x19
 7831 026e 02       		.uleb128 0x2
 7832 026f 18       		.uleb128 0x18
 7833 0270 00       		.byte	0
 7834 0271 00       		.byte	0
 7835 0272 2C       		.uleb128 0x2c
 7836 0273 34       		.uleb128 0x34
 7837 0274 00       		.byte	0
 7838 0275 03       		.uleb128 0x3
 7839 0276 0E       		.uleb128 0xe
 7840 0277 3A       		.uleb128 0x3a
 7841 0278 0B       		.uleb128 0xb
 7842 0279 3B       		.uleb128 0x3b
 7843 027a 05       		.uleb128 0x5
 7844 027b 49       		.uleb128 0x49
 7845 027c 13       		.uleb128 0x13
 7846 027d 3F       		.uleb128 0x3f
 7847 027e 19       		.uleb128 0x19
 7848 027f 3C       		.uleb128 0x3c
 7849 0280 19       		.uleb128 0x19
 7850 0281 00       		.byte	0
 7851 0282 00       		.byte	0
 7852 0283 2D       		.uleb128 0x2d
 7853 0284 35       		.uleb128 0x35
ARM GAS  C:\Users\adria\AppData\Local\Temp\cciNfgxb.s 			page 175


 7854 0285 00       		.byte	0
 7855 0286 49       		.uleb128 0x49
 7856 0287 13       		.uleb128 0x13
 7857 0288 00       		.byte	0
 7858 0289 00       		.byte	0
 7859 028a 2E       		.uleb128 0x2e
 7860 028b 2E       		.uleb128 0x2e
 7861 028c 00       		.byte	0
 7862 028d 3F       		.uleb128 0x3f
 7863 028e 19       		.uleb128 0x19
 7864 028f 3C       		.uleb128 0x3c
 7865 0290 19       		.uleb128 0x19
 7866 0291 6E       		.uleb128 0x6e
 7867 0292 0E       		.uleb128 0xe
 7868 0293 03       		.uleb128 0x3
 7869 0294 0E       		.uleb128 0xe
 7870 0295 3A       		.uleb128 0x3a
 7871 0296 0B       		.uleb128 0xb
 7872 0297 3B       		.uleb128 0x3b
 7873 0298 0B       		.uleb128 0xb
 7874 0299 00       		.byte	0
 7875 029a 00       		.byte	0
 7876 029b 2F       		.uleb128 0x2f
 7877 029c 2E       		.uleb128 0x2e
 7878 029d 00       		.byte	0
 7879 029e 3F       		.uleb128 0x3f
 7880 029f 19       		.uleb128 0x19
 7881 02a0 3C       		.uleb128 0x3c
 7882 02a1 19       		.uleb128 0x19
 7883 02a2 6E       		.uleb128 0x6e
 7884 02a3 0E       		.uleb128 0xe
 7885 02a4 03       		.uleb128 0x3
 7886 02a5 0E       		.uleb128 0xe
 7887 02a6 00       		.byte	0
 7888 02a7 00       		.byte	0
 7889 02a8 00       		.byte	0
 7890              		.section	.debug_loc,"",%progbits
 7891              	.Ldebug_loc0:
 7892              	.LLST0:
 7893 0000 00000000 		.4byte	.LVL0
 7894 0004 0A000000 		.4byte	.LVL1
 7895 0008 0100     		.2byte	0x1
 7896 000a 50       		.byte	0x50
 7897 000b 0A000000 		.4byte	.LVL1
 7898 000f 70000000 		.4byte	.LFE77
 7899 0013 0400     		.2byte	0x4
 7900 0015 F3       		.byte	0xf3
 7901 0016 01       		.uleb128 0x1
 7902 0017 50       		.byte	0x50
 7903 0018 9F       		.byte	0x9f
 7904 0019 00000000 		.4byte	0
 7905 001d 00000000 		.4byte	0
 7906              	.LLST1:
 7907 0021 0E000000 		.4byte	.LVL2
 7908 0025 2E000000 		.4byte	.LVL4
 7909 0029 0600     		.2byte	0x6
 7910 002b 52       		.byte	0x52
ARM GAS  C:\Users\adria\AppData\Local\Temp\cciNfgxb.s 			page 176


 7911 002c 93       		.byte	0x93
 7912 002d 04       		.uleb128 0x4
 7913 002e 53       		.byte	0x53
 7914 002f 93       		.byte	0x93
 7915 0030 04       		.uleb128 0x4
 7916 0031 00000000 		.4byte	0
 7917 0035 00000000 		.4byte	0
 7918              	.LLST2:
 7919 0039 42000000 		.4byte	.LVL6
 7920 003d 4E000000 		.4byte	.LVL7
 7921 0041 0600     		.2byte	0x6
 7922 0043 54       		.byte	0x54
 7923 0044 93       		.byte	0x93
 7924 0045 04       		.uleb128 0x4
 7925 0046 52       		.byte	0x52
 7926 0047 93       		.byte	0x93
 7927 0048 04       		.uleb128 0x4
 7928 0049 00000000 		.4byte	0
 7929 004d 00000000 		.4byte	0
 7930              	.LLST3:
 7931 0051 68000000 		.4byte	.LVL10
 7932 0055 6C000000 		.4byte	.LVL11
 7933 0059 0900     		.2byte	0x9
 7934 005b 70       		.byte	0x70
 7935 005c 00       		.sleb128 0
 7936 005d 09       		.byte	0x9
 7937 005e EC       		.byte	0xec
 7938 005f 24       		.byte	0x24
 7939 0060 09       		.byte	0x9
 7940 0061 F4       		.byte	0xf4
 7941 0062 26       		.byte	0x26
 7942 0063 9F       		.byte	0x9f
 7943 0064 6C000000 		.4byte	.LVL11
 7944 0068 70000000 		.4byte	.LFE77
 7945 006c 0F00     		.2byte	0xf
 7946 006e 71       		.byte	0x71
 7947 006f 30       		.sleb128 48
 7948 0070 06       		.byte	0x6
 7949 0071 35       		.byte	0x35
 7950 0072 1E       		.byte	0x1e
 7951 0073 23       		.byte	0x23
 7952 0074 8001     		.uleb128 0x80
 7953 0076 09       		.byte	0x9
 7954 0077 EC       		.byte	0xec
 7955 0078 24       		.byte	0x24
 7956 0079 09       		.byte	0x9
 7957 007a F4       		.byte	0xf4
 7958 007b 26       		.byte	0x26
 7959 007c 9F       		.byte	0x9f
 7960 007d 00000000 		.4byte	0
 7961 0081 00000000 		.4byte	0
 7962              	.LLST4:
 7963 0085 00000000 		.4byte	.LVL13
 7964 0089 5E000000 		.4byte	.LVL24
 7965 008d 0100     		.2byte	0x1
 7966 008f 50       		.byte	0x50
 7967 0090 5E000000 		.4byte	.LVL24
ARM GAS  C:\Users\adria\AppData\Local\Temp\cciNfgxb.s 			page 177


 7968 0094 C4000000 		.4byte	.LFE78
 7969 0098 0400     		.2byte	0x4
 7970 009a F3       		.byte	0xf3
 7971 009b 01       		.uleb128 0x1
 7972 009c 50       		.byte	0x50
 7973 009d 9F       		.byte	0x9f
 7974 009e 00000000 		.4byte	0
 7975 00a2 00000000 		.4byte	0
 7976              	.LLST5:
 7977 00a6 0A000000 		.4byte	.LVL14
 7978 00aa 46000000 		.4byte	.LVL18
 7979 00ae 0100     		.2byte	0x1
 7980 00b0 54       		.byte	0x54
 7981 00b1 46000000 		.4byte	.LVL18
 7982 00b5 4C000000 		.4byte	.LVL19
 7983 00b9 0A00     		.2byte	0xa
 7984 00bb 71       		.byte	0x71
 7985 00bc 30       		.sleb128 48
 7986 00bd 06       		.byte	0x6
 7987 00be 31       		.byte	0x31
 7988 00bf 26       		.byte	0x26
 7989 00c0 0A       		.byte	0xa
 7990 00c1 00FA     		.2byte	0xfa00
 7991 00c3 1C       		.byte	0x1c
 7992 00c4 9F       		.byte	0x9f
 7993 00c5 4C000000 		.4byte	.LVL19
 7994 00c9 52000000 		.4byte	.LVL21
 7995 00cd 0100     		.2byte	0x1
 7996 00cf 52       		.byte	0x52
 7997 00d0 52000000 		.4byte	.LVL21
 7998 00d4 58000000 		.4byte	.LVL22
 7999 00d8 0500     		.2byte	0x5
 8000 00da 72       		.byte	0x72
 8001 00db 80807E   		.sleb128 -32768
 8002 00de 9F       		.byte	0x9f
 8003 00df 58000000 		.4byte	.LVL22
 8004 00e3 5A000000 		.4byte	.LVL23
 8005 00e7 3800     		.2byte	0x38
 8006 00e9 71       		.byte	0x71
 8007 00ea 20       		.sleb128 32
 8008 00eb 94       		.byte	0x94
 8009 00ec 01       		.byte	0x1
 8010 00ed 48       		.byte	0x48
 8011 00ee 24       		.byte	0x24
 8012 00ef 48       		.byte	0x48
 8013 00f0 26       		.byte	0x26
 8014 00f1 35       		.byte	0x35
 8015 00f2 24       		.byte	0x24
 8016 00f3 71       		.byte	0x71
 8017 00f4 30       		.sleb128 48
 8018 00f5 06       		.byte	0x6
 8019 00f6 31       		.byte	0x31
 8020 00f7 26       		.byte	0x26
 8021 00f8 0A       		.byte	0xa
 8022 00f9 00FA     		.2byte	0xfa00
 8023 00fb 1C       		.byte	0x1c
 8024 00fc 32       		.byte	0x32
ARM GAS  C:\Users\adria\AppData\Local\Temp\cciNfgxb.s 			page 178


 8025 00fd 26       		.byte	0x26
 8026 00fe 71       		.byte	0x71
 8027 00ff 30       		.sleb128 48
 8028 0100 06       		.byte	0x6
 8029 0101 31       		.byte	0x31
 8030 0102 26       		.byte	0x26
 8031 0103 0A       		.byte	0xa
 8032 0104 00FA     		.2byte	0xfa00
 8033 0106 1C       		.byte	0x1c
 8034 0107 32       		.byte	0x32
 8035 0108 26       		.byte	0x26
 8036 0109 1E       		.byte	0x1e
 8037 010a 3D       		.byte	0x3d
 8038 010b 26       		.byte	0x26
 8039 010c 1E       		.byte	0x1e
 8040 010d 33       		.byte	0x33
 8041 010e 26       		.byte	0x26
 8042 010f 71       		.byte	0x71
 8043 0110 30       		.sleb128 48
 8044 0111 06       		.byte	0x6
 8045 0112 31       		.byte	0x31
 8046 0113 26       		.byte	0x26
 8047 0114 0A       		.byte	0xa
 8048 0115 00FA     		.2byte	0xfa00
 8049 0117 1C       		.byte	0x1c
 8050 0118 75       		.byte	0x75
 8051 0119 00       		.sleb128 0
 8052 011a 1E       		.byte	0x1e
 8053 011b 31       		.byte	0x31
 8054 011c 26       		.byte	0x26
 8055 011d 22       		.byte	0x22
 8056 011e 42       		.byte	0x42
 8057 011f 26       		.byte	0x26
 8058 0120 9F       		.byte	0x9f
 8059 0121 5A000000 		.4byte	.LVL23
 8060 0125 82000000 		.4byte	.LVL31
 8061 0129 0100     		.2byte	0x1
 8062 012b 52       		.byte	0x52
 8063 012c 82000000 		.4byte	.LVL31
 8064 0130 8E000000 		.4byte	.LVL32
 8065 0134 4700     		.2byte	0x47
 8066 0136 71       		.byte	0x71
 8067 0137 20       		.sleb128 32
 8068 0138 94       		.byte	0x94
 8069 0139 01       		.byte	0x1
 8070 013a 48       		.byte	0x48
 8071 013b 24       		.byte	0x24
 8072 013c 48       		.byte	0x48
 8073 013d 26       		.byte	0x26
 8074 013e 35       		.byte	0x35
 8075 013f 24       		.byte	0x24
 8076 0140 71       		.byte	0x71
 8077 0141 30       		.sleb128 48
 8078 0142 06       		.byte	0x6
 8079 0143 31       		.byte	0x31
 8080 0144 26       		.byte	0x26
 8081 0145 0A       		.byte	0xa
ARM GAS  C:\Users\adria\AppData\Local\Temp\cciNfgxb.s 			page 179


 8082 0146 00FA     		.2byte	0xfa00
 8083 0148 1C       		.byte	0x1c
 8084 0149 32       		.byte	0x32
 8085 014a 26       		.byte	0x26
 8086 014b 71       		.byte	0x71
 8087 014c 30       		.sleb128 48
 8088 014d 06       		.byte	0x6
 8089 014e 31       		.byte	0x31
 8090 014f 26       		.byte	0x26
 8091 0150 0A       		.byte	0xa
 8092 0151 00FA     		.2byte	0xfa00
 8093 0153 1C       		.byte	0x1c
 8094 0154 32       		.byte	0x32
 8095 0155 26       		.byte	0x26
 8096 0156 1E       		.byte	0x1e
 8097 0157 3D       		.byte	0x3d
 8098 0158 26       		.byte	0x26
 8099 0159 1E       		.byte	0x1e
 8100 015a 33       		.byte	0x33
 8101 015b 26       		.byte	0x26
 8102 015c 71       		.byte	0x71
 8103 015d 30       		.sleb128 48
 8104 015e 06       		.byte	0x6
 8105 015f 31       		.byte	0x31
 8106 0160 26       		.byte	0x26
 8107 0161 0A       		.byte	0xa
 8108 0162 00FA     		.2byte	0xfa00
 8109 0164 1C       		.byte	0x1c
 8110 0165 75       		.byte	0x75
 8111 0166 00       		.sleb128 0
 8112 0167 1E       		.byte	0x1e
 8113 0168 31       		.byte	0x31
 8114 0169 26       		.byte	0x26
 8115 016a 22       		.byte	0x22
 8116 016b 42       		.byte	0x42
 8117 016c 26       		.byte	0x26
 8118 016d 23       		.byte	0x23
 8119 016e 808002   		.uleb128 0x8000
 8120 0171 71       		.byte	0x71
 8121 0172 1C       		.sleb128 28
 8122 0173 94       		.byte	0x94
 8123 0174 02       		.byte	0x2
 8124 0175 0A       		.byte	0xa
 8125 0176 FFFF     		.2byte	0xffff
 8126 0178 1A       		.byte	0x1a
 8127 0179 1E       		.byte	0x1e
 8128 017a 3F       		.byte	0x3f
 8129 017b 26       		.byte	0x26
 8130 017c 9F       		.byte	0x9f
 8131 017d 8E000000 		.4byte	.LVL32
 8132 0181 C2000000 		.4byte	.LVL39
 8133 0185 0500     		.2byte	0x5
 8134 0187 75       		.byte	0x75
 8135 0188 00       		.sleb128 0
 8136 0189 3C       		.byte	0x3c
 8137 018a 26       		.byte	0x26
 8138 018b 9F       		.byte	0x9f
ARM GAS  C:\Users\adria\AppData\Local\Temp\cciNfgxb.s 			page 180


 8139 018c C2000000 		.4byte	.LVL39
 8140 0190 C4000000 		.4byte	.LFE78
 8141 0194 1700     		.2byte	0x17
 8142 0196 73       		.byte	0x73
 8143 0197 00       		.sleb128 0
 8144 0198 33       		.byte	0x33
 8145 0199 26       		.byte	0x26
 8146 019a 73       		.byte	0x73
 8147 019b 00       		.sleb128 0
 8148 019c 33       		.byte	0x33
 8149 019d 26       		.byte	0x26
 8150 019e 1E       		.byte	0x1e
 8151 019f 3D       		.byte	0x3d
 8152 01a0 26       		.byte	0x26
 8153 01a1 71       		.byte	0x71
 8154 01a2 2A       		.sleb128 42
 8155 01a3 94       		.byte	0x94
 8156 01a4 02       		.byte	0x2
 8157 01a5 40       		.byte	0x40
 8158 01a6 24       		.byte	0x24
 8159 01a7 40       		.byte	0x40
 8160 01a8 26       		.byte	0x26
 8161 01a9 1E       		.byte	0x1e
 8162 01aa 3C       		.byte	0x3c
 8163 01ab 26       		.byte	0x26
 8164 01ac 9F       		.byte	0x9f
 8165 01ad 00000000 		.4byte	0
 8166 01b1 00000000 		.4byte	0
 8167              	.LLST6:
 8168 01b5 1A000000 		.4byte	.LVL15
 8169 01b9 28000000 		.4byte	.LVL16
 8170 01bd 0500     		.2byte	0x5
 8171 01bf 72       		.byte	0x72
 8172 01c0 00       		.sleb128 0
 8173 01c1 32       		.byte	0x32
 8174 01c2 26       		.byte	0x26
 8175 01c3 9F       		.byte	0x9f
 8176 01c4 28000000 		.4byte	.LVL16
 8177 01c8 62000000 		.4byte	.LVL25
 8178 01cc 0100     		.2byte	0x1
 8179 01ce 53       		.byte	0x53
 8180 01cf 62000000 		.4byte	.LVL25
 8181 01d3 9A000000 		.4byte	.LVL33
 8182 01d7 4700     		.2byte	0x47
 8183 01d9 71       		.byte	0x71
 8184 01da 30       		.sleb128 48
 8185 01db 06       		.byte	0x6
 8186 01dc 31       		.byte	0x31
 8187 01dd 26       		.byte	0x26
 8188 01de 0A       		.byte	0xa
 8189 01df 00FA     		.2byte	0xfa00
 8190 01e1 1C       		.byte	0x1c
 8191 01e2 32       		.byte	0x32
 8192 01e3 26       		.byte	0x26
 8193 01e4 71       		.byte	0x71
 8194 01e5 30       		.sleb128 48
 8195 01e6 06       		.byte	0x6
ARM GAS  C:\Users\adria\AppData\Local\Temp\cciNfgxb.s 			page 181


 8196 01e7 31       		.byte	0x31
 8197 01e8 26       		.byte	0x26
 8198 01e9 0A       		.byte	0xa
 8199 01ea 00FA     		.2byte	0xfa00
 8200 01ec 1C       		.byte	0x1c
 8201 01ed 32       		.byte	0x32
 8202 01ee 26       		.byte	0x26
 8203 01ef 1E       		.byte	0x1e
 8204 01f0 3B       		.byte	0x3b
 8205 01f1 26       		.byte	0x26
 8206 01f2 71       		.byte	0x71
 8207 01f3 26       		.sleb128 38
 8208 01f4 94       		.byte	0x94
 8209 01f5 01       		.byte	0x1
 8210 01f6 48       		.byte	0x48
 8211 01f7 24       		.byte	0x24
 8212 01f8 48       		.byte	0x48
 8213 01f9 26       		.byte	0x26
 8214 01fa 1E       		.byte	0x1e
 8215 01fb 32       		.byte	0x32
 8216 01fc 26       		.byte	0x26
 8217 01fd 71       		.byte	0x71
 8218 01fe 30       		.sleb128 48
 8219 01ff 06       		.byte	0x6
 8220 0200 31       		.byte	0x31
 8221 0201 26       		.byte	0x26
 8222 0202 0A       		.byte	0xa
 8223 0203 00FA     		.2byte	0xfa00
 8224 0205 1C       		.byte	0x1c
 8225 0206 71       		.byte	0x71
 8226 0207 24       		.sleb128 36
 8227 0208 94       		.byte	0x94
 8228 0209 02       		.byte	0x2
 8229 020a 40       		.byte	0x40
 8230 020b 24       		.byte	0x24
 8231 020c 40       		.byte	0x40
 8232 020d 26       		.byte	0x26
 8233 020e 1E       		.byte	0x1e
 8234 020f 31       		.byte	0x31
 8235 0210 24       		.byte	0x24
 8236 0211 22       		.byte	0x22
 8237 0212 32       		.byte	0x32
 8238 0213 26       		.byte	0x26
 8239 0214 71       		.byte	0x71
 8240 0215 22       		.sleb128 34
 8241 0216 94       		.byte	0x94
 8242 0217 02       		.byte	0x2
 8243 0218 40       		.byte	0x40
 8244 0219 24       		.byte	0x24
 8245 021a 40       		.byte	0x40
 8246 021b 26       		.byte	0x26
 8247 021c 40       		.byte	0x40
 8248 021d 24       		.byte	0x24
 8249 021e 22       		.byte	0x22
 8250 021f 9F       		.byte	0x9f
 8251 0220 9A000000 		.4byte	.LVL33
 8252 0224 B0000000 		.4byte	.LVL35
ARM GAS  C:\Users\adria\AppData\Local\Temp\cciNfgxb.s 			page 182


 8253 0228 0100     		.2byte	0x1
 8254 022a 52       		.byte	0x52
 8255 022b B0000000 		.4byte	.LVL35
 8256 022f C4000000 		.4byte	.LFE78
 8257 0233 1000     		.2byte	0x10
 8258 0235 73       		.byte	0x73
 8259 0236 00       		.sleb128 0
 8260 0237 32       		.byte	0x32
 8261 0238 26       		.byte	0x26
 8262 0239 71       		.byte	0x71
 8263 023a 28       		.sleb128 40
 8264 023b 94       		.byte	0x94
 8265 023c 02       		.byte	0x2
 8266 023d 40       		.byte	0x40
 8267 023e 24       		.byte	0x24
 8268 023f 40       		.byte	0x40
 8269 0240 26       		.byte	0x26
 8270 0241 1E       		.byte	0x1e
 8271 0242 3D       		.byte	0x3d
 8272 0243 26       		.byte	0x26
 8273 0244 9F       		.byte	0x9f
 8274 0245 00000000 		.4byte	0
 8275 0249 00000000 		.4byte	0
 8276              	.LLST7:
 8277 024d AC000000 		.4byte	.LVL34
 8278 0251 B4000000 		.4byte	.LVL36
 8279 0255 0500     		.2byte	0x5
 8280 0257 70       		.byte	0x70
 8281 0258 00       		.sleb128 0
 8282 0259 41       		.byte	0x41
 8283 025a 26       		.byte	0x26
 8284 025b 9F       		.byte	0x9f
 8285 025c B4000000 		.4byte	.LVL36
 8286 0260 C2000000 		.4byte	.LVL39
 8287 0264 1400     		.2byte	0x14
 8288 0266 73       		.byte	0x73
 8289 0267 00       		.sleb128 0
 8290 0268 38       		.byte	0x38
 8291 0269 26       		.byte	0x26
 8292 026a 73       		.byte	0x73
 8293 026b 00       		.sleb128 0
 8294 026c 38       		.byte	0x38
 8295 026d 26       		.byte	0x26
 8296 026e 1E       		.byte	0x1e
 8297 026f 73       		.byte	0x73
 8298 0270 00       		.sleb128 0
 8299 0271 38       		.byte	0x38
 8300 0272 26       		.byte	0x26
 8301 0273 1E       		.byte	0x1e
 8302 0274 74       		.byte	0x74
 8303 0275 00       		.sleb128 0
 8304 0276 1E       		.byte	0x1e
 8305 0277 41       		.byte	0x41
 8306 0278 26       		.byte	0x26
 8307 0279 9F       		.byte	0x9f
 8308 027a C2000000 		.4byte	.LVL39
 8309 027e C4000000 		.4byte	.LFE78
ARM GAS  C:\Users\adria\AppData\Local\Temp\cciNfgxb.s 			page 183


 8310 0282 1900     		.2byte	0x19
 8311 0284 73       		.byte	0x73
 8312 0285 00       		.sleb128 0
 8313 0286 38       		.byte	0x38
 8314 0287 26       		.byte	0x26
 8315 0288 73       		.byte	0x73
 8316 0289 00       		.sleb128 0
 8317 028a 38       		.byte	0x38
 8318 028b 26       		.byte	0x26
 8319 028c 1E       		.byte	0x1e
 8320 028d 73       		.byte	0x73
 8321 028e 00       		.sleb128 0
 8322 028f 38       		.byte	0x38
 8323 0290 26       		.byte	0x26
 8324 0291 1E       		.byte	0x1e
 8325 0292 71       		.byte	0x71
 8326 0293 2C       		.sleb128 44
 8327 0294 94       		.byte	0x94
 8328 0295 01       		.byte	0x1
 8329 0296 08       		.byte	0x8
 8330 0297 FF       		.byte	0xff
 8331 0298 1A       		.byte	0x1a
 8332 0299 1E       		.byte	0x1e
 8333 029a 41       		.byte	0x41
 8334 029b 26       		.byte	0x26
 8335 029c 9F       		.byte	0x9f
 8336 029d 00000000 		.4byte	0
 8337 02a1 00000000 		.4byte	0
 8338              	.LLST8:
 8339 02a5 5E000000 		.4byte	.LVL24
 8340 02a9 76000000 		.4byte	.LVL27
 8341 02ad 0100     		.2byte	0x1
 8342 02af 50       		.byte	0x50
 8343 02b0 76000000 		.4byte	.LVL27
 8344 02b4 78000000 		.4byte	.LVL28
 8345 02b8 0100     		.2byte	0x1
 8346 02ba 53       		.byte	0x53
 8347 02bb 78000000 		.4byte	.LVL28
 8348 02bf 7A000000 		.4byte	.LVL29
 8349 02c3 0100     		.2byte	0x1
 8350 02c5 50       		.byte	0x50
 8351 02c6 7A000000 		.4byte	.LVL29
 8352 02ca 7E000000 		.4byte	.LVL30
 8353 02ce 0600     		.2byte	0x6
 8354 02d0 74       		.byte	0x74
 8355 02d1 00       		.sleb128 0
 8356 02d2 73       		.byte	0x73
 8357 02d3 00       		.sleb128 0
 8358 02d4 1E       		.byte	0x1e
 8359 02d5 9F       		.byte	0x9f
 8360 02d6 7E000000 		.4byte	.LVL30
 8361 02da BC000000 		.4byte	.LVL37
 8362 02de 0100     		.2byte	0x1
 8363 02e0 53       		.byte	0x53
 8364 02e1 BC000000 		.4byte	.LVL37
 8365 02e5 C0000000 		.4byte	.LVL38
 8366 02e9 0800     		.2byte	0x8
ARM GAS  C:\Users\adria\AppData\Local\Temp\cciNfgxb.s 			page 184


 8367 02eb 70       		.byte	0x70
 8368 02ec 00       		.sleb128 0
 8369 02ed 34       		.byte	0x34
 8370 02ee 26       		.byte	0x26
 8371 02ef 73       		.byte	0x73
 8372 02f0 00       		.sleb128 0
 8373 02f1 22       		.byte	0x22
 8374 02f2 9F       		.byte	0x9f
 8375 02f3 C0000000 		.4byte	.LVL38
 8376 02f7 C4000000 		.4byte	.LFE78
 8377 02fb 0100     		.2byte	0x1
 8378 02fd 50       		.byte	0x50
 8379 02fe 00000000 		.4byte	0
 8380 0302 00000000 		.4byte	0
 8381              	.LLST9:
 8382 0306 00000000 		.4byte	.LVL40
 8383 030a 12000000 		.4byte	.LVL42
 8384 030e 0100     		.2byte	0x1
 8385 0310 50       		.byte	0x50
 8386 0311 12000000 		.4byte	.LVL42
 8387 0315 C4000000 		.4byte	.LFE79
 8388 0319 0400     		.2byte	0x4
 8389 031b F3       		.byte	0xf3
 8390 031c 01       		.uleb128 0x1
 8391 031d 50       		.byte	0x50
 8392 031e 9F       		.byte	0x9f
 8393 031f 00000000 		.4byte	0
 8394 0323 00000000 		.4byte	0
 8395              	.LLST10:
 8396 0327 2A000000 		.4byte	.LVL43
 8397 032b 70000000 		.4byte	.LVL45
 8398 032f 0100     		.2byte	0x1
 8399 0331 50       		.byte	0x50
 8400 0332 00000000 		.4byte	0
 8401 0336 00000000 		.4byte	0
 8402              	.LLST11:
 8403 033a 6C000000 		.4byte	.LVL44
 8404 033e 76000000 		.4byte	.LVL47
 8405 0342 0100     		.2byte	0x1
 8406 0344 53       		.byte	0x53
 8407 0345 76000000 		.4byte	.LVL47
 8408 0349 7A000000 		.4byte	.LVL48
 8409 034d 4400     		.2byte	0x44
 8410 034f 7E       		.byte	0x7e
 8411 0350 00       		.sleb128 0
 8412 0351 35       		.byte	0x35
 8413 0352 26       		.byte	0x26
 8414 0353 71       		.byte	0x71
 8415 0354 0E       		.sleb128 14
 8416 0355 94       		.byte	0x94
 8417 0356 01       		.byte	0x1
 8418 0357 48       		.byte	0x48
 8419 0358 24       		.byte	0x24
 8420 0359 48       		.byte	0x48
 8421 035a 26       		.byte	0x26
 8422 035b 74       		.byte	0x74
 8423 035c 00       		.sleb128 0
ARM GAS  C:\Users\adria\AppData\Local\Temp\cciNfgxb.s 			page 185


 8424 035d 1E       		.byte	0x1e
 8425 035e F7       		.byte	0xf7
 8426 035f 33       		.uleb128 0x33
 8427 0360 F7       		.byte	0xf7
 8428 0361 25       		.uleb128 0x25
 8429 0362 75       		.byte	0x75
 8430 0363 00       		.sleb128 0
 8431 0364 F7       		.byte	0xf7
 8432 0365 33       		.uleb128 0x33
 8433 0366 F7       		.byte	0xf7
 8434 0367 25       		.uleb128 0x25
 8435 0368 1E       		.byte	0x1e
 8436 0369 08       		.byte	0x8
 8437 036a 20       		.byte	0x20
 8438 036b F7       		.byte	0xf7
 8439 036c 25       		.uleb128 0x25
 8440 036d 25       		.byte	0x25
 8441 036e F7       		.byte	0xf7
 8442 036f 2C       		.uleb128 0x2c
 8443 0370 35       		.byte	0x35
 8444 0371 26       		.byte	0x26
 8445 0372 71       		.byte	0x71
 8446 0373 0E       		.sleb128 14
 8447 0374 94       		.byte	0x94
 8448 0375 01       		.byte	0x1
 8449 0376 48       		.byte	0x48
 8450 0377 24       		.byte	0x24
 8451 0378 48       		.byte	0x48
 8452 0379 26       		.byte	0x26
 8453 037a 74       		.byte	0x74
 8454 037b 00       		.sleb128 0
 8455 037c 1E       		.byte	0x1e
 8456 037d 4F       		.byte	0x4f
 8457 037e 26       		.byte	0x26
 8458 037f 1C       		.byte	0x1c
 8459 0380 74       		.byte	0x74
 8460 0381 00       		.sleb128 0
 8461 0382 1E       		.byte	0x1e
 8462 0383 4F       		.byte	0x4f
 8463 0384 26       		.byte	0x26
 8464 0385 1C       		.byte	0x1c
 8465 0386 77       		.byte	0x77
 8466 0387 00       		.sleb128 0
 8467 0388 22       		.byte	0x22
 8468 0389 23       		.byte	0x23
 8469 038a 808001   		.uleb128 0x4000
 8470 038d 76       		.byte	0x76
 8471 038e 00       		.sleb128 0
 8472 038f 1E       		.byte	0x1e
 8473 0390 3A       		.byte	0x3a
 8474 0391 26       		.byte	0x26
 8475 0392 9F       		.byte	0x9f
 8476 0393 7A000000 		.4byte	.LVL48
 8477 0397 7E000000 		.4byte	.LVL49
 8478 039b 5C00     		.2byte	0x5c
 8479 039d 7E       		.byte	0x7e
 8480 039e 00       		.sleb128 0
ARM GAS  C:\Users\adria\AppData\Local\Temp\cciNfgxb.s 			page 186


 8481 039f 35       		.byte	0x35
 8482 03a0 26       		.byte	0x26
 8483 03a1 71       		.byte	0x71
 8484 03a2 30       		.sleb128 48
 8485 03a3 06       		.byte	0x6
 8486 03a4 35       		.byte	0x35
 8487 03a5 1E       		.byte	0x1e
 8488 03a6 23       		.byte	0x23
 8489 03a7 8001     		.uleb128 0x80
 8490 03a9 38       		.byte	0x38
 8491 03aa 26       		.byte	0x26
 8492 03ab F7       		.byte	0xf7
 8493 03ac 33       		.uleb128 0x33
 8494 03ad F7       		.byte	0xf7
 8495 03ae 25       		.uleb128 0x25
 8496 03af 71       		.byte	0x71
 8497 03b0 0E       		.sleb128 14
 8498 03b1 94       		.byte	0x94
 8499 03b2 01       		.byte	0x1
 8500 03b3 F7       		.byte	0xf7
 8501 03b4 3A       		.uleb128 0x3a
 8502 03b5 F7       		.byte	0xf7
 8503 03b6 25       		.uleb128 0x25
 8504 03b7 1E       		.byte	0x1e
 8505 03b8 75       		.byte	0x75
 8506 03b9 00       		.sleb128 0
 8507 03ba F7       		.byte	0xf7
 8508 03bb 33       		.uleb128 0x33
 8509 03bc F7       		.byte	0xf7
 8510 03bd 25       		.uleb128 0x25
 8511 03be 1E       		.byte	0x1e
 8512 03bf 08       		.byte	0x8
 8513 03c0 20       		.byte	0x20
 8514 03c1 F7       		.byte	0xf7
 8515 03c2 25       		.uleb128 0x25
 8516 03c3 25       		.byte	0x25
 8517 03c4 F7       		.byte	0xf7
 8518 03c5 2C       		.uleb128 0x2c
 8519 03c6 35       		.byte	0x35
 8520 03c7 26       		.byte	0x26
 8521 03c8 71       		.byte	0x71
 8522 03c9 30       		.sleb128 48
 8523 03ca 06       		.byte	0x6
 8524 03cb 35       		.byte	0x35
 8525 03cc 1E       		.byte	0x1e
 8526 03cd 23       		.byte	0x23
 8527 03ce 8001     		.uleb128 0x80
 8528 03d0 38       		.byte	0x38
 8529 03d1 26       		.byte	0x26
 8530 03d2 71       		.byte	0x71
 8531 03d3 0E       		.sleb128 14
 8532 03d4 94       		.byte	0x94
 8533 03d5 01       		.byte	0x1
 8534 03d6 48       		.byte	0x48
 8535 03d7 24       		.byte	0x24
 8536 03d8 48       		.byte	0x48
 8537 03d9 26       		.byte	0x26
ARM GAS  C:\Users\adria\AppData\Local\Temp\cciNfgxb.s 			page 187


 8538 03da 1E       		.byte	0x1e
 8539 03db 4F       		.byte	0x4f
 8540 03dc 26       		.byte	0x26
 8541 03dd 1C       		.byte	0x1c
 8542 03de 71       		.byte	0x71
 8543 03df 30       		.sleb128 48
 8544 03e0 06       		.byte	0x6
 8545 03e1 35       		.byte	0x35
 8546 03e2 1E       		.byte	0x1e
 8547 03e3 23       		.byte	0x23
 8548 03e4 8001     		.uleb128 0x80
 8549 03e6 38       		.byte	0x38
 8550 03e7 26       		.byte	0x26
 8551 03e8 1E       		.byte	0x1e
 8552 03e9 4F       		.byte	0x4f
 8553 03ea 26       		.byte	0x26
 8554 03eb 1C       		.byte	0x1c
 8555 03ec 77       		.byte	0x77
 8556 03ed 00       		.sleb128 0
 8557 03ee 22       		.byte	0x22
 8558 03ef 23       		.byte	0x23
 8559 03f0 808001   		.uleb128 0x4000
 8560 03f3 76       		.byte	0x76
 8561 03f4 00       		.sleb128 0
 8562 03f5 1E       		.byte	0x1e
 8563 03f6 3A       		.byte	0x3a
 8564 03f7 26       		.byte	0x26
 8565 03f8 9F       		.byte	0x9f
 8566 03f9 7E000000 		.4byte	.LVL49
 8567 03fd BA000000 		.4byte	.LVL60
 8568 0401 5D00     		.2byte	0x5d
 8569 0403 7E       		.byte	0x7e
 8570 0404 00       		.sleb128 0
 8571 0405 35       		.byte	0x35
 8572 0406 26       		.byte	0x26
 8573 0407 71       		.byte	0x71
 8574 0408 30       		.sleb128 48
 8575 0409 06       		.byte	0x6
 8576 040a 35       		.byte	0x35
 8577 040b 1E       		.byte	0x1e
 8578 040c 23       		.byte	0x23
 8579 040d 8001     		.uleb128 0x80
 8580 040f 38       		.byte	0x38
 8581 0410 26       		.byte	0x26
 8582 0411 F7       		.byte	0xf7
 8583 0412 33       		.uleb128 0x33
 8584 0413 F7       		.byte	0xf7
 8585 0414 25       		.uleb128 0x25
 8586 0415 71       		.byte	0x71
 8587 0416 0E       		.sleb128 14
 8588 0417 94       		.byte	0x94
 8589 0418 01       		.byte	0x1
 8590 0419 F7       		.byte	0xf7
 8591 041a 3A       		.uleb128 0x3a
 8592 041b F7       		.byte	0xf7
 8593 041c 25       		.uleb128 0x25
 8594 041d 1E       		.byte	0x1e
ARM GAS  C:\Users\adria\AppData\Local\Temp\cciNfgxb.s 			page 188


 8595 041e 0C       		.byte	0xc
 8596 041f 1F85EB51 		.4byte	0x51eb851f
 8597 0423 F7       		.byte	0xf7
 8598 0424 25       		.uleb128 0x25
 8599 0425 1E       		.byte	0x1e
 8600 0426 08       		.byte	0x8
 8601 0427 20       		.byte	0x20
 8602 0428 F7       		.byte	0xf7
 8603 0429 25       		.uleb128 0x25
 8604 042a 25       		.byte	0x25
 8605 042b F7       		.byte	0xf7
 8606 042c 2C       		.uleb128 0x2c
 8607 042d 35       		.byte	0x35
 8608 042e 26       		.byte	0x26
 8609 042f 71       		.byte	0x71
 8610 0430 30       		.sleb128 48
 8611 0431 06       		.byte	0x6
 8612 0432 35       		.byte	0x35
 8613 0433 1E       		.byte	0x1e
 8614 0434 23       		.byte	0x23
 8615 0435 8001     		.uleb128 0x80
 8616 0437 38       		.byte	0x38
 8617 0438 26       		.byte	0x26
 8618 0439 71       		.byte	0x71
 8619 043a 0E       		.sleb128 14
 8620 043b 94       		.byte	0x94
 8621 043c 01       		.byte	0x1
 8622 043d 48       		.byte	0x48
 8623 043e 24       		.byte	0x24
 8624 043f 48       		.byte	0x48
 8625 0440 26       		.byte	0x26
 8626 0441 1E       		.byte	0x1e
 8627 0442 4F       		.byte	0x4f
 8628 0443 26       		.byte	0x26
 8629 0444 1C       		.byte	0x1c
 8630 0445 71       		.byte	0x71
 8631 0446 30       		.sleb128 48
 8632 0447 06       		.byte	0x6
 8633 0448 35       		.byte	0x35
 8634 0449 1E       		.byte	0x1e
 8635 044a 23       		.byte	0x23
 8636 044b 8001     		.uleb128 0x80
 8637 044d 38       		.byte	0x38
 8638 044e 26       		.byte	0x26
 8639 044f 1E       		.byte	0x1e
 8640 0450 4F       		.byte	0x4f
 8641 0451 26       		.byte	0x26
 8642 0452 1C       		.byte	0x1c
 8643 0453 77       		.byte	0x77
 8644 0454 00       		.sleb128 0
 8645 0455 22       		.byte	0x22
 8646 0456 23       		.byte	0x23
 8647 0457 808001   		.uleb128 0x4000
 8648 045a 76       		.byte	0x76
 8649 045b 00       		.sleb128 0
 8650 045c 1E       		.byte	0x1e
 8651 045d 3A       		.byte	0x3a
ARM GAS  C:\Users\adria\AppData\Local\Temp\cciNfgxb.s 			page 189


 8652 045e 26       		.byte	0x26
 8653 045f 9F       		.byte	0x9f
 8654 0460 BA000000 		.4byte	.LVL60
 8655 0464 C4000000 		.4byte	.LFE79
 8656 0468 9F00     		.2byte	0x9f
 8657 046a 71       		.byte	0x71
 8658 046b 30       		.sleb128 48
 8659 046c 06       		.byte	0x6
 8660 046d 35       		.byte	0x35
 8661 046e 1E       		.byte	0x1e
 8662 046f 23       		.byte	0x23
 8663 0470 8001     		.uleb128 0x80
 8664 0472 38       		.byte	0x38
 8665 0473 26       		.byte	0x26
 8666 0474 F7       		.byte	0xf7
 8667 0475 33       		.uleb128 0x33
 8668 0476 F7       		.byte	0xf7
 8669 0477 25       		.uleb128 0x25
 8670 0478 71       		.byte	0x71
 8671 0479 0D       		.sleb128 13
 8672 047a 94       		.byte	0x94
 8673 047b 01       		.byte	0x1
 8674 047c F7       		.byte	0xf7
 8675 047d 3A       		.uleb128 0x3a
 8676 047e F7       		.byte	0xf7
 8677 047f 25       		.uleb128 0x25
 8678 0480 1E       		.byte	0x1e
 8679 0481 0C       		.byte	0xc
 8680 0482 1F85EB51 		.4byte	0x51eb851f
 8681 0486 F7       		.byte	0xf7
 8682 0487 25       		.uleb128 0x25
 8683 0488 1E       		.byte	0x1e
 8684 0489 08       		.byte	0x8
 8685 048a 20       		.byte	0x20
 8686 048b F7       		.byte	0xf7
 8687 048c 25       		.uleb128 0x25
 8688 048d 25       		.byte	0x25
 8689 048e F7       		.byte	0xf7
 8690 048f 2C       		.uleb128 0x2c
 8691 0490 35       		.byte	0x35
 8692 0491 26       		.byte	0x26
 8693 0492 71       		.byte	0x71
 8694 0493 30       		.sleb128 48
 8695 0494 06       		.byte	0x6
 8696 0495 35       		.byte	0x35
 8697 0496 1E       		.byte	0x1e
 8698 0497 23       		.byte	0x23
 8699 0498 8001     		.uleb128 0x80
 8700 049a 38       		.byte	0x38
 8701 049b 26       		.byte	0x26
 8702 049c F7       		.byte	0xf7
 8703 049d 33       		.uleb128 0x33
 8704 049e F7       		.byte	0xf7
 8705 049f 25       		.uleb128 0x25
 8706 04a0 71       		.byte	0x71
 8707 04a1 0E       		.sleb128 14
 8708 04a2 94       		.byte	0x94
ARM GAS  C:\Users\adria\AppData\Local\Temp\cciNfgxb.s 			page 190


 8709 04a3 01       		.byte	0x1
 8710 04a4 F7       		.byte	0xf7
 8711 04a5 3A       		.uleb128 0x3a
 8712 04a6 F7       		.byte	0xf7
 8713 04a7 25       		.uleb128 0x25
 8714 04a8 1E       		.byte	0x1e
 8715 04a9 0C       		.byte	0xc
 8716 04aa 1F85EB51 		.4byte	0x51eb851f
 8717 04ae F7       		.byte	0xf7
 8718 04af 25       		.uleb128 0x25
 8719 04b0 1E       		.byte	0x1e
 8720 04b1 08       		.byte	0x8
 8721 04b2 20       		.byte	0x20
 8722 04b3 F7       		.byte	0xf7
 8723 04b4 25       		.uleb128 0x25
 8724 04b5 25       		.byte	0x25
 8725 04b6 F7       		.byte	0xf7
 8726 04b7 2C       		.uleb128 0x2c
 8727 04b8 35       		.byte	0x35
 8728 04b9 26       		.byte	0x26
 8729 04ba 71       		.byte	0x71
 8730 04bb 30       		.sleb128 48
 8731 04bc 06       		.byte	0x6
 8732 04bd 35       		.byte	0x35
 8733 04be 1E       		.byte	0x1e
 8734 04bf 23       		.byte	0x23
 8735 04c0 8001     		.uleb128 0x80
 8736 04c2 38       		.byte	0x38
 8737 04c3 26       		.byte	0x26
 8738 04c4 71       		.byte	0x71
 8739 04c5 0E       		.sleb128 14
 8740 04c6 94       		.byte	0x94
 8741 04c7 01       		.byte	0x1
 8742 04c8 48       		.byte	0x48
 8743 04c9 24       		.byte	0x24
 8744 04ca 48       		.byte	0x48
 8745 04cb 26       		.byte	0x26
 8746 04cc 1E       		.byte	0x1e
 8747 04cd 4F       		.byte	0x4f
 8748 04ce 26       		.byte	0x26
 8749 04cf 1C       		.byte	0x1c
 8750 04d0 71       		.byte	0x71
 8751 04d1 30       		.sleb128 48
 8752 04d2 06       		.byte	0x6
 8753 04d3 35       		.byte	0x35
 8754 04d4 1E       		.byte	0x1e
 8755 04d5 23       		.byte	0x23
 8756 04d6 8001     		.uleb128 0x80
 8757 04d8 38       		.byte	0x38
 8758 04d9 26       		.byte	0x26
 8759 04da 1E       		.byte	0x1e
 8760 04db 4F       		.byte	0x4f
 8761 04dc 26       		.byte	0x26
 8762 04dd 1C       		.byte	0x1c
 8763 04de 71       		.byte	0x71
 8764 04df 30       		.sleb128 48
 8765 04e0 06       		.byte	0x6
ARM GAS  C:\Users\adria\AppData\Local\Temp\cciNfgxb.s 			page 191


 8766 04e1 35       		.byte	0x35
 8767 04e2 1E       		.byte	0x1e
 8768 04e3 23       		.byte	0x23
 8769 04e4 8001     		.uleb128 0x80
 8770 04e6 38       		.byte	0x38
 8771 04e7 26       		.byte	0x26
 8772 04e8 71       		.byte	0x71
 8773 04e9 0D       		.sleb128 13
 8774 04ea 94       		.byte	0x94
 8775 04eb 01       		.byte	0x1
 8776 04ec 48       		.byte	0x48
 8777 04ed 24       		.byte	0x24
 8778 04ee 48       		.byte	0x48
 8779 04ef 26       		.byte	0x26
 8780 04f0 1E       		.byte	0x1e
 8781 04f1 4F       		.byte	0x4f
 8782 04f2 26       		.byte	0x26
 8783 04f3 1C       		.byte	0x1c
 8784 04f4 7E       		.byte	0x7e
 8785 04f5 00       		.sleb128 0
 8786 04f6 35       		.byte	0x35
 8787 04f7 26       		.byte	0x26
 8788 04f8 22       		.byte	0x22
 8789 04f9 23       		.byte	0x23
 8790 04fa 808001   		.uleb128 0x4000
 8791 04fd 71       		.byte	0x71
 8792 04fe 0A       		.sleb128 10
 8793 04ff 94       		.byte	0x94
 8794 0500 02       		.byte	0x2
 8795 0501 0A       		.byte	0xa
 8796 0502 FFFF     		.2byte	0xffff
 8797 0504 1A       		.byte	0x1a
 8798 0505 1E       		.byte	0x1e
 8799 0506 3A       		.byte	0x3a
 8800 0507 26       		.byte	0x26
 8801 0508 9F       		.byte	0x9f
 8802 0509 00000000 		.4byte	0
 8803 050d 00000000 		.4byte	0
 8804              	.LLST12:
 8805 0511 70000000 		.4byte	.LVL45
 8806 0515 9A000000 		.4byte	.LVL53
 8807 0519 0100     		.2byte	0x1
 8808 051b 50       		.byte	0x50
 8809 051c 00000000 		.4byte	0
 8810 0520 00000000 		.4byte	0
 8811              	.LLST13:
 8812 0524 72000000 		.4byte	.LVL46
 8813 0528 8A000000 		.4byte	.LVL50
 8814 052c 0500     		.2byte	0x5
 8815 052e 72       		.byte	0x72
 8816 052f 00       		.sleb128 0
 8817 0530 37       		.byte	0x37
 8818 0531 24       		.byte	0x24
 8819 0532 9F       		.byte	0x9f
 8820 0533 8A000000 		.4byte	.LVL50
 8821 0537 96000000 		.4byte	.LVL52
 8822 053b 0100     		.2byte	0x1
ARM GAS  C:\Users\adria\AppData\Local\Temp\cciNfgxb.s 			page 192


 8823 053d 54       		.byte	0x54
 8824 053e 96000000 		.4byte	.LVL52
 8825 0542 A0000000 		.4byte	.LVL54
 8826 0546 2200     		.2byte	0x22
 8827 0548 72       		.byte	0x72
 8828 0549 00       		.sleb128 0
 8829 054a 37       		.byte	0x37
 8830 054b 24       		.byte	0x24
 8831 054c 75       		.byte	0x75
 8832 054d 00       		.sleb128 0
 8833 054e 35       		.byte	0x35
 8834 054f 26       		.byte	0x26
 8835 0550 71       		.byte	0x71
 8836 0551 30       		.sleb128 48
 8837 0552 06       		.byte	0x6
 8838 0553 35       		.byte	0x35
 8839 0554 1E       		.byte	0x1e
 8840 0555 23       		.byte	0x23
 8841 0556 8001     		.uleb128 0x80
 8842 0558 38       		.byte	0x38
 8843 0559 26       		.byte	0x26
 8844 055a 71       		.byte	0x71
 8845 055b 10       		.sleb128 16
 8846 055c 94       		.byte	0x94
 8847 055d 01       		.byte	0x1
 8848 055e 48       		.byte	0x48
 8849 055f 24       		.byte	0x24
 8850 0560 48       		.byte	0x48
 8851 0561 26       		.byte	0x26
 8852 0562 1E       		.byte	0x1e
 8853 0563 4F       		.byte	0x4f
 8854 0564 26       		.byte	0x26
 8855 0565 1C       		.byte	0x1c
 8856 0566 22       		.byte	0x22
 8857 0567 34       		.byte	0x34
 8858 0568 26       		.byte	0x26
 8859 0569 9F       		.byte	0x9f
 8860 056a A0000000 		.4byte	.LVL54
 8861 056e BA000000 		.4byte	.LVL60
 8862 0572 2700     		.2byte	0x27
 8863 0574 71       		.byte	0x71
 8864 0575 0F       		.sleb128 15
 8865 0576 94       		.byte	0x94
 8866 0577 01       		.byte	0x1
 8867 0578 08       		.byte	0x8
 8868 0579 FF       		.byte	0xff
 8869 057a 1A       		.byte	0x1a
 8870 057b 37       		.byte	0x37
 8871 057c 24       		.byte	0x24
 8872 057d 75       		.byte	0x75
 8873 057e 00       		.sleb128 0
 8874 057f 35       		.byte	0x35
 8875 0580 26       		.byte	0x26
 8876 0581 71       		.byte	0x71
 8877 0582 30       		.sleb128 48
 8878 0583 06       		.byte	0x6
 8879 0584 35       		.byte	0x35
ARM GAS  C:\Users\adria\AppData\Local\Temp\cciNfgxb.s 			page 193


 8880 0585 1E       		.byte	0x1e
 8881 0586 23       		.byte	0x23
 8882 0587 8001     		.uleb128 0x80
 8883 0589 38       		.byte	0x38
 8884 058a 26       		.byte	0x26
 8885 058b 71       		.byte	0x71
 8886 058c 10       		.sleb128 16
 8887 058d 94       		.byte	0x94
 8888 058e 01       		.byte	0x1
 8889 058f 48       		.byte	0x48
 8890 0590 24       		.byte	0x24
 8891 0591 48       		.byte	0x48
 8892 0592 26       		.byte	0x26
 8893 0593 1E       		.byte	0x1e
 8894 0594 4F       		.byte	0x4f
 8895 0595 26       		.byte	0x26
 8896 0596 1C       		.byte	0x1c
 8897 0597 22       		.byte	0x22
 8898 0598 34       		.byte	0x34
 8899 0599 26       		.byte	0x26
 8900 059a 9F       		.byte	0x9f
 8901 059b BA000000 		.4byte	.LVL60
 8902 059f C4000000 		.4byte	.LFE79
 8903 05a3 4B00     		.2byte	0x4b
 8904 05a5 71       		.byte	0x71
 8905 05a6 0F       		.sleb128 15
 8906 05a7 94       		.byte	0x94
 8907 05a8 01       		.byte	0x1
 8908 05a9 08       		.byte	0x8
 8909 05aa FF       		.byte	0xff
 8910 05ab 1A       		.byte	0x1a
 8911 05ac 37       		.byte	0x37
 8912 05ad 24       		.byte	0x24
 8913 05ae 71       		.byte	0x71
 8914 05af 30       		.sleb128 48
 8915 05b0 06       		.byte	0x6
 8916 05b1 35       		.byte	0x35
 8917 05b2 1E       		.byte	0x1e
 8918 05b3 23       		.byte	0x23
 8919 05b4 8001     		.uleb128 0x80
 8920 05b6 38       		.byte	0x38
 8921 05b7 26       		.byte	0x26
 8922 05b8 F7       		.byte	0xf7
 8923 05b9 33       		.uleb128 0x33
 8924 05ba F7       		.byte	0xf7
 8925 05bb 25       		.uleb128 0x25
 8926 05bc 71       		.byte	0x71
 8927 05bd 10       		.sleb128 16
 8928 05be 94       		.byte	0x94
 8929 05bf 01       		.byte	0x1
 8930 05c0 F7       		.byte	0xf7
 8931 05c1 3A       		.uleb128 0x3a
 8932 05c2 F7       		.byte	0xf7
 8933 05c3 25       		.uleb128 0x25
 8934 05c4 1E       		.byte	0x1e
 8935 05c5 0C       		.byte	0xc
 8936 05c6 1F85EB51 		.4byte	0x51eb851f
ARM GAS  C:\Users\adria\AppData\Local\Temp\cciNfgxb.s 			page 194


 8937 05ca F7       		.byte	0xf7
 8938 05cb 25       		.uleb128 0x25
 8939 05cc 1E       		.byte	0x1e
 8940 05cd 08       		.byte	0x8
 8941 05ce 20       		.byte	0x20
 8942 05cf F7       		.byte	0xf7
 8943 05d0 25       		.uleb128 0x25
 8944 05d1 25       		.byte	0x25
 8945 05d2 F7       		.byte	0xf7
 8946 05d3 2C       		.uleb128 0x2c
 8947 05d4 35       		.byte	0x35
 8948 05d5 26       		.byte	0x26
 8949 05d6 71       		.byte	0x71
 8950 05d7 30       		.sleb128 48
 8951 05d8 06       		.byte	0x6
 8952 05d9 35       		.byte	0x35
 8953 05da 1E       		.byte	0x1e
 8954 05db 23       		.byte	0x23
 8955 05dc 8001     		.uleb128 0x80
 8956 05de 38       		.byte	0x38
 8957 05df 26       		.byte	0x26
 8958 05e0 71       		.byte	0x71
 8959 05e1 10       		.sleb128 16
 8960 05e2 94       		.byte	0x94
 8961 05e3 01       		.byte	0x1
 8962 05e4 48       		.byte	0x48
 8963 05e5 24       		.byte	0x24
 8964 05e6 48       		.byte	0x48
 8965 05e7 26       		.byte	0x26
 8966 05e8 1E       		.byte	0x1e
 8967 05e9 4F       		.byte	0x4f
 8968 05ea 26       		.byte	0x26
 8969 05eb 1C       		.byte	0x1c
 8970 05ec 22       		.byte	0x22
 8971 05ed 34       		.byte	0x34
 8972 05ee 26       		.byte	0x26
 8973 05ef 9F       		.byte	0x9f
 8974 05f0 00000000 		.4byte	0
 8975 05f4 00000000 		.4byte	0
 8976              	.LLST14:
 8977 05f8 92000000 		.4byte	.LVL51
 8978 05fc A8000000 		.4byte	.LVL56
 8979 0600 0100     		.2byte	0x1
 8980 0602 53       		.byte	0x53
 8981 0603 00000000 		.4byte	0
 8982 0607 00000000 		.4byte	0
 8983              	.LLST15:
 8984 060b 96000000 		.4byte	.LVL52
 8985 060f BA000000 		.4byte	.LVL60
 8986 0613 0500     		.2byte	0x5
 8987 0615 74       		.byte	0x74
 8988 0616 00       		.sleb128 0
 8989 0617 31       		.byte	0x31
 8990 0618 26       		.byte	0x26
 8991 0619 9F       		.byte	0x9f
 8992 061a 00000000 		.4byte	0
 8993 061e 00000000 		.4byte	0
ARM GAS  C:\Users\adria\AppData\Local\Temp\cciNfgxb.s 			page 195


 8994              	.LLST16:
 8995 0622 0C000000 		.4byte	.LVL41
 8996 0626 7A000000 		.4byte	.LVL48
 8997 062a 0100     		.2byte	0x1
 8998 062c 54       		.byte	0x54
 8999 062d 7A000000 		.4byte	.LVL48
 9000 0631 C4000000 		.4byte	.LFE79
 9001 0635 0B00     		.2byte	0xb
 9002 0637 71       		.byte	0x71
 9003 0638 30       		.sleb128 48
 9004 0639 06       		.byte	0x6
 9005 063a 35       		.byte	0x35
 9006 063b 1E       		.byte	0x1e
 9007 063c 23       		.byte	0x23
 9008 063d 8001     		.uleb128 0x80
 9009 063f 38       		.byte	0x38
 9010 0640 26       		.byte	0x26
 9011 0641 9F       		.byte	0x9f
 9012 0642 00000000 		.4byte	0
 9013 0646 00000000 		.4byte	0
 9014              	.LLST17:
 9015 064a A6000000 		.4byte	.LVL55
 9016 064e B4000000 		.4byte	.LVL57
 9017 0652 0100     		.2byte	0x1
 9018 0654 50       		.byte	0x50
 9019 0655 B6000000 		.4byte	.LVL58
 9020 0659 C4000000 		.4byte	.LFE79
 9021 065d 0100     		.2byte	0x1
 9022 065f 50       		.byte	0x50
 9023 0660 00000000 		.4byte	0
 9024 0664 00000000 		.4byte	0
 9025              	.LLST18:
 9026 0668 00000000 		.4byte	.LVL61
 9027 066c 12000000 		.4byte	.LVL62
 9028 0670 0100     		.2byte	0x1
 9029 0672 50       		.byte	0x50
 9030 0673 12000000 		.4byte	.LVL62
 9031 0677 AC000000 		.4byte	.LFE80
 9032 067b 0400     		.2byte	0x4
 9033 067d F3       		.byte	0xf3
 9034 067e 01       		.uleb128 0x1
 9035 067f 50       		.byte	0x50
 9036 0680 9F       		.byte	0x9f
 9037 0681 00000000 		.4byte	0
 9038 0685 00000000 		.4byte	0
 9039              	.LLST19:
 9040 0689 00000000 		.4byte	.LVL61
 9041 068d 12000000 		.4byte	.LVL62
 9042 0691 0100     		.2byte	0x1
 9043 0693 51       		.byte	0x51
 9044 0694 12000000 		.4byte	.LVL62
 9045 0698 AC000000 		.4byte	.LFE80
 9046 069c 0400     		.2byte	0x4
 9047 069e F3       		.byte	0xf3
 9048 069f 01       		.uleb128 0x1
 9049 06a0 51       		.byte	0x51
 9050 06a1 9F       		.byte	0x9f
ARM GAS  C:\Users\adria\AppData\Local\Temp\cciNfgxb.s 			page 196


 9051 06a2 00000000 		.4byte	0
 9052 06a6 00000000 		.4byte	0
 9053              	.LLST20:
 9054 06aa 00000000 		.4byte	.LVL61
 9055 06ae 12000000 		.4byte	.LVL62
 9056 06b2 0100     		.2byte	0x1
 9057 06b4 52       		.byte	0x52
 9058 06b5 12000000 		.4byte	.LVL62
 9059 06b9 A3000000 		.4byte	.LVL68-1
 9060 06bd 0100     		.2byte	0x1
 9061 06bf 5C       		.byte	0x5c
 9062 06c0 A3000000 		.4byte	.LVL68-1
 9063 06c4 AC000000 		.4byte	.LFE80
 9064 06c8 0400     		.2byte	0x4
 9065 06ca F3       		.byte	0xf3
 9066 06cb 01       		.uleb128 0x1
 9067 06cc 52       		.byte	0x52
 9068 06cd 9F       		.byte	0x9f
 9069 06ce 00000000 		.4byte	0
 9070 06d2 00000000 		.4byte	0
 9071              	.LLST21:
 9072 06d6 72000000 		.4byte	.LVL63
 9073 06da 90000000 		.4byte	.LVL65
 9074 06de 0600     		.2byte	0x6
 9075 06e0 50       		.byte	0x50
 9076 06e1 93       		.byte	0x93
 9077 06e2 04       		.uleb128 0x4
 9078 06e3 51       		.byte	0x51
 9079 06e4 93       		.byte	0x93
 9080 06e5 04       		.uleb128 0x4
 9081 06e6 00000000 		.4byte	0
 9082 06ea 00000000 		.4byte	0
 9083              	.LLST22:
 9084 06ee 82000000 		.4byte	.LVL64
 9085 06f2 A3000000 		.4byte	.LVL68-1
 9086 06f6 0600     		.2byte	0x6
 9087 06f8 52       		.byte	0x52
 9088 06f9 93       		.byte	0x93
 9089 06fa 04       		.uleb128 0x4
 9090 06fb 53       		.byte	0x53
 9091 06fc 93       		.byte	0x93
 9092 06fd 04       		.uleb128 0x4
 9093 06fe 00000000 		.4byte	0
 9094 0702 00000000 		.4byte	0
 9095              	.LLST23:
 9096 0706 96000000 		.4byte	.LVL66
 9097 070a 9E000000 		.4byte	.LVL67
 9098 070e 0600     		.2byte	0x6
 9099 0710 50       		.byte	0x50
 9100 0711 93       		.byte	0x93
 9101 0712 04       		.uleb128 0x4
 9102 0713 51       		.byte	0x51
 9103 0714 93       		.byte	0x93
 9104 0715 04       		.uleb128 0x4
 9105 0716 00000000 		.4byte	0
 9106 071a 00000000 		.4byte	0
 9107              	.LLST24:
ARM GAS  C:\Users\adria\AppData\Local\Temp\cciNfgxb.s 			page 197


 9108 071e 00000000 		.4byte	.LVL69
 9109 0722 0C000000 		.4byte	.LVL70
 9110 0726 0100     		.2byte	0x1
 9111 0728 50       		.byte	0x50
 9112 0729 0C000000 		.4byte	.LVL70
 9113 072d 90000000 		.4byte	.LVL79
 9114 0731 0100     		.2byte	0x1
 9115 0733 50       		.byte	0x50
 9116 0734 00000000 		.4byte	0
 9117 0738 00000000 		.4byte	0
 9118              	.LLST25:
 9119 073c 00000000 		.4byte	.LVL69
 9120 0740 7C000000 		.4byte	.LVL76
 9121 0744 0100     		.2byte	0x1
 9122 0746 51       		.byte	0x51
 9123 0747 7C000000 		.4byte	.LVL76
 9124 074b B0000000 		.4byte	.LFE81
 9125 074f 0400     		.2byte	0x4
 9126 0751 F3       		.byte	0xf3
 9127 0752 01       		.uleb128 0x1
 9128 0753 51       		.byte	0x51
 9129 0754 9F       		.byte	0x9f
 9130 0755 00000000 		.4byte	0
 9131 0759 00000000 		.4byte	0
 9132              	.LLST26:
 9133 075d 24000000 		.4byte	.LVL71
 9134 0761 A2000000 		.4byte	.LVL83
 9135 0765 0500     		.2byte	0x5
 9136 0767 77       		.byte	0x77
 9137 0768 00       		.sleb128 0
 9138 0769 38       		.byte	0x38
 9139 076a 24       		.byte	0x24
 9140 076b 9F       		.byte	0x9f
 9141 076c A2000000 		.4byte	.LVL83
 9142 0770 B0000000 		.4byte	.LFE81
 9143 0774 4500     		.2byte	0x45
 9144 0776 F3       		.byte	0xf3
 9145 0777 01       		.uleb128 0x1
 9146 0778 51       		.byte	0x51
 9147 0779 23       		.byte	0x23
 9148 077a 04       		.uleb128 0x4
 9149 077b 94       		.byte	0x94
 9150 077c 01       		.byte	0x1
 9151 077d F7       		.byte	0xf7
 9152 077e 3A       		.uleb128 0x3a
 9153 077f F7       		.byte	0xf7
 9154 0780 25       		.uleb128 0x25
 9155 0781 F3       		.byte	0xf3
 9156 0782 01       		.uleb128 0x1
 9157 0783 51       		.byte	0x51
 9158 0784 23       		.byte	0x23
 9159 0785 14       		.uleb128 0x14
 9160 0786 94       		.byte	0x94
 9161 0787 01       		.byte	0x1
 9162 0788 F7       		.byte	0xf7
 9163 0789 3A       		.uleb128 0x3a
 9164 078a F7       		.byte	0xf7
ARM GAS  C:\Users\adria\AppData\Local\Temp\cciNfgxb.s 			page 198


 9165 078b 25       		.uleb128 0x25
 9166 078c 1E       		.byte	0x1e
 9167 078d 0C       		.byte	0xc
 9168 078e D34D6210 		.4byte	0x10624dd3
 9169 0792 F7       		.byte	0xf7
 9170 0793 25       		.uleb128 0x25
 9171 0794 1E       		.byte	0x1e
 9172 0795 08       		.byte	0x8
 9173 0796 20       		.byte	0x20
 9174 0797 F7       		.byte	0xf7
 9175 0798 25       		.uleb128 0x25
 9176 0799 25       		.byte	0x25
 9177 079a F7       		.byte	0xf7
 9178 079b 2C       		.uleb128 0x2c
 9179 079c 36       		.byte	0x36
 9180 079d 26       		.byte	0x26
 9181 079e F3       		.byte	0xf3
 9182 079f 01       		.uleb128 0x1
 9183 07a0 51       		.byte	0x51
 9184 07a1 23       		.byte	0x23
 9185 07a2 04       		.uleb128 0x4
 9186 07a3 94       		.byte	0x94
 9187 07a4 01       		.byte	0x1
 9188 07a5 48       		.byte	0x48
 9189 07a6 24       		.byte	0x24
 9190 07a7 48       		.byte	0x48
 9191 07a8 26       		.byte	0x26
 9192 07a9 F3       		.byte	0xf3
 9193 07aa 01       		.uleb128 0x1
 9194 07ab 51       		.byte	0x51
 9195 07ac 23       		.byte	0x23
 9196 07ad 14       		.uleb128 0x14
 9197 07ae 94       		.byte	0x94
 9198 07af 01       		.byte	0x1
 9199 07b0 48       		.byte	0x48
 9200 07b1 24       		.byte	0x24
 9201 07b2 48       		.byte	0x48
 9202 07b3 26       		.byte	0x26
 9203 07b4 1E       		.byte	0x1e
 9204 07b5 4F       		.byte	0x4f
 9205 07b6 26       		.byte	0x26
 9206 07b7 1C       		.byte	0x1c
 9207 07b8 38       		.byte	0x38
 9208 07b9 24       		.byte	0x24
 9209 07ba 9F       		.byte	0x9f
 9210 07bb 00000000 		.4byte	0
 9211 07bf 00000000 		.4byte	0
 9212              	.LLST27:
 9213 07c3 60000000 		.4byte	.LVL72
 9214 07c7 64000000 		.4byte	.LVL73
 9215 07cb 0100     		.2byte	0x1
 9216 07cd 52       		.byte	0x52
 9217 07ce 64000000 		.4byte	.LVL73
 9218 07d2 A2000000 		.4byte	.LVL83
 9219 07d6 0600     		.2byte	0x6
 9220 07d8 75       		.byte	0x75
 9221 07d9 00       		.sleb128 0
ARM GAS  C:\Users\adria\AppData\Local\Temp\cciNfgxb.s 			page 199


 9222 07da 7E       		.byte	0x7e
 9223 07db 00       		.sleb128 0
 9224 07dc 1E       		.byte	0x1e
 9225 07dd 9F       		.byte	0x9f
 9226 07de 00000000 		.4byte	0
 9227 07e2 00000000 		.4byte	0
 9228              	.LLST28:
 9229 07e6 6A000000 		.4byte	.LVL74
 9230 07ea A2000000 		.4byte	.LVL83
 9231 07ee 0100     		.2byte	0x1
 9232 07f0 54       		.byte	0x54
 9233 07f1 00000000 		.4byte	0
 9234 07f5 00000000 		.4byte	0
 9235              	.LLST29:
 9236 07f9 74000000 		.4byte	.LVL75
 9237 07fd 98000000 		.4byte	.LVL80
 9238 0801 0100     		.2byte	0x1
 9239 0803 52       		.byte	0x52
 9240 0804 98000000 		.4byte	.LVL80
 9241 0808 A2000000 		.4byte	.LVL83
 9242 080c 1000     		.2byte	0x10
 9243 080e 74       		.byte	0x74
 9244 080f 00       		.sleb128 0
 9245 0810 F3       		.byte	0xf3
 9246 0811 01       		.uleb128 0x1
 9247 0812 51       		.byte	0x51
 9248 0813 23       		.byte	0x23
 9249 0814 34       		.uleb128 0x34
 9250 0815 94       		.byte	0x94
 9251 0816 01       		.byte	0x1
 9252 0817 08       		.byte	0x8
 9253 0818 FF       		.byte	0xff
 9254 0819 1A       		.byte	0x1a
 9255 081a 23       		.byte	0x23
 9256 081b 04       		.uleb128 0x4
 9257 081c 1B       		.byte	0x1b
 9258 081d 9F       		.byte	0x9f
 9259 081e 00000000 		.4byte	0
 9260 0822 00000000 		.4byte	0
 9261              	.LLST30:
 9262 0826 84000000 		.4byte	.LVL77
 9263 082a 88000000 		.4byte	.LVL78
 9264 082e 0100     		.2byte	0x1
 9265 0830 53       		.byte	0x53
 9266 0831 88000000 		.4byte	.LVL78
 9267 0835 B0000000 		.4byte	.LFE81
 9268 0839 1500     		.2byte	0x15
 9269 083b 71       		.byte	0x71
 9270 083c 00       		.sleb128 0
 9271 083d 31       		.byte	0x31
 9272 083e 24       		.byte	0x24
 9273 083f F3       		.byte	0xf3
 9274 0840 01       		.uleb128 0x1
 9275 0841 51       		.byte	0x51
 9276 0842 23       		.byte	0x23
 9277 0843 35       		.uleb128 0x35
 9278 0844 94       		.byte	0x94
ARM GAS  C:\Users\adria\AppData\Local\Temp\cciNfgxb.s 			page 200


 9279 0845 01       		.byte	0x1
 9280 0846 48       		.byte	0x48
 9281 0847 24       		.byte	0x24
 9282 0848 48       		.byte	0x48
 9283 0849 26       		.byte	0x26
 9284 084a 22       		.byte	0x22
 9285 084b 23       		.byte	0x23
 9286 084c 808004   		.uleb128 0x10000
 9287 084f 9F       		.byte	0x9f
 9288 0850 00000000 		.4byte	0
 9289 0854 00000000 		.4byte	0
 9290              	.LLST31:
 9291 0858 90000000 		.4byte	.LVL79
 9292 085c 98000000 		.4byte	.LVL80
 9293 0860 0100     		.2byte	0x1
 9294 0862 50       		.byte	0x50
 9295 0863 98000000 		.4byte	.LVL80
 9296 0867 9A000000 		.4byte	.LVL81
 9297 086b 0300     		.2byte	0x3
 9298 086d 73       		.byte	0x73
 9299 086e 4E       		.sleb128 -50
 9300 086f 9F       		.byte	0x9f
 9301 0870 9A000000 		.4byte	.LVL81
 9302 0874 A2000000 		.4byte	.LVL83
 9303 0878 2C00     		.2byte	0x2c
 9304 087a 74       		.byte	0x74
 9305 087b 00       		.sleb128 0
 9306 087c F3       		.byte	0xf3
 9307 087d 01       		.uleb128 0x1
 9308 087e 51       		.byte	0x51
 9309 087f 23       		.byte	0x23
 9310 0880 34       		.uleb128 0x34
 9311 0881 94       		.byte	0x94
 9312 0882 01       		.byte	0x1
 9313 0883 08       		.byte	0x8
 9314 0884 FF       		.byte	0xff
 9315 0885 1A       		.byte	0x1a
 9316 0886 23       		.byte	0x23
 9317 0887 04       		.uleb128 0x4
 9318 0888 1B       		.byte	0x1b
 9319 0889 71       		.byte	0x71
 9320 088a 00       		.sleb128 0
 9321 088b 31       		.byte	0x31
 9322 088c 24       		.byte	0x24
 9323 088d F3       		.byte	0xf3
 9324 088e 01       		.uleb128 0x1
 9325 088f 51       		.byte	0x51
 9326 0890 23       		.byte	0x23
 9327 0891 35       		.uleb128 0x35
 9328 0892 94       		.byte	0x94
 9329 0893 01       		.byte	0x1
 9330 0894 48       		.byte	0x48
 9331 0895 24       		.byte	0x24
 9332 0896 48       		.byte	0x48
 9333 0897 26       		.byte	0x26
 9334 0898 22       		.byte	0x22
 9335 0899 23       		.byte	0x23
ARM GAS  C:\Users\adria\AppData\Local\Temp\cciNfgxb.s 			page 201


 9336 089a 808004   		.uleb128 0x10000
 9337 089d 1B       		.byte	0x1b
 9338 089e 08       		.byte	0x8
 9339 089f FA       		.byte	0xfa
 9340 08a0 1C       		.byte	0x1c
 9341 08a1 41       		.byte	0x41
 9342 08a2 1E       		.byte	0x1e
 9343 08a3 31       		.byte	0x31
 9344 08a4 24       		.byte	0x24
 9345 08a5 9F       		.byte	0x9f
 9346 08a6 00000000 		.4byte	0
 9347 08aa 00000000 		.4byte	0
 9348              	.LLST32:
 9349 08ae 00000000 		.4byte	.LVL84
 9350 08b2 0C000000 		.4byte	.LVL86
 9351 08b6 0100     		.2byte	0x1
 9352 08b8 50       		.byte	0x50
 9353 08b9 0C000000 		.4byte	.LVL86
 9354 08bd 16000000 		.4byte	.LVL89
 9355 08c1 0100     		.2byte	0x1
 9356 08c3 50       		.byte	0x50
 9357 08c4 20000000 		.4byte	.LVL92
 9358 08c8 22000000 		.4byte	.LVL93
 9359 08cc 0100     		.2byte	0x1
 9360 08ce 50       		.byte	0x50
 9361 08cf 22000000 		.4byte	.LVL93
 9362 08d3 24000000 		.4byte	.LFE82
 9363 08d7 0400     		.2byte	0x4
 9364 08d9 F3       		.byte	0xf3
 9365 08da 01       		.uleb128 0x1
 9366 08db 50       		.byte	0x50
 9367 08dc 9F       		.byte	0x9f
 9368 08dd 00000000 		.4byte	0
 9369 08e1 00000000 		.4byte	0
 9370              	.LLST33:
 9371 08e5 00000000 		.4byte	.LVL84
 9372 08e9 0A000000 		.4byte	.LVL85
 9373 08ed 0200     		.2byte	0x2
 9374 08ef 30       		.byte	0x30
 9375 08f0 9F       		.byte	0x9f
 9376 08f1 0A000000 		.4byte	.LVL85
 9377 08f5 0E000000 		.4byte	.LVL87
 9378 08f9 0100     		.2byte	0x1
 9379 08fb 53       		.byte	0x53
 9380 08fc 10000000 		.4byte	.LVL88
 9381 0900 18000000 		.4byte	.LVL90
 9382 0904 0100     		.2byte	0x1
 9383 0906 53       		.byte	0x53
 9384 0907 20000000 		.4byte	.LVL92
 9385 090b 24000000 		.4byte	.LFE82
 9386 090f 0200     		.2byte	0x2
 9387 0911 30       		.byte	0x30
 9388 0912 9F       		.byte	0x9f
 9389 0913 00000000 		.4byte	0
 9390 0917 00000000 		.4byte	0
 9391              	.LLST34:
 9392 091b 1E000000 		.4byte	.LVL91
ARM GAS  C:\Users\adria\AppData\Local\Temp\cciNfgxb.s 			page 202


 9393 091f 20000000 		.4byte	.LVL92
 9394 0923 0100     		.2byte	0x1
 9395 0925 50       		.byte	0x50
 9396 0926 22000000 		.4byte	.LVL93
 9397 092a 24000000 		.4byte	.LFE82
 9398 092e 0100     		.2byte	0x1
 9399 0930 50       		.byte	0x50
 9400 0931 00000000 		.4byte	0
 9401 0935 00000000 		.4byte	0
 9402              	.LLST35:
 9403 0939 00000000 		.4byte	.LVL94
 9404 093d 08000000 		.4byte	.LVL95
 9405 0941 0100     		.2byte	0x1
 9406 0943 50       		.byte	0x50
 9407 0944 08000000 		.4byte	.LVL95
 9408 0948 32000000 		.4byte	.LVL100
 9409 094c 0100     		.2byte	0x1
 9410 094e 54       		.byte	0x54
 9411 094f 32000000 		.4byte	.LVL100
 9412 0953 36000000 		.4byte	.LVL101
 9413 0957 0100     		.2byte	0x1
 9414 0959 50       		.byte	0x50
 9415 095a 36000000 		.4byte	.LVL101
 9416 095e 38000000 		.4byte	.LVL102
 9417 0962 0400     		.2byte	0x4
 9418 0964 F3       		.byte	0xf3
 9419 0965 01       		.uleb128 0x1
 9420 0966 50       		.byte	0x50
 9421 0967 9F       		.byte	0x9f
 9422 0968 38000000 		.4byte	.LVL102
 9423 096c 3C000000 		.4byte	.LVL104
 9424 0970 0100     		.2byte	0x1
 9425 0972 54       		.byte	0x54
 9426 0973 3C000000 		.4byte	.LVL104
 9427 0977 3E000000 		.4byte	.LFE86
 9428 097b 0400     		.2byte	0x4
 9429 097d F3       		.byte	0xf3
 9430 097e 01       		.uleb128 0x1
 9431 097f 50       		.byte	0x50
 9432 0980 9F       		.byte	0x9f
 9433 0981 00000000 		.4byte	0
 9434 0985 00000000 		.4byte	0
 9435              	.LLST36:
 9436 0989 00000000 		.4byte	.LVL94
 9437 098d 12000000 		.4byte	.LVL96
 9438 0991 0100     		.2byte	0x1
 9439 0993 51       		.byte	0x51
 9440 0994 12000000 		.4byte	.LVL96
 9441 0998 1A000000 		.4byte	.LVL97
 9442 099c 0200     		.2byte	0x2
 9443 099e 74       		.byte	0x74
 9444 099f 00       		.sleb128 0
 9445 09a0 1A000000 		.4byte	.LVL97
 9446 09a4 32000000 		.4byte	.LVL100
 9447 09a8 0400     		.2byte	0x4
 9448 09aa F3       		.byte	0xf3
 9449 09ab 01       		.uleb128 0x1
ARM GAS  C:\Users\adria\AppData\Local\Temp\cciNfgxb.s 			page 203


 9450 09ac 51       		.byte	0x51
 9451 09ad 9F       		.byte	0x9f
 9452 09ae 32000000 		.4byte	.LVL100
 9453 09b2 38000000 		.4byte	.LVL102
 9454 09b6 0100     		.2byte	0x1
 9455 09b8 51       		.byte	0x51
 9456 09b9 38000000 		.4byte	.LVL102
 9457 09bd 3E000000 		.4byte	.LFE86
 9458 09c1 0400     		.2byte	0x4
 9459 09c3 F3       		.byte	0xf3
 9460 09c4 01       		.uleb128 0x1
 9461 09c5 51       		.byte	0x51
 9462 09c6 9F       		.byte	0x9f
 9463 09c7 00000000 		.4byte	0
 9464 09cb 00000000 		.4byte	0
 9465              	.LLST37:
 9466 09cf 00000000 		.4byte	.LVL94
 9467 09d3 26000000 		.4byte	.LVL98
 9468 09d7 0100     		.2byte	0x1
 9469 09d9 52       		.byte	0x52
 9470 09da 26000000 		.4byte	.LVL98
 9471 09de 2E000000 		.4byte	.LVL99
 9472 09e2 0200     		.2byte	0x2
 9473 09e4 74       		.byte	0x74
 9474 09e5 00       		.sleb128 0
 9475 09e6 2E000000 		.4byte	.LVL99
 9476 09ea 32000000 		.4byte	.LVL100
 9477 09ee 0400     		.2byte	0x4
 9478 09f0 F3       		.byte	0xf3
 9479 09f1 01       		.uleb128 0x1
 9480 09f2 52       		.byte	0x52
 9481 09f3 9F       		.byte	0x9f
 9482 09f4 32000000 		.4byte	.LVL100
 9483 09f8 3A000000 		.4byte	.LVL103
 9484 09fc 0100     		.2byte	0x1
 9485 09fe 52       		.byte	0x52
 9486 09ff 3A000000 		.4byte	.LVL103
 9487 0a03 3E000000 		.4byte	.LFE86
 9488 0a07 0400     		.2byte	0x4
 9489 0a09 F3       		.byte	0xf3
 9490 0a0a 01       		.uleb128 0x1
 9491 0a0b 52       		.byte	0x52
 9492 0a0c 9F       		.byte	0x9f
 9493 0a0d 00000000 		.4byte	0
 9494 0a11 00000000 		.4byte	0
 9495              	.LLST38:
 9496 0a15 00000000 		.4byte	.LVL94
 9497 0a19 36000000 		.4byte	.LVL101
 9498 0a1d 0200     		.2byte	0x2
 9499 0a1f 30       		.byte	0x30
 9500 0a20 9F       		.byte	0x9f
 9501 0a21 36000000 		.4byte	.LVL101
 9502 0a25 38000000 		.4byte	.LVL102
 9503 0a29 0100     		.2byte	0x1
 9504 0a2b 50       		.byte	0x50
 9505 0a2c 38000000 		.4byte	.LVL102
 9506 0a30 3A000000 		.4byte	.LVL103
ARM GAS  C:\Users\adria\AppData\Local\Temp\cciNfgxb.s 			page 204


 9507 0a34 0200     		.2byte	0x2
 9508 0a36 30       		.byte	0x30
 9509 0a37 9F       		.byte	0x9f
 9510 0a38 3A000000 		.4byte	.LVL103
 9511 0a3c 3E000000 		.4byte	.LFE86
 9512 0a40 0100     		.2byte	0x1
 9513 0a42 50       		.byte	0x50
 9514 0a43 00000000 		.4byte	0
 9515 0a47 00000000 		.4byte	0
 9516              	.LLST39:
 9517 0a4b 00000000 		.4byte	.LVL105
 9518 0a4f 12000000 		.4byte	.LVL106
 9519 0a53 0100     		.2byte	0x1
 9520 0a55 50       		.byte	0x50
 9521 0a56 12000000 		.4byte	.LVL106
 9522 0a5a 14000000 		.4byte	.LVL107
 9523 0a5e 0400     		.2byte	0x4
 9524 0a60 F3       		.byte	0xf3
 9525 0a61 01       		.uleb128 0x1
 9526 0a62 50       		.byte	0x50
 9527 0a63 9F       		.byte	0x9f
 9528 0a64 14000000 		.4byte	.LVL107
 9529 0a68 18000000 		.4byte	.LVL108
 9530 0a6c 0100     		.2byte	0x1
 9531 0a6e 50       		.byte	0x50
 9532 0a6f 18000000 		.4byte	.LVL108
 9533 0a73 1A000000 		.4byte	.LVL109
 9534 0a77 0400     		.2byte	0x4
 9535 0a79 F3       		.byte	0xf3
 9536 0a7a 01       		.uleb128 0x1
 9537 0a7b 50       		.byte	0x50
 9538 0a7c 9F       		.byte	0x9f
 9539 0a7d 1A000000 		.4byte	.LVL109
 9540 0a81 1E000000 		.4byte	.LVL110
 9541 0a85 0100     		.2byte	0x1
 9542 0a87 50       		.byte	0x50
 9543 0a88 1E000000 		.4byte	.LVL110
 9544 0a8c 20000000 		.4byte	.LVL111
 9545 0a90 0400     		.2byte	0x4
 9546 0a92 F3       		.byte	0xf3
 9547 0a93 01       		.uleb128 0x1
 9548 0a94 50       		.byte	0x50
 9549 0a95 9F       		.byte	0x9f
 9550 0a96 20000000 		.4byte	.LVL111
 9551 0a9a 24000000 		.4byte	.LVL112
 9552 0a9e 0100     		.2byte	0x1
 9553 0aa0 50       		.byte	0x50
 9554 0aa1 24000000 		.4byte	.LVL112
 9555 0aa5 26000000 		.4byte	.LVL113
 9556 0aa9 0400     		.2byte	0x4
 9557 0aab F3       		.byte	0xf3
 9558 0aac 01       		.uleb128 0x1
 9559 0aad 50       		.byte	0x50
 9560 0aae 9F       		.byte	0x9f
 9561 0aaf 26000000 		.4byte	.LVL113
 9562 0ab3 28000000 		.4byte	.LVL114
 9563 0ab7 0100     		.2byte	0x1
ARM GAS  C:\Users\adria\AppData\Local\Temp\cciNfgxb.s 			page 205


 9564 0ab9 50       		.byte	0x50
 9565 0aba 28000000 		.4byte	.LVL114
 9566 0abe 2A000000 		.4byte	.LFE87
 9567 0ac2 0400     		.2byte	0x4
 9568 0ac4 F3       		.byte	0xf3
 9569 0ac5 01       		.uleb128 0x1
 9570 0ac6 50       		.byte	0x50
 9571 0ac7 9F       		.byte	0x9f
 9572 0ac8 00000000 		.4byte	0
 9573 0acc 00000000 		.4byte	0
 9574              	.LLST40:
 9575 0ad0 00000000 		.4byte	.LVL115
 9576 0ad4 0A000000 		.4byte	.LVL116
 9577 0ad8 0100     		.2byte	0x1
 9578 0ada 50       		.byte	0x50
 9579 0adb 0A000000 		.4byte	.LVL116
 9580 0adf 70000000 		.4byte	.LFE84
 9581 0ae3 0400     		.2byte	0x4
 9582 0ae5 F3       		.byte	0xf3
 9583 0ae6 01       		.uleb128 0x1
 9584 0ae7 50       		.byte	0x50
 9585 0ae8 9F       		.byte	0x9f
 9586 0ae9 00000000 		.4byte	0
 9587 0aed 00000000 		.4byte	0
 9588              	.LLST41:
 9589 0af1 00000000 		.4byte	.LVL115
 9590 0af5 0D000000 		.4byte	.LVL117-1
 9591 0af9 0100     		.2byte	0x1
 9592 0afb 51       		.byte	0x51
 9593 0afc 0D000000 		.4byte	.LVL117-1
 9594 0b00 70000000 		.4byte	.LFE84
 9595 0b04 0100     		.2byte	0x1
 9596 0b06 54       		.byte	0x54
 9597 0b07 00000000 		.4byte	0
 9598 0b0b 00000000 		.4byte	0
 9599              	.LLST42:
 9600 0b0f 0E000000 		.4byte	.LVL117
 9601 0b13 32000000 		.4byte	.LVL120
 9602 0b17 0100     		.2byte	0x1
 9603 0b19 50       		.byte	0x50
 9604 0b1a 3E000000 		.4byte	.LVL122
 9605 0b1e 70000000 		.4byte	.LFE84
 9606 0b22 0100     		.2byte	0x1
 9607 0b24 55       		.byte	0x55
 9608 0b25 00000000 		.4byte	0
 9609 0b29 00000000 		.4byte	0
 9610              	.LLST43:
 9611 0b2d 1E000000 		.4byte	.LVL118
 9612 0b31 2A000000 		.4byte	.LVL119
 9613 0b35 0100     		.2byte	0x1
 9614 0b37 53       		.byte	0x53
 9615 0b38 2A000000 		.4byte	.LVL119
 9616 0b3c 33000000 		.4byte	.LVL121-1
 9617 0b40 0200     		.2byte	0x2
 9618 0b42 74       		.byte	0x74
 9619 0b43 03       		.sleb128 3
 9620 0b44 00000000 		.4byte	0
ARM GAS  C:\Users\adria\AppData\Local\Temp\cciNfgxb.s 			page 206


 9621 0b48 00000000 		.4byte	0
 9622              	.LLST44:
 9623 0b4c 00000000 		.4byte	.LVL125
 9624 0b50 09000000 		.4byte	.LVL126-1
 9625 0b54 0100     		.2byte	0x1
 9626 0b56 50       		.byte	0x50
 9627 0b57 09000000 		.4byte	.LVL126-1
 9628 0b5b 38000000 		.4byte	.LFE85
 9629 0b5f 0100     		.2byte	0x1
 9630 0b61 54       		.byte	0x54
 9631 0b62 00000000 		.4byte	0
 9632 0b66 00000000 		.4byte	0
 9633              	.LLST45:
 9634 0b6a 0A000000 		.4byte	.LVL126
 9635 0b6e 1A000000 		.4byte	.LVL127
 9636 0b72 0100     		.2byte	0x1
 9637 0b74 50       		.byte	0x50
 9638 0b75 32000000 		.4byte	.LVL129
 9639 0b79 38000000 		.4byte	.LFE85
 9640 0b7d 0100     		.2byte	0x1
 9641 0b7f 55       		.byte	0x55
 9642 0b80 00000000 		.4byte	0
 9643 0b84 00000000 		.4byte	0
 9644              	.LLST46:
 9645 0b88 00000000 		.4byte	.LVL130
 9646 0b8c 80000000 		.4byte	.LVL149
 9647 0b90 0100     		.2byte	0x1
 9648 0b92 50       		.byte	0x50
 9649 0b93 80000000 		.4byte	.LVL149
 9650 0b97 82000000 		.4byte	.LVL150
 9651 0b9b 0400     		.2byte	0x4
 9652 0b9d F3       		.byte	0xf3
 9653 0b9e 01       		.uleb128 0x1
 9654 0b9f 50       		.byte	0x50
 9655 0ba0 9F       		.byte	0x9f
 9656 0ba1 82000000 		.4byte	.LVL150
 9657 0ba5 84000000 		.4byte	.LVL151
 9658 0ba9 0100     		.2byte	0x1
 9659 0bab 50       		.byte	0x50
 9660 0bac 84000000 		.4byte	.LVL151
 9661 0bb0 88000000 		.4byte	.LFE89
 9662 0bb4 0400     		.2byte	0x4
 9663 0bb6 F3       		.byte	0xf3
 9664 0bb7 01       		.uleb128 0x1
 9665 0bb8 50       		.byte	0x50
 9666 0bb9 9F       		.byte	0x9f
 9667 0bba 00000000 		.4byte	0
 9668 0bbe 00000000 		.4byte	0
 9669              	.LLST47:
 9670 0bc2 02000000 		.4byte	.LVL131
 9671 0bc6 84000000 		.4byte	.LVL151
 9672 0bca 0200     		.2byte	0x2
 9673 0bcc 30       		.byte	0x30
 9674 0bcd 9F       		.byte	0x9f
 9675 0bce 84000000 		.4byte	.LVL151
 9676 0bd2 88000000 		.4byte	.LFE89
 9677 0bd6 0100     		.2byte	0x1
ARM GAS  C:\Users\adria\AppData\Local\Temp\cciNfgxb.s 			page 207


 9678 0bd8 50       		.byte	0x50
 9679 0bd9 00000000 		.4byte	0
 9680 0bdd 00000000 		.4byte	0
 9681              	.LLST48:
 9682 0be1 02000000 		.4byte	.LVL131
 9683 0be5 12000000 		.4byte	.LVL132
 9684 0be9 0200     		.2byte	0x2
 9685 0beb 30       		.byte	0x30
 9686 0bec 9F       		.byte	0x9f
 9687 0bed 12000000 		.4byte	.LVL132
 9688 0bf1 26000000 		.4byte	.LVL133
 9689 0bf5 0100     		.2byte	0x1
 9690 0bf7 55       		.byte	0x55
 9691 0bf8 28000000 		.4byte	.LVL134
 9692 0bfc 3A000000 		.4byte	.LVL135
 9693 0c00 0100     		.2byte	0x1
 9694 0c02 55       		.byte	0x55
 9695 0c03 3C000000 		.4byte	.LVL136
 9696 0c07 50000000 		.4byte	.LVL138
 9697 0c0b 0100     		.2byte	0x1
 9698 0c0d 55       		.byte	0x55
 9699 0c0e 52000000 		.4byte	.LVL139
 9700 0c12 7A000000 		.4byte	.LVL147
 9701 0c16 0100     		.2byte	0x1
 9702 0c18 55       		.byte	0x55
 9703 0c19 7C000000 		.4byte	.LVL148
 9704 0c1d 86000000 		.4byte	.LVL152
 9705 0c21 0100     		.2byte	0x1
 9706 0c23 55       		.byte	0x55
 9707 0c24 00000000 		.4byte	0
 9708 0c28 00000000 		.4byte	0
 9709              	.LLST49:
 9710 0c2c 40000000 		.4byte	.LVL137
 9711 0c30 54000000 		.4byte	.LVL140
 9712 0c34 0100     		.2byte	0x1
 9713 0c36 53       		.byte	0x53
 9714 0c37 56000000 		.4byte	.LVL141
 9715 0c3b 62000000 		.4byte	.LVL142
 9716 0c3f 0100     		.2byte	0x1
 9717 0c41 53       		.byte	0x53
 9718 0c42 6E000000 		.4byte	.LVL144
 9719 0c46 70000000 		.4byte	.LVL145
 9720 0c4a 0100     		.2byte	0x1
 9721 0c4c 53       		.byte	0x53
 9722 0c4d 00000000 		.4byte	0
 9723 0c51 00000000 		.4byte	0
 9724              	.LLST50:
 9725 0c55 02000000 		.4byte	.LVL131
 9726 0c59 6C000000 		.4byte	.LVL143
 9727 0c5d 0200     		.2byte	0x2
 9728 0c5f 30       		.byte	0x30
 9729 0c60 9F       		.byte	0x9f
 9730 0c61 6C000000 		.4byte	.LVL143
 9731 0c65 6E000000 		.4byte	.LVL144
 9732 0c69 0100     		.2byte	0x1
 9733 0c6b 53       		.byte	0x53
 9734 0c6c 6E000000 		.4byte	.LVL144
ARM GAS  C:\Users\adria\AppData\Local\Temp\cciNfgxb.s 			page 208


 9735 0c70 70000000 		.4byte	.LVL145
 9736 0c74 0200     		.2byte	0x2
 9737 0c76 30       		.byte	0x30
 9738 0c77 9F       		.byte	0x9f
 9739 0c78 70000000 		.4byte	.LVL145
 9740 0c7c 74000000 		.4byte	.LVL146
 9741 0c80 0100     		.2byte	0x1
 9742 0c82 53       		.byte	0x53
 9743 0c83 00000000 		.4byte	0
 9744 0c87 00000000 		.4byte	0
 9745              	.LLST51:
 9746 0c8b 00000000 		.4byte	.LVL153
 9747 0c8f 05000000 		.4byte	.LVL154-1
 9748 0c93 0100     		.2byte	0x1
 9749 0c95 50       		.byte	0x50
 9750 0c96 05000000 		.4byte	.LVL154-1
 9751 0c9a 08000000 		.4byte	.LFE90
 9752 0c9e 0400     		.2byte	0x4
 9753 0ca0 F3       		.byte	0xf3
 9754 0ca1 01       		.uleb128 0x1
 9755 0ca2 50       		.byte	0x50
 9756 0ca3 9F       		.byte	0x9f
 9757 0ca4 00000000 		.4byte	0
 9758 0ca8 00000000 		.4byte	0
 9759              	.LLST52:
 9760 0cac 00000000 		.4byte	.LVL155
 9761 0cb0 0D000000 		.4byte	.LVL158-1
 9762 0cb4 0100     		.2byte	0x1
 9763 0cb6 50       		.byte	0x50
 9764 0cb7 0D000000 		.4byte	.LVL158-1
 9765 0cbb 30000000 		.4byte	.LFE92
 9766 0cbf 0400     		.2byte	0x4
 9767 0cc1 F3       		.byte	0xf3
 9768 0cc2 01       		.uleb128 0x1
 9769 0cc3 50       		.byte	0x50
 9770 0cc4 9F       		.byte	0x9f
 9771 0cc5 00000000 		.4byte	0
 9772 0cc9 00000000 		.4byte	0
 9773              	.LLST53:
 9774 0ccd 00000000 		.4byte	.LVL155
 9775 0cd1 0A000000 		.4byte	.LVL157
 9776 0cd5 0100     		.2byte	0x1
 9777 0cd7 51       		.byte	0x51
 9778 0cd8 0A000000 		.4byte	.LVL157
 9779 0cdc 30000000 		.4byte	.LFE92
 9780 0ce0 0400     		.2byte	0x4
 9781 0ce2 F3       		.byte	0xf3
 9782 0ce3 01       		.uleb128 0x1
 9783 0ce4 51       		.byte	0x51
 9784 0ce5 9F       		.byte	0x9f
 9785 0ce6 00000000 		.4byte	0
 9786 0cea 00000000 		.4byte	0
 9787              	.LLST54:
 9788 0cee 00000000 		.4byte	.LVL155
 9789 0cf2 0D000000 		.4byte	.LVL158-1
 9790 0cf6 0100     		.2byte	0x1
 9791 0cf8 52       		.byte	0x52
ARM GAS  C:\Users\adria\AppData\Local\Temp\cciNfgxb.s 			page 209


 9792 0cf9 0D000000 		.4byte	.LVL158-1
 9793 0cfd 1C000000 		.4byte	.LVL161
 9794 0d01 0100     		.2byte	0x1
 9795 0d03 55       		.byte	0x55
 9796 0d04 1C000000 		.4byte	.LVL161
 9797 0d08 24000000 		.4byte	.LVL164
 9798 0d0c 0300     		.2byte	0x3
 9799 0d0e 75       		.byte	0x75
 9800 0d0f 7F       		.sleb128 -1
 9801 0d10 9F       		.byte	0x9f
 9802 0d11 24000000 		.4byte	.LVL164
 9803 0d15 30000000 		.4byte	.LFE92
 9804 0d19 0100     		.2byte	0x1
 9805 0d1b 55       		.byte	0x55
 9806 0d1c 00000000 		.4byte	0
 9807 0d20 00000000 		.4byte	0
 9808              	.LLST55:
 9809 0d24 00000000 		.4byte	.LVL155
 9810 0d28 0D000000 		.4byte	.LVL158-1
 9811 0d2c 0100     		.2byte	0x1
 9812 0d2e 53       		.byte	0x53
 9813 0d2f 0D000000 		.4byte	.LVL158-1
 9814 0d33 30000000 		.4byte	.LFE92
 9815 0d37 0400     		.2byte	0x4
 9816 0d39 F3       		.byte	0xf3
 9817 0d3a 01       		.uleb128 0x1
 9818 0d3b 53       		.byte	0x53
 9819 0d3c 9F       		.byte	0x9f
 9820 0d3d 00000000 		.4byte	0
 9821 0d41 00000000 		.4byte	0
 9822              	.LLST56:
 9823 0d45 08000000 		.4byte	.LVL156
 9824 0d49 18000000 		.4byte	.LVL160
 9825 0d4d 0200     		.2byte	0x2
 9826 0d4f 30       		.byte	0x30
 9827 0d50 9F       		.byte	0x9f
 9828 0d51 18000000 		.4byte	.LVL160
 9829 0d55 22000000 		.4byte	.LVL163
 9830 0d59 0100     		.2byte	0x1
 9831 0d5b 54       		.byte	0x54
 9832 0d5c 24000000 		.4byte	.LVL164
 9833 0d60 30000000 		.4byte	.LFE92
 9834 0d64 0100     		.2byte	0x1
 9835 0d66 54       		.byte	0x54
 9836 0d67 00000000 		.4byte	0
 9837 0d6b 00000000 		.4byte	0
 9838              	.LLST57:
 9839 0d6f 00000000 		.4byte	.LVL166
 9840 0d73 0D000000 		.4byte	.LVL169-1
 9841 0d77 0100     		.2byte	0x1
 9842 0d79 50       		.byte	0x50
 9843 0d7a 0D000000 		.4byte	.LVL169-1
 9844 0d7e 3E000000 		.4byte	.LFE91
 9845 0d82 0400     		.2byte	0x4
 9846 0d84 F3       		.byte	0xf3
 9847 0d85 01       		.uleb128 0x1
 9848 0d86 50       		.byte	0x50
ARM GAS  C:\Users\adria\AppData\Local\Temp\cciNfgxb.s 			page 210


 9849 0d87 9F       		.byte	0x9f
 9850 0d88 00000000 		.4byte	0
 9851 0d8c 00000000 		.4byte	0
 9852              	.LLST58:
 9853 0d90 00000000 		.4byte	.LVL166
 9854 0d94 0A000000 		.4byte	.LVL168
 9855 0d98 0100     		.2byte	0x1
 9856 0d9a 51       		.byte	0x51
 9857 0d9b 0A000000 		.4byte	.LVL168
 9858 0d9f 3E000000 		.4byte	.LFE91
 9859 0da3 0400     		.2byte	0x4
 9860 0da5 F3       		.byte	0xf3
 9861 0da6 01       		.uleb128 0x1
 9862 0da7 51       		.byte	0x51
 9863 0da8 9F       		.byte	0x9f
 9864 0da9 00000000 		.4byte	0
 9865 0dad 00000000 		.4byte	0
 9866              	.LLST59:
 9867 0db1 00000000 		.4byte	.LVL166
 9868 0db5 0D000000 		.4byte	.LVL169-1
 9869 0db9 0100     		.2byte	0x1
 9870 0dbb 52       		.byte	0x52
 9871 0dbc 0D000000 		.4byte	.LVL169-1
 9872 0dc0 20000000 		.4byte	.LVL172
 9873 0dc4 0400     		.2byte	0x4
 9874 0dc6 F3       		.byte	0xf3
 9875 0dc7 01       		.uleb128 0x1
 9876 0dc8 52       		.byte	0x52
 9877 0dc9 9F       		.byte	0x9f
 9878 0dca 00000000 		.4byte	0
 9879 0dce 00000000 		.4byte	0
 9880              	.LLST60:
 9881 0dd2 00000000 		.4byte	.LVL166
 9882 0dd6 0D000000 		.4byte	.LVL169-1
 9883 0dda 0100     		.2byte	0x1
 9884 0ddc 53       		.byte	0x53
 9885 0ddd 0D000000 		.4byte	.LVL169-1
 9886 0de1 3E000000 		.4byte	.LFE91
 9887 0de5 0400     		.2byte	0x4
 9888 0de7 F3       		.byte	0xf3
 9889 0de8 01       		.uleb128 0x1
 9890 0de9 53       		.byte	0x53
 9891 0dea 9F       		.byte	0x9f
 9892 0deb 00000000 		.4byte	0
 9893 0def 00000000 		.4byte	0
 9894              	.LLST61:
 9895 0df3 08000000 		.4byte	.LVL167
 9896 0df7 0E000000 		.4byte	.LVL169
 9897 0dfb 0200     		.2byte	0x2
 9898 0dfd 30       		.byte	0x30
 9899 0dfe 9F       		.byte	0x9f
 9900 0dff 3A000000 		.4byte	.LVL177
 9901 0e03 3E000000 		.4byte	.LFE91
 9902 0e07 0100     		.2byte	0x1
 9903 0e09 50       		.byte	0x50
 9904 0e0a 00000000 		.4byte	0
 9905 0e0e 00000000 		.4byte	0
ARM GAS  C:\Users\adria\AppData\Local\Temp\cciNfgxb.s 			page 211


 9906              	.LLST62:
 9907 0e12 08000000 		.4byte	.LVL167
 9908 0e16 20000000 		.4byte	.LVL172
 9909 0e1a 0200     		.2byte	0x2
 9910 0e1c 30       		.byte	0x30
 9911 0e1d 9F       		.byte	0x9f
 9912 0e1e 20000000 		.4byte	.LVL172
 9913 0e22 28000000 		.4byte	.LVL174
 9914 0e26 0100     		.2byte	0x1
 9915 0e28 54       		.byte	0x54
 9916 0e29 2A000000 		.4byte	.LVL175
 9917 0e2d 3E000000 		.4byte	.LFE91
 9918 0e31 0100     		.2byte	0x1
 9919 0e33 54       		.byte	0x54
 9920 0e34 00000000 		.4byte	0
 9921 0e38 00000000 		.4byte	0
 9922              	.LLST63:
 9923 0e3c 00000000 		.4byte	.LVL178
 9924 0e40 0E000000 		.4byte	.LVL179
 9925 0e44 0100     		.2byte	0x1
 9926 0e46 50       		.byte	0x50
 9927 0e47 0E000000 		.4byte	.LVL179
 9928 0e4b 2A000000 		.4byte	.LVL183
 9929 0e4f 0400     		.2byte	0x4
 9930 0e51 F3       		.byte	0xf3
 9931 0e52 01       		.uleb128 0x1
 9932 0e53 50       		.byte	0x50
 9933 0e54 9F       		.byte	0x9f
 9934 0e55 2A000000 		.4byte	.LVL183
 9935 0e59 40000000 		.4byte	.LVL185
 9936 0e5d 0100     		.2byte	0x1
 9937 0e5f 56       		.byte	0x56
 9938 0e60 00000000 		.4byte	0
 9939 0e64 00000000 		.4byte	0
 9940              	.LLST64:
 9941 0e68 00000000 		.4byte	.LVL178
 9942 0e6c 11000000 		.4byte	.LVL180-1
 9943 0e70 0100     		.2byte	0x1
 9944 0e72 51       		.byte	0x51
 9945 0e73 11000000 		.4byte	.LVL180-1
 9946 0e77 46000000 		.4byte	.LFE64
 9947 0e7b 0100     		.2byte	0x1
 9948 0e7d 58       		.byte	0x58
 9949 0e7e 00000000 		.4byte	0
 9950 0e82 00000000 		.4byte	0
 9951              	.LLST65:
 9952 0e86 00000000 		.4byte	.LVL178
 9953 0e8a 11000000 		.4byte	.LVL180-1
 9954 0e8e 0100     		.2byte	0x1
 9955 0e90 52       		.byte	0x52
 9956 0e91 11000000 		.4byte	.LVL180-1
 9957 0e95 46000000 		.4byte	.LFE64
 9958 0e99 0400     		.2byte	0x4
 9959 0e9b F3       		.byte	0xf3
 9960 0e9c 01       		.uleb128 0x1
 9961 0e9d 52       		.byte	0x52
 9962 0e9e 9F       		.byte	0x9f
ARM GAS  C:\Users\adria\AppData\Local\Temp\cciNfgxb.s 			page 212


 9963 0e9f 00000000 		.4byte	0
 9964 0ea3 00000000 		.4byte	0
 9965              	.LLST66:
 9966 0ea7 00000000 		.4byte	.LVL178
 9967 0eab 11000000 		.4byte	.LVL180-1
 9968 0eaf 0100     		.2byte	0x1
 9969 0eb1 53       		.byte	0x53
 9970 0eb2 11000000 		.4byte	.LVL180-1
 9971 0eb6 46000000 		.4byte	.LFE64
 9972 0eba 0100     		.2byte	0x1
 9973 0ebc 54       		.byte	0x54
 9974 0ebd 00000000 		.4byte	0
 9975 0ec1 00000000 		.4byte	0
 9976              	.LLST67:
 9977 0ec5 12000000 		.4byte	.LVL180
 9978 0ec9 1E000000 		.4byte	.LVL181
 9979 0ecd 0100     		.2byte	0x1
 9980 0ecf 50       		.byte	0x50
 9981 0ed0 22000000 		.4byte	.LVL182
 9982 0ed4 2A000000 		.4byte	.LVL183
 9983 0ed8 0100     		.2byte	0x1
 9984 0eda 50       		.byte	0x50
 9985 0edb 2A000000 		.4byte	.LVL183
 9986 0edf 46000000 		.4byte	.LFE64
 9987 0ee3 0100     		.2byte	0x1
 9988 0ee5 55       		.byte	0x55
 9989 0ee6 00000000 		.4byte	0
 9990 0eea 00000000 		.4byte	0
 9991              	.LLST68:
 9992 0eee 00000000 		.4byte	.LVL186
 9993 0ef2 0C000000 		.4byte	.LVL187
 9994 0ef6 0100     		.2byte	0x1
 9995 0ef8 50       		.byte	0x50
 9996 0ef9 0C000000 		.4byte	.LVL187
 9997 0efd 8A010000 		.4byte	.LFE74
 9998 0f01 0100     		.2byte	0x1
 9999 0f03 54       		.byte	0x54
 10000 0f04 00000000 		.4byte	0
 10001 0f08 00000000 		.4byte	0
 10002              	.LLST69:
 10003 0f0c 1C000000 		.4byte	.LVL189
 10004 0f10 2C000000 		.4byte	.LVL190
 10005 0f14 0100     		.2byte	0x1
 10006 0f16 50       		.byte	0x50
 10007 0f17 30000000 		.4byte	.LVL191
 10008 0f1b 3E000000 		.4byte	.LVL192
 10009 0f1f 0100     		.2byte	0x1
 10010 0f21 50       		.byte	0x50
 10011 0f22 44000000 		.4byte	.LVL194
 10012 0f26 34010000 		.4byte	.LVL195
 10013 0f2a 0100     		.2byte	0x1
 10014 0f2c 53       		.byte	0x53
 10015 0f2d 40010000 		.4byte	.LVL196
 10016 0f31 5D010000 		.4byte	.LVL197-1
 10017 0f35 0100     		.2byte	0x1
 10018 0f37 50       		.byte	0x50
 10019 0f38 5E010000 		.4byte	.LVL197
ARM GAS  C:\Users\adria\AppData\Local\Temp\cciNfgxb.s 			page 213


 10020 0f3c 74010000 		.4byte	.LVL198
 10021 0f40 0100     		.2byte	0x1
 10022 0f42 50       		.byte	0x50
 10023 0f43 7A010000 		.4byte	.LVL200
 10024 0f47 8A010000 		.4byte	.LFE74
 10025 0f4b 0100     		.2byte	0x1
 10026 0f4d 53       		.byte	0x53
 10027 0f4e 00000000 		.4byte	0
 10028 0f52 00000000 		.4byte	0
 10029              	.LLST70:
 10030 0f56 00000000 		.4byte	.LVL202
 10031 0f5a 0F000000 		.4byte	.LVL204-1
 10032 0f5e 0100     		.2byte	0x1
 10033 0f60 50       		.byte	0x50
 10034 0f61 0F000000 		.4byte	.LVL204-1
 10035 0f65 5C000000 		.4byte	.LFE76
 10036 0f69 0100     		.2byte	0x1
 10037 0f6b 54       		.byte	0x54
 10038 0f6c 00000000 		.4byte	0
 10039 0f70 00000000 		.4byte	0
 10040              	.LLST71:
 10041 0f74 10000000 		.4byte	.LVL204
 10042 0f78 1C000000 		.4byte	.LVL205
 10043 0f7c 0100     		.2byte	0x1
 10044 0f7e 50       		.byte	0x50
 10045 0f7f 22000000 		.4byte	.LVL207
 10046 0f83 26000000 		.4byte	.LVL208
 10047 0f87 0100     		.2byte	0x1
 10048 0f89 53       		.byte	0x53
 10049 0f8a 32000000 		.4byte	.LVL209
 10050 0f8e 46000000 		.4byte	.LVL210
 10051 0f92 0100     		.2byte	0x1
 10052 0f94 50       		.byte	0x50
 10053 0f95 4A000000 		.4byte	.LVL211
 10054 0f99 56000000 		.4byte	.LVL212
 10055 0f9d 0100     		.2byte	0x1
 10056 0f9f 50       		.byte	0x50
 10057 0fa0 56000000 		.4byte	.LVL212
 10058 0fa4 5C000000 		.4byte	.LFE76
 10059 0fa8 0100     		.2byte	0x1
 10060 0faa 53       		.byte	0x53
 10061 0fab 00000000 		.4byte	0
 10062 0faf 00000000 		.4byte	0
 10063              	.LLST72:
 10064 0fb3 00000000 		.4byte	.LVL213
 10065 0fb7 18000000 		.4byte	.LVL215
 10066 0fbb 0100     		.2byte	0x1
 10067 0fbd 50       		.byte	0x50
 10068 0fbe 18000000 		.4byte	.LVL215
 10069 0fc2 EC000000 		.4byte	.LFE83
 10070 0fc6 0100     		.2byte	0x1
 10071 0fc8 57       		.byte	0x57
 10072 0fc9 00000000 		.4byte	0
 10073 0fcd 00000000 		.4byte	0
 10074              	.LLST73:
 10075 0fd1 00000000 		.4byte	.LVL213
 10076 0fd5 1B000000 		.4byte	.LVL216-1
ARM GAS  C:\Users\adria\AppData\Local\Temp\cciNfgxb.s 			page 214


 10077 0fd9 0100     		.2byte	0x1
 10078 0fdb 51       		.byte	0x51
 10079 0fdc 1B000000 		.4byte	.LVL216-1
 10080 0fe0 EC000000 		.4byte	.LFE83
 10081 0fe4 0100     		.2byte	0x1
 10082 0fe6 5A       		.byte	0x5a
 10083 0fe7 00000000 		.4byte	0
 10084 0feb 00000000 		.4byte	0
 10085              	.LLST74:
 10086 0fef 90000000 		.4byte	.LVL225
 10087 0ff3 D8000000 		.4byte	.LVL232
 10088 0ff7 0100     		.2byte	0x1
 10089 0ff9 5B       		.byte	0x5b
 10090 0ffa 00000000 		.4byte	0
 10091 0ffe 00000000 		.4byte	0
 10092              	.LLST75:
 10093 1002 72000000 		.4byte	.LVL222
 10094 1006 AB000000 		.4byte	.LVL226-1
 10095 100a 0100     		.2byte	0x1
 10096 100c 50       		.byte	0x50
 10097 100d D0000000 		.4byte	.LVL230
 10098 1011 D6000000 		.4byte	.LVL231
 10099 1015 0100     		.2byte	0x1
 10100 1017 50       		.byte	0x50
 10101 1018 00000000 		.4byte	0
 10102 101c 00000000 		.4byte	0
 10103              	.LLST76:
 10104 1020 5C000000 		.4byte	.LVL221
 10105 1024 D8000000 		.4byte	.LVL232
 10106 1028 0100     		.2byte	0x1
 10107 102a 55       		.byte	0x55
 10108 102b 00000000 		.4byte	0
 10109 102f 00000000 		.4byte	0
 10110              	.LLST77:
 10111 1033 7E000000 		.4byte	.LVL223
 10112 1037 D8000000 		.4byte	.LVL232
 10113 103b 0100     		.2byte	0x1
 10114 103d 59       		.byte	0x59
 10115 103e 00000000 		.4byte	0
 10116 1042 00000000 		.4byte	0
 10117              	.LLST78:
 10118 1046 8C000000 		.4byte	.LVL224
 10119 104a D8000000 		.4byte	.LVL232
 10120 104e 0100     		.2byte	0x1
 10121 1050 58       		.byte	0x58
 10122 1051 00000000 		.4byte	0
 10123 1055 00000000 		.4byte	0
 10124              	.LLST79:
 10125 1059 16000000 		.4byte	.LVL214
 10126 105d 20000000 		.4byte	.LVL218
 10127 1061 0200     		.2byte	0x2
 10128 1063 3A       		.byte	0x3a
 10129 1064 9F       		.byte	0x9f
 10130 1065 20000000 		.4byte	.LVL218
 10131 1069 DA000000 		.4byte	.LVL233
 10132 106d 0100     		.2byte	0x1
 10133 106f 54       		.byte	0x54
ARM GAS  C:\Users\adria\AppData\Local\Temp\cciNfgxb.s 			page 215


 10134 1070 DA000000 		.4byte	.LVL233
 10135 1074 E0000000 		.4byte	.LVL234
 10136 1078 0100     		.2byte	0x1
 10137 107a 53       		.byte	0x53
 10138 107b E0000000 		.4byte	.LVL234
 10139 107f EC000000 		.4byte	.LFE83
 10140 1083 0100     		.2byte	0x1
 10141 1085 54       		.byte	0x54
 10142 1086 00000000 		.4byte	0
 10143 108a 00000000 		.4byte	0
 10144              	.LLST80:
 10145 108e 00000000 		.4byte	.LVL236
 10146 1092 14000000 		.4byte	.LVL239
 10147 1096 0100     		.2byte	0x1
 10148 1098 50       		.byte	0x50
 10149 1099 14000000 		.4byte	.LVL239
 10150 109d A8000000 		.4byte	.LFE65
 10151 10a1 0100     		.2byte	0x1
 10152 10a3 56       		.byte	0x56
 10153 10a4 00000000 		.4byte	0
 10154 10a8 00000000 		.4byte	0
 10155              	.LLST81:
 10156 10ac 00000000 		.4byte	.LVL236
 10157 10b0 12000000 		.4byte	.LVL238
 10158 10b4 0100     		.2byte	0x1
 10159 10b6 51       		.byte	0x51
 10160 10b7 12000000 		.4byte	.LVL238
 10161 10bb A8000000 		.4byte	.LFE65
 10162 10bf 0100     		.2byte	0x1
 10163 10c1 58       		.byte	0x58
 10164 10c2 00000000 		.4byte	0
 10165 10c6 00000000 		.4byte	0
 10166              	.LLST82:
 10167 10ca 00000000 		.4byte	.LVL236
 10168 10ce 10000000 		.4byte	.LVL237
 10169 10d2 0100     		.2byte	0x1
 10170 10d4 52       		.byte	0x52
 10171 10d5 10000000 		.4byte	.LVL237
 10172 10d9 A8000000 		.4byte	.LFE65
 10173 10dd 0400     		.2byte	0x4
 10174 10df F3       		.byte	0xf3
 10175 10e0 01       		.uleb128 0x1
 10176 10e1 52       		.byte	0x52
 10177 10e2 9F       		.byte	0x9f
 10178 10e3 00000000 		.4byte	0
 10179 10e7 00000000 		.4byte	0
 10180              	.LLST83:
 10181 10eb 00000000 		.4byte	.LVL236
 10182 10ef 17000000 		.4byte	.LVL240-1
 10183 10f3 0100     		.2byte	0x1
 10184 10f5 53       		.byte	0x53
 10185 10f6 17000000 		.4byte	.LVL240-1
 10186 10fa A8000000 		.4byte	.LFE65
 10187 10fe 0100     		.2byte	0x1
 10188 1100 55       		.byte	0x55
 10189 1101 00000000 		.4byte	0
 10190 1105 00000000 		.4byte	0
ARM GAS  C:\Users\adria\AppData\Local\Temp\cciNfgxb.s 			page 216


 10191              	.LLST84:
 10192 1109 1E000000 		.4byte	.LVL241
 10193 110d 32000000 		.4byte	.LVL242
 10194 1111 0100     		.2byte	0x1
 10195 1113 50       		.byte	0x50
 10196 1114 32000000 		.4byte	.LVL242
 10197 1118 74000000 		.4byte	.LVL247
 10198 111c 0100     		.2byte	0x1
 10199 111e 59       		.byte	0x59
 10200 111f 74000000 		.4byte	.LVL247
 10201 1123 76000000 		.4byte	.LVL248
 10202 1127 0100     		.2byte	0x1
 10203 1129 50       		.byte	0x50
 10204 112a 76000000 		.4byte	.LVL248
 10205 112e A8000000 		.4byte	.LFE65
 10206 1132 0100     		.2byte	0x1
 10207 1134 59       		.byte	0x59
 10208 1135 00000000 		.4byte	0
 10209 1139 00000000 		.4byte	0
 10210              	.LLST85:
 10211 113d 32000000 		.4byte	.LVL242
 10212 1141 70000000 		.4byte	.LVL245
 10213 1145 0100     		.2byte	0x1
 10214 1147 54       		.byte	0x54
 10215 1148 72000000 		.4byte	.LVL246
 10216 114c 74000000 		.4byte	.LVL247
 10217 1150 0100     		.2byte	0x1
 10218 1152 54       		.byte	0x54
 10219 1153 76000000 		.4byte	.LVL248
 10220 1157 84000000 		.4byte	.LVL249
 10221 115b 0100     		.2byte	0x1
 10222 115d 54       		.byte	0x54
 10223 115e 00000000 		.4byte	0
 10224 1162 00000000 		.4byte	0
 10225              	.LLST86:
 10226 1166 00000000 		.4byte	.LVL252
 10227 116a 09000000 		.4byte	.LVL253-1
 10228 116e 0100     		.2byte	0x1
 10229 1170 50       		.byte	0x50
 10230 1171 09000000 		.4byte	.LVL253-1
 10231 1175 66000000 		.4byte	.LFE75
 10232 1179 0100     		.2byte	0x1
 10233 117b 55       		.byte	0x55
 10234 117c 00000000 		.4byte	0
 10235 1180 00000000 		.4byte	0
 10236              	.LLST87:
 10237 1184 0A000000 		.4byte	.LVL253
 10238 1188 2C000000 		.4byte	.LVL254
 10239 118c 0100     		.2byte	0x1
 10240 118e 50       		.byte	0x50
 10241 118f 4E000000 		.4byte	.LVL257
 10242 1193 50000000 		.4byte	.LVL258
 10243 1197 0100     		.2byte	0x1
 10244 1199 50       		.byte	0x50
 10245 119a 50000000 		.4byte	.LVL258
 10246 119e 66000000 		.4byte	.LFE75
 10247 11a2 0100     		.2byte	0x1
ARM GAS  C:\Users\adria\AppData\Local\Temp\cciNfgxb.s 			page 217


 10248 11a4 54       		.byte	0x54
 10249 11a5 00000000 		.4byte	0
 10250 11a9 00000000 		.4byte	0
 10251              	.LLST88:
 10252 11ad 00000000 		.4byte	.LVL261
 10253 11b1 15000000 		.4byte	.LVL262-1
 10254 11b5 0100     		.2byte	0x1
 10255 11b7 50       		.byte	0x50
 10256 11b8 15000000 		.4byte	.LVL262-1
 10257 11bc 54000000 		.4byte	.LFE66
 10258 11c0 0100     		.2byte	0x1
 10259 11c2 55       		.byte	0x55
 10260 11c3 00000000 		.4byte	0
 10261 11c7 00000000 		.4byte	0
 10262              	.LLST89:
 10263 11cb 16000000 		.4byte	.LVL262
 10264 11cf 20000000 		.4byte	.LVL263
 10265 11d3 0100     		.2byte	0x1
 10266 11d5 50       		.byte	0x50
 10267 11d6 26000000 		.4byte	.LVL265
 10268 11da 54000000 		.4byte	.LFE66
 10269 11de 0100     		.2byte	0x1
 10270 11e0 54       		.byte	0x54
 10271 11e1 00000000 		.4byte	0
 10272 11e5 00000000 		.4byte	0
 10273              	.LLST90:
 10274 11e9 00000000 		.4byte	.LVL271
 10275 11ed 07000000 		.4byte	.LVL272-1
 10276 11f1 0100     		.2byte	0x1
 10277 11f3 50       		.byte	0x50
 10278 11f4 07000000 		.4byte	.LVL272-1
 10279 11f8 3E000000 		.4byte	.LFE63
 10280 11fc 0100     		.2byte	0x1
 10281 11fe 54       		.byte	0x54
 10282 11ff 00000000 		.4byte	0
 10283 1203 00000000 		.4byte	0
 10284              	.LLST91:
 10285 1207 08000000 		.4byte	.LVL272
 10286 120b 0E000000 		.4byte	.LVL273
 10287 120f 0100     		.2byte	0x1
 10288 1211 50       		.byte	0x50
 10289 1212 12000000 		.4byte	.LVL274
 10290 1216 1E000000 		.4byte	.LVL275
 10291 121a 0100     		.2byte	0x1
 10292 121c 50       		.byte	0x50
 10293 121d 22000000 		.4byte	.LVL276
 10294 1221 2E000000 		.4byte	.LVL277
 10295 1225 0100     		.2byte	0x1
 10296 1227 50       		.byte	0x50
 10297 1228 34000000 		.4byte	.LVL279
 10298 122c 36000000 		.4byte	.LVL280
 10299 1230 0100     		.2byte	0x1
 10300 1232 53       		.byte	0x53
 10301 1233 36000000 		.4byte	.LVL280
 10302 1237 3A000000 		.4byte	.LVL281
 10303 123b 0100     		.2byte	0x1
 10304 123d 50       		.byte	0x50
ARM GAS  C:\Users\adria\AppData\Local\Temp\cciNfgxb.s 			page 218


 10305 123e 3A000000 		.4byte	.LVL281
 10306 1242 3E000000 		.4byte	.LFE63
 10307 1246 0100     		.2byte	0x1
 10308 1248 53       		.byte	0x53
 10309 1249 00000000 		.4byte	0
 10310 124d 00000000 		.4byte	0
 10311              	.LLST92:
 10312 1251 00000000 		.4byte	.LVL282
 10313 1255 12000000 		.4byte	.LVL284
 10314 1259 0100     		.2byte	0x1
 10315 125b 50       		.byte	0x50
 10316 125c 12000000 		.4byte	.LVL284
 10317 1260 B6000000 		.4byte	.LFE68
 10318 1264 0400     		.2byte	0x4
 10319 1266 F3       		.byte	0xf3
 10320 1267 01       		.uleb128 0x1
 10321 1268 50       		.byte	0x50
 10322 1269 9F       		.byte	0x9f
 10323 126a 00000000 		.4byte	0
 10324 126e 00000000 		.4byte	0
 10325              	.LLST93:
 10326 1272 00000000 		.4byte	.LVL282
 10327 1276 15000000 		.4byte	.LVL285-1
 10328 127a 0100     		.2byte	0x1
 10329 127c 51       		.byte	0x51
 10330 127d 15000000 		.4byte	.LVL285-1
 10331 1281 B6000000 		.4byte	.LFE68
 10332 1285 0100     		.2byte	0x1
 10333 1287 54       		.byte	0x54
 10334 1288 00000000 		.4byte	0
 10335 128c 00000000 		.4byte	0
 10336              	.LLST94:
 10337 1290 16000000 		.4byte	.LVL285
 10338 1294 22000000 		.4byte	.LVL286
 10339 1298 0100     		.2byte	0x1
 10340 129a 50       		.byte	0x50
 10341 129b 26000000 		.4byte	.LVL287
 10342 129f 36000000 		.4byte	.LVL288
 10343 12a3 0100     		.2byte	0x1
 10344 12a5 50       		.byte	0x50
 10345 12a6 3C000000 		.4byte	.LVL290
 10346 12aa AC000000 		.4byte	.LVL291
 10347 12ae 0100     		.2byte	0x1
 10348 12b0 52       		.byte	0x52
 10349 12b1 AC000000 		.4byte	.LVL291
 10350 12b5 B0000000 		.4byte	.LVL292
 10351 12b9 0100     		.2byte	0x1
 10352 12bb 50       		.byte	0x50
 10353 12bc B0000000 		.4byte	.LVL292
 10354 12c0 B6000000 		.4byte	.LFE68
 10355 12c4 0100     		.2byte	0x1
 10356 12c6 52       		.byte	0x52
 10357 12c7 00000000 		.4byte	0
 10358 12cb 00000000 		.4byte	0
 10359              	.LLST95:
 10360 12cf 00000000 		.4byte	.LVL293
 10361 12d3 0F000000 		.4byte	.LVL295-1
ARM GAS  C:\Users\adria\AppData\Local\Temp\cciNfgxb.s 			page 219


 10362 12d7 0100     		.2byte	0x1
 10363 12d9 50       		.byte	0x50
 10364 12da 0F000000 		.4byte	.LVL295-1
 10365 12de 86000000 		.4byte	.LFE69
 10366 12e2 0100     		.2byte	0x1
 10367 12e4 55       		.byte	0x55
 10368 12e5 00000000 		.4byte	0
 10369 12e9 00000000 		.4byte	0
 10370              	.LLST96:
 10371 12ed 10000000 		.4byte	.LVL295
 10372 12f1 16000000 		.4byte	.LVL296
 10373 12f5 0100     		.2byte	0x1
 10374 12f7 50       		.byte	0x50
 10375 12f8 24000000 		.4byte	.LVL297
 10376 12fc 44000000 		.4byte	.LVL301
 10377 1300 0100     		.2byte	0x1
 10378 1302 50       		.byte	0x50
 10379 1303 4A000000 		.4byte	.LVL303
 10380 1307 86000000 		.4byte	.LFE69
 10381 130b 0100     		.2byte	0x1
 10382 130d 56       		.byte	0x56
 10383 130e 00000000 		.4byte	0
 10384 1312 00000000 		.4byte	0
 10385              	.LLST97:
 10386 1316 06000000 		.4byte	.LVL294
 10387 131a 16000000 		.4byte	.LVL296
 10388 131e 0200     		.2byte	0x2
 10389 1320 30       		.byte	0x30
 10390 1321 9F       		.byte	0x9f
 10391 1322 16000000 		.4byte	.LVL296
 10392 1326 2C000000 		.4byte	.LVL298
 10393 132a 0100     		.2byte	0x1
 10394 132c 54       		.byte	0x54
 10395 132d 2C000000 		.4byte	.LVL298
 10396 1331 36000000 		.4byte	.LVL299
 10397 1335 0500     		.2byte	0x5
 10398 1337 73       		.byte	0x73
 10399 1338 00       		.sleb128 0
 10400 1339 33       		.byte	0x33
 10401 133a 1A       		.byte	0x1a
 10402 133b 9F       		.byte	0x9f
 10403 133c 36000000 		.4byte	.LVL299
 10404 1340 3C000000 		.4byte	.LVL300
 10405 1344 0700     		.2byte	0x7
 10406 1346 91       		.byte	0x91
 10407 1347 6F       		.sleb128 -17
 10408 1348 94       		.byte	0x94
 10409 1349 01       		.byte	0x1
 10410 134a 33       		.byte	0x33
 10411 134b 1A       		.byte	0x1a
 10412 134c 9F       		.byte	0x9f
 10413 134d 50000000 		.4byte	.LVL304
 10414 1351 80000000 		.4byte	.LVL306
 10415 1355 0100     		.2byte	0x1
 10416 1357 54       		.byte	0x54
 10417 1358 00000000 		.4byte	0
 10418 135c 00000000 		.4byte	0
ARM GAS  C:\Users\adria\AppData\Local\Temp\cciNfgxb.s 			page 220


 10419              	.LLST98:
 10420 1360 00000000 		.4byte	.LVL307
 10421 1364 20000000 		.4byte	.LVL310
 10422 1368 0100     		.2byte	0x1
 10423 136a 50       		.byte	0x50
 10424 136b 20000000 		.4byte	.LVL310
 10425 136f 68020000 		.4byte	.LFE67
 10426 1373 0400     		.2byte	0x4
 10427 1375 F3       		.byte	0xf3
 10428 1376 01       		.uleb128 0x1
 10429 1377 50       		.byte	0x50
 10430 1378 9F       		.byte	0x9f
 10431 1379 00000000 		.4byte	0
 10432 137d 00000000 		.4byte	0
 10433              	.LLST99:
 10434 1381 00000000 		.4byte	.LVL307
 10435 1385 23000000 		.4byte	.LVL311-1
 10436 1389 0100     		.2byte	0x1
 10437 138b 51       		.byte	0x51
 10438 138c 23000000 		.4byte	.LVL311-1
 10439 1390 68020000 		.4byte	.LFE67
 10440 1394 0100     		.2byte	0x1
 10441 1396 54       		.byte	0x54
 10442 1397 00000000 		.4byte	0
 10443 139b 00000000 		.4byte	0
 10444              	.LLST100:
 10445 139f 24000000 		.4byte	.LVL311
 10446 13a3 36000000 		.4byte	.LVL312
 10447 13a7 0100     		.2byte	0x1
 10448 13a9 50       		.byte	0x50
 10449 13aa 3C000000 		.4byte	.LVL314
 10450 13ae 49000000 		.4byte	.LVL315-1
 10451 13b2 0100     		.2byte	0x1
 10452 13b4 53       		.byte	0x53
 10453 13b5 4C000000 		.4byte	.LVL316
 10454 13b9 56000000 		.4byte	.LVL317
 10455 13bd 0100     		.2byte	0x1
 10456 13bf 53       		.byte	0x53
 10457 13c0 62000000 		.4byte	.LVL318
 10458 13c4 70000000 		.4byte	.LVL319
 10459 13c8 0100     		.2byte	0x1
 10460 13ca 50       		.byte	0x50
 10461 13cb 76000000 		.4byte	.LVL321
 10462 13cf AE000000 		.4byte	.LVL325
 10463 13d3 0100     		.2byte	0x1
 10464 13d5 53       		.byte	0x53
 10465 13d6 BA000000 		.4byte	.LVL326
 10466 13da C8000000 		.4byte	.LVL327
 10467 13de 0100     		.2byte	0x1
 10468 13e0 50       		.byte	0x50
 10469 13e1 CE000000 		.4byte	.LVL329
 10470 13e5 FE000000 		.4byte	.LVL332
 10471 13e9 0100     		.2byte	0x1
 10472 13eb 53       		.byte	0x53
 10473 13ec 0A010000 		.4byte	.LVL333
 10474 13f0 18010000 		.4byte	.LVL334
 10475 13f4 0100     		.2byte	0x1
ARM GAS  C:\Users\adria\AppData\Local\Temp\cciNfgxb.s 			page 221


 10476 13f6 50       		.byte	0x50
 10477 13f7 1E010000 		.4byte	.LVL336
 10478 13fb 78010000 		.4byte	.LVL339
 10479 13ff 0100     		.2byte	0x1
 10480 1401 53       		.byte	0x53
 10481 1402 84010000 		.4byte	.LVL340
 10482 1406 92010000 		.4byte	.LVL341
 10483 140a 0100     		.2byte	0x1
 10484 140c 50       		.byte	0x50
 10485 140d 98010000 		.4byte	.LVL343
 10486 1411 C8010000 		.4byte	.LVL346
 10487 1415 0100     		.2byte	0x1
 10488 1417 53       		.byte	0x53
 10489 1418 D4010000 		.4byte	.LVL347
 10490 141c E2010000 		.4byte	.LVL348
 10491 1420 0100     		.2byte	0x1
 10492 1422 50       		.byte	0x50
 10493 1423 E8010000 		.4byte	.LVL350
 10494 1427 EC010000 		.4byte	.LVL351
 10495 142b 0100     		.2byte	0x1
 10496 142d 53       		.byte	0x53
 10497 142e FA010000 		.4byte	.LVL353
 10498 1432 52020000 		.4byte	.LVL356
 10499 1436 0100     		.2byte	0x1
 10500 1438 53       		.byte	0x53
 10501 1439 5E020000 		.4byte	.LVL358
 10502 143d 68020000 		.4byte	.LFE67
 10503 1441 0100     		.2byte	0x1
 10504 1443 53       		.byte	0x53
 10505 1444 00000000 		.4byte	0
 10506 1448 00000000 		.4byte	0
 10507              	.LLST101:
 10508 144c 62000000 		.4byte	.LVL318
 10509 1450 A2000000 		.4byte	.LVL323
 10510 1454 0300     		.2byte	0x3
 10511 1456 08       		.byte	0x8
 10512 1457 75       		.byte	0x75
 10513 1458 9F       		.byte	0x9f
 10514 1459 BA000000 		.4byte	.LVL326
 10515 145d F6000000 		.4byte	.LVL331
 10516 1461 0300     		.2byte	0x3
 10517 1463 08       		.byte	0x8
 10518 1464 70       		.byte	0x70
 10519 1465 9F       		.byte	0x9f
 10520 1466 0A010000 		.4byte	.LVL333
 10521 146a 6E010000 		.4byte	.LVL338
 10522 146e 0300     		.2byte	0x3
 10523 1470 08       		.byte	0x8
 10524 1471 74       		.byte	0x74
 10525 1472 9F       		.byte	0x9f
 10526 1473 84010000 		.4byte	.LVL340
 10527 1477 C0010000 		.4byte	.LVL345
 10528 147b 0300     		.2byte	0x3
 10529 147d 08       		.byte	0x8
 10530 147e 72       		.byte	0x72
 10531 147f 9F       		.byte	0x9f
 10532 1480 E8010000 		.4byte	.LVL350
ARM GAS  C:\Users\adria\AppData\Local\Temp\cciNfgxb.s 			page 222


 10533 1484 4E020000 		.4byte	.LVL355
 10534 1488 0300     		.2byte	0x3
 10535 148a 08       		.byte	0x8
 10536 148b 71       		.byte	0x71
 10537 148c 9F       		.byte	0x9f
 10538 148d 00000000 		.4byte	0
 10539 1491 00000000 		.4byte	0
 10540              	.LLST102:
 10541 1495 0E000000 		.4byte	.LVL308
 10542 1499 9E000000 		.4byte	.LVL322
 10543 149d 0200     		.2byte	0x2
 10544 149f 30       		.byte	0x30
 10545 14a0 9F       		.byte	0x9f
 10546 14a1 9E000000 		.4byte	.LVL322
 10547 14a5 A2000000 		.4byte	.LVL323
 10548 14a9 0200     		.2byte	0x2
 10549 14ab 31       		.byte	0x31
 10550 14ac 9F       		.byte	0x9f
 10551 14ad A2000000 		.4byte	.LVL323
 10552 14b1 A4000000 		.4byte	.LVL324
 10553 14b5 0200     		.2byte	0x2
 10554 14b7 30       		.byte	0x30
 10555 14b8 9F       		.byte	0x9f
 10556 14b9 A4000000 		.4byte	.LVL324
 10557 14bd F4000000 		.4byte	.LVL330
 10558 14c1 0100     		.2byte	0x1
 10559 14c3 56       		.byte	0x56
 10560 14c4 F6000000 		.4byte	.LVL331
 10561 14c8 6C010000 		.4byte	.LVL337
 10562 14cc 0100     		.2byte	0x1
 10563 14ce 56       		.byte	0x56
 10564 14cf 6E010000 		.4byte	.LVL338
 10565 14d3 BE010000 		.4byte	.LVL344
 10566 14d7 0100     		.2byte	0x1
 10567 14d9 56       		.byte	0x56
 10568 14da C0010000 		.4byte	.LVL345
 10569 14de 4C020000 		.4byte	.LVL354
 10570 14e2 0100     		.2byte	0x1
 10571 14e4 56       		.byte	0x56
 10572 14e5 4E020000 		.4byte	.LVL355
 10573 14e9 62020000 		.4byte	.LVL359
 10574 14ed 0100     		.2byte	0x1
 10575 14ef 56       		.byte	0x56
 10576 14f0 00000000 		.4byte	0
 10577 14f4 00000000 		.4byte	0
 10578              	.LLST103:
 10579 14f8 00000000 		.4byte	.LVL360
 10580 14fc 09000000 		.4byte	.LVL361-1
 10581 1500 0100     		.2byte	0x1
 10582 1502 50       		.byte	0x50
 10583 1503 09000000 		.4byte	.LVL361-1
 10584 1507 30000000 		.4byte	.LFE70
 10585 150b 0100     		.2byte	0x1
 10586 150d 54       		.byte	0x54
 10587 150e 00000000 		.4byte	0
 10588 1512 00000000 		.4byte	0
 10589              	.LLST104:
ARM GAS  C:\Users\adria\AppData\Local\Temp\cciNfgxb.s 			page 223


 10590 1516 0A000000 		.4byte	.LVL361
 10591 151a 18000000 		.4byte	.LVL362
 10592 151e 0100     		.2byte	0x1
 10593 1520 50       		.byte	0x50
 10594 1521 1E000000 		.4byte	.LVL364
 10595 1525 30000000 		.4byte	.LFE70
 10596 1529 0100     		.2byte	0x1
 10597 152b 53       		.byte	0x53
 10598 152c 00000000 		.4byte	0
 10599 1530 00000000 		.4byte	0
 10600              	.LLST105:
 10601 1534 00000000 		.4byte	.LVL366
 10602 1538 0C000000 		.4byte	.LVL367
 10603 153c 0100     		.2byte	0x1
 10604 153e 50       		.byte	0x50
 10605 153f 0C000000 		.4byte	.LVL367
 10606 1543 64000000 		.4byte	.LFE71
 10607 1547 0400     		.2byte	0x4
 10608 1549 F3       		.byte	0xf3
 10609 154a 01       		.uleb128 0x1
 10610 154b 50       		.byte	0x50
 10611 154c 9F       		.byte	0x9f
 10612 154d 00000000 		.4byte	0
 10613 1551 00000000 		.4byte	0
 10614              	.LLST106:
 10615 1555 3A000000 		.4byte	.LVL370
 10616 1559 46000000 		.4byte	.LVL371
 10617 155d 0A00     		.2byte	0xa
 10618 155f 73       		.byte	0x73
 10619 1560 00       		.sleb128 0
 10620 1561 0A       		.byte	0xa
 10621 1562 AB07     		.2byte	0x7ab
 10622 1564 1E       		.byte	0x1e
 10623 1565 23       		.byte	0x23
 10624 1566 C521     		.uleb128 0x10c5
 10625 1568 9F       		.byte	0x9f
 10626 1569 46000000 		.4byte	.LVL371
 10627 156d 4C000000 		.4byte	.LVL373
 10628 1571 0100     		.2byte	0x1
 10629 1573 50       		.byte	0x50
 10630 1574 4C000000 		.4byte	.LVL373
 10631 1578 4E000000 		.4byte	.LVL374
 10632 157c 3C00     		.2byte	0x3c
 10633 157e 71       		.byte	0x71
 10634 157f 39       		.sleb128 57
 10635 1580 94       		.byte	0x94
 10636 1581 01       		.byte	0x1
 10637 1582 08       		.byte	0x8
 10638 1583 FF       		.byte	0xff
 10639 1584 1A       		.byte	0x1a
 10640 1585 91       		.byte	0x91
 10641 1586 00       		.sleb128 0
 10642 1587 22       		.byte	0x22
 10643 1588 40       		.byte	0x40
 10644 1589 1C       		.byte	0x1c
 10645 158a 94       		.byte	0x94
 10646 158b 01       		.byte	0x1
ARM GAS  C:\Users\adria\AppData\Local\Temp\cciNfgxb.s 			page 224


 10647 158c 08       		.byte	0x8
 10648 158d FF       		.byte	0xff
 10649 158e 1A       		.byte	0x1a
 10650 158f 71       		.byte	0x71
 10651 1590 38       		.sleb128 56
 10652 1591 94       		.byte	0x94
 10653 1592 01       		.byte	0x1
 10654 1593 08       		.byte	0x8
 10655 1594 FF       		.byte	0xff
 10656 1595 1A       		.byte	0x1a
 10657 1596 91       		.byte	0x91
 10658 1597 00       		.sleb128 0
 10659 1598 22       		.byte	0x22
 10660 1599 40       		.byte	0x40
 10661 159a 1C       		.byte	0x1c
 10662 159b 94       		.byte	0x94
 10663 159c 01       		.byte	0x1
 10664 159d 08       		.byte	0x8
 10665 159e FF       		.byte	0xff
 10666 159f 1A       		.byte	0x1a
 10667 15a0 22       		.byte	0x22
 10668 15a1 71       		.byte	0x71
 10669 15a2 3A       		.sleb128 58
 10670 15a3 94       		.byte	0x94
 10671 15a4 01       		.byte	0x1
 10672 15a5 08       		.byte	0x8
 10673 15a6 FF       		.byte	0xff
 10674 15a7 1A       		.byte	0x1a
 10675 15a8 91       		.byte	0x91
 10676 15a9 00       		.sleb128 0
 10677 15aa 22       		.byte	0x22
 10678 15ab 40       		.byte	0x40
 10679 15ac 1C       		.byte	0x1c
 10680 15ad 94       		.byte	0x94
 10681 15ae 01       		.byte	0x1
 10682 15af 08       		.byte	0x8
 10683 15b0 FF       		.byte	0xff
 10684 15b1 1A       		.byte	0x1a
 10685 15b2 22       		.byte	0x22
 10686 15b3 74       		.byte	0x74
 10687 15b4 00       		.sleb128 0
 10688 15b5 1E       		.byte	0x1e
 10689 15b6 23       		.byte	0x23
 10690 15b7 B925     		.uleb128 0x12b9
 10691 15b9 9F       		.byte	0x9f
 10692 15ba 4E000000 		.4byte	.LVL374
 10693 15be 52000000 		.4byte	.LVL376
 10694 15c2 0100     		.2byte	0x1
 10695 15c4 50       		.byte	0x50
 10696 15c5 52000000 		.4byte	.LVL376
 10697 15c9 5A000000 		.4byte	.LVL377
 10698 15cd 5300     		.2byte	0x53
 10699 15cf 71       		.byte	0x71
 10700 15d0 39       		.sleb128 57
 10701 15d1 94       		.byte	0x94
 10702 15d2 01       		.byte	0x1
 10703 15d3 08       		.byte	0x8
ARM GAS  C:\Users\adria\AppData\Local\Temp\cciNfgxb.s 			page 225


 10704 15d4 FF       		.byte	0xff
 10705 15d5 1A       		.byte	0x1a
 10706 15d6 91       		.byte	0x91
 10707 15d7 00       		.sleb128 0
 10708 15d8 22       		.byte	0x22
 10709 15d9 40       		.byte	0x40
 10710 15da 1C       		.byte	0x1c
 10711 15db 94       		.byte	0x94
 10712 15dc 01       		.byte	0x1
 10713 15dd 08       		.byte	0x8
 10714 15de FF       		.byte	0xff
 10715 15df 1A       		.byte	0x1a
 10716 15e0 71       		.byte	0x71
 10717 15e1 38       		.sleb128 56
 10718 15e2 94       		.byte	0x94
 10719 15e3 01       		.byte	0x1
 10720 15e4 08       		.byte	0x8
 10721 15e5 FF       		.byte	0xff
 10722 15e6 1A       		.byte	0x1a
 10723 15e7 91       		.byte	0x91
 10724 15e8 00       		.sleb128 0
 10725 15e9 22       		.byte	0x22
 10726 15ea 40       		.byte	0x40
 10727 15eb 1C       		.byte	0x1c
 10728 15ec 94       		.byte	0x94
 10729 15ed 01       		.byte	0x1
 10730 15ee 08       		.byte	0x8
 10731 15ef FF       		.byte	0xff
 10732 15f0 1A       		.byte	0x1a
 10733 15f1 22       		.byte	0x22
 10734 15f2 71       		.byte	0x71
 10735 15f3 3A       		.sleb128 58
 10736 15f4 94       		.byte	0x94
 10737 15f5 01       		.byte	0x1
 10738 15f6 08       		.byte	0x8
 10739 15f7 FF       		.byte	0xff
 10740 15f8 1A       		.byte	0x1a
 10741 15f9 91       		.byte	0x91
 10742 15fa 00       		.sleb128 0
 10743 15fb 22       		.byte	0x22
 10744 15fc 40       		.byte	0x40
 10745 15fd 1C       		.byte	0x1c
 10746 15fe 94       		.byte	0x94
 10747 15ff 01       		.byte	0x1
 10748 1600 08       		.byte	0x8
 10749 1601 FF       		.byte	0xff
 10750 1602 1A       		.byte	0x1a
 10751 1603 22       		.byte	0x22
 10752 1604 74       		.byte	0x74
 10753 1605 00       		.sleb128 0
 10754 1606 1E       		.byte	0x1e
 10755 1607 23       		.byte	0x23
 10756 1608 B925     		.uleb128 0x12b9
 10757 160a F7       		.byte	0xf7
 10758 160b 2C       		.uleb128 0x2c
 10759 160c F7       		.byte	0xf7
 10760 160d 25       		.uleb128 0x25
ARM GAS  C:\Users\adria\AppData\Local\Temp\cciNfgxb.s 			page 226


 10761 160e 0C       		.byte	0xc
 10762 160f D34D6210 		.4byte	0x10624dd3
 10763 1613 F7       		.byte	0xf7
 10764 1614 25       		.uleb128 0x25
 10765 1615 1E       		.byte	0x1e
 10766 1616 08       		.byte	0x8
 10767 1617 20       		.byte	0x20
 10768 1618 F7       		.byte	0xf7
 10769 1619 25       		.uleb128 0x25
 10770 161a 25       		.byte	0x25
 10771 161b F7       		.byte	0xf7
 10772 161c 2C       		.uleb128 0x2c
 10773 161d 36       		.byte	0x36
 10774 161e 25       		.byte	0x25
 10775 161f 23       		.byte	0x23
 10776 1620 01       		.uleb128 0x1
 10777 1621 9F       		.byte	0x9f
 10778 1622 5A000000 		.4byte	.LVL377
 10779 1626 64000000 		.4byte	.LFE71
 10780 162a 5400     		.2byte	0x54
 10781 162c 71       		.byte	0x71
 10782 162d 39       		.sleb128 57
 10783 162e 94       		.byte	0x94
 10784 162f 01       		.byte	0x1
 10785 1630 08       		.byte	0x8
 10786 1631 FF       		.byte	0xff
 10787 1632 1A       		.byte	0x1a
 10788 1633 7D       		.byte	0x7d
 10789 1634 00       		.sleb128 0
 10790 1635 22       		.byte	0x22
 10791 1636 40       		.byte	0x40
 10792 1637 1C       		.byte	0x1c
 10793 1638 94       		.byte	0x94
 10794 1639 01       		.byte	0x1
 10795 163a 08       		.byte	0x8
 10796 163b FF       		.byte	0xff
 10797 163c 1A       		.byte	0x1a
 10798 163d 71       		.byte	0x71
 10799 163e 38       		.sleb128 56
 10800 163f 94       		.byte	0x94
 10801 1640 01       		.byte	0x1
 10802 1641 08       		.byte	0x8
 10803 1642 FF       		.byte	0xff
 10804 1643 1A       		.byte	0x1a
 10805 1644 7D       		.byte	0x7d
 10806 1645 00       		.sleb128 0
 10807 1646 22       		.byte	0x22
 10808 1647 40       		.byte	0x40
 10809 1648 1C       		.byte	0x1c
 10810 1649 94       		.byte	0x94
 10811 164a 01       		.byte	0x1
 10812 164b 08       		.byte	0x8
 10813 164c FF       		.byte	0xff
 10814 164d 1A       		.byte	0x1a
 10815 164e 22       		.byte	0x22
 10816 164f 71       		.byte	0x71
 10817 1650 3A       		.sleb128 58
ARM GAS  C:\Users\adria\AppData\Local\Temp\cciNfgxb.s 			page 227


 10818 1651 94       		.byte	0x94
 10819 1652 01       		.byte	0x1
 10820 1653 08       		.byte	0x8
 10821 1654 FF       		.byte	0xff
 10822 1655 1A       		.byte	0x1a
 10823 1656 7D       		.byte	0x7d
 10824 1657 00       		.sleb128 0
 10825 1658 22       		.byte	0x22
 10826 1659 40       		.byte	0x40
 10827 165a 1C       		.byte	0x1c
 10828 165b 94       		.byte	0x94
 10829 165c 01       		.byte	0x1
 10830 165d 08       		.byte	0x8
 10831 165e FF       		.byte	0xff
 10832 165f 1A       		.byte	0x1a
 10833 1660 22       		.byte	0x22
 10834 1661 0A       		.byte	0xa
 10835 1662 AB07     		.2byte	0x7ab
 10836 1664 1E       		.byte	0x1e
 10837 1665 23       		.byte	0x23
 10838 1666 B925     		.uleb128 0x12b9
 10839 1668 F7       		.byte	0xf7
 10840 1669 2C       		.uleb128 0x2c
 10841 166a F7       		.byte	0xf7
 10842 166b 25       		.uleb128 0x25
 10843 166c 0C       		.byte	0xc
 10844 166d D34D6210 		.4byte	0x10624dd3
 10845 1671 F7       		.byte	0xf7
 10846 1672 25       		.uleb128 0x25
 10847 1673 1E       		.byte	0x1e
 10848 1674 08       		.byte	0x8
 10849 1675 20       		.byte	0x20
 10850 1676 F7       		.byte	0xf7
 10851 1677 25       		.uleb128 0x25
 10852 1678 25       		.byte	0x25
 10853 1679 F7       		.byte	0xf7
 10854 167a 2C       		.uleb128 0x2c
 10855 167b 36       		.byte	0x36
 10856 167c 25       		.byte	0x25
 10857 167d 23       		.byte	0x23
 10858 167e 01       		.uleb128 0x1
 10859 167f 9F       		.byte	0x9f
 10860 1680 00000000 		.4byte	0
 10861 1684 00000000 		.4byte	0
 10862              	.LLST107:
 10863 1688 20000000 		.4byte	.LVL368
 10864 168c 48000000 		.4byte	.LVL372
 10865 1690 0100     		.2byte	0x1
 10866 1692 53       		.byte	0x53
 10867 1693 48000000 		.4byte	.LVL372
 10868 1697 5A000000 		.4byte	.LVL377
 10869 169b 3600     		.2byte	0x36
 10870 169d 71       		.byte	0x71
 10871 169e 39       		.sleb128 57
 10872 169f 94       		.byte	0x94
 10873 16a0 01       		.byte	0x1
 10874 16a1 08       		.byte	0x8
ARM GAS  C:\Users\adria\AppData\Local\Temp\cciNfgxb.s 			page 228


 10875 16a2 FF       		.byte	0xff
 10876 16a3 1A       		.byte	0x1a
 10877 16a4 91       		.byte	0x91
 10878 16a5 00       		.sleb128 0
 10879 16a6 22       		.byte	0x22
 10880 16a7 40       		.byte	0x40
 10881 16a8 1C       		.byte	0x1c
 10882 16a9 94       		.byte	0x94
 10883 16aa 01       		.byte	0x1
 10884 16ab 08       		.byte	0x8
 10885 16ac FF       		.byte	0xff
 10886 16ad 1A       		.byte	0x1a
 10887 16ae 71       		.byte	0x71
 10888 16af 38       		.sleb128 56
 10889 16b0 94       		.byte	0x94
 10890 16b1 01       		.byte	0x1
 10891 16b2 08       		.byte	0x8
 10892 16b3 FF       		.byte	0xff
 10893 16b4 1A       		.byte	0x1a
 10894 16b5 91       		.byte	0x91
 10895 16b6 00       		.sleb128 0
 10896 16b7 22       		.byte	0x22
 10897 16b8 40       		.byte	0x40
 10898 16b9 1C       		.byte	0x1c
 10899 16ba 94       		.byte	0x94
 10900 16bb 01       		.byte	0x1
 10901 16bc 08       		.byte	0x8
 10902 16bd FF       		.byte	0xff
 10903 16be 1A       		.byte	0x1a
 10904 16bf 22       		.byte	0x22
 10905 16c0 71       		.byte	0x71
 10906 16c1 3A       		.sleb128 58
 10907 16c2 94       		.byte	0x94
 10908 16c3 01       		.byte	0x1
 10909 16c4 08       		.byte	0x8
 10910 16c5 FF       		.byte	0xff
 10911 16c6 1A       		.byte	0x1a
 10912 16c7 91       		.byte	0x91
 10913 16c8 00       		.sleb128 0
 10914 16c9 22       		.byte	0x22
 10915 16ca 40       		.byte	0x40
 10916 16cb 1C       		.byte	0x1c
 10917 16cc 94       		.byte	0x94
 10918 16cd 01       		.byte	0x1
 10919 16ce 08       		.byte	0x8
 10920 16cf FF       		.byte	0xff
 10921 16d0 1A       		.byte	0x1a
 10922 16d1 22       		.byte	0x22
 10923 16d2 9F       		.byte	0x9f
 10924 16d3 5A000000 		.4byte	.LVL377
 10925 16d7 64000000 		.4byte	.LFE71
 10926 16db 3600     		.2byte	0x36
 10927 16dd 71       		.byte	0x71
 10928 16de 39       		.sleb128 57
 10929 16df 94       		.byte	0x94
 10930 16e0 01       		.byte	0x1
 10931 16e1 08       		.byte	0x8
ARM GAS  C:\Users\adria\AppData\Local\Temp\cciNfgxb.s 			page 229


 10932 16e2 FF       		.byte	0xff
 10933 16e3 1A       		.byte	0x1a
 10934 16e4 7D       		.byte	0x7d
 10935 16e5 00       		.sleb128 0
 10936 16e6 22       		.byte	0x22
 10937 16e7 40       		.byte	0x40
 10938 16e8 1C       		.byte	0x1c
 10939 16e9 94       		.byte	0x94
 10940 16ea 01       		.byte	0x1
 10941 16eb 08       		.byte	0x8
 10942 16ec FF       		.byte	0xff
 10943 16ed 1A       		.byte	0x1a
 10944 16ee 71       		.byte	0x71
 10945 16ef 38       		.sleb128 56
 10946 16f0 94       		.byte	0x94
 10947 16f1 01       		.byte	0x1
 10948 16f2 08       		.byte	0x8
 10949 16f3 FF       		.byte	0xff
 10950 16f4 1A       		.byte	0x1a
 10951 16f5 7D       		.byte	0x7d
 10952 16f6 00       		.sleb128 0
 10953 16f7 22       		.byte	0x22
 10954 16f8 40       		.byte	0x40
 10955 16f9 1C       		.byte	0x1c
 10956 16fa 94       		.byte	0x94
 10957 16fb 01       		.byte	0x1
 10958 16fc 08       		.byte	0x8
 10959 16fd FF       		.byte	0xff
 10960 16fe 1A       		.byte	0x1a
 10961 16ff 22       		.byte	0x22
 10962 1700 71       		.byte	0x71
 10963 1701 3A       		.sleb128 58
 10964 1702 94       		.byte	0x94
 10965 1703 01       		.byte	0x1
 10966 1704 08       		.byte	0x8
 10967 1705 FF       		.byte	0xff
 10968 1706 1A       		.byte	0x1a
 10969 1707 7D       		.byte	0x7d
 10970 1708 00       		.sleb128 0
 10971 1709 22       		.byte	0x22
 10972 170a 40       		.byte	0x40
 10973 170b 1C       		.byte	0x1c
 10974 170c 94       		.byte	0x94
 10975 170d 01       		.byte	0x1
 10976 170e 08       		.byte	0x8
 10977 170f FF       		.byte	0xff
 10978 1710 1A       		.byte	0x1a
 10979 1711 22       		.byte	0x22
 10980 1712 9F       		.byte	0x9f
 10981 1713 00000000 		.4byte	0
 10982 1717 00000000 		.4byte	0
 10983              	.LLST108:
 10984 171b 00000000 		.4byte	.LVL378
 10985 171f 0C000000 		.4byte	.LVL379
 10986 1723 0100     		.2byte	0x1
 10987 1725 50       		.byte	0x50
 10988 1726 0C000000 		.4byte	.LVL379
ARM GAS  C:\Users\adria\AppData\Local\Temp\cciNfgxb.s 			page 230


 10989 172a 66000000 		.4byte	.LVL390
 10990 172e 0100     		.2byte	0x1
 10991 1730 54       		.byte	0x54
 10992 1731 66000000 		.4byte	.LVL390
 10993 1735 70000000 		.4byte	.LFE72
 10994 1739 0400     		.2byte	0x4
 10995 173b F3       		.byte	0xf3
 10996 173c 01       		.uleb128 0x1
 10997 173d 50       		.byte	0x50
 10998 173e 9F       		.byte	0x9f
 10999 173f 00000000 		.4byte	0
 11000 1743 00000000 		.4byte	0
 11001              	.LLST109:
 11002 1747 3A000000 		.4byte	.LVL382
 11003 174b 46000000 		.4byte	.LVL383
 11004 174f 0A00     		.2byte	0xa
 11005 1751 72       		.byte	0x72
 11006 1752 00       		.sleb128 0
 11007 1753 0A       		.byte	0xa
 11008 1754 AB07     		.2byte	0x7ab
 11009 1756 1E       		.byte	0x1e
 11010 1757 23       		.byte	0x23
 11011 1758 C521     		.uleb128 0x10c5
 11012 175a 9F       		.byte	0x9f
 11013 175b 46000000 		.4byte	.LVL383
 11014 175f 4C000000 		.4byte	.LVL385
 11015 1763 0100     		.2byte	0x1
 11016 1765 53       		.byte	0x53
 11017 1766 4C000000 		.4byte	.LVL385
 11018 176a 4E000000 		.4byte	.LVL386
 11019 176e 3C00     		.2byte	0x3c
 11020 1770 71       		.byte	0x71
 11021 1771 39       		.sleb128 57
 11022 1772 94       		.byte	0x94
 11023 1773 01       		.byte	0x1
 11024 1774 08       		.byte	0x8
 11025 1775 FF       		.byte	0xff
 11026 1776 1A       		.byte	0x1a
 11027 1777 91       		.byte	0x91
 11028 1778 00       		.sleb128 0
 11029 1779 22       		.byte	0x22
 11030 177a 40       		.byte	0x40
 11031 177b 1C       		.byte	0x1c
 11032 177c 94       		.byte	0x94
 11033 177d 01       		.byte	0x1
 11034 177e 08       		.byte	0x8
 11035 177f FF       		.byte	0xff
 11036 1780 1A       		.byte	0x1a
 11037 1781 71       		.byte	0x71
 11038 1782 38       		.sleb128 56
 11039 1783 94       		.byte	0x94
 11040 1784 01       		.byte	0x1
 11041 1785 08       		.byte	0x8
 11042 1786 FF       		.byte	0xff
 11043 1787 1A       		.byte	0x1a
 11044 1788 91       		.byte	0x91
 11045 1789 00       		.sleb128 0
ARM GAS  C:\Users\adria\AppData\Local\Temp\cciNfgxb.s 			page 231


 11046 178a 22       		.byte	0x22
 11047 178b 40       		.byte	0x40
 11048 178c 1C       		.byte	0x1c
 11049 178d 94       		.byte	0x94
 11050 178e 01       		.byte	0x1
 11051 178f 08       		.byte	0x8
 11052 1790 FF       		.byte	0xff
 11053 1791 1A       		.byte	0x1a
 11054 1792 22       		.byte	0x22
 11055 1793 71       		.byte	0x71
 11056 1794 3A       		.sleb128 58
 11057 1795 94       		.byte	0x94
 11058 1796 01       		.byte	0x1
 11059 1797 08       		.byte	0x8
 11060 1798 FF       		.byte	0xff
 11061 1799 1A       		.byte	0x1a
 11062 179a 91       		.byte	0x91
 11063 179b 00       		.sleb128 0
 11064 179c 22       		.byte	0x22
 11065 179d 40       		.byte	0x40
 11066 179e 1C       		.byte	0x1c
 11067 179f 94       		.byte	0x94
 11068 17a0 01       		.byte	0x1
 11069 17a1 08       		.byte	0x8
 11070 17a2 FF       		.byte	0xff
 11071 17a3 1A       		.byte	0x1a
 11072 17a4 22       		.byte	0x22
 11073 17a5 70       		.byte	0x70
 11074 17a6 00       		.sleb128 0
 11075 17a7 1E       		.byte	0x1e
 11076 17a8 23       		.byte	0x23
 11077 17a9 B925     		.uleb128 0x12b9
 11078 17ab 9F       		.byte	0x9f
 11079 17ac 4E000000 		.4byte	.LVL386
 11080 17b0 52000000 		.4byte	.LVL388
 11081 17b4 0100     		.2byte	0x1
 11082 17b6 53       		.byte	0x53
 11083 17b7 52000000 		.4byte	.LVL388
 11084 17bb 54000000 		.4byte	.LVL389
 11085 17bf 5300     		.2byte	0x53
 11086 17c1 71       		.byte	0x71
 11087 17c2 39       		.sleb128 57
 11088 17c3 94       		.byte	0x94
 11089 17c4 01       		.byte	0x1
 11090 17c5 08       		.byte	0x8
 11091 17c6 FF       		.byte	0xff
 11092 17c7 1A       		.byte	0x1a
 11093 17c8 91       		.byte	0x91
 11094 17c9 00       		.sleb128 0
 11095 17ca 22       		.byte	0x22
 11096 17cb 40       		.byte	0x40
 11097 17cc 1C       		.byte	0x1c
 11098 17cd 94       		.byte	0x94
 11099 17ce 01       		.byte	0x1
 11100 17cf 08       		.byte	0x8
 11101 17d0 FF       		.byte	0xff
 11102 17d1 1A       		.byte	0x1a
ARM GAS  C:\Users\adria\AppData\Local\Temp\cciNfgxb.s 			page 232


 11103 17d2 71       		.byte	0x71
 11104 17d3 38       		.sleb128 56
 11105 17d4 94       		.byte	0x94
 11106 17d5 01       		.byte	0x1
 11107 17d6 08       		.byte	0x8
 11108 17d7 FF       		.byte	0xff
 11109 17d8 1A       		.byte	0x1a
 11110 17d9 91       		.byte	0x91
 11111 17da 00       		.sleb128 0
 11112 17db 22       		.byte	0x22
 11113 17dc 40       		.byte	0x40
 11114 17dd 1C       		.byte	0x1c
 11115 17de 94       		.byte	0x94
 11116 17df 01       		.byte	0x1
 11117 17e0 08       		.byte	0x8
 11118 17e1 FF       		.byte	0xff
 11119 17e2 1A       		.byte	0x1a
 11120 17e3 22       		.byte	0x22
 11121 17e4 71       		.byte	0x71
 11122 17e5 3A       		.sleb128 58
 11123 17e6 94       		.byte	0x94
 11124 17e7 01       		.byte	0x1
 11125 17e8 08       		.byte	0x8
 11126 17e9 FF       		.byte	0xff
 11127 17ea 1A       		.byte	0x1a
 11128 17eb 91       		.byte	0x91
 11129 17ec 00       		.sleb128 0
 11130 17ed 22       		.byte	0x22
 11131 17ee 40       		.byte	0x40
 11132 17ef 1C       		.byte	0x1c
 11133 17f0 94       		.byte	0x94
 11134 17f1 01       		.byte	0x1
 11135 17f2 08       		.byte	0x8
 11136 17f3 FF       		.byte	0xff
 11137 17f4 1A       		.byte	0x1a
 11138 17f5 22       		.byte	0x22
 11139 17f6 70       		.byte	0x70
 11140 17f7 00       		.sleb128 0
 11141 17f8 1E       		.byte	0x1e
 11142 17f9 23       		.byte	0x23
 11143 17fa B925     		.uleb128 0x12b9
 11144 17fc F7       		.byte	0xf7
 11145 17fd 2C       		.uleb128 0x2c
 11146 17fe F7       		.byte	0xf7
 11147 17ff 25       		.uleb128 0x25
 11148 1800 0C       		.byte	0xc
 11149 1801 D34D6210 		.4byte	0x10624dd3
 11150 1805 F7       		.byte	0xf7
 11151 1806 25       		.uleb128 0x25
 11152 1807 1E       		.byte	0x1e
 11153 1808 08       		.byte	0x8
 11154 1809 20       		.byte	0x20
 11155 180a F7       		.byte	0xf7
 11156 180b 25       		.uleb128 0x25
 11157 180c 25       		.byte	0x25
 11158 180d F7       		.byte	0xf7
 11159 180e 2C       		.uleb128 0x2c
ARM GAS  C:\Users\adria\AppData\Local\Temp\cciNfgxb.s 			page 233


 11160 180f 36       		.byte	0x36
 11161 1810 25       		.byte	0x25
 11162 1811 23       		.byte	0x23
 11163 1812 01       		.uleb128 0x1
 11164 1813 9F       		.byte	0x9f
 11165 1814 00000000 		.4byte	0
 11166 1818 00000000 		.4byte	0
 11167              	.LLST110:
 11168 181c 20000000 		.4byte	.LVL380
 11169 1820 3A000000 		.4byte	.LVL382
 11170 1824 0100     		.2byte	0x1
 11171 1826 53       		.byte	0x53
 11172 1827 3A000000 		.4byte	.LVL382
 11173 182b 48000000 		.4byte	.LVL384
 11174 182f 0100     		.2byte	0x1
 11175 1831 52       		.byte	0x52
 11176 1832 48000000 		.4byte	.LVL384
 11177 1836 54000000 		.4byte	.LVL389
 11178 183a 3600     		.2byte	0x36
 11179 183c 71       		.byte	0x71
 11180 183d 39       		.sleb128 57
 11181 183e 94       		.byte	0x94
 11182 183f 01       		.byte	0x1
 11183 1840 08       		.byte	0x8
 11184 1841 FF       		.byte	0xff
 11185 1842 1A       		.byte	0x1a
 11186 1843 91       		.byte	0x91
 11187 1844 00       		.sleb128 0
 11188 1845 22       		.byte	0x22
 11189 1846 40       		.byte	0x40
 11190 1847 1C       		.byte	0x1c
 11191 1848 94       		.byte	0x94
 11192 1849 01       		.byte	0x1
 11193 184a 08       		.byte	0x8
 11194 184b FF       		.byte	0xff
 11195 184c 1A       		.byte	0x1a
 11196 184d 71       		.byte	0x71
 11197 184e 38       		.sleb128 56
 11198 184f 94       		.byte	0x94
 11199 1850 01       		.byte	0x1
 11200 1851 08       		.byte	0x8
 11201 1852 FF       		.byte	0xff
 11202 1853 1A       		.byte	0x1a
 11203 1854 91       		.byte	0x91
 11204 1855 00       		.sleb128 0
 11205 1856 22       		.byte	0x22
 11206 1857 40       		.byte	0x40
 11207 1858 1C       		.byte	0x1c
 11208 1859 94       		.byte	0x94
 11209 185a 01       		.byte	0x1
 11210 185b 08       		.byte	0x8
 11211 185c FF       		.byte	0xff
 11212 185d 1A       		.byte	0x1a
 11213 185e 22       		.byte	0x22
 11214 185f 71       		.byte	0x71
 11215 1860 3A       		.sleb128 58
 11216 1861 94       		.byte	0x94
ARM GAS  C:\Users\adria\AppData\Local\Temp\cciNfgxb.s 			page 234


 11217 1862 01       		.byte	0x1
 11218 1863 08       		.byte	0x8
 11219 1864 FF       		.byte	0xff
 11220 1865 1A       		.byte	0x1a
 11221 1866 91       		.byte	0x91
 11222 1867 00       		.sleb128 0
 11223 1868 22       		.byte	0x22
 11224 1869 40       		.byte	0x40
 11225 186a 1C       		.byte	0x1c
 11226 186b 94       		.byte	0x94
 11227 186c 01       		.byte	0x1
 11228 186d 08       		.byte	0x8
 11229 186e FF       		.byte	0xff
 11230 186f 1A       		.byte	0x1a
 11231 1870 22       		.byte	0x22
 11232 1871 9F       		.byte	0x9f
 11233 1872 00000000 		.4byte	0
 11234 1876 00000000 		.4byte	0
 11235              	.LLST111:
 11236 187a 00000000 		.4byte	.LVL391
 11237 187e 08000000 		.4byte	.LVL392
 11238 1882 0100     		.2byte	0x1
 11239 1884 50       		.byte	0x50
 11240 1885 08000000 		.4byte	.LVL392
 11241 1889 36000000 		.4byte	.LFE73
 11242 188d 0100     		.2byte	0x1
 11243 188f 55       		.byte	0x55
 11244 1890 00000000 		.4byte	0
 11245 1894 00000000 		.4byte	0
 11246              	.LLST112:
 11247 1898 00000000 		.4byte	.LVL391
 11248 189c 0B000000 		.4byte	.LVL393-1
 11249 18a0 0100     		.2byte	0x1
 11250 18a2 51       		.byte	0x51
 11251 18a3 0B000000 		.4byte	.LVL393-1
 11252 18a7 36000000 		.4byte	.LFE73
 11253 18ab 0100     		.2byte	0x1
 11254 18ad 54       		.byte	0x54
 11255 18ae 00000000 		.4byte	0
 11256 18b2 00000000 		.4byte	0
 11257              	.LLST113:
 11258 18b6 0C000000 		.4byte	.LVL393
 11259 18ba 14000000 		.4byte	.LVL394
 11260 18be 0100     		.2byte	0x1
 11261 18c0 50       		.byte	0x50
 11262 18c1 18000000 		.4byte	.LVL395
 11263 18c5 32000000 		.4byte	.LVL396
 11264 18c9 0100     		.2byte	0x1
 11265 18cb 50       		.byte	0x50
 11266 18cc 32000000 		.4byte	.LVL396
 11267 18d0 36000000 		.4byte	.LFE73
 11268 18d4 0100     		.2byte	0x1
 11269 18d6 53       		.byte	0x53
 11270 18d7 00000000 		.4byte	0
 11271 18db 00000000 		.4byte	0
 11272              	.LLST114:
 11273 18df 00000000 		.4byte	.LVL397
ARM GAS  C:\Users\adria\AppData\Local\Temp\cciNfgxb.s 			page 235


 11274 18e3 24000000 		.4byte	.LVL399
 11275 18e7 0100     		.2byte	0x1
 11276 18e9 50       		.byte	0x50
 11277 18ea 24000000 		.4byte	.LVL399
 11278 18ee C2000000 		.4byte	.LFE88
 11279 18f2 0400     		.2byte	0x4
 11280 18f4 F3       		.byte	0xf3
 11281 18f5 01       		.uleb128 0x1
 11282 18f6 50       		.byte	0x50
 11283 18f7 9F       		.byte	0x9f
 11284 18f8 00000000 		.4byte	0
 11285 18fc 00000000 		.4byte	0
 11286              	.LLST115:
 11287 1900 04000000 		.4byte	.LVL398
 11288 1904 28000000 		.4byte	.LVL400
 11289 1908 0200     		.2byte	0x2
 11290 190a 30       		.byte	0x30
 11291 190b 9F       		.byte	0x9f
 11292 190c 28000000 		.4byte	.LVL400
 11293 1910 5C000000 		.4byte	.LVL402
 11294 1914 0100     		.2byte	0x1
 11295 1916 50       		.byte	0x50
 11296 1917 62000000 		.4byte	.LVL404
 11297 191b 82000000 		.4byte	.LVL405
 11298 191f 0100     		.2byte	0x1
 11299 1921 55       		.byte	0x55
 11300 1922 82000000 		.4byte	.LVL405
 11301 1926 88000000 		.4byte	.LVL406
 11302 192a 0100     		.2byte	0x1
 11303 192c 50       		.byte	0x50
 11304 192d A6000000 		.4byte	.LVL410
 11305 1931 C2000000 		.4byte	.LFE88
 11306 1935 0100     		.2byte	0x1
 11307 1937 55       		.byte	0x55
 11308 1938 00000000 		.4byte	0
 11309 193c 00000000 		.4byte	0
 11310              	.LLST116:
 11311 1940 50000000 		.4byte	.LVL401
 11312 1944 BC000000 		.4byte	.LVL414
 11313 1948 0300     		.2byte	0x3
 11314 194a 08       		.byte	0x8
 11315 194b CF       		.byte	0xcf
 11316 194c 9F       		.byte	0x9f
 11317 194d 00000000 		.4byte	0
 11318 1951 00000000 		.4byte	0
 11319              	.LLST117:
 11320 1955 60000000 		.4byte	.LVL403
 11321 1959 62000000 		.4byte	.LVL404
 11322 195d 0200     		.2byte	0x2
 11323 195f 30       		.byte	0x30
 11324 1960 9F       		.byte	0x9f
 11325 1961 62000000 		.4byte	.LVL404
 11326 1965 A8000000 		.4byte	.LVL411
 11327 1969 0100     		.2byte	0x1
 11328 196b 54       		.byte	0x54
 11329 196c AA000000 		.4byte	.LVL412
 11330 1970 BC000000 		.4byte	.LVL414
ARM GAS  C:\Users\adria\AppData\Local\Temp\cciNfgxb.s 			page 236


 11331 1974 0100     		.2byte	0x1
 11332 1976 54       		.byte	0x54
 11333 1977 00000000 		.4byte	0
 11334 197b 00000000 		.4byte	0
 11335              	.LLST118:
 11336 197f 00000000 		.4byte	.LVL415
 11337 1983 1D000000 		.4byte	.LVL417-1
 11338 1987 0100     		.2byte	0x1
 11339 1989 50       		.byte	0x50
 11340 198a 1D000000 		.4byte	.LVL417-1
 11341 198e 2C000000 		.4byte	.LFE93
 11342 1992 0400     		.2byte	0x4
 11343 1994 F3       		.byte	0xf3
 11344 1995 01       		.uleb128 0x1
 11345 1996 50       		.byte	0x50
 11346 1997 9F       		.byte	0x9f
 11347 1998 00000000 		.4byte	0
 11348 199c 00000000 		.4byte	0
 11349              	.LLST119:
 11350 19a0 1A000000 		.4byte	.LVL416
 11351 19a4 1E000000 		.4byte	.LVL417
 11352 19a8 0200     		.2byte	0x2
 11353 19aa 30       		.byte	0x30
 11354 19ab 9F       		.byte	0x9f
 11355 19ac 1E000000 		.4byte	.LVL417
 11356 19b0 2C000000 		.4byte	.LFE93
 11357 19b4 0100     		.2byte	0x1
 11358 19b6 50       		.byte	0x50
 11359 19b7 00000000 		.4byte	0
 11360 19bb 00000000 		.4byte	0
 11361              	.LLST120:
 11362 19bf 00000000 		.4byte	.LVL418
 11363 19c3 36000000 		.4byte	.LVL420
 11364 19c7 0100     		.2byte	0x1
 11365 19c9 50       		.byte	0x50
 11366 19ca 36000000 		.4byte	.LVL420
 11367 19ce 39000000 		.4byte	.LVL421-1
 11368 19d2 0100     		.2byte	0x1
 11369 19d4 51       		.byte	0x51
 11370 19d5 39000000 		.4byte	.LVL421-1
 11371 19d9 42000000 		.4byte	.LFE94
 11372 19dd 0100     		.2byte	0x1
 11373 19df 54       		.byte	0x54
 11374 19e0 00000000 		.4byte	0
 11375 19e4 00000000 		.4byte	0
 11376              	.LLST121:
 11377 19e8 32000000 		.4byte	.LVL419
 11378 19ec 3A000000 		.4byte	.LVL421
 11379 19f0 0200     		.2byte	0x2
 11380 19f2 30       		.byte	0x30
 11381 19f3 9F       		.byte	0x9f
 11382 19f4 40000000 		.4byte	.LVL422
 11383 19f8 42000000 		.4byte	.LFE94
 11384 19fc 0100     		.2byte	0x1
 11385 19fe 50       		.byte	0x50
 11386 19ff 00000000 		.4byte	0
 11387 1a03 00000000 		.4byte	0
ARM GAS  C:\Users\adria\AppData\Local\Temp\cciNfgxb.s 			page 237


 11388              	.LLST122:
 11389 1a07 00000000 		.4byte	.LVL423
 11390 1a0b 0F000000 		.4byte	.LVL425-1
 11391 1a0f 0100     		.2byte	0x1
 11392 1a11 51       		.byte	0x51
 11393 1a12 0F000000 		.4byte	.LVL425-1
 11394 1a16 30000000 		.4byte	.LVL429
 11395 1a1a 0100     		.2byte	0x1
 11396 1a1c 54       		.byte	0x54
 11397 1a1d 30000000 		.4byte	.LVL429
 11398 1a21 40000000 		.4byte	.LFE95
 11399 1a25 0400     		.2byte	0x4
 11400 1a27 F3       		.byte	0xf3
 11401 1a28 01       		.uleb128 0x1
 11402 1a29 51       		.byte	0x51
 11403 1a2a 9F       		.byte	0x9f
 11404 1a2b 00000000 		.4byte	0
 11405 1a2f 00000000 		.4byte	0
 11406              	.LLST123:
 11407 1a33 00000000 		.4byte	.LVL430
 11408 1a37 07000000 		.4byte	.LVL431-1
 11409 1a3b 0100     		.2byte	0x1
 11410 1a3d 50       		.byte	0x50
 11411 1a3e 07000000 		.4byte	.LVL431-1
 11412 1a42 10000000 		.4byte	.LFE96
 11413 1a46 0100     		.2byte	0x1
 11414 1a48 54       		.byte	0x54
 11415 1a49 00000000 		.4byte	0
 11416 1a4d 00000000 		.4byte	0
 11417              		.section	.debug_aranges,"",%progbits
 11418 0000 24010000 		.4byte	0x124
 11419 0004 0200     		.2byte	0x2
 11420 0006 00000000 		.4byte	.Ldebug_info0
 11421 000a 04       		.byte	0x4
 11422 000b 00       		.byte	0
 11423 000c 0000     		.2byte	0
 11424 000e 0000     		.2byte	0
 11425 0010 00000000 		.4byte	.LFB77
 11426 0014 70000000 		.4byte	.LFE77-.LFB77
 11427 0018 00000000 		.4byte	.LFB78
 11428 001c C4000000 		.4byte	.LFE78-.LFB78
 11429 0020 00000000 		.4byte	.LFB79
 11430 0024 C4000000 		.4byte	.LFE79-.LFB79
 11431 0028 00000000 		.4byte	.LFB80
 11432 002c AC000000 		.4byte	.LFE80-.LFB80
 11433 0030 00000000 		.4byte	.LFB81
 11434 0034 B0000000 		.4byte	.LFE81-.LFB81
 11435 0038 00000000 		.4byte	.LFB82
 11436 003c 24000000 		.4byte	.LFE82-.LFB82
 11437 0040 00000000 		.4byte	.LFB86
 11438 0044 3E000000 		.4byte	.LFE86-.LFB86
 11439 0048 00000000 		.4byte	.LFB87
 11440 004c 2A000000 		.4byte	.LFE87-.LFB87
 11441 0050 00000000 		.4byte	.LFB84
 11442 0054 70000000 		.4byte	.LFE84-.LFB84
 11443 0058 00000000 		.4byte	.LFB85
 11444 005c 38000000 		.4byte	.LFE85-.LFB85
ARM GAS  C:\Users\adria\AppData\Local\Temp\cciNfgxb.s 			page 238


 11445 0060 00000000 		.4byte	.LFB89
 11446 0064 88000000 		.4byte	.LFE89-.LFB89
 11447 0068 00000000 		.4byte	.LFB90
 11448 006c 08000000 		.4byte	.LFE90-.LFB90
 11449 0070 00000000 		.4byte	.LFB92
 11450 0074 30000000 		.4byte	.LFE92-.LFB92
 11451 0078 00000000 		.4byte	.LFB91
 11452 007c 3E000000 		.4byte	.LFE91-.LFB91
 11453 0080 00000000 		.4byte	.LFB64
 11454 0084 46000000 		.4byte	.LFE64-.LFB64
 11455 0088 00000000 		.4byte	.LFB74
 11456 008c 8A010000 		.4byte	.LFE74-.LFB74
 11457 0090 00000000 		.4byte	.LFB76
 11458 0094 5C000000 		.4byte	.LFE76-.LFB76
 11459 0098 00000000 		.4byte	.LFB83
 11460 009c EC000000 		.4byte	.LFE83-.LFB83
 11461 00a0 00000000 		.4byte	.LFB65
 11462 00a4 A8000000 		.4byte	.LFE65-.LFB65
 11463 00a8 00000000 		.4byte	.LFB75
 11464 00ac 66000000 		.4byte	.LFE75-.LFB75
 11465 00b0 00000000 		.4byte	.LFB66
 11466 00b4 54000000 		.4byte	.LFE66-.LFB66
 11467 00b8 00000000 		.4byte	.LFB63
 11468 00bc 3E000000 		.4byte	.LFE63-.LFB63
 11469 00c0 00000000 		.4byte	.LFB68
 11470 00c4 B6000000 		.4byte	.LFE68-.LFB68
 11471 00c8 00000000 		.4byte	.LFB69
 11472 00cc 86000000 		.4byte	.LFE69-.LFB69
 11473 00d0 00000000 		.4byte	.LFB67
 11474 00d4 68020000 		.4byte	.LFE67-.LFB67
 11475 00d8 00000000 		.4byte	.LFB70
 11476 00dc 30000000 		.4byte	.LFE70-.LFB70
 11477 00e0 00000000 		.4byte	.LFB71
 11478 00e4 64000000 		.4byte	.LFE71-.LFB71
 11479 00e8 00000000 		.4byte	.LFB72
 11480 00ec 70000000 		.4byte	.LFE72-.LFB72
 11481 00f0 00000000 		.4byte	.LFB73
 11482 00f4 36000000 		.4byte	.LFE73-.LFB73
 11483 00f8 00000000 		.4byte	.LFB88
 11484 00fc C2000000 		.4byte	.LFE88-.LFB88
 11485 0100 00000000 		.4byte	.LFB93
 11486 0104 2C000000 		.4byte	.LFE93-.LFB93
 11487 0108 00000000 		.4byte	.LFB94
 11488 010c 42000000 		.4byte	.LFE94-.LFB94
 11489 0110 00000000 		.4byte	.LFB95
 11490 0114 40000000 		.4byte	.LFE95-.LFB95
 11491 0118 00000000 		.4byte	.LFB96
 11492 011c 10000000 		.4byte	.LFE96-.LFB96
 11493 0120 00000000 		.4byte	0
 11494 0124 00000000 		.4byte	0
 11495              		.section	.debug_ranges,"",%progbits
 11496              	.Ldebug_ranges0:
 11497 0000 00000000 		.4byte	.LFB77
 11498 0004 70000000 		.4byte	.LFE77
 11499 0008 00000000 		.4byte	.LFB78
 11500 000c C4000000 		.4byte	.LFE78
 11501 0010 00000000 		.4byte	.LFB79
ARM GAS  C:\Users\adria\AppData\Local\Temp\cciNfgxb.s 			page 239


 11502 0014 C4000000 		.4byte	.LFE79
 11503 0018 00000000 		.4byte	.LFB80
 11504 001c AC000000 		.4byte	.LFE80
 11505 0020 00000000 		.4byte	.LFB81
 11506 0024 B0000000 		.4byte	.LFE81
 11507 0028 00000000 		.4byte	.LFB82
 11508 002c 24000000 		.4byte	.LFE82
 11509 0030 00000000 		.4byte	.LFB86
 11510 0034 3E000000 		.4byte	.LFE86
 11511 0038 00000000 		.4byte	.LFB87
 11512 003c 2A000000 		.4byte	.LFE87
 11513 0040 00000000 		.4byte	.LFB84
 11514 0044 70000000 		.4byte	.LFE84
 11515 0048 00000000 		.4byte	.LFB85
 11516 004c 38000000 		.4byte	.LFE85
 11517 0050 00000000 		.4byte	.LFB89
 11518 0054 88000000 		.4byte	.LFE89
 11519 0058 00000000 		.4byte	.LFB90
 11520 005c 08000000 		.4byte	.LFE90
 11521 0060 00000000 		.4byte	.LFB92
 11522 0064 30000000 		.4byte	.LFE92
 11523 0068 00000000 		.4byte	.LFB91
 11524 006c 3E000000 		.4byte	.LFE91
 11525 0070 00000000 		.4byte	.LFB64
 11526 0074 46000000 		.4byte	.LFE64
 11527 0078 00000000 		.4byte	.LFB74
 11528 007c 8A010000 		.4byte	.LFE74
 11529 0080 00000000 		.4byte	.LFB76
 11530 0084 5C000000 		.4byte	.LFE76
 11531 0088 00000000 		.4byte	.LFB83
 11532 008c EC000000 		.4byte	.LFE83
 11533 0090 00000000 		.4byte	.LFB65
 11534 0094 A8000000 		.4byte	.LFE65
 11535 0098 00000000 		.4byte	.LFB75
 11536 009c 66000000 		.4byte	.LFE75
 11537 00a0 00000000 		.4byte	.LFB66
 11538 00a4 54000000 		.4byte	.LFE66
 11539 00a8 00000000 		.4byte	.LFB63
 11540 00ac 3E000000 		.4byte	.LFE63
 11541 00b0 00000000 		.4byte	.LFB68
 11542 00b4 B6000000 		.4byte	.LFE68
 11543 00b8 00000000 		.4byte	.LFB69
 11544 00bc 86000000 		.4byte	.LFE69
 11545 00c0 00000000 		.4byte	.LFB67
 11546 00c4 68020000 		.4byte	.LFE67
 11547 00c8 00000000 		.4byte	.LFB70
 11548 00cc 30000000 		.4byte	.LFE70
 11549 00d0 00000000 		.4byte	.LFB71
 11550 00d4 64000000 		.4byte	.LFE71
 11551 00d8 00000000 		.4byte	.LFB72
 11552 00dc 70000000 		.4byte	.LFE72
 11553 00e0 00000000 		.4byte	.LFB73
 11554 00e4 36000000 		.4byte	.LFE73
 11555 00e8 00000000 		.4byte	.LFB88
 11556 00ec C2000000 		.4byte	.LFE88
 11557 00f0 00000000 		.4byte	.LFB93
 11558 00f4 2C000000 		.4byte	.LFE93
ARM GAS  C:\Users\adria\AppData\Local\Temp\cciNfgxb.s 			page 240


 11559 00f8 00000000 		.4byte	.LFB94
 11560 00fc 42000000 		.4byte	.LFE94
 11561 0100 00000000 		.4byte	.LFB95
 11562 0104 40000000 		.4byte	.LFE95
 11563 0108 00000000 		.4byte	.LFB96
 11564 010c 10000000 		.4byte	.LFE96
 11565 0110 00000000 		.4byte	0
 11566 0114 00000000 		.4byte	0
 11567              		.section	.debug_line,"",%progbits
 11568              	.Ldebug_line0:
 11569 0000 10060000 		.section	.debug_str,"MS",%progbits,1
 11569      02007201 
 11569      00000201 
 11569      FB0E0D00 
 11569      01010101 
 11570              	.LASF84:
 11571 0000 7470685F 		.ascii	"tph_sett\000"
 11571      73657474 
 11571      00
 11572              	.LASF172:
 11573 0009 7265675F 		.ascii	"reg_array\000"
 11573      61727261 
 11573      7900
 11574              	.LASF190:
 11575 0013 626D6536 		.ascii	"bme680_readData\000"
 11575      38305F72 
 11575      65616444 
 11575      61746100 
 11576              	.LASF194:
 11577 0023 49544D5F 		.ascii	"ITM_RxBuffer\000"
 11577      52784275 
 11577      66666572 
 11577      00
 11578              	.LASF177:
 11579 0030 7470685F 		.ascii	"tph_dur\000"
 11579      64757200 
 11580              	.LASF139:
 11581 0038 70657269 		.ascii	"period\000"
 11581      6F6400
 11582              	.LASF144:
 11583 003f 636F6566 		.ascii	"coeff_array\000"
 11583      665F6172 
 11583      72617900 
 11584              	.LASF183:
 11585 004b 626D6536 		.ascii	"bme680_self_test\000"
 11585      38305F73 
 11585      656C665F 
 11585      74657374 
 11585      00
 11586              	.LASF77:
 11587 005c 626D6536 		.ascii	"bme680_dev\000"
 11587      38305F64 
 11587      657600
 11588              	.LASF33:
 11589 0067 74656D70 		.ascii	"temperature\000"
 11589      65726174 
 11589      75726500 
ARM GAS  C:\Users\adria\AppData\Local\Temp\cciNfgxb.s 			page 241


 11590              	.LASF121:
 11591 0073 74656D70 		.ascii	"temp\000"
 11591      00
 11592              	.LASF34:
 11593 0078 70726573 		.ascii	"pressure\000"
 11593      73757265 
 11593      00
 11594              	.LASF115:
 11595 0081 6761735F 		.ascii	"gas_res_adc\000"
 11595      7265735F 
 11595      61646300 
 11596              	.LASF36:
 11597 008d 6761735F 		.ascii	"gas_resistance\000"
 11597      72657369 
 11597      7374616E 
 11597      636500
 11598              	.LASF188:
 11599 009c 626D6536 		.ascii	"bme680_config\000"
 11599      38305F63 
 11599      6F6E6669 
 11599      6700
 11600              	.LASF157:
 11601 00aa 626D6536 		.ascii	"bme680_set_regs\000"
 11601      38305F73 
 11601      65745F72 
 11601      65677300 
 11602              	.LASF173:
 11603 00ba 696E7465 		.ascii	"intended_power_mode\000"
 11603      6E646564 
 11603      5F706F77 
 11603      65725F6D 
 11603      6F646500 
 11604              	.LASF181:
 11605 00ce 626D6536 		.ascii	"bme680_get_profile_dur\000"
 11605      38305F67 
 11605      65745F70 
 11605      726F6669 
 11605      6C655F64 
 11606              	.LASF1:
 11607 00e5 756E7369 		.ascii	"unsigned int\000"
 11607      676E6564 
 11607      20696E74 
 11607      00
 11608              	.LASF114:
 11609 00f2 63616C63 		.ascii	"calc_gas_resistance\000"
 11609      5F676173 
 11609      5F726573 
 11609      69737461 
 11609      6E636500 
 11610              	.LASF10:
 11611 0106 5F5F696E 		.ascii	"__int32_t\000"
 11611      7433325F 
 11611      7400
 11612              	.LASF205:
 11613 0110 75736572 		.ascii	"user_delay_ms\000"
 11613      5F64656C 
 11613      61795F6D 
ARM GAS  C:\Users\adria\AppData\Local\Temp\cciNfgxb.s 			page 242


 11613      7300
 11614              	.LASF206:
 11615 011e 6D656D73 		.ascii	"memset\000"
 11615      657400
 11616              	.LASF189:
 11617 0125 7365745F 		.ascii	"set_required_settings\000"
 11617      72657175 
 11617      69726564 
 11617      5F736574 
 11617      74696E67 
 11618              	.LASF68:
 11619 013b 6F735F74 		.ascii	"os_temp\000"
 11619      656D7000 
 11620              	.LASF28:
 11621 0143 424D4536 		.ascii	"BME680_SPI_INTF\000"
 11621      38305F53 
 11621      50495F49 
 11621      4E544600 
 11622              	.LASF197:
 11623 0153 4932435F 		.ascii	"I2C_MasterWriteByte\000"
 11623      4D617374 
 11623      65725772 
 11623      69746542 
 11623      79746500 
 11624              	.LASF175:
 11625 0167 6D6F6465 		.ascii	"mode\000"
 11625      00
 11626              	.LASF165:
 11627 016c 64657369 		.ascii	"desired_settings\000"
 11627      7265645F 
 11627      73657474 
 11627      696E6773 
 11627      00
 11628              	.LASF29:
 11629 017d 424D4536 		.ascii	"BME680_I2C_INTF\000"
 11629      38305F49 
 11629      32435F49 
 11629      4E544600 
 11630              	.LASF116:
 11631 018d 6761735F 		.ascii	"gas_range\000"
 11631      72616E67 
 11631      6500
 11632              	.LASF81:
 11633 0197 6D656D5F 		.ascii	"mem_page\000"
 11633      70616765 
 11633      00
 11634              	.LASF198:
 11635 01a0 4932435F 		.ascii	"I2C_MasterSendStop\000"
 11635      4D617374 
 11635      65725365 
 11635      6E645374 
 11635      6F7000
 11636              	.LASF164:
 11637 01b3 626D6536 		.ascii	"bme680_get_sensor_settings\000"
 11637      38305F67 
 11637      65745F73 
 11637      656E736F 
ARM GAS  C:\Users\adria\AppData\Local\Temp\cciNfgxb.s 			page 243


 11637      725F7365 
 11638              	.LASF22:
 11639 01ce 75696E74 		.ascii	"uint32_t\000"
 11639      33325F74 
 11639      00
 11640              	.LASF17:
 11641 01d7 696E7438 		.ascii	"int8_t\000"
 11641      5F7400
 11642              	.LASF166:
 11643 01de 64617461 		.ascii	"data_array\000"
 11643      5F617272 
 11643      617900
 11644              	.LASF112:
 11645 01e9 74656D70 		.ascii	"temp_scaled\000"
 11645      5F736361 
 11645      6C656400 
 11646              	.LASF94:
 11647 01f5 666C6F61 		.ascii	"float\000"
 11647      7400
 11648              	.LASF65:
 11649 01fb 72616E67 		.ascii	"range_sw_err\000"
 11649      655F7377 
 11649      5F657272 
 11649      00
 11650              	.LASF159:
 11651 0208 696E6465 		.ascii	"index\000"
 11651      7800
 11652              	.LASF176:
 11653 020e 64757261 		.ascii	"duration\000"
 11653      74696F6E 
 11653      00
 11654              	.LASF19:
 11655 0217 696E7431 		.ascii	"int16_t\000"
 11655      365F7400 
 11656              	.LASF203:
 11657 021f 433A5C55 		.ascii	"C:\\Users\\adria\\OneDrive\\Documents\\PSoC Creator"
 11657      73657273 
 11657      5C616472 
 11657      69615C4F 
 11657      6E654472 
 11658 024d 5C50524F 		.ascii	"\\PROYECTO_IOT\\BME680.cydsn\000"
 11658      59454354 
 11658      4F5F494F 
 11658      545C424D 
 11658      45363830 
 11659              	.LASF83:
 11660 0268 63616C69 		.ascii	"calib\000"
 11660      6200
 11661              	.LASF124:
 11662 026e 63616C63 		.ascii	"calc_heater_dur\000"
 11662      5F686561 
 11662      7465725F 
 11662      64757200 
 11663              	.LASF0:
 11664 027e 6C6F6E67 		.ascii	"long long unsigned int\000"
 11664      206C6F6E 
 11664      6720756E 
ARM GAS  C:\Users\adria\AppData\Local\Temp\cciNfgxb.s 			page 244


 11664      7369676E 
 11664      65642069 
 11665              	.LASF32:
 11666 0295 6D656173 		.ascii	"meas_index\000"
 11666      5F696E64 
 11666      657800
 11667              	.LASF141:
 11668 02a0 7265675F 		.ascii	"reg_data\000"
 11668      64617461 
 11668      00
 11669              	.LASF8:
 11670 02a9 5F5F7569 		.ascii	"__uint16_t\000"
 11670      6E743136 
 11670      5F7400
 11671              	.LASF174:
 11672 02b4 626D6536 		.ascii	"bme680_get_sensor_mode\000"
 11672      38305F67 
 11672      65745F73 
 11672      656E736F 
 11672      725F6D6F 
 11673              	.LASF40:
 11674 02cb 7061725F 		.ascii	"par_h2\000"
 11674      683200
 11675              	.LASF108:
 11676 02d2 68756D5F 		.ascii	"hum_adc\000"
 11676      61646300 
 11677              	.LASF44:
 11678 02da 7061725F 		.ascii	"par_h6\000"
 11678      683600
 11679              	.LASF186:
 11680 02e1 70726F66 		.ascii	"profile_dur\000"
 11680      696C655F 
 11680      64757200 
 11681              	.LASF128:
 11682 02ed 76616C75 		.ascii	"value\000"
 11682      6500
 11683              	.LASF201:
 11684 02f3 474E5520 		.ascii	"GNU C11 5.4.1 20160609 (release) [ARM/embedded-5-br"
 11684      43313120 
 11684      352E342E 
 11684      31203230 
 11684      31363036 
 11685 0326 616E6368 		.ascii	"anch revision 237715] -mcpu=cortex-m3 -mthumb -g -O"
 11685      20726576 
 11685      6973696F 
 11685      6E203233 
 11685      37373135 
 11686 0359 67202D66 		.ascii	"g -ffunction-sections -ffat-lto-objects\000"
 11686      66756E63 
 11686      74696F6E 
 11686      2D736563 
 11686      74696F6E 
 11687              	.LASF133:
 11688 0381 6765745F 		.ascii	"get_mem_page\000"
 11688      6D656D5F 
 11688      70616765 
 11688      00
ARM GAS  C:\Users\adria\AppData\Local\Temp\cciNfgxb.s 			page 245


 11689              	.LASF71:
 11690 038e 626D6536 		.ascii	"bme680_gas_sett\000"
 11690      38305F67 
 11690      61735F73 
 11690      65747400 
 11691              	.LASF78:
 11692 039e 63686970 		.ascii	"chip_id\000"
 11692      5F696400 
 11693              	.LASF23:
 11694 03a6 696E7436 		.ascii	"int64_t\000"
 11694      345F7400 
 11695              	.LASF56:
 11696 03ae 7061725F 		.ascii	"par_p5\000"
 11696      703500
 11697              	.LASF126:
 11698 03b5 64757276 		.ascii	"durval\000"
 11698      616C00
 11699              	.LASF162:
 11700 03bc 736F6674 		.ascii	"soft_rst_cmd\000"
 11700      5F727374 
 11700      5F636D64 
 11700      00
 11701              	.LASF137:
 11702 03c9 73656C66 		.ascii	"self_test_failed\000"
 11702      5F746573 
 11702      745F6661 
 11702      696C6564 
 11702      00
 11703              	.LASF52:
 11704 03da 7061725F 		.ascii	"par_p1\000"
 11704      703100
 11705              	.LASF53:
 11706 03e1 7061725F 		.ascii	"par_p2\000"
 11706      703200
 11707              	.LASF54:
 11708 03e8 7061725F 		.ascii	"par_p3\000"
 11708      703300
 11709              	.LASF55:
 11710 03ef 7061725F 		.ascii	"par_p4\000"
 11710      703400
 11711              	.LASF16:
 11712 03f6 5F5F7569 		.ascii	"__uint64_t\000"
 11712      6E743634 
 11712      5F7400
 11713              	.LASF57:
 11714 0401 7061725F 		.ascii	"par_p6\000"
 11714      703600
 11715              	.LASF58:
 11716 0408 7061725F 		.ascii	"par_p7\000"
 11716      703700
 11717              	.LASF59:
 11718 040f 7061725F 		.ascii	"par_p8\000"
 11718      703800
 11719              	.LASF60:
 11720 0416 7061725F 		.ascii	"par_p9\000"
 11720      703900
 11721              	.LASF91:
ARM GAS  C:\Users\adria\AppData\Local\Temp\cciNfgxb.s 			page 246


 11722 041d 64656C61 		.ascii	"delay_ms\000"
 11722      795F6D73 
 11722      00
 11723              	.LASF199:
 11724 0426 4932435F 		.ascii	"I2C_MasterSendRestart\000"
 11724      4D617374 
 11724      65725365 
 11724      6E645265 
 11724      73746172 
 11725              	.LASF107:
 11726 043c 63616C63 		.ascii	"calc_humidity\000"
 11726      5F68756D 
 11726      69646974 
 11726      7900
 11727              	.LASF76:
 11728 044a 68656174 		.ascii	"heatr_dur\000"
 11728      725F6475 
 11728      7200
 11729              	.LASF180:
 11730 0454 626D6536 		.ascii	"bme680_set_profile_dur\000"
 11730      38305F73 
 11730      65745F70 
 11730      726F6669 
 11730      6C655F64 
 11731              	.LASF171:
 11732 046b 636F756E 		.ascii	"count\000"
 11732      7400
 11733              	.LASF73:
 11734 0471 68656174 		.ascii	"heatr_ctrl\000"
 11734      725F6374 
 11734      726C00
 11735              	.LASF87:
 11736 047c 6E65775F 		.ascii	"new_fields\000"
 11736      6669656C 
 11736      647300
 11737              	.LASF93:
 11738 0487 73646174 		.ascii	"sdata_bme680\000"
 11738      615F626D 
 11738      65363830 
 11738      00
 11739              	.LASF96:
 11740 0494 63686172 		.ascii	"char\000"
 11740      00
 11741              	.LASF150:
 11742 0499 62756666 		.ascii	"buff\000"
 11742      00
 11743              	.LASF147:
 11744 049e 7265675F 		.ascii	"reg_addr1\000"
 11744      61646472 
 11744      3100
 11745              	.LASF148:
 11746 04a8 7265675F 		.ascii	"reg_addr2\000"
 11746      61646472 
 11746      3200
 11747              	.LASF200:
 11748 04b2 4932435F 		.ascii	"I2C_MasterReadByte\000"
 11748      4D617374 
ARM GAS  C:\Users\adria\AppData\Local\Temp\cciNfgxb.s 			page 247


 11748      65725265 
 11748      61644279 
 11748      746500
 11749              	.LASF204:
 11750 04c5 626D6536 		.ascii	"bme680_intf\000"
 11750      38305F69 
 11750      6E746600 
 11751              	.LASF67:
 11752 04d1 6F735F68 		.ascii	"os_hum\000"
 11752      756D00
 11753              	.LASF195:
 11754 04d8 43794465 		.ascii	"CyDelay\000"
 11754      6C617900 
 11755              	.LASF135:
 11756 04e0 64617461 		.ascii	"data\000"
 11756      00
 11757              	.LASF18:
 11758 04e5 75696E74 		.ascii	"uint8_t\000"
 11758      385F7400 
 11759              	.LASF142:
 11760 04ed 75736572 		.ascii	"user_i2c_read\000"
 11760      5F693263 
 11760      5F726561 
 11760      6400
 11761              	.LASF30:
 11762 04fb 73746174 		.ascii	"status\000"
 11762      757300
 11763              	.LASF136:
 11764 0502 6E5F6D65 		.ascii	"n_meas\000"
 11764      617300
 11765              	.LASF130:
 11766 0509 6E756C6C 		.ascii	"null_ptr_check\000"
 11766      5F707472 
 11766      5F636865 
 11766      636B00
 11767              	.LASF69:
 11768 0518 6F735F70 		.ascii	"os_pres\000"
 11768      72657300 
 11769              	.LASF61:
 11770 0520 7061725F 		.ascii	"par_p10\000"
 11770      70313000 
 11771              	.LASF62:
 11772 0528 745F6669 		.ascii	"t_fine\000"
 11772      6E6500
 11773              	.LASF131:
 11774 052f 7365745F 		.ascii	"set_mem_page\000"
 11774      6D656D5F 
 11774      70616765 
 11774      00
 11775              	.LASF26:
 11776 053c 626D6536 		.ascii	"bme680_com_fptr_t\000"
 11776      38305F63 
 11776      6F6D5F66 
 11776      7074725F 
 11776      7400
 11777              	.LASF72:
 11778 054e 6E625F63 		.ascii	"nb_conv\000"
ARM GAS  C:\Users\adria\AppData\Local\Temp\cciNfgxb.s 			page 248


 11778      6F6E7600 
 11779              	.LASF154:
 11780 0556 6164635F 		.ascii	"adc_gas_res\000"
 11780      6761735F 
 11780      72657300 
 11781              	.LASF80:
 11782 0562 696E7466 		.ascii	"intf\000"
 11782      00
 11783              	.LASF153:
 11784 0567 6164635F 		.ascii	"adc_hum\000"
 11784      68756D00 
 11785              	.LASF15:
 11786 056f 6C6F6E67 		.ascii	"long long int\000"
 11786      206C6F6E 
 11786      6720696E 
 11786      7400
 11787              	.LASF90:
 11788 057d 77726974 		.ascii	"write\000"
 11788      6500
 11789              	.LASF46:
 11790 0583 7061725F 		.ascii	"par_gh1\000"
 11790      67683100 
 11791              	.LASF47:
 11792 058b 7061725F 		.ascii	"par_gh2\000"
 11792      67683200 
 11793              	.LASF48:
 11794 0593 7061725F 		.ascii	"par_gh3\000"
 11794      67683300 
 11795              	.LASF179:
 11796 059b 6F735F74 		.ascii	"os_to_meas_cycles\000"
 11796      6F5F6D65 
 11796      61735F63 
 11796      79636C65 
 11796      7300
 11797              	.LASF127:
 11798 05ad 626F756E 		.ascii	"boundary_check\000"
 11798      64617279 
 11798      5F636865 
 11798      636B00
 11799              	.LASF6:
 11800 05bc 5F5F696E 		.ascii	"__int16_t\000"
 11800      7431365F 
 11800      7400
 11801              	.LASF169:
 11802 05c6 706F775F 		.ascii	"pow_mode\000"
 11802      6D6F6465 
 11802      00
 11803              	.LASF99:
 11804 05cf 76617231 		.ascii	"var1\000"
 11804      00
 11805              	.LASF105:
 11806 05d4 76617232 		.ascii	"var2\000"
 11806      00
 11807              	.LASF100:
 11808 05d9 76617233 		.ascii	"var3\000"
 11808      00
 11809              	.LASF109:
ARM GAS  C:\Users\adria\AppData\Local\Temp\cciNfgxb.s 			page 249


 11810 05de 76617234 		.ascii	"var4\000"
 11810      00
 11811              	.LASF110:
 11812 05e3 76617235 		.ascii	"var5\000"
 11812      00
 11813              	.LASF111:
 11814 05e8 76617236 		.ascii	"var6\000"
 11814      00
 11815              	.LASF151:
 11816 05ed 6164635F 		.ascii	"adc_temp\000"
 11816      74656D70 
 11816      00
 11817              	.LASF149:
 11818 05f6 72656164 		.ascii	"read_field_data\000"
 11818      5F666965 
 11818      6C645F64 
 11818      61746100 
 11819              	.LASF85:
 11820 0606 6761735F 		.ascii	"gas_sett\000"
 11820      73657474 
 11820      00
 11821              	.LASF38:
 11822 060f 626D6536 		.ascii	"bme680_calib_data\000"
 11822      38305F63 
 11822      616C6962 
 11822      5F646174 
 11822      6100
 11823              	.LASF167:
 11824 0621 626D6536 		.ascii	"bme680_set_sensor_mode\000"
 11824      38305F73 
 11824      65745F73 
 11824      656E736F 
 11824      725F6D6F 
 11825              	.LASF3:
 11826 0638 5F5F696E 		.ascii	"__int8_t\000"
 11826      74385F74 
 11826      00
 11827              	.LASF64:
 11828 0641 7265735F 		.ascii	"res_heat_val\000"
 11828      68656174 
 11828      5F76616C 
 11828      00
 11829              	.LASF161:
 11830 064e 626D6536 		.ascii	"bme680_soft_reset\000"
 11830      38305F73 
 11830      6F66745F 
 11830      72657365 
 11830      7400
 11831              	.LASF49:
 11832 0660 7061725F 		.ascii	"par_t1\000"
 11832      743100
 11833              	.LASF50:
 11834 0667 7061725F 		.ascii	"par_t2\000"
 11834      743200
 11835              	.LASF14:
 11836 066e 5F5F696E 		.ascii	"__int64_t\000"
 11836      7436345F 
ARM GAS  C:\Users\adria\AppData\Local\Temp\cciNfgxb.s 			page 250


 11836      7400
 11837              	.LASF25:
 11838 0678 6C6F6E67 		.ascii	"long double\000"
 11838      20646F75 
 11838      626C6500 
 11839              	.LASF20:
 11840 0684 75696E74 		.ascii	"uint16_t\000"
 11840      31365F74 
 11840      00
 11841              	.LASF184:
 11842 068d 745F6465 		.ascii	"t_dev\000"
 11842      7600
 11843              	.LASF86:
 11844 0693 706F7765 		.ascii	"power_mode\000"
 11844      725F6D6F 
 11844      646500
 11845              	.LASF160:
 11846 069e 7365745F 		.ascii	"set_gas_config\000"
 11846      6761735F 
 11846      636F6E66 
 11846      696700
 11847              	.LASF104:
 11848 06ad 70726573 		.ascii	"pres_adc\000"
 11848      5F616463 
 11848      00
 11849              	.LASF88:
 11850 06b6 696E666F 		.ascii	"info_msg\000"
 11850      5F6D7367 
 11850      00
 11851              	.LASF74:
 11852 06bf 72756E5F 		.ascii	"run_gas\000"
 11852      67617300 
 11853              	.LASF156:
 11854 06c7 626D6536 		.ascii	"bme680_get_regs\000"
 11854      38305F67 
 11854      65745F72 
 11854      65677300 
 11855              	.LASF138:
 11856 06d7 63656E74 		.ascii	"cent_res\000"
 11856      5F726573 
 11856      00
 11857              	.LASF7:
 11858 06e0 73686F72 		.ascii	"short int\000"
 11858      7420696E 
 11858      7400
 11859              	.LASF134:
 11860 06ea 616E616C 		.ascii	"analyze_sensor_data\000"
 11860      797A655F 
 11860      73656E73 
 11860      6F725F64 
 11860      61746100 
 11861              	.LASF132:
 11862 06fe 7265675F 		.ascii	"reg_addr\000"
 11862      61646472 
 11862      00
 11863              	.LASF11:
 11864 0707 6C6F6E67 		.ascii	"long int\000"
ARM GAS  C:\Users\adria\AppData\Local\Temp\cciNfgxb.s 			page 251


 11864      20696E74 
 11864      00
 11865              	.LASF129:
 11866 0710 72736C74 		.ascii	"rslt\000"
 11866      00
 11867              	.LASF185:
 11868 0715 73657474 		.ascii	"settings_sel\000"
 11868      696E6773 
 11868      5F73656C 
 11868      00
 11869              	.LASF202:
 11870 0722 626D6536 		.ascii	"bme680.c\000"
 11870      38302E63 
 11870      00
 11871              	.LASF117:
 11872 072b 63616C63 		.ascii	"calc_gas_res\000"
 11872      5F676173 
 11872      5F726573 
 11872      00
 11873              	.LASF70:
 11874 0738 66696C74 		.ascii	"filter\000"
 11874      657200
 11875              	.LASF24:
 11876 073f 75696E74 		.ascii	"uint64_t\000"
 11876      36345F74 
 11876      00
 11877              	.LASF163:
 11878 0748 626D6536 		.ascii	"bme680_init\000"
 11878      38305F69 
 11878      6E697400 
 11879              	.LASF123:
 11880 0754 68656174 		.ascii	"heatr_res_x100\000"
 11880      725F7265 
 11880      735F7831 
 11880      303000
 11881              	.LASF66:
 11882 0763 626D6536 		.ascii	"bme680_tph_sett\000"
 11882      38305F74 
 11882      70685F73 
 11882      65747400 
 11883              	.LASF31:
 11884 0773 6761735F 		.ascii	"gas_index\000"
 11884      696E6465 
 11884      7800
 11885              	.LASF27:
 11886 077d 626D6536 		.ascii	"bme680_delay_fptr_t\000"
 11886      38305F64 
 11886      656C6179 
 11886      5F667074 
 11886      725F7400 
 11887              	.LASF187:
 11888 0791 626D6536 		.ascii	"bme680_setup\000"
 11888      38305F73 
 11888      65747570 
 11888      00
 11889              	.LASF120:
 11890 079e 63616C63 		.ascii	"calc_heater_res\000"
ARM GAS  C:\Users\adria\AppData\Local\Temp\cciNfgxb.s 			page 252


 11890      5F686561 
 11890      7465725F 
 11890      72657300 
 11891              	.LASF193:
 11892 07ae 73656E73 		.ascii	"sensor_bme680\000"
 11892      6F725F62 
 11892      6D653638 
 11892      3000
 11893              	.LASF4:
 11894 07bc 5F5F7569 		.ascii	"__uint8_t\000"
 11894      6E74385F 
 11894      7400
 11895              	.LASF89:
 11896 07c6 72656164 		.ascii	"read\000"
 11896      00
 11897              	.LASF98:
 11898 07cb 74656D70 		.ascii	"temp_adc\000"
 11898      5F616463 
 11898      00
 11899              	.LASF146:
 11900 07d4 6765745F 		.ascii	"get_gas_config\000"
 11900      6761735F 
 11900      636F6E66 
 11900      696700
 11901              	.LASF97:
 11902 07e3 73697A65 		.ascii	"sizetype\000"
 11902      74797065 
 11902      00
 11903              	.LASF13:
 11904 07ec 6C6F6E67 		.ascii	"long unsigned int\000"
 11904      20756E73 
 11904      69676E65 
 11904      6420696E 
 11904      7400
 11905              	.LASF196:
 11906 07fe 4932435F 		.ascii	"I2C_MasterSendStart\000"
 11906      4D617374 
 11906      65725365 
 11906      6E645374 
 11906      61727400 
 11907              	.LASF21:
 11908 0812 696E7433 		.ascii	"int32_t\000"
 11908      325F7400 
 11909              	.LASF182:
 11910 081a 626D6536 		.ascii	"bme680_get_sensor_data\000"
 11910      38305F67 
 11910      65745F73 
 11910      656E736F 
 11910      725F6461 
 11911              	.LASF92:
 11912 0831 636F6D5F 		.ascii	"com_rslt\000"
 11912      72736C74 
 11912      00
 11913              	.LASF158:
 11914 083a 746D705F 		.ascii	"tmp_buff\000"
 11914      62756666 
 11914      00
ARM GAS  C:\Users\adria\AppData\Local\Temp\cciNfgxb.s 			page 253


 11915              	.LASF192:
 11916 0843 626D6536 		.ascii	"bme680_Start\000"
 11916      38305F53 
 11916      74617274 
 11916      00
 11917              	.LASF39:
 11918 0850 7061725F 		.ascii	"par_h1\000"
 11918      683100
 11919              	.LASF5:
 11920 0857 756E7369 		.ascii	"unsigned char\000"
 11920      676E6564 
 11920      20636861 
 11920      7200
 11921              	.LASF41:
 11922 0865 7061725F 		.ascii	"par_h3\000"
 11922      683300
 11923              	.LASF42:
 11924 086c 7061725F 		.ascii	"par_h4\000"
 11924      683400
 11925              	.LASF43:
 11926 0873 7061725F 		.ascii	"par_h5\000"
 11926      683500
 11927              	.LASF12:
 11928 087a 5F5F7569 		.ascii	"__uint32_t\000"
 11928      6E743332 
 11928      5F7400
 11929              	.LASF45:
 11930 0885 7061725F 		.ascii	"par_h7\000"
 11930      683700
 11931              	.LASF102:
 11932 088c 63616C63 		.ascii	"calc_temperature\000"
 11932      5F74656D 
 11932      70657261 
 11932      74757265 
 11932      00
 11933              	.LASF51:
 11934 089d 7061725F 		.ascii	"par_t3\000"
 11934      743300
 11935              	.LASF191:
 11936 08a4 6D656173 		.ascii	"meas_period\000"
 11936      5F706572 
 11936      696F6400 
 11937              	.LASF155:
 11938 08b0 74726965 		.ascii	"tries\000"
 11938      7300
 11939              	.LASF79:
 11940 08b6 6465765F 		.ascii	"dev_id\000"
 11940      696400
 11941              	.LASF152:
 11942 08bd 6164635F 		.ascii	"adc_pres\000"
 11942      70726573 
 11942      00
 11943              	.LASF82:
 11944 08c6 616D625F 		.ascii	"amb_temp\000"
 11944      74656D70 
 11944      00
 11945              	.LASF143:
ARM GAS  C:\Users\adria\AppData\Local\Temp\cciNfgxb.s 			page 254


 11946 08cf 6765745F 		.ascii	"get_calib_data\000"
 11946      63616C69 
 11946      625F6461 
 11946      746100
 11947              	.LASF122:
 11948 08de 68656174 		.ascii	"heatr_res\000"
 11948      725F7265 
 11948      7300
 11949              	.LASF178:
 11950 08e8 6D656173 		.ascii	"meas_cycles\000"
 11950      5F637963 
 11950      6C657300 
 11951              	.LASF168:
 11952 08f4 746D705F 		.ascii	"tmp_pow_mode\000"
 11952      706F775F 
 11952      6D6F6465 
 11952      00
 11953              	.LASF37:
 11954 0901 626D6536 		.ascii	"bme680_field_data\000"
 11954      38305F66 
 11954      69656C64 
 11954      5F646174 
 11954      6100
 11955              	.LASF2:
 11956 0913 7369676E 		.ascii	"signed char\000"
 11956      65642063 
 11956      68617200 
 11957              	.LASF106:
 11958 091f 70726573 		.ascii	"pressure_comp\000"
 11958      73757265 
 11958      5F636F6D 
 11958      7000
 11959              	.LASF145:
 11960 092d 74656D70 		.ascii	"temp_var\000"
 11960      5F766172 
 11960      00
 11961              	.LASF170:
 11962 0936 626D6536 		.ascii	"bme680_set_sensor_settings\000"
 11962      38305F73 
 11962      65745F73 
 11962      656E736F 
 11962      725F7365 
 11963              	.LASF9:
 11964 0951 73686F72 		.ascii	"short unsigned int\000"
 11964      7420756E 
 11964      7369676E 
 11964      65642069 
 11964      6E7400
 11965              	.LASF118:
 11966 0964 6C6F6F6B 		.ascii	"lookupTable1\000"
 11966      75705461 
 11966      626C6531 
 11966      00
 11967              	.LASF119:
 11968 0971 6C6F6F6B 		.ascii	"lookupTable2\000"
 11968      75705461 
 11968      626C6532 
ARM GAS  C:\Users\adria\AppData\Local\Temp\cciNfgxb.s 			page 255


 11968      00
 11969              	.LASF75:
 11970 097e 68656174 		.ascii	"heatr_temp\000"
 11970      725F7465 
 11970      6D7000
 11971              	.LASF103:
 11972 0989 63616C63 		.ascii	"calc_pressure\000"
 11972      5F707265 
 11972      73737572 
 11972      6500
 11973              	.LASF95:
 11974 0997 646F7562 		.ascii	"double\000"
 11974      6C6500
 11975              	.LASF101:
 11976 099e 63616C63 		.ascii	"calc_temp\000"
 11976      5F74656D 
 11976      7000
 11977              	.LASF125:
 11978 09a8 66616374 		.ascii	"factor\000"
 11978      6F7200
 11979              	.LASF140:
 11980 09af 75736572 		.ascii	"user_i2c_write\000"
 11980      5F693263 
 11980      5F777269 
 11980      746500
 11981              	.LASF35:
 11982 09be 68756D69 		.ascii	"humidity\000"
 11982      64697479 
 11982      00
 11983              	.LASF63:
 11984 09c7 7265735F 		.ascii	"res_heat_range\000"
 11984      68656174 
 11984      5F72616E 
 11984      676500
 11985              	.LASF113:
 11986 09d6 63616C63 		.ascii	"calc_hum\000"
 11986      5F68756D 
 11986      00
 11987              		.ident	"GCC: (GNU Tools for ARM Embedded Processors) 5.4.1 20160609 (release) [ARM/embedded-5-bran
