ARM GAS  C:\Users\adria\AppData\Local\Temp\ccOKprka.s 			page 1


   1              		.syntax unified
   2              		.cpu cortex-m3
   3              		.fpu softvfp
   4              		.eabi_attribute 20, 1
   5              		.eabi_attribute 21, 1
   6              		.eabi_attribute 23, 3
   7              		.eabi_attribute 24, 1
   8              		.eabi_attribute 25, 1
   9              		.eabi_attribute 26, 1
  10              		.eabi_attribute 30, 1
  11              		.eabi_attribute 34, 1
  12              		.eabi_attribute 18, 4
  13              		.thumb
  14              		.syntax unified
  15              		.file	"bme680.c"
  16              		.text
  17              	.Ltext0:
  18              		.cfi_sections	.debug_frame
  19              		.section	.text.calc_temperature,"ax",%progbits
  20              		.align	2
  21              		.thumb
  22              		.thumb_func
  23              		.type	calc_temperature, %function
  24              	calc_temperature:
  25              	.LFB77:
  26              		.file 1 "D:\\design-mpu\\source\\ejemplos\\BME680\\bme680.c"
   1:D:\design-mpu\source\ejemplos\BME680\bme680.c **** /**\mainpage
   2:D:\design-mpu\source\ejemplos\BME680\bme680.c ****  * Copyright (c) 2020 Bosch Sensortec GmbH. All rights reserved.
   3:D:\design-mpu\source\ejemplos\BME680\bme680.c ****  *
   4:D:\design-mpu\source\ejemplos\BME680\bme680.c ****  * BSD-3-Clause
   5:D:\design-mpu\source\ejemplos\BME680\bme680.c ****  *
   6:D:\design-mpu\source\ejemplos\BME680\bme680.c ****  * Redistribution and use in source and binary forms, with or without
   7:D:\design-mpu\source\ejemplos\BME680\bme680.c ****  * modification, are permitted provided that the following conditions are met:
   8:D:\design-mpu\source\ejemplos\BME680\bme680.c ****  *
   9:D:\design-mpu\source\ejemplos\BME680\bme680.c ****  * 1. Redistributions of source code must retain the above copyright
  10:D:\design-mpu\source\ejemplos\BME680\bme680.c ****  *    notice, this list of conditions and the following disclaimer.
  11:D:\design-mpu\source\ejemplos\BME680\bme680.c ****  *
  12:D:\design-mpu\source\ejemplos\BME680\bme680.c ****  * 2. Redistributions in binary form must reproduce the above copyright
  13:D:\design-mpu\source\ejemplos\BME680\bme680.c ****  *    notice, this list of conditions and the following disclaimer in the
  14:D:\design-mpu\source\ejemplos\BME680\bme680.c ****  *    documentation and/or other materials provided with the distribution.
  15:D:\design-mpu\source\ejemplos\BME680\bme680.c ****  *
  16:D:\design-mpu\source\ejemplos\BME680\bme680.c ****  * 3. Neither the name of the copyright holder nor the names of its
  17:D:\design-mpu\source\ejemplos\BME680\bme680.c ****  *    contributors may be used to endorse or promote products derived from
  18:D:\design-mpu\source\ejemplos\BME680\bme680.c ****  *    this software without specific prior written permission.
  19:D:\design-mpu\source\ejemplos\BME680\bme680.c ****  *
  20:D:\design-mpu\source\ejemplos\BME680\bme680.c ****  * THIS SOFTWARE IS PROVIDED BY THE COPYRIGHT HOLDERS AND CONTRIBUTORS
  21:D:\design-mpu\source\ejemplos\BME680\bme680.c ****  * "AS IS" AND ANY EXPRESS OR IMPLIED WARRANTIES, INCLUDING, BUT NOT
  22:D:\design-mpu\source\ejemplos\BME680\bme680.c ****  * LIMITED TO, THE IMPLIED WARRANTIES OF MERCHANTABILITY AND FITNESS
  23:D:\design-mpu\source\ejemplos\BME680\bme680.c ****  * FOR A PARTICULAR PURPOSE ARE DISCLAIMED. IN NO EVENT SHALL THE
  24:D:\design-mpu\source\ejemplos\BME680\bme680.c ****  * COPYRIGHT HOLDER OR CONTRIBUTORS BE LIABLE FOR ANY DIRECT, INDIRECT,
  25:D:\design-mpu\source\ejemplos\BME680\bme680.c ****  * INCIDENTAL, SPECIAL, EXEMPLARY, OR CONSEQUENTIAL DAMAGES
  26:D:\design-mpu\source\ejemplos\BME680\bme680.c ****  * (INCLUDING, BUT NOT LIMITED TO, PROCUREMENT OF SUBSTITUTE GOODS OR
  27:D:\design-mpu\source\ejemplos\BME680\bme680.c ****  * SERVICES; LOSS OF USE, DATA, OR PROFITS; OR BUSINESS INTERRUPTION)
  28:D:\design-mpu\source\ejemplos\BME680\bme680.c ****  * HOWEVER CAUSED AND ON ANY THEORY OF LIABILITY, WHETHER IN CONTRACT,
  29:D:\design-mpu\source\ejemplos\BME680\bme680.c ****  * STRICT LIABILITY, OR TORT (INCLUDING NEGLIGENCE OR OTHERWISE) ARISING
  30:D:\design-mpu\source\ejemplos\BME680\bme680.c ****  * IN ANY WAY OUT OF THE USE OF THIS SOFTWARE, EVEN IF ADVISED OF THE
  31:D:\design-mpu\source\ejemplos\BME680\bme680.c ****  * POSSIBILITY OF SUCH DAMAGE.
ARM GAS  C:\Users\adria\AppData\Local\Temp\ccOKprka.s 			page 2


  32:D:\design-mpu\source\ejemplos\BME680\bme680.c ****  *
  33:D:\design-mpu\source\ejemplos\BME680\bme680.c ****  * File		bme680.c
  34:D:\design-mpu\source\ejemplos\BME680\bme680.c ****  * @date	23 Jan 2020
  35:D:\design-mpu\source\ejemplos\BME680\bme680.c ****  * @version	3.5.10
  36:D:\design-mpu\source\ejemplos\BME680\bme680.c ****  *
  37:D:\design-mpu\source\ejemplos\BME680\bme680.c ****  */
  38:D:\design-mpu\source\ejemplos\BME680\bme680.c **** 
  39:D:\design-mpu\source\ejemplos\BME680\bme680.c **** /*! @file bme680.c
  40:D:\design-mpu\source\ejemplos\BME680\bme680.c ****  @brief Sensor driver for BME680 sensor */
  41:D:\design-mpu\source\ejemplos\BME680\bme680.c **** #include "bme680.h"
  42:D:\design-mpu\source\ejemplos\BME680\bme680.c **** #include "project.h"
  43:D:\design-mpu\source\ejemplos\BME680\bme680.c **** 
  44:D:\design-mpu\source\ejemplos\BME680\bme680.c **** /*!
  45:D:\design-mpu\source\ejemplos\BME680\bme680.c ****  * @brief This internal API is used to read the calibrated data from the sensor.
  46:D:\design-mpu\source\ejemplos\BME680\bme680.c ****  *
  47:D:\design-mpu\source\ejemplos\BME680\bme680.c ****  * This function is used to retrieve the calibration
  48:D:\design-mpu\source\ejemplos\BME680\bme680.c ****  * data from the image registers of the sensor.
  49:D:\design-mpu\source\ejemplos\BME680\bme680.c ****  *
  50:D:\design-mpu\source\ejemplos\BME680\bme680.c ****  * @note Registers 89h  to A1h for calibration data 1 to 24
  51:D:\design-mpu\source\ejemplos\BME680\bme680.c ****  *        from bit 0 to 7
  52:D:\design-mpu\source\ejemplos\BME680\bme680.c ****  * @note Registers E1h to F0h for calibration data 25 to 40
  53:D:\design-mpu\source\ejemplos\BME680\bme680.c ****  *        from bit 0 to 7
  54:D:\design-mpu\source\ejemplos\BME680\bme680.c ****  * @param[in] dev	:Structure instance of bme680_dev.
  55:D:\design-mpu\source\ejemplos\BME680\bme680.c ****  *
  56:D:\design-mpu\source\ejemplos\BME680\bme680.c ****  * @return Result of API execution status.
  57:D:\design-mpu\source\ejemplos\BME680\bme680.c ****  * @retval zero -> Success / +ve value -> Warning / -ve value -> Error
  58:D:\design-mpu\source\ejemplos\BME680\bme680.c ****  */
  59:D:\design-mpu\source\ejemplos\BME680\bme680.c **** static int8_t get_calib_data(struct bme680_dev *dev);
  60:D:\design-mpu\source\ejemplos\BME680\bme680.c **** 
  61:D:\design-mpu\source\ejemplos\BME680\bme680.c **** /*!
  62:D:\design-mpu\source\ejemplos\BME680\bme680.c ****  * @brief This internal API is used to set the gas configuration of the sensor.
  63:D:\design-mpu\source\ejemplos\BME680\bme680.c ****  *
  64:D:\design-mpu\source\ejemplos\BME680\bme680.c ****  * @param[in] dev	:Structure instance of bme680_dev.
  65:D:\design-mpu\source\ejemplos\BME680\bme680.c ****  *
  66:D:\design-mpu\source\ejemplos\BME680\bme680.c ****  * @return Result of API execution status.
  67:D:\design-mpu\source\ejemplos\BME680\bme680.c ****  * @retval zero -> Success / +ve value -> Warning / -ve value -> Error
  68:D:\design-mpu\source\ejemplos\BME680\bme680.c ****  */
  69:D:\design-mpu\source\ejemplos\BME680\bme680.c **** static int8_t set_gas_config(struct bme680_dev *dev);
  70:D:\design-mpu\source\ejemplos\BME680\bme680.c **** 
  71:D:\design-mpu\source\ejemplos\BME680\bme680.c **** /*!
  72:D:\design-mpu\source\ejemplos\BME680\bme680.c ****  * @brief This internal API is used to get the gas configuration of the sensor.
  73:D:\design-mpu\source\ejemplos\BME680\bme680.c ****  * @note heatr_temp and heatr_dur values are currently register data
  74:D:\design-mpu\source\ejemplos\BME680\bme680.c ****  * and not the actual values set
  75:D:\design-mpu\source\ejemplos\BME680\bme680.c ****  *
  76:D:\design-mpu\source\ejemplos\BME680\bme680.c ****  * @param[in] dev	:Structure instance of bme680_dev.
  77:D:\design-mpu\source\ejemplos\BME680\bme680.c ****  *
  78:D:\design-mpu\source\ejemplos\BME680\bme680.c ****  * @return Result of API execution status.
  79:D:\design-mpu\source\ejemplos\BME680\bme680.c ****  * @retval zero -> Success / +ve value -> Warning / -ve value -> Error
  80:D:\design-mpu\source\ejemplos\BME680\bme680.c ****  */
  81:D:\design-mpu\source\ejemplos\BME680\bme680.c **** static int8_t get_gas_config(struct bme680_dev *dev);
  82:D:\design-mpu\source\ejemplos\BME680\bme680.c **** 
  83:D:\design-mpu\source\ejemplos\BME680\bme680.c **** /*!
  84:D:\design-mpu\source\ejemplos\BME680\bme680.c ****  * @brief This internal API is used to calculate the Heat duration value.
  85:D:\design-mpu\source\ejemplos\BME680\bme680.c ****  *
  86:D:\design-mpu\source\ejemplos\BME680\bme680.c ****  * @param[in] dur	:Value of the duration to be shared.
  87:D:\design-mpu\source\ejemplos\BME680\bme680.c ****  *
  88:D:\design-mpu\source\ejemplos\BME680\bme680.c ****  * @return uint8_t threshold duration after calculation.
ARM GAS  C:\Users\adria\AppData\Local\Temp\ccOKprka.s 			page 3


  89:D:\design-mpu\source\ejemplos\BME680\bme680.c ****  */
  90:D:\design-mpu\source\ejemplos\BME680\bme680.c **** static uint8_t calc_heater_dur(uint16_t dur);
  91:D:\design-mpu\source\ejemplos\BME680\bme680.c **** 
  92:D:\design-mpu\source\ejemplos\BME680\bme680.c **** #ifndef BME680_FLOAT_POINT_COMPENSATION
  93:D:\design-mpu\source\ejemplos\BME680\bme680.c **** 
  94:D:\design-mpu\source\ejemplos\BME680\bme680.c **** /*!
  95:D:\design-mpu\source\ejemplos\BME680\bme680.c ****  * @brief This internal API is used to calculate the temperature value.
  96:D:\design-mpu\source\ejemplos\BME680\bme680.c ****  *
  97:D:\design-mpu\source\ejemplos\BME680\bme680.c ****  * @param[in] dev	:Structure instance of bme680_dev.
  98:D:\design-mpu\source\ejemplos\BME680\bme680.c ****  * @param[in] temp_adc	:Contains the temperature ADC value .
  99:D:\design-mpu\source\ejemplos\BME680\bme680.c ****  *
 100:D:\design-mpu\source\ejemplos\BME680\bme680.c ****  * @return uint32_t calculated temperature.
 101:D:\design-mpu\source\ejemplos\BME680\bme680.c ****  */
 102:D:\design-mpu\source\ejemplos\BME680\bme680.c **** static int16_t calc_temperature(uint32_t temp_adc, struct bme680_dev *dev);
 103:D:\design-mpu\source\ejemplos\BME680\bme680.c **** 
 104:D:\design-mpu\source\ejemplos\BME680\bme680.c **** /*!
 105:D:\design-mpu\source\ejemplos\BME680\bme680.c ****  * @brief This internal API is used to calculate the pressure value.
 106:D:\design-mpu\source\ejemplos\BME680\bme680.c ****  *
 107:D:\design-mpu\source\ejemplos\BME680\bme680.c ****  * @param[in] dev	:Structure instance of bme680_dev.
 108:D:\design-mpu\source\ejemplos\BME680\bme680.c ****  * @param[in] pres_adc	:Contains the pressure ADC value .
 109:D:\design-mpu\source\ejemplos\BME680\bme680.c ****  *
 110:D:\design-mpu\source\ejemplos\BME680\bme680.c ****  * @return uint32_t calculated pressure.
 111:D:\design-mpu\source\ejemplos\BME680\bme680.c ****  */
 112:D:\design-mpu\source\ejemplos\BME680\bme680.c **** static uint32_t calc_pressure(uint32_t pres_adc, const struct bme680_dev *dev);
 113:D:\design-mpu\source\ejemplos\BME680\bme680.c **** 
 114:D:\design-mpu\source\ejemplos\BME680\bme680.c **** /*!
 115:D:\design-mpu\source\ejemplos\BME680\bme680.c ****  * @brief This internal API is used to calculate the humidity value.
 116:D:\design-mpu\source\ejemplos\BME680\bme680.c ****  *
 117:D:\design-mpu\source\ejemplos\BME680\bme680.c ****  * @param[in] dev	:Structure instance of bme680_dev.
 118:D:\design-mpu\source\ejemplos\BME680\bme680.c ****  * @param[in] hum_adc	:Contains the humidity ADC value.
 119:D:\design-mpu\source\ejemplos\BME680\bme680.c ****  *
 120:D:\design-mpu\source\ejemplos\BME680\bme680.c ****  * @return uint32_t calculated humidity.
 121:D:\design-mpu\source\ejemplos\BME680\bme680.c ****  */
 122:D:\design-mpu\source\ejemplos\BME680\bme680.c **** static uint32_t calc_humidity(uint16_t hum_adc, const struct bme680_dev *dev);
 123:D:\design-mpu\source\ejemplos\BME680\bme680.c **** 
 124:D:\design-mpu\source\ejemplos\BME680\bme680.c **** /*!
 125:D:\design-mpu\source\ejemplos\BME680\bme680.c ****  * @brief This internal API is used to calculate the Gas Resistance value.
 126:D:\design-mpu\source\ejemplos\BME680\bme680.c ****  *
 127:D:\design-mpu\source\ejemplos\BME680\bme680.c ****  * @param[in] dev		:Structure instance of bme680_dev.
 128:D:\design-mpu\source\ejemplos\BME680\bme680.c ****  * @param[in] gas_res_adc	:Contains the Gas Resistance ADC value.
 129:D:\design-mpu\source\ejemplos\BME680\bme680.c ****  * @param[in] gas_range		:Contains the range of gas values.
 130:D:\design-mpu\source\ejemplos\BME680\bme680.c ****  *
 131:D:\design-mpu\source\ejemplos\BME680\bme680.c ****  * @return uint32_t calculated gas resistance.
 132:D:\design-mpu\source\ejemplos\BME680\bme680.c ****  */
 133:D:\design-mpu\source\ejemplos\BME680\bme680.c **** static uint32_t calc_gas_resistance(uint16_t gas_res_adc, uint8_t gas_range, const struct bme680_de
 134:D:\design-mpu\source\ejemplos\BME680\bme680.c **** 
 135:D:\design-mpu\source\ejemplos\BME680\bme680.c **** /*!
 136:D:\design-mpu\source\ejemplos\BME680\bme680.c ****  * @brief This internal API is used to calculate the Heat Resistance value.
 137:D:\design-mpu\source\ejemplos\BME680\bme680.c ****  *
 138:D:\design-mpu\source\ejemplos\BME680\bme680.c ****  * @param[in] dev	: Structure instance of bme680_dev
 139:D:\design-mpu\source\ejemplos\BME680\bme680.c ****  * @param[in] temp	: Contains the target temperature value.
 140:D:\design-mpu\source\ejemplos\BME680\bme680.c ****  *
 141:D:\design-mpu\source\ejemplos\BME680\bme680.c ****  * @return uint8_t calculated heater resistance.
 142:D:\design-mpu\source\ejemplos\BME680\bme680.c ****  */
 143:D:\design-mpu\source\ejemplos\BME680\bme680.c **** static uint8_t calc_heater_res(uint16_t temp, const struct bme680_dev *dev);
 144:D:\design-mpu\source\ejemplos\BME680\bme680.c **** 
 145:D:\design-mpu\source\ejemplos\BME680\bme680.c **** #else
ARM GAS  C:\Users\adria\AppData\Local\Temp\ccOKprka.s 			page 4


 146:D:\design-mpu\source\ejemplos\BME680\bme680.c **** /*!
 147:D:\design-mpu\source\ejemplos\BME680\bme680.c ****  * @brief This internal API is used to calculate the
 148:D:\design-mpu\source\ejemplos\BME680\bme680.c ****  * temperature value value in float format
 149:D:\design-mpu\source\ejemplos\BME680\bme680.c ****  *
 150:D:\design-mpu\source\ejemplos\BME680\bme680.c ****  * @param[in] dev	:Structure instance of bme680_dev.
 151:D:\design-mpu\source\ejemplos\BME680\bme680.c ****  * @param[in] temp_adc	:Contains the temperature ADC value .
 152:D:\design-mpu\source\ejemplos\BME680\bme680.c ****  *
 153:D:\design-mpu\source\ejemplos\BME680\bme680.c ****  * @return Calculated temperature in float
 154:D:\design-mpu\source\ejemplos\BME680\bme680.c ****  */
 155:D:\design-mpu\source\ejemplos\BME680\bme680.c **** static float calc_temperature(uint32_t temp_adc, struct bme680_dev *dev);
 156:D:\design-mpu\source\ejemplos\BME680\bme680.c **** 
 157:D:\design-mpu\source\ejemplos\BME680\bme680.c **** /*!
 158:D:\design-mpu\source\ejemplos\BME680\bme680.c ****  * @brief This internal API is used to calculate the
 159:D:\design-mpu\source\ejemplos\BME680\bme680.c ****  * pressure value value in float format
 160:D:\design-mpu\source\ejemplos\BME680\bme680.c ****  *
 161:D:\design-mpu\source\ejemplos\BME680\bme680.c ****  * @param[in] dev	:Structure instance of bme680_dev.
 162:D:\design-mpu\source\ejemplos\BME680\bme680.c ****  * @param[in] pres_adc	:Contains the pressure ADC value .
 163:D:\design-mpu\source\ejemplos\BME680\bme680.c ****  *
 164:D:\design-mpu\source\ejemplos\BME680\bme680.c ****  * @return Calculated pressure in float.
 165:D:\design-mpu\source\ejemplos\BME680\bme680.c ****  */
 166:D:\design-mpu\source\ejemplos\BME680\bme680.c **** static float calc_pressure(uint32_t pres_adc, const struct bme680_dev *dev);
 167:D:\design-mpu\source\ejemplos\BME680\bme680.c **** 
 168:D:\design-mpu\source\ejemplos\BME680\bme680.c **** /*!
 169:D:\design-mpu\source\ejemplos\BME680\bme680.c ****  * @brief This internal API is used to calculate the
 170:D:\design-mpu\source\ejemplos\BME680\bme680.c ****  * humidity value value in float format
 171:D:\design-mpu\source\ejemplos\BME680\bme680.c ****  *
 172:D:\design-mpu\source\ejemplos\BME680\bme680.c ****  * @param[in] dev	:Structure instance of bme680_dev.
 173:D:\design-mpu\source\ejemplos\BME680\bme680.c ****  * @param[in] hum_adc	:Contains the humidity ADC value.
 174:D:\design-mpu\source\ejemplos\BME680\bme680.c ****  *
 175:D:\design-mpu\source\ejemplos\BME680\bme680.c ****  * @return Calculated humidity in float.
 176:D:\design-mpu\source\ejemplos\BME680\bme680.c ****  */
 177:D:\design-mpu\source\ejemplos\BME680\bme680.c **** static float calc_humidity(uint16_t hum_adc, const struct bme680_dev *dev);
 178:D:\design-mpu\source\ejemplos\BME680\bme680.c **** 
 179:D:\design-mpu\source\ejemplos\BME680\bme680.c **** /*!
 180:D:\design-mpu\source\ejemplos\BME680\bme680.c ****  * @brief This internal API is used to calculate the
 181:D:\design-mpu\source\ejemplos\BME680\bme680.c ****  * gas resistance value value in float format
 182:D:\design-mpu\source\ejemplos\BME680\bme680.c ****  *
 183:D:\design-mpu\source\ejemplos\BME680\bme680.c ****  * @param[in] dev		:Structure instance of bme680_dev.
 184:D:\design-mpu\source\ejemplos\BME680\bme680.c ****  * @param[in] gas_res_adc	:Contains the Gas Resistance ADC value.
 185:D:\design-mpu\source\ejemplos\BME680\bme680.c ****  * @param[in] gas_range		:Contains the range of gas values.
 186:D:\design-mpu\source\ejemplos\BME680\bme680.c ****  *
 187:D:\design-mpu\source\ejemplos\BME680\bme680.c ****  * @return Calculated gas resistance in float.
 188:D:\design-mpu\source\ejemplos\BME680\bme680.c ****  */
 189:D:\design-mpu\source\ejemplos\BME680\bme680.c **** static float calc_gas_resistance(uint16_t gas_res_adc, uint8_t gas_range, const struct bme680_dev *
 190:D:\design-mpu\source\ejemplos\BME680\bme680.c **** 
 191:D:\design-mpu\source\ejemplos\BME680\bme680.c **** /*!
 192:D:\design-mpu\source\ejemplos\BME680\bme680.c ****  * @brief This internal API is used to calculate the
 193:D:\design-mpu\source\ejemplos\BME680\bme680.c ****  * heater resistance value in float format
 194:D:\design-mpu\source\ejemplos\BME680\bme680.c ****  *
 195:D:\design-mpu\source\ejemplos\BME680\bme680.c ****  * @param[in] temp	: Contains the target temperature value.
 196:D:\design-mpu\source\ejemplos\BME680\bme680.c ****  * @param[in] dev	: Structure instance of bme680_dev.
 197:D:\design-mpu\source\ejemplos\BME680\bme680.c ****  *
 198:D:\design-mpu\source\ejemplos\BME680\bme680.c ****  * @return Calculated heater resistance in float.
 199:D:\design-mpu\source\ejemplos\BME680\bme680.c ****  */
 200:D:\design-mpu\source\ejemplos\BME680\bme680.c **** static float calc_heater_res(uint16_t temp, const struct bme680_dev *dev);
 201:D:\design-mpu\source\ejemplos\BME680\bme680.c **** 
 202:D:\design-mpu\source\ejemplos\BME680\bme680.c **** #endif
ARM GAS  C:\Users\adria\AppData\Local\Temp\ccOKprka.s 			page 5


 203:D:\design-mpu\source\ejemplos\BME680\bme680.c **** 
 204:D:\design-mpu\source\ejemplos\BME680\bme680.c **** /*!
 205:D:\design-mpu\source\ejemplos\BME680\bme680.c ****  * @brief This internal API is used to calculate the field data of sensor.
 206:D:\design-mpu\source\ejemplos\BME680\bme680.c ****  *
 207:D:\design-mpu\source\ejemplos\BME680\bme680.c ****  * @param[out] data :Structure instance to hold the data
 208:D:\design-mpu\source\ejemplos\BME680\bme680.c ****  * @param[in] dev	:Structure instance of bme680_dev.
 209:D:\design-mpu\source\ejemplos\BME680\bme680.c ****  *
 210:D:\design-mpu\source\ejemplos\BME680\bme680.c ****  *  @return int8_t result of the field data from sensor.
 211:D:\design-mpu\source\ejemplos\BME680\bme680.c ****  */
 212:D:\design-mpu\source\ejemplos\BME680\bme680.c **** static int8_t read_field_data(struct bme680_field_data *data, struct bme680_dev *dev);
 213:D:\design-mpu\source\ejemplos\BME680\bme680.c **** 
 214:D:\design-mpu\source\ejemplos\BME680\bme680.c **** /*!
 215:D:\design-mpu\source\ejemplos\BME680\bme680.c ****  * @brief This internal API is used to set the memory page
 216:D:\design-mpu\source\ejemplos\BME680\bme680.c ****  * based on register address.
 217:D:\design-mpu\source\ejemplos\BME680\bme680.c ****  *
 218:D:\design-mpu\source\ejemplos\BME680\bme680.c ****  * The value of memory page
 219:D:\design-mpu\source\ejemplos\BME680\bme680.c ****  *  value  | Description
 220:D:\design-mpu\source\ejemplos\BME680\bme680.c ****  * --------|--------------
 221:D:\design-mpu\source\ejemplos\BME680\bme680.c ****  *   0     | BME680_PAGE0_SPI
 222:D:\design-mpu\source\ejemplos\BME680\bme680.c ****  *   1     | BME680_PAGE1_SPI
 223:D:\design-mpu\source\ejemplos\BME680\bme680.c ****  *
 224:D:\design-mpu\source\ejemplos\BME680\bme680.c ****  * @param[in] dev	:Structure instance of bme680_dev.
 225:D:\design-mpu\source\ejemplos\BME680\bme680.c ****  * @param[in] reg_addr	:Contains the register address array.
 226:D:\design-mpu\source\ejemplos\BME680\bme680.c ****  *
 227:D:\design-mpu\source\ejemplos\BME680\bme680.c ****  * @return Result of API execution status
 228:D:\design-mpu\source\ejemplos\BME680\bme680.c ****  * @retval zero -> Success / +ve value -> Warning / -ve value -> Error
 229:D:\design-mpu\source\ejemplos\BME680\bme680.c ****  */
 230:D:\design-mpu\source\ejemplos\BME680\bme680.c **** static int8_t set_mem_page(uint8_t reg_addr, struct bme680_dev *dev);
 231:D:\design-mpu\source\ejemplos\BME680\bme680.c **** 
 232:D:\design-mpu\source\ejemplos\BME680\bme680.c **** /*!
 233:D:\design-mpu\source\ejemplos\BME680\bme680.c ****  * @brief This internal API is used to get the memory page based
 234:D:\design-mpu\source\ejemplos\BME680\bme680.c ****  * on register address.
 235:D:\design-mpu\source\ejemplos\BME680\bme680.c ****  *
 236:D:\design-mpu\source\ejemplos\BME680\bme680.c ****  * The value of memory page
 237:D:\design-mpu\source\ejemplos\BME680\bme680.c ****  *  value  | Description
 238:D:\design-mpu\source\ejemplos\BME680\bme680.c ****  * --------|--------------
 239:D:\design-mpu\source\ejemplos\BME680\bme680.c ****  *   0     | BME680_PAGE0_SPI
 240:D:\design-mpu\source\ejemplos\BME680\bme680.c ****  *   1     | BME680_PAGE1_SPI
 241:D:\design-mpu\source\ejemplos\BME680\bme680.c ****  *
 242:D:\design-mpu\source\ejemplos\BME680\bme680.c ****  * @param[in] dev	:Structure instance of bme680_dev.
 243:D:\design-mpu\source\ejemplos\BME680\bme680.c ****  *
 244:D:\design-mpu\source\ejemplos\BME680\bme680.c ****  * @return Result of API execution status
 245:D:\design-mpu\source\ejemplos\BME680\bme680.c ****  * @retval zero -> Success / +ve value -> Warning / -ve value -> Error
 246:D:\design-mpu\source\ejemplos\BME680\bme680.c ****  */
 247:D:\design-mpu\source\ejemplos\BME680\bme680.c **** static int8_t get_mem_page(struct bme680_dev *dev);
 248:D:\design-mpu\source\ejemplos\BME680\bme680.c **** 
 249:D:\design-mpu\source\ejemplos\BME680\bme680.c **** /*!
 250:D:\design-mpu\source\ejemplos\BME680\bme680.c ****  * @brief This internal API is used to validate the device pointer for
 251:D:\design-mpu\source\ejemplos\BME680\bme680.c ****  * null conditions.
 252:D:\design-mpu\source\ejemplos\BME680\bme680.c ****  *
 253:D:\design-mpu\source\ejemplos\BME680\bme680.c ****  * @param[in] dev	:Structure instance of bme680_dev.
 254:D:\design-mpu\source\ejemplos\BME680\bme680.c ****  *
 255:D:\design-mpu\source\ejemplos\BME680\bme680.c ****  * @return Result of API execution status
 256:D:\design-mpu\source\ejemplos\BME680\bme680.c ****  * @retval zero -> Success / +ve value -> Warning / -ve value -> Error
 257:D:\design-mpu\source\ejemplos\BME680\bme680.c ****  */
 258:D:\design-mpu\source\ejemplos\BME680\bme680.c **** static int8_t null_ptr_check(const struct bme680_dev *dev);
 259:D:\design-mpu\source\ejemplos\BME680\bme680.c **** 
ARM GAS  C:\Users\adria\AppData\Local\Temp\ccOKprka.s 			page 6


 260:D:\design-mpu\source\ejemplos\BME680\bme680.c **** /*!
 261:D:\design-mpu\source\ejemplos\BME680\bme680.c ****  * @brief This internal API is used to check the boundary
 262:D:\design-mpu\source\ejemplos\BME680\bme680.c ****  * conditions.
 263:D:\design-mpu\source\ejemplos\BME680\bme680.c ****  *
 264:D:\design-mpu\source\ejemplos\BME680\bme680.c ****  * @param[in] value	:pointer to the value.
 265:D:\design-mpu\source\ejemplos\BME680\bme680.c ****  * @param[in] min	:minimum value.
 266:D:\design-mpu\source\ejemplos\BME680\bme680.c ****  * @param[in] max	:maximum value.
 267:D:\design-mpu\source\ejemplos\BME680\bme680.c ****  * @param[in] dev	:Structure instance of bme680_dev.
 268:D:\design-mpu\source\ejemplos\BME680\bme680.c ****  *
 269:D:\design-mpu\source\ejemplos\BME680\bme680.c ****  * @return Result of API execution status
 270:D:\design-mpu\source\ejemplos\BME680\bme680.c ****  * @retval zero -> Success / +ve value -> Warning / -ve value -> Error
 271:D:\design-mpu\source\ejemplos\BME680\bme680.c ****  */
 272:D:\design-mpu\source\ejemplos\BME680\bme680.c **** static int8_t boundary_check(uint8_t *value, uint8_t min, uint8_t max, struct bme680_dev *dev);
 273:D:\design-mpu\source\ejemplos\BME680\bme680.c **** 
 274:D:\design-mpu\source\ejemplos\BME680\bme680.c **** static void user_delay_ms(uint32_t period);
 275:D:\design-mpu\source\ejemplos\BME680\bme680.c **** static int8_t user_i2c_read(uint8_t dev_id, uint8_t reg_addr, uint8_t *reg_data, uint16_t len);
 276:D:\design-mpu\source\ejemplos\BME680\bme680.c **** static int8_t user_i2c_write(uint8_t dev_id, uint8_t reg_addr, uint8_t *reg_data, uint16_t len);
 277:D:\design-mpu\source\ejemplos\BME680\bme680.c **** 
 278:D:\design-mpu\source\ejemplos\BME680\bme680.c **** /****************** Global Function Definitions *******************************/
 279:D:\design-mpu\source\ejemplos\BME680\bme680.c **** /*!
 280:D:\design-mpu\source\ejemplos\BME680\bme680.c ****  *@brief This API is the entry point.
 281:D:\design-mpu\source\ejemplos\BME680\bme680.c ****  *It reads the chip-id and calibration data from the sensor.
 282:D:\design-mpu\source\ejemplos\BME680\bme680.c ****  */
 283:D:\design-mpu\source\ejemplos\BME680\bme680.c **** int8_t bme680_init(struct bme680_dev *dev)
 284:D:\design-mpu\source\ejemplos\BME680\bme680.c **** {
 285:D:\design-mpu\source\ejemplos\BME680\bme680.c **** 	int8_t rslt;
 286:D:\design-mpu\source\ejemplos\BME680\bme680.c **** 
 287:D:\design-mpu\source\ejemplos\BME680\bme680.c **** 	/* Check for null pointer in the device structure*/
 288:D:\design-mpu\source\ejemplos\BME680\bme680.c **** 	rslt = null_ptr_check(dev);
 289:D:\design-mpu\source\ejemplos\BME680\bme680.c **** 	if (rslt == BME680_OK) {
 290:D:\design-mpu\source\ejemplos\BME680\bme680.c **** 		/* Soft reset to restore it to default values*/
 291:D:\design-mpu\source\ejemplos\BME680\bme680.c **** 		rslt = bme680_soft_reset(dev);
 292:D:\design-mpu\source\ejemplos\BME680\bme680.c **** 		if (rslt == BME680_OK) {
 293:D:\design-mpu\source\ejemplos\BME680\bme680.c **** 			rslt = bme680_get_regs(BME680_CHIP_ID_ADDR, &dev->chip_id, 1, dev);
 294:D:\design-mpu\source\ejemplos\BME680\bme680.c **** 			if (rslt == BME680_OK) {
 295:D:\design-mpu\source\ejemplos\BME680\bme680.c **** 				if (dev->chip_id == BME680_CHIP_ID) {
 296:D:\design-mpu\source\ejemplos\BME680\bme680.c **** 					/* Get the Calibration data */
 297:D:\design-mpu\source\ejemplos\BME680\bme680.c **** 					rslt = get_calib_data(dev);
 298:D:\design-mpu\source\ejemplos\BME680\bme680.c **** 				} else {
 299:D:\design-mpu\source\ejemplos\BME680\bme680.c **** 					rslt = BME680_E_DEV_NOT_FOUND;
 300:D:\design-mpu\source\ejemplos\BME680\bme680.c **** 				}
 301:D:\design-mpu\source\ejemplos\BME680\bme680.c **** 			}
 302:D:\design-mpu\source\ejemplos\BME680\bme680.c **** 		}
 303:D:\design-mpu\source\ejemplos\BME680\bme680.c **** 	}
 304:D:\design-mpu\source\ejemplos\BME680\bme680.c **** 
 305:D:\design-mpu\source\ejemplos\BME680\bme680.c **** 	return rslt;
 306:D:\design-mpu\source\ejemplos\BME680\bme680.c **** }
 307:D:\design-mpu\source\ejemplos\BME680\bme680.c **** 
 308:D:\design-mpu\source\ejemplos\BME680\bme680.c **** /*!
 309:D:\design-mpu\source\ejemplos\BME680\bme680.c ****  * @brief This API reads the data from the given register address of the sensor.
 310:D:\design-mpu\source\ejemplos\BME680\bme680.c ****  */
 311:D:\design-mpu\source\ejemplos\BME680\bme680.c **** int8_t bme680_get_regs(uint8_t reg_addr, uint8_t *reg_data, uint16_t len, struct bme680_dev *dev)
 312:D:\design-mpu\source\ejemplos\BME680\bme680.c **** {
 313:D:\design-mpu\source\ejemplos\BME680\bme680.c **** 	int8_t rslt;
 314:D:\design-mpu\source\ejemplos\BME680\bme680.c **** 
 315:D:\design-mpu\source\ejemplos\BME680\bme680.c **** 	/* Check for null pointer in the device structure*/
 316:D:\design-mpu\source\ejemplos\BME680\bme680.c **** 	rslt = null_ptr_check(dev);
ARM GAS  C:\Users\adria\AppData\Local\Temp\ccOKprka.s 			page 7


 317:D:\design-mpu\source\ejemplos\BME680\bme680.c **** 	if (rslt == BME680_OK) {
 318:D:\design-mpu\source\ejemplos\BME680\bme680.c **** 		if (dev->intf == BME680_SPI_INTF) {
 319:D:\design-mpu\source\ejemplos\BME680\bme680.c **** 			/* Set the memory page */
 320:D:\design-mpu\source\ejemplos\BME680\bme680.c **** 			rslt = set_mem_page(reg_addr, dev);
 321:D:\design-mpu\source\ejemplos\BME680\bme680.c **** 			if (rslt == BME680_OK)
 322:D:\design-mpu\source\ejemplos\BME680\bme680.c **** 				reg_addr = reg_addr | BME680_SPI_RD_MSK;
 323:D:\design-mpu\source\ejemplos\BME680\bme680.c **** 		}
 324:D:\design-mpu\source\ejemplos\BME680\bme680.c **** 		dev->com_rslt = dev->read(dev->dev_id, reg_addr, reg_data, len);
 325:D:\design-mpu\source\ejemplos\BME680\bme680.c **** 		if (dev->com_rslt != 0)
 326:D:\design-mpu\source\ejemplos\BME680\bme680.c **** 			rslt = BME680_E_COM_FAIL;
 327:D:\design-mpu\source\ejemplos\BME680\bme680.c **** 	}
 328:D:\design-mpu\source\ejemplos\BME680\bme680.c **** 
 329:D:\design-mpu\source\ejemplos\BME680\bme680.c **** 	return rslt;
 330:D:\design-mpu\source\ejemplos\BME680\bme680.c **** }
 331:D:\design-mpu\source\ejemplos\BME680\bme680.c **** 
 332:D:\design-mpu\source\ejemplos\BME680\bme680.c **** /*!
 333:D:\design-mpu\source\ejemplos\BME680\bme680.c ****  * @brief This API writes the given data to the register address
 334:D:\design-mpu\source\ejemplos\BME680\bme680.c ****  * of the sensor.
 335:D:\design-mpu\source\ejemplos\BME680\bme680.c ****  */
 336:D:\design-mpu\source\ejemplos\BME680\bme680.c **** int8_t bme680_set_regs(const uint8_t *reg_addr, const uint8_t *reg_data, uint8_t len, struct bme680
 337:D:\design-mpu\source\ejemplos\BME680\bme680.c **** {
 338:D:\design-mpu\source\ejemplos\BME680\bme680.c **** 	int8_t rslt;
 339:D:\design-mpu\source\ejemplos\BME680\bme680.c **** 	/* Length of the temporary buffer is 2*(length of register)*/
 340:D:\design-mpu\source\ejemplos\BME680\bme680.c **** 	uint8_t tmp_buff[BME680_TMP_BUFFER_LENGTH] = { 0 };
 341:D:\design-mpu\source\ejemplos\BME680\bme680.c **** 	uint16_t index;
 342:D:\design-mpu\source\ejemplos\BME680\bme680.c **** 
 343:D:\design-mpu\source\ejemplos\BME680\bme680.c **** 	/* Check for null pointer in the device structure*/
 344:D:\design-mpu\source\ejemplos\BME680\bme680.c **** 	rslt = null_ptr_check(dev);
 345:D:\design-mpu\source\ejemplos\BME680\bme680.c **** 	if (rslt == BME680_OK) {
 346:D:\design-mpu\source\ejemplos\BME680\bme680.c **** 		if ((len > 0) && (len < BME680_TMP_BUFFER_LENGTH / 2)) {
 347:D:\design-mpu\source\ejemplos\BME680\bme680.c **** 			/* Interleave the 2 arrays */
 348:D:\design-mpu\source\ejemplos\BME680\bme680.c **** 			for (index = 0; index < len; index++) {
 349:D:\design-mpu\source\ejemplos\BME680\bme680.c **** 				if (dev->intf == BME680_SPI_INTF) {
 350:D:\design-mpu\source\ejemplos\BME680\bme680.c **** 					/* Set the memory page */
 351:D:\design-mpu\source\ejemplos\BME680\bme680.c **** 					rslt = set_mem_page(reg_addr[index], dev);
 352:D:\design-mpu\source\ejemplos\BME680\bme680.c **** 					tmp_buff[(2 * index)] = reg_addr[index] & BME680_SPI_WR_MSK;
 353:D:\design-mpu\source\ejemplos\BME680\bme680.c **** 				} else {
 354:D:\design-mpu\source\ejemplos\BME680\bme680.c **** 					tmp_buff[(2 * index)] = reg_addr[index];
 355:D:\design-mpu\source\ejemplos\BME680\bme680.c **** 				}
 356:D:\design-mpu\source\ejemplos\BME680\bme680.c **** 				tmp_buff[(2 * index) + 1] = reg_data[index];
 357:D:\design-mpu\source\ejemplos\BME680\bme680.c **** 			}
 358:D:\design-mpu\source\ejemplos\BME680\bme680.c **** 			/* Write the interleaved array */
 359:D:\design-mpu\source\ejemplos\BME680\bme680.c **** 			if (rslt == BME680_OK) {
 360:D:\design-mpu\source\ejemplos\BME680\bme680.c **** 				dev->com_rslt = dev->write(dev->dev_id, tmp_buff[0], &tmp_buff[1], (2 * len) - 1);
 361:D:\design-mpu\source\ejemplos\BME680\bme680.c **** 				if (dev->com_rslt != 0)
 362:D:\design-mpu\source\ejemplos\BME680\bme680.c **** 					rslt = BME680_E_COM_FAIL;
 363:D:\design-mpu\source\ejemplos\BME680\bme680.c **** 			}
 364:D:\design-mpu\source\ejemplos\BME680\bme680.c **** 		} else {
 365:D:\design-mpu\source\ejemplos\BME680\bme680.c **** 			rslt = BME680_E_INVALID_LENGTH;
 366:D:\design-mpu\source\ejemplos\BME680\bme680.c **** 		}
 367:D:\design-mpu\source\ejemplos\BME680\bme680.c **** 	}
 368:D:\design-mpu\source\ejemplos\BME680\bme680.c **** 
 369:D:\design-mpu\source\ejemplos\BME680\bme680.c **** 	return rslt;
 370:D:\design-mpu\source\ejemplos\BME680\bme680.c **** }
 371:D:\design-mpu\source\ejemplos\BME680\bme680.c **** 
 372:D:\design-mpu\source\ejemplos\BME680\bme680.c **** /*!
 373:D:\design-mpu\source\ejemplos\BME680\bme680.c ****  * @brief This API performs the soft reset of the sensor.
ARM GAS  C:\Users\adria\AppData\Local\Temp\ccOKprka.s 			page 8


 374:D:\design-mpu\source\ejemplos\BME680\bme680.c ****  */
 375:D:\design-mpu\source\ejemplos\BME680\bme680.c **** int8_t bme680_soft_reset(struct bme680_dev *dev)
 376:D:\design-mpu\source\ejemplos\BME680\bme680.c **** {
 377:D:\design-mpu\source\ejemplos\BME680\bme680.c **** 	int8_t rslt;
 378:D:\design-mpu\source\ejemplos\BME680\bme680.c **** 	uint8_t reg_addr = BME680_SOFT_RESET_ADDR;
 379:D:\design-mpu\source\ejemplos\BME680\bme680.c **** 	/* 0xb6 is the soft reset command */
 380:D:\design-mpu\source\ejemplos\BME680\bme680.c **** 	uint8_t soft_rst_cmd = BME680_SOFT_RESET_CMD;
 381:D:\design-mpu\source\ejemplos\BME680\bme680.c **** 
 382:D:\design-mpu\source\ejemplos\BME680\bme680.c **** 	/* Check for null pointer in the device structure*/
 383:D:\design-mpu\source\ejemplos\BME680\bme680.c **** 	rslt = null_ptr_check(dev);
 384:D:\design-mpu\source\ejemplos\BME680\bme680.c **** 	if (rslt == BME680_OK) {
 385:D:\design-mpu\source\ejemplos\BME680\bme680.c **** 		if (dev->intf == BME680_SPI_INTF)
 386:D:\design-mpu\source\ejemplos\BME680\bme680.c **** 			rslt = get_mem_page(dev);
 387:D:\design-mpu\source\ejemplos\BME680\bme680.c **** 
 388:D:\design-mpu\source\ejemplos\BME680\bme680.c **** 		/* Reset the device */
 389:D:\design-mpu\source\ejemplos\BME680\bme680.c **** 		if (rslt == BME680_OK) {
 390:D:\design-mpu\source\ejemplos\BME680\bme680.c **** 			rslt = bme680_set_regs(&reg_addr, &soft_rst_cmd, 1, dev);
 391:D:\design-mpu\source\ejemplos\BME680\bme680.c **** 			/* Wait for 5ms */
 392:D:\design-mpu\source\ejemplos\BME680\bme680.c **** 			dev->delay_ms(BME680_RESET_PERIOD);
 393:D:\design-mpu\source\ejemplos\BME680\bme680.c **** 
 394:D:\design-mpu\source\ejemplos\BME680\bme680.c **** 			if (rslt == BME680_OK) {
 395:D:\design-mpu\source\ejemplos\BME680\bme680.c **** 				/* After reset get the memory page */
 396:D:\design-mpu\source\ejemplos\BME680\bme680.c **** 				if (dev->intf == BME680_SPI_INTF)
 397:D:\design-mpu\source\ejemplos\BME680\bme680.c **** 					rslt = get_mem_page(dev);
 398:D:\design-mpu\source\ejemplos\BME680\bme680.c **** 			}
 399:D:\design-mpu\source\ejemplos\BME680\bme680.c **** 		}
 400:D:\design-mpu\source\ejemplos\BME680\bme680.c **** 	}
 401:D:\design-mpu\source\ejemplos\BME680\bme680.c **** 
 402:D:\design-mpu\source\ejemplos\BME680\bme680.c **** 	return rslt;
 403:D:\design-mpu\source\ejemplos\BME680\bme680.c **** }
 404:D:\design-mpu\source\ejemplos\BME680\bme680.c **** 
 405:D:\design-mpu\source\ejemplos\BME680\bme680.c **** /*!
 406:D:\design-mpu\source\ejemplos\BME680\bme680.c ****  * @brief This API is used to set the oversampling, filter and T,P,H, gas selection
 407:D:\design-mpu\source\ejemplos\BME680\bme680.c ****  * settings in the sensor.
 408:D:\design-mpu\source\ejemplos\BME680\bme680.c ****  */
 409:D:\design-mpu\source\ejemplos\BME680\bme680.c **** int8_t bme680_set_sensor_settings(uint16_t desired_settings, struct bme680_dev *dev)
 410:D:\design-mpu\source\ejemplos\BME680\bme680.c **** {
 411:D:\design-mpu\source\ejemplos\BME680\bme680.c **** 	int8_t rslt;
 412:D:\design-mpu\source\ejemplos\BME680\bme680.c **** 	uint8_t reg_addr;
 413:D:\design-mpu\source\ejemplos\BME680\bme680.c **** 	uint8_t data = 0;
 414:D:\design-mpu\source\ejemplos\BME680\bme680.c **** 	uint8_t count = 0;
 415:D:\design-mpu\source\ejemplos\BME680\bme680.c **** 	uint8_t reg_array[BME680_REG_BUFFER_LENGTH] = { 0 };
 416:D:\design-mpu\source\ejemplos\BME680\bme680.c **** 	uint8_t data_array[BME680_REG_BUFFER_LENGTH] = { 0 };
 417:D:\design-mpu\source\ejemplos\BME680\bme680.c **** 	uint8_t intended_power_mode = dev->power_mode; /* Save intended power mode */
 418:D:\design-mpu\source\ejemplos\BME680\bme680.c **** 
 419:D:\design-mpu\source\ejemplos\BME680\bme680.c **** 	/* Check for null pointer in the device structure*/
 420:D:\design-mpu\source\ejemplos\BME680\bme680.c **** 	rslt = null_ptr_check(dev);
 421:D:\design-mpu\source\ejemplos\BME680\bme680.c **** 	if (rslt == BME680_OK) {
 422:D:\design-mpu\source\ejemplos\BME680\bme680.c **** 		if (desired_settings & BME680_GAS_MEAS_SEL)
 423:D:\design-mpu\source\ejemplos\BME680\bme680.c **** 			rslt = set_gas_config(dev);
 424:D:\design-mpu\source\ejemplos\BME680\bme680.c **** 
 425:D:\design-mpu\source\ejemplos\BME680\bme680.c **** 		dev->power_mode = BME680_SLEEP_MODE;
 426:D:\design-mpu\source\ejemplos\BME680\bme680.c **** 		if (rslt == BME680_OK)
 427:D:\design-mpu\source\ejemplos\BME680\bme680.c **** 			rslt = bme680_set_sensor_mode(dev);
 428:D:\design-mpu\source\ejemplos\BME680\bme680.c **** 
 429:D:\design-mpu\source\ejemplos\BME680\bme680.c **** 		/* Selecting the filter */
 430:D:\design-mpu\source\ejemplos\BME680\bme680.c **** 		if (desired_settings & BME680_FILTER_SEL) {
ARM GAS  C:\Users\adria\AppData\Local\Temp\ccOKprka.s 			page 9


 431:D:\design-mpu\source\ejemplos\BME680\bme680.c **** 			rslt = boundary_check(&dev->tph_sett.filter, BME680_FILTER_SIZE_0, BME680_FILTER_SIZE_127, dev);
 432:D:\design-mpu\source\ejemplos\BME680\bme680.c **** 			reg_addr = BME680_CONF_ODR_FILT_ADDR;
 433:D:\design-mpu\source\ejemplos\BME680\bme680.c **** 
 434:D:\design-mpu\source\ejemplos\BME680\bme680.c **** 			if (rslt == BME680_OK)
 435:D:\design-mpu\source\ejemplos\BME680\bme680.c **** 				rslt = bme680_get_regs(reg_addr, &data, 1, dev);
 436:D:\design-mpu\source\ejemplos\BME680\bme680.c **** 
 437:D:\design-mpu\source\ejemplos\BME680\bme680.c **** 			if (desired_settings & BME680_FILTER_SEL)
 438:D:\design-mpu\source\ejemplos\BME680\bme680.c **** 				data = BME680_SET_BITS(data, BME680_FILTER, dev->tph_sett.filter);
 439:D:\design-mpu\source\ejemplos\BME680\bme680.c **** 
 440:D:\design-mpu\source\ejemplos\BME680\bme680.c **** 			reg_array[count] = reg_addr; /* Append configuration */
 441:D:\design-mpu\source\ejemplos\BME680\bme680.c **** 			data_array[count] = data;
 442:D:\design-mpu\source\ejemplos\BME680\bme680.c **** 			count++;
 443:D:\design-mpu\source\ejemplos\BME680\bme680.c **** 		}
 444:D:\design-mpu\source\ejemplos\BME680\bme680.c **** 
 445:D:\design-mpu\source\ejemplos\BME680\bme680.c **** 		/* Selecting heater control for the sensor */
 446:D:\design-mpu\source\ejemplos\BME680\bme680.c **** 		if (desired_settings & BME680_HCNTRL_SEL) {
 447:D:\design-mpu\source\ejemplos\BME680\bme680.c **** 			rslt = boundary_check(&dev->gas_sett.heatr_ctrl, BME680_ENABLE_HEATER,
 448:D:\design-mpu\source\ejemplos\BME680\bme680.c **** 				BME680_DISABLE_HEATER, dev);
 449:D:\design-mpu\source\ejemplos\BME680\bme680.c **** 			reg_addr = BME680_CONF_HEAT_CTRL_ADDR;
 450:D:\design-mpu\source\ejemplos\BME680\bme680.c **** 
 451:D:\design-mpu\source\ejemplos\BME680\bme680.c **** 			if (rslt == BME680_OK)
 452:D:\design-mpu\source\ejemplos\BME680\bme680.c **** 				rslt = bme680_get_regs(reg_addr, &data, 1, dev);
 453:D:\design-mpu\source\ejemplos\BME680\bme680.c **** 			data = BME680_SET_BITS_POS_0(data, BME680_HCTRL, dev->gas_sett.heatr_ctrl);
 454:D:\design-mpu\source\ejemplos\BME680\bme680.c **** 
 455:D:\design-mpu\source\ejemplos\BME680\bme680.c **** 			reg_array[count] = reg_addr; /* Append configuration */
 456:D:\design-mpu\source\ejemplos\BME680\bme680.c **** 			data_array[count] = data;
 457:D:\design-mpu\source\ejemplos\BME680\bme680.c **** 			count++;
 458:D:\design-mpu\source\ejemplos\BME680\bme680.c **** 		}
 459:D:\design-mpu\source\ejemplos\BME680\bme680.c **** 
 460:D:\design-mpu\source\ejemplos\BME680\bme680.c **** 		/* Selecting heater T,P oversampling for the sensor */
 461:D:\design-mpu\source\ejemplos\BME680\bme680.c **** 		if (desired_settings & (BME680_OST_SEL | BME680_OSP_SEL)) {
 462:D:\design-mpu\source\ejemplos\BME680\bme680.c **** 			rslt = boundary_check(&dev->tph_sett.os_temp, BME680_OS_NONE, BME680_OS_16X, dev);
 463:D:\design-mpu\source\ejemplos\BME680\bme680.c **** 			reg_addr = BME680_CONF_T_P_MODE_ADDR;
 464:D:\design-mpu\source\ejemplos\BME680\bme680.c **** 
 465:D:\design-mpu\source\ejemplos\BME680\bme680.c **** 			if (rslt == BME680_OK)
 466:D:\design-mpu\source\ejemplos\BME680\bme680.c **** 				rslt = bme680_get_regs(reg_addr, &data, 1, dev);
 467:D:\design-mpu\source\ejemplos\BME680\bme680.c **** 
 468:D:\design-mpu\source\ejemplos\BME680\bme680.c **** 			if (desired_settings & BME680_OST_SEL)
 469:D:\design-mpu\source\ejemplos\BME680\bme680.c **** 				data = BME680_SET_BITS(data, BME680_OST, dev->tph_sett.os_temp);
 470:D:\design-mpu\source\ejemplos\BME680\bme680.c **** 
 471:D:\design-mpu\source\ejemplos\BME680\bme680.c **** 			if (desired_settings & BME680_OSP_SEL)
 472:D:\design-mpu\source\ejemplos\BME680\bme680.c **** 				data = BME680_SET_BITS(data, BME680_OSP, dev->tph_sett.os_pres);
 473:D:\design-mpu\source\ejemplos\BME680\bme680.c **** 
 474:D:\design-mpu\source\ejemplos\BME680\bme680.c **** 			reg_array[count] = reg_addr;
 475:D:\design-mpu\source\ejemplos\BME680\bme680.c **** 			data_array[count] = data;
 476:D:\design-mpu\source\ejemplos\BME680\bme680.c **** 			count++;
 477:D:\design-mpu\source\ejemplos\BME680\bme680.c **** 		}
 478:D:\design-mpu\source\ejemplos\BME680\bme680.c **** 
 479:D:\design-mpu\source\ejemplos\BME680\bme680.c **** 		/* Selecting humidity oversampling for the sensor */
 480:D:\design-mpu\source\ejemplos\BME680\bme680.c **** 		if (desired_settings & BME680_OSH_SEL) {
 481:D:\design-mpu\source\ejemplos\BME680\bme680.c **** 			rslt = boundary_check(&dev->tph_sett.os_hum, BME680_OS_NONE, BME680_OS_16X, dev);
 482:D:\design-mpu\source\ejemplos\BME680\bme680.c **** 			reg_addr = BME680_CONF_OS_H_ADDR;
 483:D:\design-mpu\source\ejemplos\BME680\bme680.c **** 
 484:D:\design-mpu\source\ejemplos\BME680\bme680.c **** 			if (rslt == BME680_OK)
 485:D:\design-mpu\source\ejemplos\BME680\bme680.c **** 				rslt = bme680_get_regs(reg_addr, &data, 1, dev);
 486:D:\design-mpu\source\ejemplos\BME680\bme680.c **** 			data = BME680_SET_BITS_POS_0(data, BME680_OSH, dev->tph_sett.os_hum);
 487:D:\design-mpu\source\ejemplos\BME680\bme680.c **** 
ARM GAS  C:\Users\adria\AppData\Local\Temp\ccOKprka.s 			page 10


 488:D:\design-mpu\source\ejemplos\BME680\bme680.c **** 			reg_array[count] = reg_addr; /* Append configuration */
 489:D:\design-mpu\source\ejemplos\BME680\bme680.c **** 			data_array[count] = data;
 490:D:\design-mpu\source\ejemplos\BME680\bme680.c **** 			count++;
 491:D:\design-mpu\source\ejemplos\BME680\bme680.c **** 		}
 492:D:\design-mpu\source\ejemplos\BME680\bme680.c **** 
 493:D:\design-mpu\source\ejemplos\BME680\bme680.c **** 		/* Selecting the runGas and NB conversion settings for the sensor */
 494:D:\design-mpu\source\ejemplos\BME680\bme680.c **** 		if (desired_settings & (BME680_RUN_GAS_SEL | BME680_NBCONV_SEL)) {
 495:D:\design-mpu\source\ejemplos\BME680\bme680.c **** 			rslt = boundary_check(&dev->gas_sett.run_gas, BME680_RUN_GAS_DISABLE,
 496:D:\design-mpu\source\ejemplos\BME680\bme680.c **** 				BME680_RUN_GAS_ENABLE, dev);
 497:D:\design-mpu\source\ejemplos\BME680\bme680.c **** 			if (rslt == BME680_OK) {
 498:D:\design-mpu\source\ejemplos\BME680\bme680.c **** 				/* Validate boundary conditions */
 499:D:\design-mpu\source\ejemplos\BME680\bme680.c **** 				rslt = boundary_check(&dev->gas_sett.nb_conv, BME680_NBCONV_MIN,
 500:D:\design-mpu\source\ejemplos\BME680\bme680.c **** 					BME680_NBCONV_MAX, dev);
 501:D:\design-mpu\source\ejemplos\BME680\bme680.c **** 			}
 502:D:\design-mpu\source\ejemplos\BME680\bme680.c **** 
 503:D:\design-mpu\source\ejemplos\BME680\bme680.c **** 			reg_addr = BME680_CONF_ODR_RUN_GAS_NBC_ADDR;
 504:D:\design-mpu\source\ejemplos\BME680\bme680.c **** 
 505:D:\design-mpu\source\ejemplos\BME680\bme680.c **** 			if (rslt == BME680_OK)
 506:D:\design-mpu\source\ejemplos\BME680\bme680.c **** 				rslt = bme680_get_regs(reg_addr, &data, 1, dev);
 507:D:\design-mpu\source\ejemplos\BME680\bme680.c **** 
 508:D:\design-mpu\source\ejemplos\BME680\bme680.c **** 			if (desired_settings & BME680_RUN_GAS_SEL)
 509:D:\design-mpu\source\ejemplos\BME680\bme680.c **** 				data = BME680_SET_BITS(data, BME680_RUN_GAS, dev->gas_sett.run_gas);
 510:D:\design-mpu\source\ejemplos\BME680\bme680.c **** 
 511:D:\design-mpu\source\ejemplos\BME680\bme680.c **** 			if (desired_settings & BME680_NBCONV_SEL)
 512:D:\design-mpu\source\ejemplos\BME680\bme680.c **** 				data = BME680_SET_BITS_POS_0(data, BME680_NBCONV, dev->gas_sett.nb_conv);
 513:D:\design-mpu\source\ejemplos\BME680\bme680.c **** 
 514:D:\design-mpu\source\ejemplos\BME680\bme680.c **** 			reg_array[count] = reg_addr; /* Append configuration */
 515:D:\design-mpu\source\ejemplos\BME680\bme680.c **** 			data_array[count] = data;
 516:D:\design-mpu\source\ejemplos\BME680\bme680.c **** 			count++;
 517:D:\design-mpu\source\ejemplos\BME680\bme680.c **** 		}
 518:D:\design-mpu\source\ejemplos\BME680\bme680.c **** 
 519:D:\design-mpu\source\ejemplos\BME680\bme680.c **** 		if (rslt == BME680_OK)
 520:D:\design-mpu\source\ejemplos\BME680\bme680.c **** 			rslt = bme680_set_regs(reg_array, data_array, count, dev);
 521:D:\design-mpu\source\ejemplos\BME680\bme680.c **** 
 522:D:\design-mpu\source\ejemplos\BME680\bme680.c **** 		/* Restore previous intended power mode */
 523:D:\design-mpu\source\ejemplos\BME680\bme680.c **** 		dev->power_mode = intended_power_mode;
 524:D:\design-mpu\source\ejemplos\BME680\bme680.c **** 	}
 525:D:\design-mpu\source\ejemplos\BME680\bme680.c **** 
 526:D:\design-mpu\source\ejemplos\BME680\bme680.c **** 	return rslt;
 527:D:\design-mpu\source\ejemplos\BME680\bme680.c **** }
 528:D:\design-mpu\source\ejemplos\BME680\bme680.c **** 
 529:D:\design-mpu\source\ejemplos\BME680\bme680.c **** /*!
 530:D:\design-mpu\source\ejemplos\BME680\bme680.c ****  * @brief This API is used to get the oversampling, filter and T,P,H, gas selection
 531:D:\design-mpu\source\ejemplos\BME680\bme680.c ****  * settings in the sensor.
 532:D:\design-mpu\source\ejemplos\BME680\bme680.c ****  */
 533:D:\design-mpu\source\ejemplos\BME680\bme680.c **** int8_t bme680_get_sensor_settings(uint16_t desired_settings, struct bme680_dev *dev)
 534:D:\design-mpu\source\ejemplos\BME680\bme680.c **** {
 535:D:\design-mpu\source\ejemplos\BME680\bme680.c **** 	int8_t rslt;
 536:D:\design-mpu\source\ejemplos\BME680\bme680.c **** 	/* starting address of the register array for burst read*/
 537:D:\design-mpu\source\ejemplos\BME680\bme680.c **** 	uint8_t reg_addr = BME680_CONF_HEAT_CTRL_ADDR;
 538:D:\design-mpu\source\ejemplos\BME680\bme680.c **** 	uint8_t data_array[BME680_REG_BUFFER_LENGTH] = { 0 };
 539:D:\design-mpu\source\ejemplos\BME680\bme680.c **** 
 540:D:\design-mpu\source\ejemplos\BME680\bme680.c **** 	/* Check for null pointer in the device structure*/
 541:D:\design-mpu\source\ejemplos\BME680\bme680.c **** 	rslt = null_ptr_check(dev);
 542:D:\design-mpu\source\ejemplos\BME680\bme680.c **** 	if (rslt == BME680_OK) {
 543:D:\design-mpu\source\ejemplos\BME680\bme680.c **** 		rslt = bme680_get_regs(reg_addr, data_array, BME680_REG_BUFFER_LENGTH, dev);
 544:D:\design-mpu\source\ejemplos\BME680\bme680.c **** 
ARM GAS  C:\Users\adria\AppData\Local\Temp\ccOKprka.s 			page 11


 545:D:\design-mpu\source\ejemplos\BME680\bme680.c **** 		if (rslt == BME680_OK) {
 546:D:\design-mpu\source\ejemplos\BME680\bme680.c **** 			if (desired_settings & BME680_GAS_MEAS_SEL)
 547:D:\design-mpu\source\ejemplos\BME680\bme680.c **** 				rslt = get_gas_config(dev);
 548:D:\design-mpu\source\ejemplos\BME680\bme680.c **** 
 549:D:\design-mpu\source\ejemplos\BME680\bme680.c **** 			/* get the T,P,H ,Filter,ODR settings here */
 550:D:\design-mpu\source\ejemplos\BME680\bme680.c **** 			if (desired_settings & BME680_FILTER_SEL)
 551:D:\design-mpu\source\ejemplos\BME680\bme680.c **** 				dev->tph_sett.filter = BME680_GET_BITS(data_array[BME680_REG_FILTER_INDEX],
 552:D:\design-mpu\source\ejemplos\BME680\bme680.c **** 					BME680_FILTER);
 553:D:\design-mpu\source\ejemplos\BME680\bme680.c **** 
 554:D:\design-mpu\source\ejemplos\BME680\bme680.c **** 			if (desired_settings & (BME680_OST_SEL | BME680_OSP_SEL)) {
 555:D:\design-mpu\source\ejemplos\BME680\bme680.c **** 				dev->tph_sett.os_temp = BME680_GET_BITS(data_array[BME680_REG_TEMP_INDEX], BME680_OST);
 556:D:\design-mpu\source\ejemplos\BME680\bme680.c **** 				dev->tph_sett.os_pres = BME680_GET_BITS(data_array[BME680_REG_PRES_INDEX], BME680_OSP);
 557:D:\design-mpu\source\ejemplos\BME680\bme680.c **** 			}
 558:D:\design-mpu\source\ejemplos\BME680\bme680.c **** 
 559:D:\design-mpu\source\ejemplos\BME680\bme680.c **** 			if (desired_settings & BME680_OSH_SEL)
 560:D:\design-mpu\source\ejemplos\BME680\bme680.c **** 				dev->tph_sett.os_hum = BME680_GET_BITS_POS_0(data_array[BME680_REG_HUM_INDEX],
 561:D:\design-mpu\source\ejemplos\BME680\bme680.c **** 					BME680_OSH);
 562:D:\design-mpu\source\ejemplos\BME680\bme680.c **** 
 563:D:\design-mpu\source\ejemplos\BME680\bme680.c **** 			/* get the gas related settings */
 564:D:\design-mpu\source\ejemplos\BME680\bme680.c **** 			if (desired_settings & BME680_HCNTRL_SEL)
 565:D:\design-mpu\source\ejemplos\BME680\bme680.c **** 				dev->gas_sett.heatr_ctrl = BME680_GET_BITS_POS_0(data_array[BME680_REG_HCTRL_INDEX],
 566:D:\design-mpu\source\ejemplos\BME680\bme680.c **** 					BME680_HCTRL);
 567:D:\design-mpu\source\ejemplos\BME680\bme680.c **** 
 568:D:\design-mpu\source\ejemplos\BME680\bme680.c **** 			if (desired_settings & (BME680_RUN_GAS_SEL | BME680_NBCONV_SEL)) {
 569:D:\design-mpu\source\ejemplos\BME680\bme680.c **** 				dev->gas_sett.nb_conv = BME680_GET_BITS_POS_0(data_array[BME680_REG_NBCONV_INDEX],
 570:D:\design-mpu\source\ejemplos\BME680\bme680.c **** 					BME680_NBCONV);
 571:D:\design-mpu\source\ejemplos\BME680\bme680.c **** 				dev->gas_sett.run_gas = BME680_GET_BITS(data_array[BME680_REG_RUN_GAS_INDEX],
 572:D:\design-mpu\source\ejemplos\BME680\bme680.c **** 					BME680_RUN_GAS);
 573:D:\design-mpu\source\ejemplos\BME680\bme680.c **** 			}
 574:D:\design-mpu\source\ejemplos\BME680\bme680.c **** 		}
 575:D:\design-mpu\source\ejemplos\BME680\bme680.c **** 	} else {
 576:D:\design-mpu\source\ejemplos\BME680\bme680.c **** 		rslt = BME680_E_NULL_PTR;
 577:D:\design-mpu\source\ejemplos\BME680\bme680.c **** 	}
 578:D:\design-mpu\source\ejemplos\BME680\bme680.c **** 
 579:D:\design-mpu\source\ejemplos\BME680\bme680.c **** 	return rslt;
 580:D:\design-mpu\source\ejemplos\BME680\bme680.c **** }
 581:D:\design-mpu\source\ejemplos\BME680\bme680.c **** 
 582:D:\design-mpu\source\ejemplos\BME680\bme680.c **** /*!
 583:D:\design-mpu\source\ejemplos\BME680\bme680.c ****  * @brief This API is used to set the power mode of the sensor.
 584:D:\design-mpu\source\ejemplos\BME680\bme680.c ****  */
 585:D:\design-mpu\source\ejemplos\BME680\bme680.c **** int8_t bme680_set_sensor_mode(struct bme680_dev *dev)
 586:D:\design-mpu\source\ejemplos\BME680\bme680.c **** {
 587:D:\design-mpu\source\ejemplos\BME680\bme680.c **** 	int8_t rslt;
 588:D:\design-mpu\source\ejemplos\BME680\bme680.c **** 	uint8_t tmp_pow_mode;
 589:D:\design-mpu\source\ejemplos\BME680\bme680.c **** 	uint8_t pow_mode = 0;
 590:D:\design-mpu\source\ejemplos\BME680\bme680.c **** 	uint8_t reg_addr = BME680_CONF_T_P_MODE_ADDR;
 591:D:\design-mpu\source\ejemplos\BME680\bme680.c **** 
 592:D:\design-mpu\source\ejemplos\BME680\bme680.c **** 	/* Check for null pointer in the device structure*/
 593:D:\design-mpu\source\ejemplos\BME680\bme680.c **** 	rslt = null_ptr_check(dev);
 594:D:\design-mpu\source\ejemplos\BME680\bme680.c **** 	if (rslt == BME680_OK) {
 595:D:\design-mpu\source\ejemplos\BME680\bme680.c **** 		/* Call repeatedly until in sleep */
 596:D:\design-mpu\source\ejemplos\BME680\bme680.c **** 		do {
 597:D:\design-mpu\source\ejemplos\BME680\bme680.c **** 			rslt = bme680_get_regs(BME680_CONF_T_P_MODE_ADDR, &tmp_pow_mode, 1, dev);
 598:D:\design-mpu\source\ejemplos\BME680\bme680.c **** 			if (rslt == BME680_OK) {
 599:D:\design-mpu\source\ejemplos\BME680\bme680.c **** 				/* Put to sleep before changing mode */
 600:D:\design-mpu\source\ejemplos\BME680\bme680.c **** 				pow_mode = (tmp_pow_mode & BME680_MODE_MSK);
 601:D:\design-mpu\source\ejemplos\BME680\bme680.c **** 
ARM GAS  C:\Users\adria\AppData\Local\Temp\ccOKprka.s 			page 12


 602:D:\design-mpu\source\ejemplos\BME680\bme680.c **** 				if (pow_mode != BME680_SLEEP_MODE) {
 603:D:\design-mpu\source\ejemplos\BME680\bme680.c **** 					tmp_pow_mode = tmp_pow_mode & (~BME680_MODE_MSK); /* Set to sleep */
 604:D:\design-mpu\source\ejemplos\BME680\bme680.c **** 					rslt = bme680_set_regs(&reg_addr, &tmp_pow_mode, 1, dev);
 605:D:\design-mpu\source\ejemplos\BME680\bme680.c **** 					dev->delay_ms(BME680_POLL_PERIOD_MS);
 606:D:\design-mpu\source\ejemplos\BME680\bme680.c **** 				}
 607:D:\design-mpu\source\ejemplos\BME680\bme680.c **** 			}
 608:D:\design-mpu\source\ejemplos\BME680\bme680.c **** 		} while (pow_mode != BME680_SLEEP_MODE);
 609:D:\design-mpu\source\ejemplos\BME680\bme680.c **** 
 610:D:\design-mpu\source\ejemplos\BME680\bme680.c **** 		/* Already in sleep */
 611:D:\design-mpu\source\ejemplos\BME680\bme680.c **** 		if (dev->power_mode != BME680_SLEEP_MODE) {
 612:D:\design-mpu\source\ejemplos\BME680\bme680.c **** 			tmp_pow_mode = (tmp_pow_mode & ~BME680_MODE_MSK) | (dev->power_mode & BME680_MODE_MSK);
 613:D:\design-mpu\source\ejemplos\BME680\bme680.c **** 			if (rslt == BME680_OK)
 614:D:\design-mpu\source\ejemplos\BME680\bme680.c **** 				rslt = bme680_set_regs(&reg_addr, &tmp_pow_mode, 1, dev);
 615:D:\design-mpu\source\ejemplos\BME680\bme680.c **** 		}
 616:D:\design-mpu\source\ejemplos\BME680\bme680.c **** 	}
 617:D:\design-mpu\source\ejemplos\BME680\bme680.c **** 
 618:D:\design-mpu\source\ejemplos\BME680\bme680.c **** 	return rslt;
 619:D:\design-mpu\source\ejemplos\BME680\bme680.c **** }
 620:D:\design-mpu\source\ejemplos\BME680\bme680.c **** 
 621:D:\design-mpu\source\ejemplos\BME680\bme680.c **** /*!
 622:D:\design-mpu\source\ejemplos\BME680\bme680.c ****  * @brief This API is used to get the power mode of the sensor.
 623:D:\design-mpu\source\ejemplos\BME680\bme680.c ****  */
 624:D:\design-mpu\source\ejemplos\BME680\bme680.c **** int8_t bme680_get_sensor_mode(struct bme680_dev *dev)
 625:D:\design-mpu\source\ejemplos\BME680\bme680.c **** {
 626:D:\design-mpu\source\ejemplos\BME680\bme680.c **** 	int8_t rslt;
 627:D:\design-mpu\source\ejemplos\BME680\bme680.c **** 	uint8_t mode;
 628:D:\design-mpu\source\ejemplos\BME680\bme680.c **** 
 629:D:\design-mpu\source\ejemplos\BME680\bme680.c **** 	/* Check for null pointer in the device structure*/
 630:D:\design-mpu\source\ejemplos\BME680\bme680.c **** 	rslt = null_ptr_check(dev);
 631:D:\design-mpu\source\ejemplos\BME680\bme680.c **** 	if (rslt == BME680_OK) {
 632:D:\design-mpu\source\ejemplos\BME680\bme680.c **** 		rslt = bme680_get_regs(BME680_CONF_T_P_MODE_ADDR, &mode, 1, dev);
 633:D:\design-mpu\source\ejemplos\BME680\bme680.c **** 		/* Masking the other register bit info*/
 634:D:\design-mpu\source\ejemplos\BME680\bme680.c **** 		dev->power_mode = mode & BME680_MODE_MSK;
 635:D:\design-mpu\source\ejemplos\BME680\bme680.c **** 	}
 636:D:\design-mpu\source\ejemplos\BME680\bme680.c **** 
 637:D:\design-mpu\source\ejemplos\BME680\bme680.c **** 	return rslt;
 638:D:\design-mpu\source\ejemplos\BME680\bme680.c **** }
 639:D:\design-mpu\source\ejemplos\BME680\bme680.c **** 
 640:D:\design-mpu\source\ejemplos\BME680\bme680.c **** /*!
 641:D:\design-mpu\source\ejemplos\BME680\bme680.c ****  * @brief This API is used to set the profile duration of the sensor.
 642:D:\design-mpu\source\ejemplos\BME680\bme680.c ****  */
 643:D:\design-mpu\source\ejemplos\BME680\bme680.c **** void bme680_set_profile_dur(uint16_t duration, struct bme680_dev *dev)
 644:D:\design-mpu\source\ejemplos\BME680\bme680.c **** {
 645:D:\design-mpu\source\ejemplos\BME680\bme680.c **** 	uint32_t tph_dur; /* Calculate in us */
 646:D:\design-mpu\source\ejemplos\BME680\bme680.c **** 	uint32_t meas_cycles;
 647:D:\design-mpu\source\ejemplos\BME680\bme680.c **** 	uint8_t os_to_meas_cycles[6] = {0, 1, 2, 4, 8, 16};
 648:D:\design-mpu\source\ejemplos\BME680\bme680.c **** 
 649:D:\design-mpu\source\ejemplos\BME680\bme680.c **** 	meas_cycles = os_to_meas_cycles[dev->tph_sett.os_temp];
 650:D:\design-mpu\source\ejemplos\BME680\bme680.c **** 	meas_cycles += os_to_meas_cycles[dev->tph_sett.os_pres];
 651:D:\design-mpu\source\ejemplos\BME680\bme680.c **** 	meas_cycles += os_to_meas_cycles[dev->tph_sett.os_hum];
 652:D:\design-mpu\source\ejemplos\BME680\bme680.c **** 
 653:D:\design-mpu\source\ejemplos\BME680\bme680.c **** 	/* TPH measurement duration */
 654:D:\design-mpu\source\ejemplos\BME680\bme680.c **** 	tph_dur = meas_cycles * UINT32_C(1963);
 655:D:\design-mpu\source\ejemplos\BME680\bme680.c **** 	tph_dur += UINT32_C(477 * 4); /* TPH switching duration */
 656:D:\design-mpu\source\ejemplos\BME680\bme680.c **** 	tph_dur += UINT32_C(477 * 5); /* Gas measurement duration */
 657:D:\design-mpu\source\ejemplos\BME680\bme680.c **** 	tph_dur += UINT32_C(500); /* Get it to the closest whole number.*/
 658:D:\design-mpu\source\ejemplos\BME680\bme680.c **** 	tph_dur /= UINT32_C(1000); /* Convert to ms */
ARM GAS  C:\Users\adria\AppData\Local\Temp\ccOKprka.s 			page 13


 659:D:\design-mpu\source\ejemplos\BME680\bme680.c **** 
 660:D:\design-mpu\source\ejemplos\BME680\bme680.c **** 	tph_dur += UINT32_C(1); /* Wake up duration of 1ms */
 661:D:\design-mpu\source\ejemplos\BME680\bme680.c **** 	/* The remaining time should be used for heating */
 662:D:\design-mpu\source\ejemplos\BME680\bme680.c **** 	dev->gas_sett.heatr_dur = duration - (uint16_t) tph_dur;
 663:D:\design-mpu\source\ejemplos\BME680\bme680.c **** }
 664:D:\design-mpu\source\ejemplos\BME680\bme680.c **** 
 665:D:\design-mpu\source\ejemplos\BME680\bme680.c **** /*!
 666:D:\design-mpu\source\ejemplos\BME680\bme680.c ****  * @brief This API is used to get the profile duration of the sensor.
 667:D:\design-mpu\source\ejemplos\BME680\bme680.c ****  */
 668:D:\design-mpu\source\ejemplos\BME680\bme680.c **** void bme680_get_profile_dur(uint16_t *duration, const struct bme680_dev *dev)
 669:D:\design-mpu\source\ejemplos\BME680\bme680.c **** {
 670:D:\design-mpu\source\ejemplos\BME680\bme680.c **** 	uint32_t tph_dur; /* Calculate in us */
 671:D:\design-mpu\source\ejemplos\BME680\bme680.c **** 	uint32_t meas_cycles;
 672:D:\design-mpu\source\ejemplos\BME680\bme680.c **** 	uint8_t os_to_meas_cycles[6] = {0, 1, 2, 4, 8, 16};
 673:D:\design-mpu\source\ejemplos\BME680\bme680.c **** 
 674:D:\design-mpu\source\ejemplos\BME680\bme680.c **** 	meas_cycles = os_to_meas_cycles[dev->tph_sett.os_temp];
 675:D:\design-mpu\source\ejemplos\BME680\bme680.c **** 	meas_cycles += os_to_meas_cycles[dev->tph_sett.os_pres];
 676:D:\design-mpu\source\ejemplos\BME680\bme680.c **** 	meas_cycles += os_to_meas_cycles[dev->tph_sett.os_hum];
 677:D:\design-mpu\source\ejemplos\BME680\bme680.c **** 
 678:D:\design-mpu\source\ejemplos\BME680\bme680.c **** 	/* TPH measurement duration */
 679:D:\design-mpu\source\ejemplos\BME680\bme680.c **** 	tph_dur = meas_cycles * UINT32_C(1963);
 680:D:\design-mpu\source\ejemplos\BME680\bme680.c **** 	tph_dur += UINT32_C(477 * 4); /* TPH switching duration */
 681:D:\design-mpu\source\ejemplos\BME680\bme680.c **** 	tph_dur += UINT32_C(477 * 5); /* Gas measurement duration */
 682:D:\design-mpu\source\ejemplos\BME680\bme680.c **** 	tph_dur += UINT32_C(500); /* Get it to the closest whole number.*/
 683:D:\design-mpu\source\ejemplos\BME680\bme680.c **** 	tph_dur /= UINT32_C(1000); /* Convert to ms */
 684:D:\design-mpu\source\ejemplos\BME680\bme680.c **** 
 685:D:\design-mpu\source\ejemplos\BME680\bme680.c **** 	tph_dur += UINT32_C(1); /* Wake up duration of 1ms */
 686:D:\design-mpu\source\ejemplos\BME680\bme680.c **** 
 687:D:\design-mpu\source\ejemplos\BME680\bme680.c **** 	*duration = (uint16_t) tph_dur;
 688:D:\design-mpu\source\ejemplos\BME680\bme680.c **** 
 689:D:\design-mpu\source\ejemplos\BME680\bme680.c **** 	/* Get the gas duration only when the run gas is enabled */
 690:D:\design-mpu\source\ejemplos\BME680\bme680.c **** 	if (dev->gas_sett.run_gas) {
 691:D:\design-mpu\source\ejemplos\BME680\bme680.c **** 		/* The remaining time should be used for heating */
 692:D:\design-mpu\source\ejemplos\BME680\bme680.c **** 		*duration += dev->gas_sett.heatr_dur;
 693:D:\design-mpu\source\ejemplos\BME680\bme680.c **** 	}
 694:D:\design-mpu\source\ejemplos\BME680\bme680.c **** }
 695:D:\design-mpu\source\ejemplos\BME680\bme680.c **** 
 696:D:\design-mpu\source\ejemplos\BME680\bme680.c **** /*!
 697:D:\design-mpu\source\ejemplos\BME680\bme680.c ****  * @brief This API reads the pressure, temperature and humidity and gas data
 698:D:\design-mpu\source\ejemplos\BME680\bme680.c ****  * from the sensor, compensates the data and store it in the bme680_data
 699:D:\design-mpu\source\ejemplos\BME680\bme680.c ****  * structure instance passed by the user.
 700:D:\design-mpu\source\ejemplos\BME680\bme680.c ****  */
 701:D:\design-mpu\source\ejemplos\BME680\bme680.c **** int8_t bme680_get_sensor_data(struct bme680_field_data *data, struct bme680_dev *dev)
 702:D:\design-mpu\source\ejemplos\BME680\bme680.c **** {
 703:D:\design-mpu\source\ejemplos\BME680\bme680.c **** 	int8_t rslt;
 704:D:\design-mpu\source\ejemplos\BME680\bme680.c **** 
 705:D:\design-mpu\source\ejemplos\BME680\bme680.c **** 	/* Check for null pointer in the device structure*/
 706:D:\design-mpu\source\ejemplos\BME680\bme680.c **** 	rslt = null_ptr_check(dev);
 707:D:\design-mpu\source\ejemplos\BME680\bme680.c **** 	if (rslt == BME680_OK) {
 708:D:\design-mpu\source\ejemplos\BME680\bme680.c **** 		/* Reading the sensor data in forced mode only */
 709:D:\design-mpu\source\ejemplos\BME680\bme680.c **** 		rslt = read_field_data(data, dev);
 710:D:\design-mpu\source\ejemplos\BME680\bme680.c **** 		if (rslt == BME680_OK) {
 711:D:\design-mpu\source\ejemplos\BME680\bme680.c **** 			if (data->status & BME680_NEW_DATA_MSK)
 712:D:\design-mpu\source\ejemplos\BME680\bme680.c **** 				dev->new_fields = 1;
 713:D:\design-mpu\source\ejemplos\BME680\bme680.c **** 			else
 714:D:\design-mpu\source\ejemplos\BME680\bme680.c **** 				dev->new_fields = 0;
 715:D:\design-mpu\source\ejemplos\BME680\bme680.c **** 		}
ARM GAS  C:\Users\adria\AppData\Local\Temp\ccOKprka.s 			page 14


 716:D:\design-mpu\source\ejemplos\BME680\bme680.c **** 	}
 717:D:\design-mpu\source\ejemplos\BME680\bme680.c **** 
 718:D:\design-mpu\source\ejemplos\BME680\bme680.c **** 	return rslt;
 719:D:\design-mpu\source\ejemplos\BME680\bme680.c **** }
 720:D:\design-mpu\source\ejemplos\BME680\bme680.c **** 
 721:D:\design-mpu\source\ejemplos\BME680\bme680.c **** /*!
 722:D:\design-mpu\source\ejemplos\BME680\bme680.c ****  * @brief This internal API is used to read the calibrated data from the sensor.
 723:D:\design-mpu\source\ejemplos\BME680\bme680.c ****  */
 724:D:\design-mpu\source\ejemplos\BME680\bme680.c **** static int8_t get_calib_data(struct bme680_dev *dev)
 725:D:\design-mpu\source\ejemplos\BME680\bme680.c **** {
 726:D:\design-mpu\source\ejemplos\BME680\bme680.c **** 	int8_t rslt;
 727:D:\design-mpu\source\ejemplos\BME680\bme680.c **** 	uint8_t coeff_array[BME680_COEFF_SIZE] = { 0 };
 728:D:\design-mpu\source\ejemplos\BME680\bme680.c **** 	uint8_t temp_var = 0; /* Temporary variable */
 729:D:\design-mpu\source\ejemplos\BME680\bme680.c **** 
 730:D:\design-mpu\source\ejemplos\BME680\bme680.c **** 	/* Check for null pointer in the device structure*/
 731:D:\design-mpu\source\ejemplos\BME680\bme680.c **** 	rslt = null_ptr_check(dev);
 732:D:\design-mpu\source\ejemplos\BME680\bme680.c **** 	if (rslt == BME680_OK) {
 733:D:\design-mpu\source\ejemplos\BME680\bme680.c **** 		rslt = bme680_get_regs(BME680_COEFF_ADDR1, coeff_array, BME680_COEFF_ADDR1_LEN, dev);
 734:D:\design-mpu\source\ejemplos\BME680\bme680.c **** 		/* Append the second half in the same array */
 735:D:\design-mpu\source\ejemplos\BME680\bme680.c **** 		if (rslt == BME680_OK)
 736:D:\design-mpu\source\ejemplos\BME680\bme680.c **** 			rslt = bme680_get_regs(BME680_COEFF_ADDR2, &coeff_array[BME680_COEFF_ADDR1_LEN]
 737:D:\design-mpu\source\ejemplos\BME680\bme680.c **** 			, BME680_COEFF_ADDR2_LEN, dev);
 738:D:\design-mpu\source\ejemplos\BME680\bme680.c **** 
 739:D:\design-mpu\source\ejemplos\BME680\bme680.c **** 		/* Temperature related coefficients */
 740:D:\design-mpu\source\ejemplos\BME680\bme680.c **** 		dev->calib.par_t1 = (uint16_t) (BME680_CONCAT_BYTES(coeff_array[BME680_T1_MSB_REG],
 741:D:\design-mpu\source\ejemplos\BME680\bme680.c **** 			coeff_array[BME680_T1_LSB_REG]));
 742:D:\design-mpu\source\ejemplos\BME680\bme680.c **** 		dev->calib.par_t2 = (int16_t) (BME680_CONCAT_BYTES(coeff_array[BME680_T2_MSB_REG],
 743:D:\design-mpu\source\ejemplos\BME680\bme680.c **** 			coeff_array[BME680_T2_LSB_REG]));
 744:D:\design-mpu\source\ejemplos\BME680\bme680.c **** 		dev->calib.par_t3 = (int8_t) (coeff_array[BME680_T3_REG]);
 745:D:\design-mpu\source\ejemplos\BME680\bme680.c **** 
 746:D:\design-mpu\source\ejemplos\BME680\bme680.c **** 		/* Pressure related coefficients */
 747:D:\design-mpu\source\ejemplos\BME680\bme680.c **** 		dev->calib.par_p1 = (uint16_t) (BME680_CONCAT_BYTES(coeff_array[BME680_P1_MSB_REG],
 748:D:\design-mpu\source\ejemplos\BME680\bme680.c **** 			coeff_array[BME680_P1_LSB_REG]));
 749:D:\design-mpu\source\ejemplos\BME680\bme680.c **** 		dev->calib.par_p2 = (int16_t) (BME680_CONCAT_BYTES(coeff_array[BME680_P2_MSB_REG],
 750:D:\design-mpu\source\ejemplos\BME680\bme680.c **** 			coeff_array[BME680_P2_LSB_REG]));
 751:D:\design-mpu\source\ejemplos\BME680\bme680.c **** 		dev->calib.par_p3 = (int8_t) coeff_array[BME680_P3_REG];
 752:D:\design-mpu\source\ejemplos\BME680\bme680.c **** 		dev->calib.par_p4 = (int16_t) (BME680_CONCAT_BYTES(coeff_array[BME680_P4_MSB_REG],
 753:D:\design-mpu\source\ejemplos\BME680\bme680.c **** 			coeff_array[BME680_P4_LSB_REG]));
 754:D:\design-mpu\source\ejemplos\BME680\bme680.c **** 		dev->calib.par_p5 = (int16_t) (BME680_CONCAT_BYTES(coeff_array[BME680_P5_MSB_REG],
 755:D:\design-mpu\source\ejemplos\BME680\bme680.c **** 			coeff_array[BME680_P5_LSB_REG]));
 756:D:\design-mpu\source\ejemplos\BME680\bme680.c **** 		dev->calib.par_p6 = (int8_t) (coeff_array[BME680_P6_REG]);
 757:D:\design-mpu\source\ejemplos\BME680\bme680.c **** 		dev->calib.par_p7 = (int8_t) (coeff_array[BME680_P7_REG]);
 758:D:\design-mpu\source\ejemplos\BME680\bme680.c **** 		dev->calib.par_p8 = (int16_t) (BME680_CONCAT_BYTES(coeff_array[BME680_P8_MSB_REG],
 759:D:\design-mpu\source\ejemplos\BME680\bme680.c **** 			coeff_array[BME680_P8_LSB_REG]));
 760:D:\design-mpu\source\ejemplos\BME680\bme680.c **** 		dev->calib.par_p9 = (int16_t) (BME680_CONCAT_BYTES(coeff_array[BME680_P9_MSB_REG],
 761:D:\design-mpu\source\ejemplos\BME680\bme680.c **** 			coeff_array[BME680_P9_LSB_REG]));
 762:D:\design-mpu\source\ejemplos\BME680\bme680.c **** 		dev->calib.par_p10 = (uint8_t) (coeff_array[BME680_P10_REG]);
 763:D:\design-mpu\source\ejemplos\BME680\bme680.c **** 
 764:D:\design-mpu\source\ejemplos\BME680\bme680.c **** 		/* Humidity related coefficients */
 765:D:\design-mpu\source\ejemplos\BME680\bme680.c **** 		dev->calib.par_h1 = (uint16_t) (((uint16_t) coeff_array[BME680_H1_MSB_REG] << BME680_HUM_REG_SHIF
 766:D:\design-mpu\source\ejemplos\BME680\bme680.c **** 			| (coeff_array[BME680_H1_LSB_REG] & BME680_BIT_H1_DATA_MSK));
 767:D:\design-mpu\source\ejemplos\BME680\bme680.c **** 		dev->calib.par_h2 = (uint16_t) (((uint16_t) coeff_array[BME680_H2_MSB_REG] << BME680_HUM_REG_SHIF
 768:D:\design-mpu\source\ejemplos\BME680\bme680.c **** 			| ((coeff_array[BME680_H2_LSB_REG]) >> BME680_HUM_REG_SHIFT_VAL));
 769:D:\design-mpu\source\ejemplos\BME680\bme680.c **** 		dev->calib.par_h3 = (int8_t) coeff_array[BME680_H3_REG];
 770:D:\design-mpu\source\ejemplos\BME680\bme680.c **** 		dev->calib.par_h4 = (int8_t) coeff_array[BME680_H4_REG];
 771:D:\design-mpu\source\ejemplos\BME680\bme680.c **** 		dev->calib.par_h5 = (int8_t) coeff_array[BME680_H5_REG];
 772:D:\design-mpu\source\ejemplos\BME680\bme680.c **** 		dev->calib.par_h6 = (uint8_t) coeff_array[BME680_H6_REG];
ARM GAS  C:\Users\adria\AppData\Local\Temp\ccOKprka.s 			page 15


 773:D:\design-mpu\source\ejemplos\BME680\bme680.c **** 		dev->calib.par_h7 = (int8_t) coeff_array[BME680_H7_REG];
 774:D:\design-mpu\source\ejemplos\BME680\bme680.c **** 
 775:D:\design-mpu\source\ejemplos\BME680\bme680.c **** 		/* Gas heater related coefficients */
 776:D:\design-mpu\source\ejemplos\BME680\bme680.c **** 		dev->calib.par_gh1 = (int8_t) coeff_array[BME680_GH1_REG];
 777:D:\design-mpu\source\ejemplos\BME680\bme680.c **** 		dev->calib.par_gh2 = (int16_t) (BME680_CONCAT_BYTES(coeff_array[BME680_GH2_MSB_REG],
 778:D:\design-mpu\source\ejemplos\BME680\bme680.c **** 			coeff_array[BME680_GH2_LSB_REG]));
 779:D:\design-mpu\source\ejemplos\BME680\bme680.c **** 		dev->calib.par_gh3 = (int8_t) coeff_array[BME680_GH3_REG];
 780:D:\design-mpu\source\ejemplos\BME680\bme680.c **** 
 781:D:\design-mpu\source\ejemplos\BME680\bme680.c **** 		/* Other coefficients */
 782:D:\design-mpu\source\ejemplos\BME680\bme680.c **** 		if (rslt == BME680_OK) {
 783:D:\design-mpu\source\ejemplos\BME680\bme680.c **** 			rslt = bme680_get_regs(BME680_ADDR_RES_HEAT_RANGE_ADDR, &temp_var, 1, dev);
 784:D:\design-mpu\source\ejemplos\BME680\bme680.c **** 
 785:D:\design-mpu\source\ejemplos\BME680\bme680.c **** 			dev->calib.res_heat_range = ((temp_var & BME680_RHRANGE_MSK) / 16);
 786:D:\design-mpu\source\ejemplos\BME680\bme680.c **** 			if (rslt == BME680_OK) {
 787:D:\design-mpu\source\ejemplos\BME680\bme680.c **** 				rslt = bme680_get_regs(BME680_ADDR_RES_HEAT_VAL_ADDR, &temp_var, 1, dev);
 788:D:\design-mpu\source\ejemplos\BME680\bme680.c **** 
 789:D:\design-mpu\source\ejemplos\BME680\bme680.c **** 				dev->calib.res_heat_val = (int8_t) temp_var;
 790:D:\design-mpu\source\ejemplos\BME680\bme680.c **** 				if (rslt == BME680_OK)
 791:D:\design-mpu\source\ejemplos\BME680\bme680.c **** 					rslt = bme680_get_regs(BME680_ADDR_RANGE_SW_ERR_ADDR, &temp_var, 1, dev);
 792:D:\design-mpu\source\ejemplos\BME680\bme680.c **** 			}
 793:D:\design-mpu\source\ejemplos\BME680\bme680.c **** 		}
 794:D:\design-mpu\source\ejemplos\BME680\bme680.c **** 		dev->calib.range_sw_err = ((int8_t) temp_var & (int8_t) BME680_RSERROR_MSK) / 16;
 795:D:\design-mpu\source\ejemplos\BME680\bme680.c **** 	}
 796:D:\design-mpu\source\ejemplos\BME680\bme680.c **** 
 797:D:\design-mpu\source\ejemplos\BME680\bme680.c **** 	return rslt;
 798:D:\design-mpu\source\ejemplos\BME680\bme680.c **** }
 799:D:\design-mpu\source\ejemplos\BME680\bme680.c **** 
 800:D:\design-mpu\source\ejemplos\BME680\bme680.c **** /*!
 801:D:\design-mpu\source\ejemplos\BME680\bme680.c ****  * @brief This internal API is used to set the gas configuration of the sensor.
 802:D:\design-mpu\source\ejemplos\BME680\bme680.c ****  */
 803:D:\design-mpu\source\ejemplos\BME680\bme680.c **** static int8_t set_gas_config(struct bme680_dev *dev)
 804:D:\design-mpu\source\ejemplos\BME680\bme680.c **** {
 805:D:\design-mpu\source\ejemplos\BME680\bme680.c **** 	int8_t rslt;
 806:D:\design-mpu\source\ejemplos\BME680\bme680.c **** 
 807:D:\design-mpu\source\ejemplos\BME680\bme680.c **** 	/* Check for null pointer in the device structure*/
 808:D:\design-mpu\source\ejemplos\BME680\bme680.c **** 	rslt = null_ptr_check(dev);
 809:D:\design-mpu\source\ejemplos\BME680\bme680.c **** 	if (rslt == BME680_OK) {
 810:D:\design-mpu\source\ejemplos\BME680\bme680.c **** 
 811:D:\design-mpu\source\ejemplos\BME680\bme680.c **** 		uint8_t reg_addr[2] = {0};
 812:D:\design-mpu\source\ejemplos\BME680\bme680.c **** 		uint8_t reg_data[2] = {0};
 813:D:\design-mpu\source\ejemplos\BME680\bme680.c **** 
 814:D:\design-mpu\source\ejemplos\BME680\bme680.c **** 		if (dev->power_mode == BME680_FORCED_MODE) {
 815:D:\design-mpu\source\ejemplos\BME680\bme680.c **** 			reg_addr[0] = BME680_RES_HEAT0_ADDR;
 816:D:\design-mpu\source\ejemplos\BME680\bme680.c **** 			reg_data[0] = calc_heater_res(dev->gas_sett.heatr_temp, dev);
 817:D:\design-mpu\source\ejemplos\BME680\bme680.c **** 			reg_addr[1] = BME680_GAS_WAIT0_ADDR;
 818:D:\design-mpu\source\ejemplos\BME680\bme680.c **** 			reg_data[1] = calc_heater_dur(dev->gas_sett.heatr_dur);
 819:D:\design-mpu\source\ejemplos\BME680\bme680.c **** 			dev->gas_sett.nb_conv = 0;
 820:D:\design-mpu\source\ejemplos\BME680\bme680.c **** 		} else {
 821:D:\design-mpu\source\ejemplos\BME680\bme680.c **** 			rslt = BME680_W_DEFINE_PWR_MODE;
 822:D:\design-mpu\source\ejemplos\BME680\bme680.c **** 		}
 823:D:\design-mpu\source\ejemplos\BME680\bme680.c **** 		if (rslt == BME680_OK)
 824:D:\design-mpu\source\ejemplos\BME680\bme680.c **** 			rslt = bme680_set_regs(reg_addr, reg_data, 2, dev);
 825:D:\design-mpu\source\ejemplos\BME680\bme680.c **** 	}
 826:D:\design-mpu\source\ejemplos\BME680\bme680.c **** 
 827:D:\design-mpu\source\ejemplos\BME680\bme680.c **** 	return rslt;
 828:D:\design-mpu\source\ejemplos\BME680\bme680.c **** }
 829:D:\design-mpu\source\ejemplos\BME680\bme680.c **** 
ARM GAS  C:\Users\adria\AppData\Local\Temp\ccOKprka.s 			page 16


 830:D:\design-mpu\source\ejemplos\BME680\bme680.c **** /*!
 831:D:\design-mpu\source\ejemplos\BME680\bme680.c ****  * @brief This internal API is used to get the gas configuration of the sensor.
 832:D:\design-mpu\source\ejemplos\BME680\bme680.c ****  * @note heatr_temp and heatr_dur values are currently register data
 833:D:\design-mpu\source\ejemplos\BME680\bme680.c ****  * and not the actual values set
 834:D:\design-mpu\source\ejemplos\BME680\bme680.c ****  */
 835:D:\design-mpu\source\ejemplos\BME680\bme680.c **** static int8_t get_gas_config(struct bme680_dev *dev)
 836:D:\design-mpu\source\ejemplos\BME680\bme680.c **** {
 837:D:\design-mpu\source\ejemplos\BME680\bme680.c **** 	int8_t rslt;
 838:D:\design-mpu\source\ejemplos\BME680\bme680.c **** 	/* starting address of the register array for burst read*/
 839:D:\design-mpu\source\ejemplos\BME680\bme680.c **** 	uint8_t reg_addr1 = BME680_ADDR_SENS_CONF_START;
 840:D:\design-mpu\source\ejemplos\BME680\bme680.c **** 	uint8_t reg_addr2 = BME680_ADDR_GAS_CONF_START;
 841:D:\design-mpu\source\ejemplos\BME680\bme680.c **** 	uint8_t reg_data = 0;
 842:D:\design-mpu\source\ejemplos\BME680\bme680.c **** 
 843:D:\design-mpu\source\ejemplos\BME680\bme680.c **** 	/* Check for null pointer in the device structure*/
 844:D:\design-mpu\source\ejemplos\BME680\bme680.c **** 	rslt = null_ptr_check(dev);
 845:D:\design-mpu\source\ejemplos\BME680\bme680.c **** 	if (rslt == BME680_OK) {
 846:D:\design-mpu\source\ejemplos\BME680\bme680.c **** 		if (BME680_SPI_INTF == dev->intf) {
 847:D:\design-mpu\source\ejemplos\BME680\bme680.c **** 			/* Memory page switch the SPI address*/
 848:D:\design-mpu\source\ejemplos\BME680\bme680.c **** 			rslt = set_mem_page(reg_addr1, dev);
 849:D:\design-mpu\source\ejemplos\BME680\bme680.c **** 		}
 850:D:\design-mpu\source\ejemplos\BME680\bme680.c **** 
 851:D:\design-mpu\source\ejemplos\BME680\bme680.c **** 		if (rslt == BME680_OK) {
 852:D:\design-mpu\source\ejemplos\BME680\bme680.c **** 			rslt = bme680_get_regs(reg_addr1, &reg_data, 1, dev);
 853:D:\design-mpu\source\ejemplos\BME680\bme680.c **** 			if (rslt == BME680_OK) {
 854:D:\design-mpu\source\ejemplos\BME680\bme680.c **** 				dev->gas_sett.heatr_temp = reg_data;
 855:D:\design-mpu\source\ejemplos\BME680\bme680.c **** 				rslt = bme680_get_regs(reg_addr2, &reg_data, 1, dev);
 856:D:\design-mpu\source\ejemplos\BME680\bme680.c **** 				if (rslt == BME680_OK) {
 857:D:\design-mpu\source\ejemplos\BME680\bme680.c **** 					/* Heating duration register value */
 858:D:\design-mpu\source\ejemplos\BME680\bme680.c **** 					dev->gas_sett.heatr_dur = reg_data;
 859:D:\design-mpu\source\ejemplos\BME680\bme680.c **** 				}
 860:D:\design-mpu\source\ejemplos\BME680\bme680.c **** 			}
 861:D:\design-mpu\source\ejemplos\BME680\bme680.c **** 		}
 862:D:\design-mpu\source\ejemplos\BME680\bme680.c **** 	}
 863:D:\design-mpu\source\ejemplos\BME680\bme680.c **** 
 864:D:\design-mpu\source\ejemplos\BME680\bme680.c **** 	return rslt;
 865:D:\design-mpu\source\ejemplos\BME680\bme680.c **** }
 866:D:\design-mpu\source\ejemplos\BME680\bme680.c **** 
 867:D:\design-mpu\source\ejemplos\BME680\bme680.c **** #ifndef BME680_FLOAT_POINT_COMPENSATION
 868:D:\design-mpu\source\ejemplos\BME680\bme680.c **** 
 869:D:\design-mpu\source\ejemplos\BME680\bme680.c **** /*!
 870:D:\design-mpu\source\ejemplos\BME680\bme680.c ****  * @brief This internal API is used to calculate the temperature value.
 871:D:\design-mpu\source\ejemplos\BME680\bme680.c ****  */
 872:D:\design-mpu\source\ejemplos\BME680\bme680.c **** static int16_t calc_temperature(uint32_t temp_adc, struct bme680_dev *dev)
 873:D:\design-mpu\source\ejemplos\BME680\bme680.c **** {
  27              		.loc 1 873 0
  28              		.cfi_startproc
  29              		@ args = 0, pretend = 0, frame = 0
  30              		@ frame_needed = 0, uses_anonymous_args = 0
  31              		@ link register save eliminated.
  32              	.LVL0:
  33 0000 F0B4     		push	{r4, r5, r6, r7}
  34              		.cfi_def_cfa_offset 16
  35              		.cfi_offset 4, -16
  36              		.cfi_offset 5, -12
  37              		.cfi_offset 6, -8
  38              		.cfi_offset 7, -4
 874:D:\design-mpu\source\ejemplos\BME680\bme680.c **** 	int64_t var1;
ARM GAS  C:\Users\adria\AppData\Local\Temp\ccOKprka.s 			page 17


 875:D:\design-mpu\source\ejemplos\BME680\bme680.c **** 	int64_t var2;
 876:D:\design-mpu\source\ejemplos\BME680\bme680.c **** 	int64_t var3;
 877:D:\design-mpu\source\ejemplos\BME680\bme680.c **** 	int16_t calc_temp;
 878:D:\design-mpu\source\ejemplos\BME680\bme680.c **** 
 879:D:\design-mpu\source\ejemplos\BME680\bme680.c **** 	var1 = ((int32_t) temp_adc >> 3) - ((int32_t) dev->calib.par_t1 << 1);
  39              		.loc 1 879 0
  40 0002 CC8A     		ldrh	r4, [r1, #22]
  41 0004 6400     		lsls	r4, r4, #1
  42 0006 C4EBE000 		rsb	r0, r4, r0, asr #3
  43              	.LVL1:
  44 000a 0246     		mov	r2, r0
  45 000c C317     		asrs	r3, r0, #31
  46              	.LVL2:
 880:D:\design-mpu\source\ejemplos\BME680\bme680.c **** 	var2 = (var1 * (int32_t) dev->calib.par_t2) >> 11;
  47              		.loc 1 880 0
  48 000e B1F91840 		ldrsh	r4, [r1, #24]
  49 0012 E517     		asrs	r5, r4, #31
  50 0014 04FB03F6 		mul	r6, r4, r3
  51 0018 00FB0566 		mla	r6, r0, r5, r6
  52 001c A4FB0045 		umull	r4, r5, r4, r0
  53 0020 3544     		add	r5, r5, r6
  54 0022 E00A     		lsrs	r0, r4, #11
  55 0024 40EA4550 		orr	r0, r0, r5, lsl #21
  56              	.LVL3:
 881:D:\design-mpu\source\ejemplos\BME680\bme680.c **** 	var3 = ((var1 >> 1) * (var1 >> 1)) >> 12;
  57              		.loc 1 881 0
  58 0028 5B10     		movs	r3, r3, asr #1
  59 002a 4FEA3202 		mov	r2, r2, rrx
  60              	.LVL4:
  61 002e 02FB03F4 		mul	r4, r2, r3
  62              	.LVL5:
  63 0032 A2FB0223 		umull	r2, r3, r2, r2
  64 0036 03EB4403 		add	r3, r3, r4, lsl #1
  65 003a 140B     		lsrs	r4, r2, #12
  66 003c 44EA0354 		orr	r4, r4, r3, lsl #20
  67 0040 1A13     		asrs	r2, r3, #12
  68              	.LVL6:
 882:D:\design-mpu\source\ejemplos\BME680\bme680.c **** 	var3 = ((var3) * ((int32_t) dev->calib.par_t3 << 4)) >> 14;
  69              		.loc 1 882 0
  70 0042 91F91A30 		ldrsb	r3, [r1, #26]
  71 0046 1B01     		lsls	r3, r3, #4
  72 0048 DF17     		asrs	r7, r3, #31
  73 004a 03FB02F2 		mul	r2, r3, r2
  74              	.LVL7:
  75 004e 04FB0722 		mla	r2, r4, r7, r2
  76 0052 A3FB0445 		umull	r4, r5, r3, r4
  77 0056 1544     		add	r5, r5, r2
  78 0058 A30B     		lsrs	r3, r4, #14
  79 005a 43EA8543 		orr	r3, r3, r5, lsl #18
  80              	.LVL8:
 883:D:\design-mpu\source\ejemplos\BME680\bme680.c **** 	dev->calib.t_fine = (int32_t) (var2 + var3);
  81              		.loc 1 883 0
  82 005e 1844     		add	r0, r0, r3
  83              	.LVL9:
  84 0060 0863     		str	r0, [r1, #48]
 884:D:\design-mpu\source\ejemplos\BME680\bme680.c **** 	calc_temp = (int16_t) (((dev->calib.t_fine * 5) + 128) >> 8);
  85              		.loc 1 884 0
ARM GAS  C:\Users\adria\AppData\Local\Temp\ccOKprka.s 			page 18


  86 0062 00EB8000 		add	r0, r0, r0, lsl #2
  87 0066 8030     		adds	r0, r0, #128
  88              	.LVL10:
 885:D:\design-mpu\source\ejemplos\BME680\bme680.c **** 
 886:D:\design-mpu\source\ejemplos\BME680\bme680.c **** 	return calc_temp;
 887:D:\design-mpu\source\ejemplos\BME680\bme680.c **** }
  89              		.loc 1 887 0
  90 0068 40F30F20 		sbfx	r0, r0, #8, #16
  91              	.LVL11:
  92 006c F0BC     		pop	{r4, r5, r6, r7}
  93              		.cfi_restore 7
  94              		.cfi_restore 6
  95              		.cfi_restore 5
  96              		.cfi_restore 4
  97              		.cfi_def_cfa_offset 0
  98              	.LVL12:
  99 006e 7047     		bx	lr
 100              		.cfi_endproc
 101              	.LFE77:
 102              		.size	calc_temperature, .-calc_temperature
 103              		.section	.text.calc_pressure,"ax",%progbits
 104              		.align	2
 105              		.thumb
 106              		.thumb_func
 107              		.type	calc_pressure, %function
 108              	calc_pressure:
 109              	.LFB78:
 888:D:\design-mpu\source\ejemplos\BME680\bme680.c **** 
 889:D:\design-mpu\source\ejemplos\BME680\bme680.c **** /*!
 890:D:\design-mpu\source\ejemplos\BME680\bme680.c ****  * @brief This internal API is used to calculate the pressure value.
 891:D:\design-mpu\source\ejemplos\BME680\bme680.c ****  */
 892:D:\design-mpu\source\ejemplos\BME680\bme680.c **** static uint32_t calc_pressure(uint32_t pres_adc, const struct bme680_dev *dev)
 893:D:\design-mpu\source\ejemplos\BME680\bme680.c **** {
 110              		.loc 1 893 0
 111              		.cfi_startproc
 112              		@ args = 0, pretend = 0, frame = 0
 113              		@ frame_needed = 0, uses_anonymous_args = 0
 114              		@ link register save eliminated.
 115              	.LVL13:
 116 0000 30B4     		push	{r4, r5}
 117              		.cfi_def_cfa_offset 8
 118              		.cfi_offset 4, -8
 119              		.cfi_offset 5, -4
 894:D:\design-mpu\source\ejemplos\BME680\bme680.c **** 	int32_t var1;
 895:D:\design-mpu\source\ejemplos\BME680\bme680.c **** 	int32_t var2;
 896:D:\design-mpu\source\ejemplos\BME680\bme680.c **** 	int32_t var3;
 897:D:\design-mpu\source\ejemplos\BME680\bme680.c **** 	int32_t pressure_comp;
 898:D:\design-mpu\source\ejemplos\BME680\bme680.c **** 
 899:D:\design-mpu\source\ejemplos\BME680\bme680.c **** 	var1 = (((int32_t)dev->calib.t_fine) >> 1) - 64000;
 120              		.loc 1 899 0
 121 0002 0C6B     		ldr	r4, [r1, #48]
 122 0004 6410     		asrs	r4, r4, #1
 123 0006 A4F57A44 		sub	r4, r4, #64000
 124              	.LVL14:
 900:D:\design-mpu\source\ejemplos\BME680\bme680.c **** 	var2 = ((((var1 >> 2) * (var1 >> 2)) >> 11) *
 125              		.loc 1 900 0
 126 000a A510     		asrs	r5, r4, #2
ARM GAS  C:\Users\adria\AppData\Local\Temp\ccOKprka.s 			page 19


 127 000c 05FB05F5 		mul	r5, r5, r5
 128 0010 EA12     		asrs	r2, r5, #11
 901:D:\design-mpu\source\ejemplos\BME680\bme680.c **** 		(int32_t)dev->calib.par_p6) >> 2;
 129              		.loc 1 901 0
 130 0012 91F92630 		ldrsb	r3, [r1, #38]
 900:D:\design-mpu\source\ejemplos\BME680\bme680.c **** 	var2 = ((((var1 >> 2) * (var1 >> 2)) >> 11) *
 131              		.loc 1 900 0
 132 0016 03FB02F2 		mul	r2, r3, r2
 133              	.LVL15:
 902:D:\design-mpu\source\ejemplos\BME680\bme680.c **** 	var2 = var2 + ((var1 * (int32_t)dev->calib.par_p5) << 1);
 134              		.loc 1 902 0
 135 001a B1F92430 		ldrsh	r3, [r1, #36]
 136 001e 03FB04F3 		mul	r3, r3, r4
 137 0022 5B00     		lsls	r3, r3, #1
 138 0024 03EBA203 		add	r3, r3, r2, asr #2
 139              	.LVL16:
 903:D:\design-mpu\source\ejemplos\BME680\bme680.c **** 	var2 = (var2 >> 2) + ((int32_t)dev->calib.par_p4 << 16);
 140              		.loc 1 903 0
 141 0028 B1F92220 		ldrsh	r2, [r1, #34]
 142 002c 1204     		lsls	r2, r2, #16
 143 002e 02EBA303 		add	r3, r2, r3, asr #2
 144              	.LVL17:
 904:D:\design-mpu\source\ejemplos\BME680\bme680.c **** 	var1 = (((((var1 >> 2) * (var1 >> 2)) >> 13) *
 145              		.loc 1 904 0
 146 0032 6D13     		asrs	r5, r5, #13
 905:D:\design-mpu\source\ejemplos\BME680\bme680.c **** 		((int32_t)dev->calib.par_p3 << 5)) >> 3) +
 147              		.loc 1 905 0
 148 0034 91F92020 		ldrsb	r2, [r1, #32]
 149 0038 5201     		lsls	r2, r2, #5
 904:D:\design-mpu\source\ejemplos\BME680\bme680.c **** 	var1 = (((((var1 >> 2) * (var1 >> 2)) >> 13) *
 150              		.loc 1 904 0
 151 003a 02FB05F2 		mul	r2, r2, r5
 906:D:\design-mpu\source\ejemplos\BME680\bme680.c **** 		(((int32_t)dev->calib.par_p2 * var1) >> 1);
 152              		.loc 1 906 0
 153 003e B1F91E50 		ldrsh	r5, [r1, #30]
 154 0042 05FB04F4 		mul	r4, r5, r4
 155              	.LVL18:
 156 0046 6410     		asrs	r4, r4, #1
 904:D:\design-mpu\source\ejemplos\BME680\bme680.c **** 	var1 = (((((var1 >> 2) * (var1 >> 2)) >> 13) *
 157              		.loc 1 904 0
 158 0048 04EBE202 		add	r2, r4, r2, asr #3
 159              	.LVL19:
 907:D:\design-mpu\source\ejemplos\BME680\bme680.c **** 	var1 = var1 >> 18;
 160              		.loc 1 907 0
 161 004c 9214     		asrs	r2, r2, #18
 162              	.LVL20:
 908:D:\design-mpu\source\ejemplos\BME680\bme680.c **** 	var1 = ((32768 + var1) * (int32_t)dev->calib.par_p1) >> 15;
 163              		.loc 1 908 0
 164 004e 02F50042 		add	r2, r2, #32768
 165              	.LVL21:
 166 0052 8C8B     		ldrh	r4, [r1, #28]
 167 0054 04FB02F2 		mul	r2, r4, r2
 168              	.LVL22:
 169 0058 D213     		asrs	r2, r2, #15
 170              	.LVL23:
 909:D:\design-mpu\source\ejemplos\BME680\bme680.c **** 	pressure_comp = 1048576 - pres_adc;
 171              		.loc 1 909 0
ARM GAS  C:\Users\adria\AppData\Local\Temp\ccOKprka.s 			page 20


 172 005a C0F58010 		rsb	r0, r0, #1048576
 173              	.LVL24:
 910:D:\design-mpu\source\ejemplos\BME680\bme680.c **** 	pressure_comp = (int32_t)((pressure_comp - (var2 >> 12)) * ((uint32_t)3125));
 174              		.loc 1 910 0
 175 005e A0EB2333 		sub	r3, r0, r3, asr #12
 176              	.LVL25:
 177 0062 40F63544 		movw	r4, #3125
 178 0066 04FB03F0 		mul	r0, r4, r3
 179              	.LVL26:
 911:D:\design-mpu\source\ejemplos\BME680\bme680.c **** 	if (pressure_comp >= BME680_MAX_OVERFLOW_VAL)
 180              		.loc 1 911 0
 181 006a B0F1804F 		cmp	r0, #1073741824
 182 006e 03DB     		blt	.L4
 912:D:\design-mpu\source\ejemplos\BME680\bme680.c **** 		pressure_comp = ((pressure_comp / var1) << 1);
 183              		.loc 1 912 0
 184 0070 90FBF2F3 		sdiv	r3, r0, r2
 185 0074 5B00     		lsls	r3, r3, #1
 186              	.LVL27:
 187 0076 02E0     		b	.L5
 188              	.LVL28:
 189              	.L4:
 913:D:\design-mpu\source\ejemplos\BME680\bme680.c **** 	else
 914:D:\design-mpu\source\ejemplos\BME680\bme680.c **** 		pressure_comp = ((pressure_comp << 1) / var1);
 190              		.loc 1 914 0
 191 0078 4000     		lsls	r0, r0, #1
 192              	.LVL29:
 193 007a 90FBF2F3 		sdiv	r3, r0, r2
 194              	.LVL30:
 195              	.L5:
 915:D:\design-mpu\source\ejemplos\BME680\bme680.c **** 	var1 = ((int32_t)dev->calib.par_p9 * (int32_t)(((pressure_comp >> 3) *
 196              		.loc 1 915 0
 197 007e B1F92A20 		ldrsh	r2, [r1, #42]
 198              	.LVL31:
 916:D:\design-mpu\source\ejemplos\BME680\bme680.c **** 		(pressure_comp >> 3)) >> 13)) >> 12;
 199              		.loc 1 916 0
 200 0082 DC10     		asrs	r4, r3, #3
 915:D:\design-mpu\source\ejemplos\BME680\bme680.c **** 	var1 = ((int32_t)dev->calib.par_p9 * (int32_t)(((pressure_comp >> 3) *
 201              		.loc 1 915 0
 202 0084 04FB04F4 		mul	r4, r4, r4
 203              		.loc 1 916 0
 204 0088 6413     		asrs	r4, r4, #13
 915:D:\design-mpu\source\ejemplos\BME680\bme680.c **** 	var1 = ((int32_t)dev->calib.par_p9 * (int32_t)(((pressure_comp >> 3) *
 205              		.loc 1 915 0
 206 008a 04FB02F5 		mul	r5, r4, r2
 207              	.LVL32:
 917:D:\design-mpu\source\ejemplos\BME680\bme680.c **** 	var2 = ((int32_t)(pressure_comp >> 2) *
 208              		.loc 1 917 0
 209 008e 9A10     		asrs	r2, r3, #2
 918:D:\design-mpu\source\ejemplos\BME680\bme680.c **** 		(int32_t)dev->calib.par_p8) >> 13;
 210              		.loc 1 918 0
 211 0090 B1F92840 		ldrsh	r4, [r1, #40]
 917:D:\design-mpu\source\ejemplos\BME680\bme680.c **** 	var2 = ((int32_t)(pressure_comp >> 2) *
 212              		.loc 1 917 0
 213 0094 04FB02F2 		mul	r2, r4, r2
 214 0098 5213     		asrs	r2, r2, #13
 215              	.LVL33:
 919:D:\design-mpu\source\ejemplos\BME680\bme680.c **** 	var3 = ((int32_t)(pressure_comp >> 8) * (int32_t)(pressure_comp >> 8) *
ARM GAS  C:\Users\adria\AppData\Local\Temp\ccOKprka.s 			page 21


 216              		.loc 1 919 0
 217 009a 1C12     		asrs	r4, r3, #8
 218 009c 04FB04F0 		mul	r0, r4, r4
 219 00a0 00FB04F0 		mul	r0, r0, r4
 920:D:\design-mpu\source\ejemplos\BME680\bme680.c **** 		(int32_t)(pressure_comp >> 8) *
 921:D:\design-mpu\source\ejemplos\BME680\bme680.c **** 		(int32_t)dev->calib.par_p10) >> 17;
 220              		.loc 1 921 0
 221 00a4 91F82C40 		ldrb	r4, [r1, #44]	@ zero_extendqisi2
 920:D:\design-mpu\source\ejemplos\BME680\bme680.c **** 		(int32_t)(pressure_comp >> 8) *
 222              		.loc 1 920 0
 223 00a8 04FB00F0 		mul	r0, r4, r0
 224              	.LVL34:
 922:D:\design-mpu\source\ejemplos\BME680\bme680.c **** 
 923:D:\design-mpu\source\ejemplos\BME680\bme680.c **** 	pressure_comp = (int32_t)(pressure_comp) + ((var1 + var2 + var3 +
 225              		.loc 1 923 0
 226 00ac 02EB2532 		add	r2, r2, r5, asr #12
 227              	.LVL35:
 228 00b0 02EB6040 		add	r0, r2, r0, asr #17
 229              	.LVL36:
 924:D:\design-mpu\source\ejemplos\BME680\bme680.c **** 		((int32_t)dev->calib.par_p7 << 7)) >> 4);
 230              		.loc 1 924 0
 231 00b4 91F92720 		ldrsb	r2, [r1, #39]
 923:D:\design-mpu\source\ejemplos\BME680\bme680.c **** 		((int32_t)dev->calib.par_p7 << 7)) >> 4);
 232              		.loc 1 923 0
 233 00b8 00EBC210 		add	r0, r0, r2, lsl #7
 234              	.LVL37:
 925:D:\design-mpu\source\ejemplos\BME680\bme680.c **** 
 926:D:\design-mpu\source\ejemplos\BME680\bme680.c **** 	return (uint32_t)pressure_comp;
 927:D:\design-mpu\source\ejemplos\BME680\bme680.c **** 
 928:D:\design-mpu\source\ejemplos\BME680\bme680.c **** }
 235              		.loc 1 928 0
 236 00bc 03EB2010 		add	r0, r3, r0, asr #4
 237              	.LVL38:
 238 00c0 30BC     		pop	{r4, r5}
 239              		.cfi_restore 5
 240              		.cfi_restore 4
 241              		.cfi_def_cfa_offset 0
 242              	.LVL39:
 243 00c2 7047     		bx	lr
 244              		.cfi_endproc
 245              	.LFE78:
 246              		.size	calc_pressure, .-calc_pressure
 247              		.section	.text.calc_humidity,"ax",%progbits
 248              		.align	2
 249              		.thumb
 250              		.thumb_func
 251              		.type	calc_humidity, %function
 252              	calc_humidity:
 253              	.LFB79:
 929:D:\design-mpu\source\ejemplos\BME680\bme680.c **** 
 930:D:\design-mpu\source\ejemplos\BME680\bme680.c **** /*!
 931:D:\design-mpu\source\ejemplos\BME680\bme680.c ****  * @brief This internal API is used to calculate the humidity value.
 932:D:\design-mpu\source\ejemplos\BME680\bme680.c ****  */
 933:D:\design-mpu\source\ejemplos\BME680\bme680.c **** static uint32_t calc_humidity(uint16_t hum_adc, const struct bme680_dev *dev)
 934:D:\design-mpu\source\ejemplos\BME680\bme680.c **** {
 254              		.loc 1 934 0
 255              		.cfi_startproc
ARM GAS  C:\Users\adria\AppData\Local\Temp\ccOKprka.s 			page 22


 256              		@ args = 0, pretend = 0, frame = 0
 257              		@ frame_needed = 0, uses_anonymous_args = 0
 258              	.LVL40:
 259 0000 F0B5     		push	{r4, r5, r6, r7, lr}
 260              		.cfi_def_cfa_offset 20
 261              		.cfi_offset 4, -20
 262              		.cfi_offset 5, -16
 263              		.cfi_offset 6, -12
 264              		.cfi_offset 7, -8
 265              		.cfi_offset 14, -4
 935:D:\design-mpu\source\ejemplos\BME680\bme680.c **** 	int32_t var1;
 936:D:\design-mpu\source\ejemplos\BME680\bme680.c **** 	int32_t var2;
 937:D:\design-mpu\source\ejemplos\BME680\bme680.c **** 	int32_t var3;
 938:D:\design-mpu\source\ejemplos\BME680\bme680.c **** 	int32_t var4;
 939:D:\design-mpu\source\ejemplos\BME680\bme680.c **** 	int32_t var5;
 940:D:\design-mpu\source\ejemplos\BME680\bme680.c **** 	int32_t var6;
 941:D:\design-mpu\source\ejemplos\BME680\bme680.c **** 	int32_t temp_scaled;
 942:D:\design-mpu\source\ejemplos\BME680\bme680.c **** 	int32_t calc_hum;
 943:D:\design-mpu\source\ejemplos\BME680\bme680.c **** 
 944:D:\design-mpu\source\ejemplos\BME680\bme680.c **** 	temp_scaled = (((int32_t) dev->calib.t_fine * 5) + 128) >> 8;
 266              		.loc 1 944 0
 267 0002 0C6B     		ldr	r4, [r1, #48]
 268 0004 04EB8404 		add	r4, r4, r4, lsl #2
 269 0008 8034     		adds	r4, r4, #128
 270 000a 2412     		asrs	r4, r4, #8
 271              	.LVL41:
 945:D:\design-mpu\source\ejemplos\BME680\bme680.c **** 	var1 = (int32_t) (hum_adc - ((int32_t) ((int32_t) dev->calib.par_h1 * 16)))
 272              		.loc 1 945 0
 273 000c 0B89     		ldrh	r3, [r1, #8]
 274 000e A0EB0310 		sub	r0, r0, r3, lsl #4
 275              	.LVL42:
 946:D:\design-mpu\source\ejemplos\BME680\bme680.c **** 		- (((temp_scaled * (int32_t) dev->calib.par_h3) / ((int32_t) 100)) >> 1);
 276              		.loc 1 946 0
 277 0012 91F90C30 		ldrsb	r3, [r1, #12]
 278 0016 03FB04F3 		mul	r3, r3, r4
 279 001a 284D     		ldr	r5, .L12
 280 001c 85FB0362 		smull	r6, r2, r5, r3
 281 0020 DB17     		asrs	r3, r3, #31
 282 0022 C3EB6213 		rsb	r3, r3, r2, asr #5
 945:D:\design-mpu\source\ejemplos\BME680\bme680.c **** 	var1 = (int32_t) (hum_adc - ((int32_t) ((int32_t) dev->calib.par_h1 * 16)))
 283              		.loc 1 945 0
 284 0026 A0EB6300 		sub	r0, r0, r3, asr #1
 285              	.LVL43:
 947:D:\design-mpu\source\ejemplos\BME680\bme680.c **** 	var2 = ((int32_t) dev->calib.par_h2
 286              		.loc 1 947 0
 287 002a 4E89     		ldrh	r6, [r1, #10]
 948:D:\design-mpu\source\ejemplos\BME680\bme680.c **** 		* (((temp_scaled * (int32_t) dev->calib.par_h4) / ((int32_t) 100))
 288              		.loc 1 948 0
 289 002c 91F90D20 		ldrsb	r2, [r1, #13]
 290 0030 02FB04F2 		mul	r2, r2, r4
 291 0034 85FB0273 		smull	r7, r3, r5, r2
 292 0038 D217     		asrs	r2, r2, #31
 293 003a C2EB6317 		rsb	r7, r2, r3, asr #5
 949:D:\design-mpu\source\ejemplos\BME680\bme680.c **** 			+ (((temp_scaled * ((temp_scaled * (int32_t) dev->calib.par_h5) / ((int32_t) 100))) >> 6)
 294              		.loc 1 949 0
 295 003e 91F90E20 		ldrsb	r2, [r1, #14]
 296 0042 02FB04F2 		mul	r2, r2, r4
ARM GAS  C:\Users\adria\AppData\Local\Temp\ccOKprka.s 			page 23


 297 0046 85FB02E3 		smull	lr, r3, r5, r2
 298 004a D217     		asrs	r2, r2, #31
 299 004c C2EB6312 		rsb	r2, r2, r3, asr #5
 300 0050 02FB04F3 		mul	r3, r2, r4
 301 0054 9A11     		asrs	r2, r3, #6
 950:D:\design-mpu\source\ejemplos\BME680\bme680.c **** 				/ ((int32_t) 100)) + (int32_t) (1 << 14))) >> 10;
 302              		.loc 1 950 0
 303 0056 85FB022E 		smull	r2, lr, r5, r2
 304 005a DA17     		asrs	r2, r3, #31
 305 005c C2EB6E12 		rsb	r2, r2, lr, asr #5
 949:D:\design-mpu\source\ejemplos\BME680\bme680.c **** 			+ (((temp_scaled * ((temp_scaled * (int32_t) dev->calib.par_h5) / ((int32_t) 100))) >> 6)
 306              		.loc 1 949 0
 307 0060 BB18     		adds	r3, r7, r2
 308              		.loc 1 950 0
 309 0062 03F58043 		add	r3, r3, #16384
 948:D:\design-mpu\source\ejemplos\BME680\bme680.c **** 		* (((temp_scaled * (int32_t) dev->calib.par_h4) / ((int32_t) 100))
 310              		.loc 1 948 0
 311 0066 03FB06F3 		mul	r3, r3, r6
 947:D:\design-mpu\source\ejemplos\BME680\bme680.c **** 		* (((temp_scaled * (int32_t) dev->calib.par_h4) / ((int32_t) 100))
 312              		.loc 1 947 0
 313 006a 9B12     		asrs	r3, r3, #10
 314              	.LVL44:
 951:D:\design-mpu\source\ejemplos\BME680\bme680.c **** 	var3 = var1 * var2;
 315              		.loc 1 951 0
 316 006c 03FB00F0 		mul	r0, r3, r0
 317              	.LVL45:
 952:D:\design-mpu\source\ejemplos\BME680\bme680.c **** 	var4 = (int32_t) dev->calib.par_h6 << 7;
 318              		.loc 1 952 0
 319 0070 CA7B     		ldrb	r2, [r1, #15]	@ zero_extendqisi2
 320              	.LVL46:
 953:D:\design-mpu\source\ejemplos\BME680\bme680.c **** 	var4 = ((var4) + ((temp_scaled * (int32_t) dev->calib.par_h7) / ((int32_t) 100))) >> 4;
 321              		.loc 1 953 0
 322 0072 91F91030 		ldrsb	r3, [r1, #16]
 323              	.LVL47:
 324 0076 03FB04F4 		mul	r4, r3, r4
 325              	.LVL48:
 326 007a 85FB0435 		smull	r3, r5, r5, r4
 327              	.LVL49:
 328 007e E317     		asrs	r3, r4, #31
 329 0080 C3EB6514 		rsb	r4, r3, r5, asr #5
 330 0084 04EBC214 		add	r4, r4, r2, lsl #7
 331 0088 2411     		asrs	r4, r4, #4
 332              	.LVL50:
 954:D:\design-mpu\source\ejemplos\BME680\bme680.c **** 	var5 = ((var3 >> 14) * (var3 >> 14)) >> 10;
 333              		.loc 1 954 0
 334 008a 8313     		asrs	r3, r0, #14
 335 008c 03FB03F3 		mul	r3, r3, r3
 336 0090 9B12     		asrs	r3, r3, #10
 337              	.LVL51:
 955:D:\design-mpu\source\ejemplos\BME680\bme680.c **** 	var6 = (var4 * var5) >> 1;
 338              		.loc 1 955 0
 339 0092 03FB04F4 		mul	r4, r3, r4
 340              	.LVL52:
 956:D:\design-mpu\source\ejemplos\BME680\bme680.c **** 	calc_hum = (((var3 + var6) >> 10) * ((int32_t) 1000)) >> 12;
 341              		.loc 1 956 0
 342 0096 00EB6400 		add	r0, r0, r4, asr #1
 343              	.LVL53:
ARM GAS  C:\Users\adria\AppData\Local\Temp\ccOKprka.s 			page 24


 344 009a 8012     		asrs	r0, r0, #10
 345 009c 4FF47A72 		mov	r2, #1000
 346              	.LVL54:
 347 00a0 02FB00F0 		mul	r0, r2, r0
 348 00a4 0013     		asrs	r0, r0, #12
 349              	.LVL55:
 957:D:\design-mpu\source\ejemplos\BME680\bme680.c **** 
 958:D:\design-mpu\source\ejemplos\BME680\bme680.c **** 	if (calc_hum > 100000) /* Cap at 100%rH */
 350              		.loc 1 958 0
 351 00a6 064B     		ldr	r3, .L12+4
 352              	.LVL56:
 353 00a8 9842     		cmp	r0, r3
 354 00aa 02DC     		bgt	.L9
 959:D:\design-mpu\source\ejemplos\BME680\bme680.c **** 		calc_hum = 100000;
 960:D:\design-mpu\source\ejemplos\BME680\bme680.c **** 	else if (calc_hum < 0)
 355              		.loc 1 960 0
 356 00ac 0028     		cmp	r0, #0
 357 00ae 03DA     		bge	.L8
 358 00b0 01E0     		b	.L10
 359              	.L9:
 959:D:\design-mpu\source\ejemplos\BME680\bme680.c **** 		calc_hum = 100000;
 360              		.loc 1 959 0
 361 00b2 0348     		ldr	r0, .L12+4
 362              	.LVL57:
 363 00b4 F0BD     		pop	{r4, r5, r6, r7, pc}
 364              	.LVL58:
 365              	.L10:
 961:D:\design-mpu\source\ejemplos\BME680\bme680.c **** 		calc_hum = 0;
 366              		.loc 1 961 0
 367 00b6 0020     		movs	r0, #0
 368              	.LVL59:
 369              	.L8:
 962:D:\design-mpu\source\ejemplos\BME680\bme680.c **** 
 963:D:\design-mpu\source\ejemplos\BME680\bme680.c **** 	return (uint32_t) calc_hum;
 964:D:\design-mpu\source\ejemplos\BME680\bme680.c **** }
 370              		.loc 1 964 0
 371 00b8 F0BD     		pop	{r4, r5, r6, r7, pc}
 372              	.LVL60:
 373              	.L13:
 374 00ba 00BF     		.align	2
 375              	.L12:
 376 00bc 1F85EB51 		.word	1374389535
 377 00c0 A0860100 		.word	100000
 378              		.cfi_endproc
 379              	.LFE79:
 380              		.size	calc_humidity, .-calc_humidity
 381              		.global	__aeabi_ldivmod
 382              		.section	.text.calc_gas_resistance,"ax",%progbits
 383              		.align	2
 384              		.thumb
 385              		.thumb_func
 386              		.type	calc_gas_resistance, %function
 387              	calc_gas_resistance:
 388              	.LFB80:
 965:D:\design-mpu\source\ejemplos\BME680\bme680.c **** 
 966:D:\design-mpu\source\ejemplos\BME680\bme680.c **** /*!
 967:D:\design-mpu\source\ejemplos\BME680\bme680.c ****  * @brief This internal API is used to calculate the Gas Resistance value.
ARM GAS  C:\Users\adria\AppData\Local\Temp\ccOKprka.s 			page 25


 968:D:\design-mpu\source\ejemplos\BME680\bme680.c ****  */
 969:D:\design-mpu\source\ejemplos\BME680\bme680.c **** static uint32_t calc_gas_resistance(uint16_t gas_res_adc, uint8_t gas_range, const struct bme680_de
 970:D:\design-mpu\source\ejemplos\BME680\bme680.c **** {
 389              		.loc 1 970 0
 390              		.cfi_startproc
 391              		@ args = 0, pretend = 0, frame = 128
 392              		@ frame_needed = 0, uses_anonymous_args = 0
 393              	.LVL61:
 394 0000 F0B5     		push	{r4, r5, r6, r7, lr}
 395              		.cfi_def_cfa_offset 20
 396              		.cfi_offset 4, -20
 397              		.cfi_offset 5, -16
 398              		.cfi_offset 6, -12
 399              		.cfi_offset 7, -8
 400              		.cfi_offset 14, -4
 401 0002 A1B0     		sub	sp, sp, #132
 402              		.cfi_def_cfa_offset 152
 403 0004 0746     		mov	r7, r0
 404 0006 8E46     		mov	lr, r1
 405 0008 9446     		mov	ip, r2
 971:D:\design-mpu\source\ejemplos\BME680\bme680.c **** 	int64_t var1;
 972:D:\design-mpu\source\ejemplos\BME680\bme680.c **** 	uint64_t var2;
 973:D:\design-mpu\source\ejemplos\BME680\bme680.c **** 	int64_t var3;
 974:D:\design-mpu\source\ejemplos\BME680\bme680.c **** 	uint32_t calc_gas_res;
 975:D:\design-mpu\source\ejemplos\BME680\bme680.c **** 	/**Look up table 1 for the possible gas range values */
 976:D:\design-mpu\source\ejemplos\BME680\bme680.c **** 	uint32_t lookupTable1[16] = { UINT32_C(2147483647), UINT32_C(2147483647), UINT32_C(2147483647), UI
 406              		.loc 1 976 0
 407 000a 274C     		ldr	r4, .L16
 408 000c 10AD     		add	r5, sp, #64
 409 000e 2646     		mov	r6, r4
 410 0010 0FCE     		ldmia	r6!, {r0, r1, r2, r3}
 411              	.LVL62:
 412 0012 0FC5     		stmia	r5!, {r0, r1, r2, r3}
 413 0014 0FCE     		ldmia	r6!, {r0, r1, r2, r3}
 414 0016 0FC5     		stmia	r5!, {r0, r1, r2, r3}
 415 0018 0FCE     		ldmia	r6!, {r0, r1, r2, r3}
 416 001a 0FC5     		stmia	r5!, {r0, r1, r2, r3}
 417 001c 96E80F00 		ldmia	r6, {r0, r1, r2, r3}
 418 0020 85E80F00 		stmia	r5, {r0, r1, r2, r3}
 977:D:\design-mpu\source\ejemplos\BME680\bme680.c **** 		UINT32_C(2147483647), UINT32_C(2126008810), UINT32_C(2147483647), UINT32_C(2130303777),
 978:D:\design-mpu\source\ejemplos\BME680\bme680.c **** 		UINT32_C(2147483647), UINT32_C(2147483647), UINT32_C(2143188679), UINT32_C(2136746228),
 979:D:\design-mpu\source\ejemplos\BME680\bme680.c **** 		UINT32_C(2147483647), UINT32_C(2126008810), UINT32_C(2147483647), UINT32_C(2147483647) };
 980:D:\design-mpu\source\ejemplos\BME680\bme680.c **** 	/**Look up table 2 for the possible gas range values */
 981:D:\design-mpu\source\ejemplos\BME680\bme680.c **** 	uint32_t lookupTable2[16] = { UINT32_C(4096000000), UINT32_C(2048000000), UINT32_C(1024000000), UI
 419              		.loc 1 981 0
 420 0024 6D46     		mov	r5, sp
 421 0026 4034     		adds	r4, r4, #64
 422 0028 0FCC     		ldmia	r4!, {r0, r1, r2, r3}
 423 002a 0FC5     		stmia	r5!, {r0, r1, r2, r3}
 424 002c 0FCC     		ldmia	r4!, {r0, r1, r2, r3}
 425 002e 0FC5     		stmia	r5!, {r0, r1, r2, r3}
 426 0030 0FCC     		ldmia	r4!, {r0, r1, r2, r3}
 427 0032 0FC5     		stmia	r5!, {r0, r1, r2, r3}
 428 0034 94E80F00 		ldmia	r4, {r0, r1, r2, r3}
 429 0038 85E80F00 		stmia	r5, {r0, r1, r2, r3}
 982:D:\design-mpu\source\ejemplos\BME680\bme680.c **** 		UINT32_C(255744255), UINT32_C(127110228), UINT32_C(64000000), UINT32_C(32258064), UINT32_C(160160
 983:D:\design-mpu\source\ejemplos\BME680\bme680.c **** 		UINT32_C(8000000), UINT32_C(4000000), UINT32_C(2000000), UINT32_C(1000000), UINT32_C(500000),
ARM GAS  C:\Users\adria\AppData\Local\Temp\ccOKprka.s 			page 26


 984:D:\design-mpu\source\ejemplos\BME680\bme680.c **** 		UINT32_C(250000), UINT32_C(125000) };
 985:D:\design-mpu\source\ejemplos\BME680\bme680.c **** 
 986:D:\design-mpu\source\ejemplos\BME680\bme680.c **** 	var1 = (int64_t) ((1340 + (5 * (int64_t) dev->calib.range_sw_err)) *
 430              		.loc 1 986 0
 431 003c 9CF93620 		ldrsb	r2, [ip, #54]
 432 0040 D317     		asrs	r3, r2, #31
 433 0042 9C00     		lsls	r4, r3, #2
 434 0044 9000     		lsls	r0, r2, #2
 435 0046 44EA9271 		orr	r1, r4, r2, lsr #30
 436 004a 1218     		adds	r2, r2, r0
 437 004c 4B41     		adcs	r3, r3, r1
 438 004e 40F23C50 		movw	r0, #1340
 439 0052 0021     		movs	r1, #0
 440 0054 1218     		adds	r2, r2, r0
 441 0056 4B41     		adcs	r3, r3, r1
 987:D:\design-mpu\source\ejemplos\BME680\bme680.c **** 		((int64_t) lookupTable1[gas_range])) >> 16;
 442              		.loc 1 987 0
 443 0058 20A9     		add	r1, sp, #128
 444 005a 01EB8E0E 		add	lr, r1, lr, lsl #2
 445 005e 5EF8401C 		ldr	r1, [lr, #-64]
 986:D:\design-mpu\source\ejemplos\BME680\bme680.c **** 		((int64_t) lookupTable1[gas_range])) >> 16;
 446              		.loc 1 986 0
 447 0062 A2FB0145 		umull	r4, r5, r2, r1
 448 0066 01FB0355 		mla	r5, r1, r3, r5
 449 006a 200C     		lsrs	r0, r4, #16
 450 006c 40EA0540 		orr	r0, r0, r5, lsl #16
 451 0070 2914     		asrs	r1, r5, #16
 452              	.LVL63:
 988:D:\design-mpu\source\ejemplos\BME680\bme680.c **** 	var2 = (((int64_t) ((int64_t) gas_res_adc << 15) - (int64_t) (16777216)) + var1);
 453              		.loc 1 988 0
 454 0072 0023     		movs	r3, #0
 455 0074 FA03     		lsls	r2, r7, #15
 456 0076 12F17F42 		adds	r2, r2, #-16777216
 457 007a 43F1FF33 		adc	r3, r3, #-1
 458 007e 1218     		adds	r2, r2, r0
 459 0080 4B41     		adcs	r3, r3, r1
 460              	.LVL64:
 989:D:\design-mpu\source\ejemplos\BME680\bme680.c **** 	var3 = (((int64_t) lookupTable2[gas_range] * (int64_t) var1) >> 9);
 461              		.loc 1 989 0
 462 0082 5EF8806C 		ldr	r6, [lr, #-128]
 463 0086 A0FB0645 		umull	r4, r5, r0, r6
 464 008a 06FB0155 		mla	r5, r6, r1, r5
 465 008e 600A     		lsrs	r0, r4, #9
 466              	.LVL65:
 467 0090 40EAC550 		orr	r0, r0, r5, lsl #23
 468 0094 6912     		asrs	r1, r5, #9
 469              	.LVL66:
 990:D:\design-mpu\source\ejemplos\BME680\bme680.c **** 	calc_gas_res = (uint32_t) ((var3 + ((int64_t) var2 >> 1)) / (int64_t) var2);
 470              		.loc 1 990 0
 471 0096 5D10     		movs	r5, r3, asr #1
 472 0098 4FEA3204 		mov	r4, r2, rrx
 473 009c 0019     		adds	r0, r0, r4
 474              	.LVL67:
 475 009e 6941     		adcs	r1, r1, r5
 476 00a0 FFF7FEFF 		bl	__aeabi_ldivmod
 477              	.LVL68:
 991:D:\design-mpu\source\ejemplos\BME680\bme680.c **** 
ARM GAS  C:\Users\adria\AppData\Local\Temp\ccOKprka.s 			page 27


 992:D:\design-mpu\source\ejemplos\BME680\bme680.c **** 	return calc_gas_res;
 993:D:\design-mpu\source\ejemplos\BME680\bme680.c **** }
 478              		.loc 1 993 0
 479 00a4 21B0     		add	sp, sp, #132
 480              		.cfi_def_cfa_offset 20
 481              		@ sp needed
 482 00a6 F0BD     		pop	{r4, r5, r6, r7, pc}
 483              	.L17:
 484              		.align	2
 485              	.L16:
 486 00a8 00000000 		.word	.LANCHOR0
 487              		.cfi_endproc
 488              	.LFE80:
 489              		.size	calc_gas_resistance, .-calc_gas_resistance
 490              		.section	.text.calc_heater_res,"ax",%progbits
 491              		.align	2
 492              		.thumb
 493              		.thumb_func
 494              		.type	calc_heater_res, %function
 495              	calc_heater_res:
 496              	.LFB81:
 994:D:\design-mpu\source\ejemplos\BME680\bme680.c **** 
 995:D:\design-mpu\source\ejemplos\BME680\bme680.c **** /*!
 996:D:\design-mpu\source\ejemplos\BME680\bme680.c ****  * @brief This internal API is used to calculate the Heat Resistance value.
 997:D:\design-mpu\source\ejemplos\BME680\bme680.c ****  */
 998:D:\design-mpu\source\ejemplos\BME680\bme680.c **** static uint8_t calc_heater_res(uint16_t temp, const struct bme680_dev *dev)
 999:D:\design-mpu\source\ejemplos\BME680\bme680.c **** {
 497              		.loc 1 999 0
 498              		.cfi_startproc
 499              		@ args = 0, pretend = 0, frame = 0
 500              		@ frame_needed = 0, uses_anonymous_args = 0
 501              	.LVL69:
 502 0000 F0B5     		push	{r4, r5, r6, r7, lr}
 503              		.cfi_def_cfa_offset 20
 504              		.cfi_offset 4, -20
 505              		.cfi_offset 5, -16
 506              		.cfi_offset 6, -12
 507              		.cfi_offset 7, -8
 508              		.cfi_offset 14, -4
1000:D:\design-mpu\source\ejemplos\BME680\bme680.c **** 	uint8_t heatr_res;
1001:D:\design-mpu\source\ejemplos\BME680\bme680.c **** 	int32_t var1;
1002:D:\design-mpu\source\ejemplos\BME680\bme680.c **** 	int32_t var2;
1003:D:\design-mpu\source\ejemplos\BME680\bme680.c **** 	int32_t var3;
1004:D:\design-mpu\source\ejemplos\BME680\bme680.c **** 	int32_t var4;
1005:D:\design-mpu\source\ejemplos\BME680\bme680.c **** 	int32_t var5;
1006:D:\design-mpu\source\ejemplos\BME680\bme680.c **** 	int32_t heatr_res_x100;
1007:D:\design-mpu\source\ejemplos\BME680\bme680.c **** 
1008:D:\design-mpu\source\ejemplos\BME680\bme680.c **** 	if (temp > 400) /* Cap temperature */
 509              		.loc 1 1008 0
 510 0002 B0F5C87F 		cmp	r0, #400
 511 0006 01D9     		bls	.L19
1009:D:\design-mpu\source\ejemplos\BME680\bme680.c **** 		temp = 400;
 512              		.loc 1 1009 0
 513 0008 4FF4C870 		mov	r0, #400
 514              	.LVL70:
 515              	.L19:
1010:D:\design-mpu\source\ejemplos\BME680\bme680.c **** 
ARM GAS  C:\Users\adria\AppData\Local\Temp\ccOKprka.s 			page 28


1011:D:\design-mpu\source\ejemplos\BME680\bme680.c **** 	var1 = (((int32_t) dev->amb_temp * dev->calib.par_gh3) / 1000) * 256;
 516              		.loc 1 1011 0
 517 000c 91F90420 		ldrsb	r2, [r1, #4]
 518 0010 91F91450 		ldrsb	r5, [r1, #20]
 519 0014 02FB05F5 		mul	r5, r2, r5
 520 0018 224C     		ldr	r4, .L22
 521 001a 84FB0534 		smull	r3, r4, r4, r5
 522 001e ED17     		asrs	r5, r5, #31
 523 0020 C5EBA417 		rsb	r7, r5, r4, asr #6
 524              	.LVL71:
1012:D:\design-mpu\source\ejemplos\BME680\bme680.c **** 	var2 = (dev->calib.par_gh1 + 784) * (((((dev->calib.par_gh2 + 154009) * temp * 5) / 100) + 3276800
 525              		.loc 1 1012 0
 526 0024 91F91120 		ldrsb	r2, [r1, #17]
 527 0028 02F5447E 		add	lr, r2, #784
 528 002c B1F91250 		ldrsh	r5, [r1, #18]
 529 0030 05F51633 		add	r3, r5, #153600
 530 0034 03F29913 		addw	r3, r3, #409
 531 0038 03FB00F3 		mul	r3, r3, r0
 532 003c 03EB8303 		add	r3, r3, r3, lsl #2
 533 0040 194E     		ldr	r6, .L22+4
 534 0042 86FB0324 		smull	r2, r4, r6, r3
 535 0046 DB17     		asrs	r3, r3, #31
 536 0048 C3EB6414 		rsb	r4, r3, r4, asr #5
 537 004c 04F54814 		add	r4, r4, #3276800
 538 0050 164A     		ldr	r2, .L22+8
 539 0052 82FB0432 		smull	r3, r2, r2, r4
 540 0056 E517     		asrs	r5, r4, #31
 541 0058 C5EBA205 		rsb	r5, r5, r2, asr #2
 542 005c 05FB0EF2 		mul	r2, r5, lr
 543              	.LVL72:
1013:D:\design-mpu\source\ejemplos\BME680\bme680.c **** 	var3 = var1 + (var2 / 2);
 544              		.loc 1 1013 0
 545 0060 02EBD272 		add	r2, r2, r2, lsr #31
 546              	.LVL73:
 547 0064 5210     		asrs	r2, r2, #1
 548 0066 02EB0724 		add	r4, r2, r7, lsl #8
 549              	.LVL74:
1014:D:\design-mpu\source\ejemplos\BME680\bme680.c **** 	var4 = (var3 / (dev->calib.res_heat_range + 4));
 550              		.loc 1 1014 0
 551 006a 91F83430 		ldrb	r3, [r1, #52]	@ zero_extendqisi2
 552 006e 0433     		adds	r3, r3, #4
 553 0070 94FBF3F2 		sdiv	r2, r4, r3
 554              	.LVL75:
1015:D:\design-mpu\source\ejemplos\BME680\bme680.c **** 	var5 = (131 * dev->calib.res_heat_val) + 65536;
 555              		.loc 1 1015 0
 556 0074 91F93530 		ldrsb	r3, [r1, #53]
 557 0078 03EB8311 		add	r1, r3, r3, lsl #6
 558              	.LVL76:
 559 007c 03EB4103 		add	r3, r3, r1, lsl #1
 560 0080 03F58033 		add	r3, r3, #65536
 561              	.LVL77:
1016:D:\design-mpu\source\ejemplos\BME680\bme680.c **** 	heatr_res_x100 = (int32_t) (((var4 / var5) - 250) * 34);
 562              		.loc 1 1016 0
 563 0084 92FBF3F3 		sdiv	r3, r2, r3
 564              	.LVL78:
 565 0088 FA3B     		subs	r3, r3, #250
 566 008a 03EB0313 		add	r3, r3, r3, lsl #4
ARM GAS  C:\Users\adria\AppData\Local\Temp\ccOKprka.s 			page 29


 567 008e 5800     		lsls	r0, r3, #1
 568              	.LVL79:
1017:D:\design-mpu\source\ejemplos\BME680\bme680.c **** 	heatr_res = (uint8_t) ((heatr_res_x100 + 50) / 100);
 569              		.loc 1 1017 0
 570 0090 00F13203 		add	r3, r0, #50
 571 0094 86FB0320 		smull	r2, r0, r6, r3
 572              	.LVL80:
 573 0098 DB17     		asrs	r3, r3, #31
 574              	.LVL81:
 575 009a C3EB6010 		rsb	r0, r3, r0, asr #5
 576              	.LVL82:
1018:D:\design-mpu\source\ejemplos\BME680\bme680.c **** 
1019:D:\design-mpu\source\ejemplos\BME680\bme680.c **** 	return heatr_res;
1020:D:\design-mpu\source\ejemplos\BME680\bme680.c **** }
 577              		.loc 1 1020 0
 578 009e C0B2     		uxtb	r0, r0
 579 00a0 F0BD     		pop	{r4, r5, r6, r7, pc}
 580              	.LVL83:
 581              	.L23:
 582 00a2 00BF     		.align	2
 583              	.L22:
 584 00a4 D34D6210 		.word	274877907
 585 00a8 1F85EB51 		.word	1374389535
 586 00ac 67666666 		.word	1717986919
 587              		.cfi_endproc
 588              	.LFE81:
 589              		.size	calc_heater_res, .-calc_heater_res
 590              		.section	.text.calc_heater_dur,"ax",%progbits
 591              		.align	2
 592              		.thumb
 593              		.thumb_func
 594              		.type	calc_heater_dur, %function
 595              	calc_heater_dur:
 596              	.LFB82:
1021:D:\design-mpu\source\ejemplos\BME680\bme680.c **** 
1022:D:\design-mpu\source\ejemplos\BME680\bme680.c **** #else
1023:D:\design-mpu\source\ejemplos\BME680\bme680.c **** 
1024:D:\design-mpu\source\ejemplos\BME680\bme680.c **** 
1025:D:\design-mpu\source\ejemplos\BME680\bme680.c **** /*!
1026:D:\design-mpu\source\ejemplos\BME680\bme680.c ****  * @brief This internal API is used to calculate the
1027:D:\design-mpu\source\ejemplos\BME680\bme680.c ****  * temperature value in float format
1028:D:\design-mpu\source\ejemplos\BME680\bme680.c ****  */
1029:D:\design-mpu\source\ejemplos\BME680\bme680.c **** static float calc_temperature(uint32_t temp_adc, struct bme680_dev *dev)
1030:D:\design-mpu\source\ejemplos\BME680\bme680.c **** {
1031:D:\design-mpu\source\ejemplos\BME680\bme680.c **** 	float var1 = 0;
1032:D:\design-mpu\source\ejemplos\BME680\bme680.c **** 	float var2 = 0;
1033:D:\design-mpu\source\ejemplos\BME680\bme680.c **** 	float calc_temp = 0;
1034:D:\design-mpu\source\ejemplos\BME680\bme680.c **** 
1035:D:\design-mpu\source\ejemplos\BME680\bme680.c **** 	/* calculate var1 data */
1036:D:\design-mpu\source\ejemplos\BME680\bme680.c **** 	var1  = ((((float)temp_adc / 16384.0f) - ((float)dev->calib.par_t1 / 1024.0f))
1037:D:\design-mpu\source\ejemplos\BME680\bme680.c **** 			* ((float)dev->calib.par_t2));
1038:D:\design-mpu\source\ejemplos\BME680\bme680.c **** 
1039:D:\design-mpu\source\ejemplos\BME680\bme680.c **** 	/* calculate var2 data */
1040:D:\design-mpu\source\ejemplos\BME680\bme680.c **** 	var2  = (((((float)temp_adc / 131072.0f) - ((float)dev->calib.par_t1 / 8192.0f)) *
1041:D:\design-mpu\source\ejemplos\BME680\bme680.c **** 		(((float)temp_adc / 131072.0f) - ((float)dev->calib.par_t1 / 8192.0f))) *
1042:D:\design-mpu\source\ejemplos\BME680\bme680.c **** 		((float)dev->calib.par_t3 * 16.0f));
1043:D:\design-mpu\source\ejemplos\BME680\bme680.c **** 
ARM GAS  C:\Users\adria\AppData\Local\Temp\ccOKprka.s 			page 30


1044:D:\design-mpu\source\ejemplos\BME680\bme680.c **** 	/* t_fine value*/
1045:D:\design-mpu\source\ejemplos\BME680\bme680.c **** 	dev->calib.t_fine = (var1 + var2);
1046:D:\design-mpu\source\ejemplos\BME680\bme680.c **** 
1047:D:\design-mpu\source\ejemplos\BME680\bme680.c **** 	/* compensated temperature data*/
1048:D:\design-mpu\source\ejemplos\BME680\bme680.c **** 	calc_temp  = ((dev->calib.t_fine) / 5120.0f);
1049:D:\design-mpu\source\ejemplos\BME680\bme680.c **** 
1050:D:\design-mpu\source\ejemplos\BME680\bme680.c **** 	return calc_temp;
1051:D:\design-mpu\source\ejemplos\BME680\bme680.c **** }
1052:D:\design-mpu\source\ejemplos\BME680\bme680.c **** 
1053:D:\design-mpu\source\ejemplos\BME680\bme680.c **** /*!
1054:D:\design-mpu\source\ejemplos\BME680\bme680.c ****  * @brief This internal API is used to calculate the
1055:D:\design-mpu\source\ejemplos\BME680\bme680.c ****  * pressure value in float format
1056:D:\design-mpu\source\ejemplos\BME680\bme680.c ****  */
1057:D:\design-mpu\source\ejemplos\BME680\bme680.c **** static float calc_pressure(uint32_t pres_adc, const struct bme680_dev *dev)
1058:D:\design-mpu\source\ejemplos\BME680\bme680.c **** {
1059:D:\design-mpu\source\ejemplos\BME680\bme680.c **** 	float var1 = 0;
1060:D:\design-mpu\source\ejemplos\BME680\bme680.c **** 	float var2 = 0;
1061:D:\design-mpu\source\ejemplos\BME680\bme680.c **** 	float var3 = 0;
1062:D:\design-mpu\source\ejemplos\BME680\bme680.c **** 	float calc_pres = 0;
1063:D:\design-mpu\source\ejemplos\BME680\bme680.c **** 
1064:D:\design-mpu\source\ejemplos\BME680\bme680.c **** 	var1 = (((float)dev->calib.t_fine / 2.0f) - 64000.0f);
1065:D:\design-mpu\source\ejemplos\BME680\bme680.c **** 	var2 = var1 * var1 * (((float)dev->calib.par_p6) / (131072.0f));
1066:D:\design-mpu\source\ejemplos\BME680\bme680.c **** 	var2 = var2 + (var1 * ((float)dev->calib.par_p5) * 2.0f);
1067:D:\design-mpu\source\ejemplos\BME680\bme680.c **** 	var2 = (var2 / 4.0f) + (((float)dev->calib.par_p4) * 65536.0f);
1068:D:\design-mpu\source\ejemplos\BME680\bme680.c **** 	var1 = (((((float)dev->calib.par_p3 * var1 * var1) / 16384.0f)
1069:D:\design-mpu\source\ejemplos\BME680\bme680.c **** 		+ ((float)dev->calib.par_p2 * var1)) / 524288.0f);
1070:D:\design-mpu\source\ejemplos\BME680\bme680.c **** 	var1 = ((1.0f + (var1 / 32768.0f)) * ((float)dev->calib.par_p1));
1071:D:\design-mpu\source\ejemplos\BME680\bme680.c **** 	calc_pres = (1048576.0f - ((float)pres_adc));
1072:D:\design-mpu\source\ejemplos\BME680\bme680.c **** 
1073:D:\design-mpu\source\ejemplos\BME680\bme680.c **** 	/* Avoid exception caused by division by zero */
1074:D:\design-mpu\source\ejemplos\BME680\bme680.c **** 	if ((int)var1 != 0) {
1075:D:\design-mpu\source\ejemplos\BME680\bme680.c **** 		calc_pres = (((calc_pres - (var2 / 4096.0f)) * 6250.0f) / var1);
1076:D:\design-mpu\source\ejemplos\BME680\bme680.c **** 		var1 = (((float)dev->calib.par_p9) * calc_pres * calc_pres) / 2147483648.0f;
1077:D:\design-mpu\source\ejemplos\BME680\bme680.c **** 		var2 = calc_pres * (((float)dev->calib.par_p8) / 32768.0f);
1078:D:\design-mpu\source\ejemplos\BME680\bme680.c **** 		var3 = ((calc_pres / 256.0f) * (calc_pres / 256.0f) * (calc_pres / 256.0f)
1079:D:\design-mpu\source\ejemplos\BME680\bme680.c **** 			* (dev->calib.par_p10 / 131072.0f));
1080:D:\design-mpu\source\ejemplos\BME680\bme680.c **** 		calc_pres = (calc_pres + (var1 + var2 + var3 + ((float)dev->calib.par_p7 * 128.0f)) / 16.0f);
1081:D:\design-mpu\source\ejemplos\BME680\bme680.c **** 	} else {
1082:D:\design-mpu\source\ejemplos\BME680\bme680.c **** 		calc_pres = 0;
1083:D:\design-mpu\source\ejemplos\BME680\bme680.c **** 	}
1084:D:\design-mpu\source\ejemplos\BME680\bme680.c **** 
1085:D:\design-mpu\source\ejemplos\BME680\bme680.c **** 	return calc_pres;
1086:D:\design-mpu\source\ejemplos\BME680\bme680.c **** }
1087:D:\design-mpu\source\ejemplos\BME680\bme680.c **** 
1088:D:\design-mpu\source\ejemplos\BME680\bme680.c **** /*!
1089:D:\design-mpu\source\ejemplos\BME680\bme680.c ****  * @brief This internal API is used to calculate the
1090:D:\design-mpu\source\ejemplos\BME680\bme680.c ****  * humidity value in float format
1091:D:\design-mpu\source\ejemplos\BME680\bme680.c ****  */
1092:D:\design-mpu\source\ejemplos\BME680\bme680.c **** static float calc_humidity(uint16_t hum_adc, const struct bme680_dev *dev)
1093:D:\design-mpu\source\ejemplos\BME680\bme680.c **** {
1094:D:\design-mpu\source\ejemplos\BME680\bme680.c **** 	float calc_hum = 0;
1095:D:\design-mpu\source\ejemplos\BME680\bme680.c **** 	float var1 = 0;
1096:D:\design-mpu\source\ejemplos\BME680\bme680.c **** 	float var2 = 0;
1097:D:\design-mpu\source\ejemplos\BME680\bme680.c **** 	float var3 = 0;
1098:D:\design-mpu\source\ejemplos\BME680\bme680.c **** 	float var4 = 0;
1099:D:\design-mpu\source\ejemplos\BME680\bme680.c **** 	float temp_comp;
1100:D:\design-mpu\source\ejemplos\BME680\bme680.c **** 
ARM GAS  C:\Users\adria\AppData\Local\Temp\ccOKprka.s 			page 31


1101:D:\design-mpu\source\ejemplos\BME680\bme680.c **** 	/* compensated temperature data*/
1102:D:\design-mpu\source\ejemplos\BME680\bme680.c **** 	temp_comp  = ((dev->calib.t_fine) / 5120.0f);
1103:D:\design-mpu\source\ejemplos\BME680\bme680.c **** 
1104:D:\design-mpu\source\ejemplos\BME680\bme680.c **** 	var1 = (float)((float)hum_adc) - (((float)dev->calib.par_h1 * 16.0f) + (((float)dev->calib.par_h3 
1105:D:\design-mpu\source\ejemplos\BME680\bme680.c **** 		* temp_comp));
1106:D:\design-mpu\source\ejemplos\BME680\bme680.c **** 
1107:D:\design-mpu\source\ejemplos\BME680\bme680.c **** 	var2 = var1 * ((float)(((float) dev->calib.par_h2 / 262144.0f) * (1.0f + (((float)dev->calib.par_h
1108:D:\design-mpu\source\ejemplos\BME680\bme680.c **** 		* temp_comp) + (((float)dev->calib.par_h5 / 1048576.0f) * temp_comp * temp_comp))));
1109:D:\design-mpu\source\ejemplos\BME680\bme680.c **** 
1110:D:\design-mpu\source\ejemplos\BME680\bme680.c **** 	var3 = (float) dev->calib.par_h6 / 16384.0f;
1111:D:\design-mpu\source\ejemplos\BME680\bme680.c **** 
1112:D:\design-mpu\source\ejemplos\BME680\bme680.c **** 	var4 = (float) dev->calib.par_h7 / 2097152.0f;
1113:D:\design-mpu\source\ejemplos\BME680\bme680.c **** 
1114:D:\design-mpu\source\ejemplos\BME680\bme680.c **** 	calc_hum = var2 + ((var3 + (var4 * temp_comp)) * var2 * var2);
1115:D:\design-mpu\source\ejemplos\BME680\bme680.c **** 
1116:D:\design-mpu\source\ejemplos\BME680\bme680.c **** 	if (calc_hum > 100.0f)
1117:D:\design-mpu\source\ejemplos\BME680\bme680.c **** 		calc_hum = 100.0f;
1118:D:\design-mpu\source\ejemplos\BME680\bme680.c **** 	else if (calc_hum < 0.0f)
1119:D:\design-mpu\source\ejemplos\BME680\bme680.c **** 		calc_hum = 0.0f;
1120:D:\design-mpu\source\ejemplos\BME680\bme680.c **** 
1121:D:\design-mpu\source\ejemplos\BME680\bme680.c **** 	return calc_hum;
1122:D:\design-mpu\source\ejemplos\BME680\bme680.c **** }
1123:D:\design-mpu\source\ejemplos\BME680\bme680.c **** 
1124:D:\design-mpu\source\ejemplos\BME680\bme680.c **** /*!
1125:D:\design-mpu\source\ejemplos\BME680\bme680.c ****  * @brief This internal API is used to calculate the
1126:D:\design-mpu\source\ejemplos\BME680\bme680.c ****  * gas resistance value in float format
1127:D:\design-mpu\source\ejemplos\BME680\bme680.c ****  */
1128:D:\design-mpu\source\ejemplos\BME680\bme680.c **** static float calc_gas_resistance(uint16_t gas_res_adc, uint8_t gas_range, const struct bme680_dev *
1129:D:\design-mpu\source\ejemplos\BME680\bme680.c **** {
1130:D:\design-mpu\source\ejemplos\BME680\bme680.c **** 	float calc_gas_res;
1131:D:\design-mpu\source\ejemplos\BME680\bme680.c **** 	float var1 = 0;
1132:D:\design-mpu\source\ejemplos\BME680\bme680.c **** 	float var2 = 0;
1133:D:\design-mpu\source\ejemplos\BME680\bme680.c **** 	float var3 = 0;
1134:D:\design-mpu\source\ejemplos\BME680\bme680.c **** 
1135:D:\design-mpu\source\ejemplos\BME680\bme680.c **** 	const float lookup_k1_range[16] = {
1136:D:\design-mpu\source\ejemplos\BME680\bme680.c **** 	0.0, 0.0, 0.0, 0.0, 0.0, -1.0, 0.0, -0.8,
1137:D:\design-mpu\source\ejemplos\BME680\bme680.c **** 	0.0, 0.0, -0.2, -0.5, 0.0, -1.0, 0.0, 0.0};
1138:D:\design-mpu\source\ejemplos\BME680\bme680.c **** 	const float lookup_k2_range[16] = {
1139:D:\design-mpu\source\ejemplos\BME680\bme680.c **** 	0.0, 0.0, 0.0, 0.0, 0.1, 0.7, 0.0, -0.8,
1140:D:\design-mpu\source\ejemplos\BME680\bme680.c **** 	-0.1, 0.0, 0.0, 0.0, 0.0, 0.0, 0.0, 0.0};
1141:D:\design-mpu\source\ejemplos\BME680\bme680.c **** 
1142:D:\design-mpu\source\ejemplos\BME680\bme680.c **** 	var1 = (1340.0f + (5.0f * dev->calib.range_sw_err));
1143:D:\design-mpu\source\ejemplos\BME680\bme680.c **** 	var2 = (var1) * (1.0f + lookup_k1_range[gas_range]/100.0f);
1144:D:\design-mpu\source\ejemplos\BME680\bme680.c **** 	var3 = 1.0f + (lookup_k2_range[gas_range]/100.0f);
1145:D:\design-mpu\source\ejemplos\BME680\bme680.c **** 
1146:D:\design-mpu\source\ejemplos\BME680\bme680.c **** 	calc_gas_res = 1.0f / (float)(var3 * (0.000000125f) * (float)(1 << gas_range) * (((((float)gas_res
1147:D:\design-mpu\source\ejemplos\BME680\bme680.c **** 		- 512.0f)/var2) + 1.0f));
1148:D:\design-mpu\source\ejemplos\BME680\bme680.c **** 
1149:D:\design-mpu\source\ejemplos\BME680\bme680.c **** 	return calc_gas_res;
1150:D:\design-mpu\source\ejemplos\BME680\bme680.c **** }
1151:D:\design-mpu\source\ejemplos\BME680\bme680.c **** 
1152:D:\design-mpu\source\ejemplos\BME680\bme680.c **** /*!
1153:D:\design-mpu\source\ejemplos\BME680\bme680.c ****  * @brief This internal API is used to calculate the
1154:D:\design-mpu\source\ejemplos\BME680\bme680.c ****  * heater resistance value in float format
1155:D:\design-mpu\source\ejemplos\BME680\bme680.c ****  */
1156:D:\design-mpu\source\ejemplos\BME680\bme680.c **** static float calc_heater_res(uint16_t temp, const struct bme680_dev *dev)
1157:D:\design-mpu\source\ejemplos\BME680\bme680.c **** {
ARM GAS  C:\Users\adria\AppData\Local\Temp\ccOKprka.s 			page 32


1158:D:\design-mpu\source\ejemplos\BME680\bme680.c **** 	float var1 = 0;
1159:D:\design-mpu\source\ejemplos\BME680\bme680.c **** 	float var2 = 0;
1160:D:\design-mpu\source\ejemplos\BME680\bme680.c **** 	float var3 = 0;
1161:D:\design-mpu\source\ejemplos\BME680\bme680.c **** 	float var4 = 0;
1162:D:\design-mpu\source\ejemplos\BME680\bme680.c **** 	float var5 = 0;
1163:D:\design-mpu\source\ejemplos\BME680\bme680.c **** 	float res_heat = 0;
1164:D:\design-mpu\source\ejemplos\BME680\bme680.c **** 
1165:D:\design-mpu\source\ejemplos\BME680\bme680.c **** 	if (temp > 400) /* Cap temperature */
1166:D:\design-mpu\source\ejemplos\BME680\bme680.c **** 		temp = 400;
1167:D:\design-mpu\source\ejemplos\BME680\bme680.c **** 
1168:D:\design-mpu\source\ejemplos\BME680\bme680.c **** 	var1 = (((float)dev->calib.par_gh1 / (16.0f)) + 49.0f);
1169:D:\design-mpu\source\ejemplos\BME680\bme680.c **** 	var2 = ((((float)dev->calib.par_gh2 / (32768.0f)) * (0.0005f)) + 0.00235f);
1170:D:\design-mpu\source\ejemplos\BME680\bme680.c **** 	var3 = ((float)dev->calib.par_gh3 / (1024.0f));
1171:D:\design-mpu\source\ejemplos\BME680\bme680.c **** 	var4 = (var1 * (1.0f + (var2 * (float)temp)));
1172:D:\design-mpu\source\ejemplos\BME680\bme680.c **** 	var5 = (var4 + (var3 * (float)dev->amb_temp));
1173:D:\design-mpu\source\ejemplos\BME680\bme680.c **** 	res_heat = (uint8_t)(3.4f * ((var5 * (4 / (4 + (float)dev->calib.res_heat_range)) *
1174:D:\design-mpu\source\ejemplos\BME680\bme680.c **** 		(1/(1 + ((float) dev->calib.res_heat_val * 0.002f)))) - 25));
1175:D:\design-mpu\source\ejemplos\BME680\bme680.c **** 
1176:D:\design-mpu\source\ejemplos\BME680\bme680.c **** 	return res_heat;
1177:D:\design-mpu\source\ejemplos\BME680\bme680.c **** }
1178:D:\design-mpu\source\ejemplos\BME680\bme680.c **** 
1179:D:\design-mpu\source\ejemplos\BME680\bme680.c **** #endif
1180:D:\design-mpu\source\ejemplos\BME680\bme680.c **** 
1181:D:\design-mpu\source\ejemplos\BME680\bme680.c **** /*!
1182:D:\design-mpu\source\ejemplos\BME680\bme680.c ****  * @brief This internal API is used to calculate the Heat duration value.
1183:D:\design-mpu\source\ejemplos\BME680\bme680.c ****  */
1184:D:\design-mpu\source\ejemplos\BME680\bme680.c **** static uint8_t calc_heater_dur(uint16_t dur)
1185:D:\design-mpu\source\ejemplos\BME680\bme680.c **** {
 597              		.loc 1 1185 0
 598              		.cfi_startproc
 599              		@ args = 0, pretend = 0, frame = 0
 600              		@ frame_needed = 0, uses_anonymous_args = 0
 601              		@ link register save eliminated.
 602              	.LVL84:
1186:D:\design-mpu\source\ejemplos\BME680\bme680.c **** 	uint8_t factor = 0;
1187:D:\design-mpu\source\ejemplos\BME680\bme680.c **** 	uint8_t durval;
1188:D:\design-mpu\source\ejemplos\BME680\bme680.c **** 
1189:D:\design-mpu\source\ejemplos\BME680\bme680.c **** 	if (dur >= 0xfc0) {
 603              		.loc 1 1189 0
 604 0000 B0F57C6F 		cmp	r0, #4032
 605 0004 0CD2     		bcs	.L28
 606 0006 0023     		movs	r3, #0
 607 0008 02E0     		b	.L26
 608              	.LVL85:
 609              	.L27:
1190:D:\design-mpu\source\ejemplos\BME680\bme680.c **** 		durval = 0xff; /* Max duration*/
1191:D:\design-mpu\source\ejemplos\BME680\bme680.c **** 	} else {
1192:D:\design-mpu\source\ejemplos\BME680\bme680.c **** 		while (dur > 0x3F) {
1193:D:\design-mpu\source\ejemplos\BME680\bme680.c **** 			dur = dur / 4;
 610              		.loc 1 1193 0
 611 000a 8008     		lsrs	r0, r0, #2
 612              	.LVL86:
1194:D:\design-mpu\source\ejemplos\BME680\bme680.c **** 			factor += 1;
 613              		.loc 1 1194 0
 614 000c 0133     		adds	r3, r3, #1
 615              	.LVL87:
 616 000e DBB2     		uxtb	r3, r3
ARM GAS  C:\Users\adria\AppData\Local\Temp\ccOKprka.s 			page 33


 617              	.LVL88:
 618              	.L26:
1192:D:\design-mpu\source\ejemplos\BME680\bme680.c **** 			dur = dur / 4;
 619              		.loc 1 1192 0
 620 0010 3F28     		cmp	r0, #63
 621 0012 FAD8     		bhi	.L27
1195:D:\design-mpu\source\ejemplos\BME680\bme680.c **** 		}
1196:D:\design-mpu\source\ejemplos\BME680\bme680.c **** 		durval = (uint8_t) (dur + (factor * 64));
 622              		.loc 1 1196 0
 623 0014 C0B2     		uxtb	r0, r0
 624              	.LVL89:
 625 0016 9B01     		lsls	r3, r3, #6
 626              	.LVL90:
 627 0018 DBB2     		uxtb	r3, r3
 628 001a 1844     		add	r0, r0, r3
 629 001c C0B2     		uxtb	r0, r0
 630              	.LVL91:
 631 001e 7047     		bx	lr
 632              	.LVL92:
 633              	.L28:
1190:D:\design-mpu\source\ejemplos\BME680\bme680.c **** 	} else {
 634              		.loc 1 1190 0
 635 0020 FF20     		movs	r0, #255
 636              	.LVL93:
1197:D:\design-mpu\source\ejemplos\BME680\bme680.c **** 	}
1198:D:\design-mpu\source\ejemplos\BME680\bme680.c **** 
1199:D:\design-mpu\source\ejemplos\BME680\bme680.c **** 	return durval;
1200:D:\design-mpu\source\ejemplos\BME680\bme680.c **** }
 637              		.loc 1 1200 0
 638 0022 7047     		bx	lr
 639              		.cfi_endproc
 640              	.LFE82:
 641              		.size	calc_heater_dur, .-calc_heater_dur
 642              		.section	.text.boundary_check,"ax",%progbits
 643              		.align	2
 644              		.thumb
 645              		.thumb_func
 646              		.type	boundary_check, %function
 647              	boundary_check:
 648              	.LFB86:
1201:D:\design-mpu\source\ejemplos\BME680\bme680.c **** 
1202:D:\design-mpu\source\ejemplos\BME680\bme680.c **** /*!
1203:D:\design-mpu\source\ejemplos\BME680\bme680.c ****  * @brief This internal API is used to calculate the field data of sensor.
1204:D:\design-mpu\source\ejemplos\BME680\bme680.c ****  */
1205:D:\design-mpu\source\ejemplos\BME680\bme680.c **** static int8_t read_field_data(struct bme680_field_data *data, struct bme680_dev *dev)
1206:D:\design-mpu\source\ejemplos\BME680\bme680.c **** {
1207:D:\design-mpu\source\ejemplos\BME680\bme680.c **** 	int8_t rslt;
1208:D:\design-mpu\source\ejemplos\BME680\bme680.c **** 	uint8_t buff[BME680_FIELD_LENGTH] = { 0 };
1209:D:\design-mpu\source\ejemplos\BME680\bme680.c **** 	uint8_t gas_range;
1210:D:\design-mpu\source\ejemplos\BME680\bme680.c **** 	uint32_t adc_temp;
1211:D:\design-mpu\source\ejemplos\BME680\bme680.c **** 	uint32_t adc_pres;
1212:D:\design-mpu\source\ejemplos\BME680\bme680.c **** 	uint16_t adc_hum;
1213:D:\design-mpu\source\ejemplos\BME680\bme680.c **** 	uint16_t adc_gas_res;
1214:D:\design-mpu\source\ejemplos\BME680\bme680.c **** 	uint8_t tries = 10;
1215:D:\design-mpu\source\ejemplos\BME680\bme680.c **** 
1216:D:\design-mpu\source\ejemplos\BME680\bme680.c **** 	/* Check for null pointer in the device structure*/
1217:D:\design-mpu\source\ejemplos\BME680\bme680.c **** 	rslt = null_ptr_check(dev);
ARM GAS  C:\Users\adria\AppData\Local\Temp\ccOKprka.s 			page 34


1218:D:\design-mpu\source\ejemplos\BME680\bme680.c **** 	do {
1219:D:\design-mpu\source\ejemplos\BME680\bme680.c **** 		if (rslt == BME680_OK) {
1220:D:\design-mpu\source\ejemplos\BME680\bme680.c **** 			rslt = bme680_get_regs(((uint8_t) (BME680_FIELD0_ADDR)), buff, (uint16_t) BME680_FIELD_LENGTH,
1221:D:\design-mpu\source\ejemplos\BME680\bme680.c **** 				dev);
1222:D:\design-mpu\source\ejemplos\BME680\bme680.c **** 
1223:D:\design-mpu\source\ejemplos\BME680\bme680.c **** 			data->status = buff[0] & BME680_NEW_DATA_MSK;
1224:D:\design-mpu\source\ejemplos\BME680\bme680.c **** 			data->gas_index = buff[0] & BME680_GAS_INDEX_MSK;
1225:D:\design-mpu\source\ejemplos\BME680\bme680.c **** 			data->meas_index = buff[1];
1226:D:\design-mpu\source\ejemplos\BME680\bme680.c **** 
1227:D:\design-mpu\source\ejemplos\BME680\bme680.c **** 			/* read the raw data from the sensor */
1228:D:\design-mpu\source\ejemplos\BME680\bme680.c **** 			adc_pres = (uint32_t) (((uint32_t) buff[2] * 4096) | ((uint32_t) buff[3] * 16)
1229:D:\design-mpu\source\ejemplos\BME680\bme680.c **** 				| ((uint32_t) buff[4] / 16));
1230:D:\design-mpu\source\ejemplos\BME680\bme680.c **** 			adc_temp = (uint32_t) (((uint32_t) buff[5] * 4096) | ((uint32_t) buff[6] * 16)
1231:D:\design-mpu\source\ejemplos\BME680\bme680.c **** 				| ((uint32_t) buff[7] / 16));
1232:D:\design-mpu\source\ejemplos\BME680\bme680.c **** 			adc_hum = (uint16_t) (((uint32_t) buff[8] * 256) | (uint32_t) buff[9]);
1233:D:\design-mpu\source\ejemplos\BME680\bme680.c **** 			adc_gas_res = (uint16_t) ((uint32_t) buff[13] * 4 | (((uint32_t) buff[14]) / 64));
1234:D:\design-mpu\source\ejemplos\BME680\bme680.c **** 			gas_range = buff[14] & BME680_GAS_RANGE_MSK;
1235:D:\design-mpu\source\ejemplos\BME680\bme680.c **** 
1236:D:\design-mpu\source\ejemplos\BME680\bme680.c **** 			data->status |= buff[14] & BME680_GASM_VALID_MSK;
1237:D:\design-mpu\source\ejemplos\BME680\bme680.c **** 			data->status |= buff[14] & BME680_HEAT_STAB_MSK;
1238:D:\design-mpu\source\ejemplos\BME680\bme680.c **** 
1239:D:\design-mpu\source\ejemplos\BME680\bme680.c **** 			if (data->status & BME680_NEW_DATA_MSK) {
1240:D:\design-mpu\source\ejemplos\BME680\bme680.c **** 				data->temperature = calc_temperature(adc_temp, dev);
1241:D:\design-mpu\source\ejemplos\BME680\bme680.c **** 				data->pressure = calc_pressure(adc_pres, dev);
1242:D:\design-mpu\source\ejemplos\BME680\bme680.c **** 				data->humidity = calc_humidity(adc_hum, dev);
1243:D:\design-mpu\source\ejemplos\BME680\bme680.c **** 				data->gas_resistance = calc_gas_resistance(adc_gas_res, gas_range, dev);
1244:D:\design-mpu\source\ejemplos\BME680\bme680.c **** 				break;
1245:D:\design-mpu\source\ejemplos\BME680\bme680.c **** 			}
1246:D:\design-mpu\source\ejemplos\BME680\bme680.c **** 			/* Delay to poll the data */
1247:D:\design-mpu\source\ejemplos\BME680\bme680.c **** 			dev->delay_ms(BME680_POLL_PERIOD_MS);
1248:D:\design-mpu\source\ejemplos\BME680\bme680.c **** 		}
1249:D:\design-mpu\source\ejemplos\BME680\bme680.c **** 		tries--;
1250:D:\design-mpu\source\ejemplos\BME680\bme680.c **** 	} while (tries);
1251:D:\design-mpu\source\ejemplos\BME680\bme680.c **** 
1252:D:\design-mpu\source\ejemplos\BME680\bme680.c **** 	if (!tries)
1253:D:\design-mpu\source\ejemplos\BME680\bme680.c **** 		rslt = BME680_W_NO_NEW_DATA;
1254:D:\design-mpu\source\ejemplos\BME680\bme680.c **** 
1255:D:\design-mpu\source\ejemplos\BME680\bme680.c **** 	return rslt;
1256:D:\design-mpu\source\ejemplos\BME680\bme680.c **** }
1257:D:\design-mpu\source\ejemplos\BME680\bme680.c **** 
1258:D:\design-mpu\source\ejemplos\BME680\bme680.c **** /*!
1259:D:\design-mpu\source\ejemplos\BME680\bme680.c ****  * @brief This internal API is used to set the memory page based on register address.
1260:D:\design-mpu\source\ejemplos\BME680\bme680.c ****  */
1261:D:\design-mpu\source\ejemplos\BME680\bme680.c **** static int8_t set_mem_page(uint8_t reg_addr, struct bme680_dev *dev)
1262:D:\design-mpu\source\ejemplos\BME680\bme680.c **** {
1263:D:\design-mpu\source\ejemplos\BME680\bme680.c **** 	int8_t rslt;
1264:D:\design-mpu\source\ejemplos\BME680\bme680.c **** 	uint8_t reg;
1265:D:\design-mpu\source\ejemplos\BME680\bme680.c **** 	uint8_t mem_page;
1266:D:\design-mpu\source\ejemplos\BME680\bme680.c **** 
1267:D:\design-mpu\source\ejemplos\BME680\bme680.c **** 	/* Check for null pointers in the device structure*/
1268:D:\design-mpu\source\ejemplos\BME680\bme680.c **** 	rslt = null_ptr_check(dev);
1269:D:\design-mpu\source\ejemplos\BME680\bme680.c **** 	if (rslt == BME680_OK) {
1270:D:\design-mpu\source\ejemplos\BME680\bme680.c **** 		if (reg_addr > 0x7f)
1271:D:\design-mpu\source\ejemplos\BME680\bme680.c **** 			mem_page = BME680_MEM_PAGE1;
1272:D:\design-mpu\source\ejemplos\BME680\bme680.c **** 		else
1273:D:\design-mpu\source\ejemplos\BME680\bme680.c **** 			mem_page = BME680_MEM_PAGE0;
1274:D:\design-mpu\source\ejemplos\BME680\bme680.c **** 
ARM GAS  C:\Users\adria\AppData\Local\Temp\ccOKprka.s 			page 35


1275:D:\design-mpu\source\ejemplos\BME680\bme680.c **** 		if (mem_page != dev->mem_page) {
1276:D:\design-mpu\source\ejemplos\BME680\bme680.c **** 			dev->mem_page = mem_page;
1277:D:\design-mpu\source\ejemplos\BME680\bme680.c **** 
1278:D:\design-mpu\source\ejemplos\BME680\bme680.c **** 			dev->com_rslt = dev->read(dev->dev_id, BME680_MEM_PAGE_ADDR | BME680_SPI_RD_MSK, &reg, 1);
1279:D:\design-mpu\source\ejemplos\BME680\bme680.c **** 			if (dev->com_rslt != 0)
1280:D:\design-mpu\source\ejemplos\BME680\bme680.c **** 				rslt = BME680_E_COM_FAIL;
1281:D:\design-mpu\source\ejemplos\BME680\bme680.c **** 
1282:D:\design-mpu\source\ejemplos\BME680\bme680.c **** 			if (rslt == BME680_OK) {
1283:D:\design-mpu\source\ejemplos\BME680\bme680.c **** 				reg = reg & (~BME680_MEM_PAGE_MSK);
1284:D:\design-mpu\source\ejemplos\BME680\bme680.c **** 				reg = reg | (dev->mem_page & BME680_MEM_PAGE_MSK);
1285:D:\design-mpu\source\ejemplos\BME680\bme680.c **** 
1286:D:\design-mpu\source\ejemplos\BME680\bme680.c **** 				dev->com_rslt = dev->write(dev->dev_id, BME680_MEM_PAGE_ADDR & BME680_SPI_WR_MSK,
1287:D:\design-mpu\source\ejemplos\BME680\bme680.c **** 					&reg, 1);
1288:D:\design-mpu\source\ejemplos\BME680\bme680.c **** 				if (dev->com_rslt != 0)
1289:D:\design-mpu\source\ejemplos\BME680\bme680.c **** 					rslt = BME680_E_COM_FAIL;
1290:D:\design-mpu\source\ejemplos\BME680\bme680.c **** 			}
1291:D:\design-mpu\source\ejemplos\BME680\bme680.c **** 		}
1292:D:\design-mpu\source\ejemplos\BME680\bme680.c **** 	}
1293:D:\design-mpu\source\ejemplos\BME680\bme680.c **** 
1294:D:\design-mpu\source\ejemplos\BME680\bme680.c **** 	return rslt;
1295:D:\design-mpu\source\ejemplos\BME680\bme680.c **** }
1296:D:\design-mpu\source\ejemplos\BME680\bme680.c **** 
1297:D:\design-mpu\source\ejemplos\BME680\bme680.c **** /*!
1298:D:\design-mpu\source\ejemplos\BME680\bme680.c ****  * @brief This internal API is used to get the memory page based on register address.
1299:D:\design-mpu\source\ejemplos\BME680\bme680.c ****  */
1300:D:\design-mpu\source\ejemplos\BME680\bme680.c **** static int8_t get_mem_page(struct bme680_dev *dev)
1301:D:\design-mpu\source\ejemplos\BME680\bme680.c **** {
1302:D:\design-mpu\source\ejemplos\BME680\bme680.c **** 	int8_t rslt;
1303:D:\design-mpu\source\ejemplos\BME680\bme680.c **** 	uint8_t reg;
1304:D:\design-mpu\source\ejemplos\BME680\bme680.c **** 
1305:D:\design-mpu\source\ejemplos\BME680\bme680.c **** 	/* Check for null pointer in the device structure*/
1306:D:\design-mpu\source\ejemplos\BME680\bme680.c **** 	rslt = null_ptr_check(dev);
1307:D:\design-mpu\source\ejemplos\BME680\bme680.c **** 	if (rslt == BME680_OK) {
1308:D:\design-mpu\source\ejemplos\BME680\bme680.c **** 		dev->com_rslt = dev->read(dev->dev_id, BME680_MEM_PAGE_ADDR | BME680_SPI_RD_MSK, &reg, 1);
1309:D:\design-mpu\source\ejemplos\BME680\bme680.c **** 		if (dev->com_rslt != 0)
1310:D:\design-mpu\source\ejemplos\BME680\bme680.c **** 			rslt = BME680_E_COM_FAIL;
1311:D:\design-mpu\source\ejemplos\BME680\bme680.c **** 		else
1312:D:\design-mpu\source\ejemplos\BME680\bme680.c **** 			dev->mem_page = reg & BME680_MEM_PAGE_MSK;
1313:D:\design-mpu\source\ejemplos\BME680\bme680.c **** 	}
1314:D:\design-mpu\source\ejemplos\BME680\bme680.c **** 
1315:D:\design-mpu\source\ejemplos\BME680\bme680.c **** 	return rslt;
1316:D:\design-mpu\source\ejemplos\BME680\bme680.c **** }
1317:D:\design-mpu\source\ejemplos\BME680\bme680.c **** 
1318:D:\design-mpu\source\ejemplos\BME680\bme680.c **** /*!
1319:D:\design-mpu\source\ejemplos\BME680\bme680.c ****  * @brief This internal API is used to validate the boundary
1320:D:\design-mpu\source\ejemplos\BME680\bme680.c ****  * conditions.
1321:D:\design-mpu\source\ejemplos\BME680\bme680.c ****  */
1322:D:\design-mpu\source\ejemplos\BME680\bme680.c **** static int8_t boundary_check(uint8_t *value, uint8_t min, uint8_t max, struct bme680_dev *dev)
1323:D:\design-mpu\source\ejemplos\BME680\bme680.c **** {
 649              		.loc 1 1323 0
 650              		.cfi_startproc
 651              		@ args = 0, pretend = 0, frame = 0
 652              		@ frame_needed = 0, uses_anonymous_args = 0
 653              		@ link register save eliminated.
 654              	.LVL94:
1324:D:\design-mpu\source\ejemplos\BME680\bme680.c **** 	int8_t rslt = BME680_OK;
1325:D:\design-mpu\source\ejemplos\BME680\bme680.c **** 
ARM GAS  C:\Users\adria\AppData\Local\Temp\ccOKprka.s 			page 36


1326:D:\design-mpu\source\ejemplos\BME680\bme680.c **** 	if (value != NULL) {
 655              		.loc 1 1326 0
 656 0000 B8B1     		cbz	r0, .L32
1323:D:\design-mpu\source\ejemplos\BME680\bme680.c **** 	int8_t rslt = BME680_OK;
 657              		.loc 1 1323 0
 658 0002 10B4     		push	{r4}
 659              		.cfi_def_cfa_offset 4
 660              		.cfi_offset 4, -4
 661 0004 0446     		mov	r4, r0
1327:D:\design-mpu\source\ejemplos\BME680\bme680.c **** 		/* Check if value is below minimum value */
1328:D:\design-mpu\source\ejemplos\BME680\bme680.c **** 		if (*value < min) {
 662              		.loc 1 1328 0
 663 0006 0078     		ldrb	r0, [r0]	@ zero_extendqisi2
 664              	.LVL95:
 665 0008 8842     		cmp	r0, r1
 666 000a 06D2     		bcs	.L31
1329:D:\design-mpu\source\ejemplos\BME680\bme680.c **** 			/* Auto correct the invalid value to minimum value */
1330:D:\design-mpu\source\ejemplos\BME680\bme680.c **** 			*value = min;
 667              		.loc 1 1330 0
 668 000c 2170     		strb	r1, [r4]
1331:D:\design-mpu\source\ejemplos\BME680\bme680.c **** 			dev->info_msg |= BME680_I_MIN_CORRECTION;
 669              		.loc 1 1331 0
 670 000e 93F84610 		ldrb	r1, [r3, #70]	@ zero_extendqisi2
 671              	.LVL96:
 672 0012 41F00101 		orr	r1, r1, #1
 673 0016 83F84610 		strb	r1, [r3, #70]
 674              	.LVL97:
 675              	.L31:
1332:D:\design-mpu\source\ejemplos\BME680\bme680.c **** 		}
1333:D:\design-mpu\source\ejemplos\BME680\bme680.c **** 		/* Check if value is above maximum value */
1334:D:\design-mpu\source\ejemplos\BME680\bme680.c **** 		if (*value > max) {
 676              		.loc 1 1334 0
 677 001a 2178     		ldrb	r1, [r4]	@ zero_extendqisi2
 678 001c 9142     		cmp	r1, r2
 679 001e 0BD9     		bls	.L33
1335:D:\design-mpu\source\ejemplos\BME680\bme680.c **** 			/* Auto correct the invalid value to maximum value */
1336:D:\design-mpu\source\ejemplos\BME680\bme680.c **** 			*value = max;
 680              		.loc 1 1336 0
 681 0020 2270     		strb	r2, [r4]
1337:D:\design-mpu\source\ejemplos\BME680\bme680.c **** 			dev->info_msg |= BME680_I_MAX_CORRECTION;
 682              		.loc 1 1337 0
 683 0022 93F84620 		ldrb	r2, [r3, #70]	@ zero_extendqisi2
 684              	.LVL98:
 685 0026 42F00202 		orr	r2, r2, #2
 686 002a 83F84620 		strb	r2, [r3, #70]
 687              	.LVL99:
1324:D:\design-mpu\source\ejemplos\BME680\bme680.c **** 
 688              		.loc 1 1324 0
 689 002e 0020     		movs	r0, #0
 690 0030 03E0     		b	.L30
 691              	.LVL100:
 692              	.L32:
 693              		.cfi_def_cfa_offset 0
 694              		.cfi_restore 4
1338:D:\design-mpu\source\ejemplos\BME680\bme680.c **** 		}
1339:D:\design-mpu\source\ejemplos\BME680\bme680.c **** 	} else {
1340:D:\design-mpu\source\ejemplos\BME680\bme680.c **** 		rslt = BME680_E_NULL_PTR;
ARM GAS  C:\Users\adria\AppData\Local\Temp\ccOKprka.s 			page 37


 695              		.loc 1 1340 0
 696 0032 4FF0FF30 		mov	r0, #-1
 697              	.LVL101:
1341:D:\design-mpu\source\ejemplos\BME680\bme680.c **** 	}
1342:D:\design-mpu\source\ejemplos\BME680\bme680.c **** 
1343:D:\design-mpu\source\ejemplos\BME680\bme680.c **** 	return rslt;
1344:D:\design-mpu\source\ejemplos\BME680\bme680.c **** }
 698              		.loc 1 1344 0
 699 0036 7047     		bx	lr
 700              	.LVL102:
 701              	.L33:
 702              		.cfi_def_cfa_offset 4
 703              		.cfi_offset 4, -4
1324:D:\design-mpu\source\ejemplos\BME680\bme680.c **** 
 704              		.loc 1 1324 0
 705 0038 0020     		movs	r0, #0
 706              	.LVL103:
 707              	.L30:
 708              		.loc 1 1344 0
 709 003a 10BC     		pop	{r4}
 710              		.cfi_restore 4
 711              		.cfi_def_cfa_offset 0
 712              	.LVL104:
 713 003c 7047     		bx	lr
 714              		.cfi_endproc
 715              	.LFE86:
 716              		.size	boundary_check, .-boundary_check
 717 003e 00BF     		.section	.text.null_ptr_check,"ax",%progbits
 718              		.align	2
 719              		.thumb
 720              		.thumb_func
 721              		.type	null_ptr_check, %function
 722              	null_ptr_check:
 723              	.LFB87:
1345:D:\design-mpu\source\ejemplos\BME680\bme680.c **** 
1346:D:\design-mpu\source\ejemplos\BME680\bme680.c **** /*!
1347:D:\design-mpu\source\ejemplos\BME680\bme680.c ****  * @brief This internal API is used to validate the device structure pointer for
1348:D:\design-mpu\source\ejemplos\BME680\bme680.c ****  * null conditions.
1349:D:\design-mpu\source\ejemplos\BME680\bme680.c ****  */
1350:D:\design-mpu\source\ejemplos\BME680\bme680.c **** static int8_t null_ptr_check(const struct bme680_dev *dev)
1351:D:\design-mpu\source\ejemplos\BME680\bme680.c **** {
 724              		.loc 1 1351 0
 725              		.cfi_startproc
 726              		@ args = 0, pretend = 0, frame = 0
 727              		@ frame_needed = 0, uses_anonymous_args = 0
 728              		@ link register save eliminated.
 729              	.LVL105:
1352:D:\design-mpu\source\ejemplos\BME680\bme680.c **** 	int8_t rslt;
1353:D:\design-mpu\source\ejemplos\BME680\bme680.c **** 
1354:D:\design-mpu\source\ejemplos\BME680\bme680.c **** 	if ((dev == NULL) || (dev->read == NULL) || (dev->write == NULL) || (dev->delay_ms == NULL)) {
 730              		.loc 1 1354 0
 731 0000 40B1     		cbz	r0, .L37
 732              		.loc 1 1354 0 is_stmt 0 discriminator 1
 733 0002 826C     		ldr	r2, [r0, #72]
 734 0004 4AB1     		cbz	r2, .L38
 735              		.loc 1 1354 0 discriminator 2
 736 0006 C26C     		ldr	r2, [r0, #76]
ARM GAS  C:\Users\adria\AppData\Local\Temp\ccOKprka.s 			page 38


 737 0008 52B1     		cbz	r2, .L39
 738              		.loc 1 1354 0 discriminator 3
 739 000a 036D     		ldr	r3, [r0, #80]
 740 000c 5BB9     		cbnz	r3, .L40
1355:D:\design-mpu\source\ejemplos\BME680\bme680.c **** 		/* Device structure pointer is not valid */
1356:D:\design-mpu\source\ejemplos\BME680\bme680.c **** 		rslt = BME680_E_NULL_PTR;
 741              		.loc 1 1356 0 is_stmt 1
 742 000e 4FF0FF30 		mov	r0, #-1
 743              	.LVL106:
 744 0012 7047     		bx	lr
 745              	.LVL107:
 746              	.L37:
 747 0014 4FF0FF30 		mov	r0, #-1
 748              	.LVL108:
 749 0018 7047     		bx	lr
 750              	.LVL109:
 751              	.L38:
 752 001a 4FF0FF30 		mov	r0, #-1
 753              	.LVL110:
 754 001e 7047     		bx	lr
 755              	.LVL111:
 756              	.L39:
 757 0020 4FF0FF30 		mov	r0, #-1
 758              	.LVL112:
 759 0024 7047     		bx	lr
 760              	.LVL113:
 761              	.L40:
1357:D:\design-mpu\source\ejemplos\BME680\bme680.c **** 	} else {
1358:D:\design-mpu\source\ejemplos\BME680\bme680.c **** 		/* Device structure is fine */
1359:D:\design-mpu\source\ejemplos\BME680\bme680.c **** 		rslt = BME680_OK;
 762              		.loc 1 1359 0
 763 0026 0020     		movs	r0, #0
 764              	.LVL114:
1360:D:\design-mpu\source\ejemplos\BME680\bme680.c **** 	}
1361:D:\design-mpu\source\ejemplos\BME680\bme680.c **** 
1362:D:\design-mpu\source\ejemplos\BME680\bme680.c **** 	return rslt;
1363:D:\design-mpu\source\ejemplos\BME680\bme680.c **** }
 765              		.loc 1 1363 0
 766 0028 7047     		bx	lr
 767              		.cfi_endproc
 768              	.LFE87:
 769              		.size	null_ptr_check, .-null_ptr_check
 770 002a 00BF     		.section	.text.set_mem_page,"ax",%progbits
 771              		.align	2
 772              		.thumb
 773              		.thumb_func
 774              		.type	set_mem_page, %function
 775              	set_mem_page:
 776              	.LFB84:
1262:D:\design-mpu\source\ejemplos\BME680\bme680.c **** 	int8_t rslt;
 777              		.loc 1 1262 0
 778              		.cfi_startproc
 779              		@ args = 0, pretend = 0, frame = 8
 780              		@ frame_needed = 0, uses_anonymous_args = 0
 781              	.LVL115:
 782 0000 70B5     		push	{r4, r5, r6, lr}
 783              		.cfi_def_cfa_offset 16
ARM GAS  C:\Users\adria\AppData\Local\Temp\ccOKprka.s 			page 39


 784              		.cfi_offset 4, -16
 785              		.cfi_offset 5, -12
 786              		.cfi_offset 6, -8
 787              		.cfi_offset 14, -4
 788 0002 82B0     		sub	sp, sp, #8
 789              		.cfi_def_cfa_offset 24
 790 0004 0646     		mov	r6, r0
 791 0006 0C46     		mov	r4, r1
1268:D:\design-mpu\source\ejemplos\BME680\bme680.c **** 	if (rslt == BME680_OK) {
 792              		.loc 1 1268 0
 793 0008 0846     		mov	r0, r1
 794              	.LVL116:
 795 000a FFF7FEFF 		bl	null_ptr_check
 796              	.LVL117:
1269:D:\design-mpu\source\ejemplos\BME680\bme680.c **** 		if (reg_addr > 0x7f)
 797              		.loc 1 1269 0
 798 000e 0546     		mov	r5, r0
 799 0010 58BB     		cbnz	r0, .L42
1270:D:\design-mpu\source\ejemplos\BME680\bme680.c **** 			mem_page = BME680_MEM_PAGE1;
 800              		.loc 1 1270 0
 801 0012 16F0800F 		tst	r6, #128
 802 0016 01D0     		beq	.L45
1271:D:\design-mpu\source\ejemplos\BME680\bme680.c **** 		else
 803              		.loc 1 1271 0
 804 0018 0023     		movs	r3, #0
 805 001a 00E0     		b	.L43
 806              	.L45:
1273:D:\design-mpu\source\ejemplos\BME680\bme680.c **** 
 807              		.loc 1 1273 0
 808 001c 1023     		movs	r3, #16
 809              	.L43:
 810              	.LVL118:
1275:D:\design-mpu\source\ejemplos\BME680\bme680.c **** 			dev->mem_page = mem_page;
 811              		.loc 1 1275 0
 812 001e E278     		ldrb	r2, [r4, #3]	@ zero_extendqisi2
 813 0020 9342     		cmp	r3, r2
 814 0022 22D0     		beq	.L42
1276:D:\design-mpu\source\ejemplos\BME680\bme680.c **** 
 815              		.loc 1 1276 0
 816 0024 E370     		strb	r3, [r4, #3]
1278:D:\design-mpu\source\ejemplos\BME680\bme680.c **** 			if (dev->com_rslt != 0)
 817              		.loc 1 1278 0
 818 0026 A66C     		ldr	r6, [r4, #72]
 819 0028 0123     		movs	r3, #1
 820              	.LVL119:
 821 002a 0DF10702 		add	r2, sp, #7
 822 002e F321     		movs	r1, #243
 823 0030 6078     		ldrb	r0, [r4, #1]	@ zero_extendqisi2
 824              	.LVL120:
 825 0032 B047     		blx	r6
 826              	.LVL121:
 827 0034 84F85400 		strb	r0, [r4, #84]
1279:D:\design-mpu\source\ejemplos\BME680\bme680.c **** 				rslt = BME680_E_COM_FAIL;
 828              		.loc 1 1279 0
 829 0038 08B1     		cbz	r0, .L44
1280:D:\design-mpu\source\ejemplos\BME680\bme680.c **** 
 830              		.loc 1 1280 0
ARM GAS  C:\Users\adria\AppData\Local\Temp\ccOKprka.s 			page 40


 831 003a 6FF00105 		mvn	r5, #1
 832              	.L44:
 833              	.LVL122:
1282:D:\design-mpu\source\ejemplos\BME680\bme680.c **** 				reg = reg & (~BME680_MEM_PAGE_MSK);
 834              		.loc 1 1282 0
 835 003e A5B9     		cbnz	r5, .L42
1283:D:\design-mpu\source\ejemplos\BME680\bme680.c **** 				reg = reg | (dev->mem_page & BME680_MEM_PAGE_MSK);
 836              		.loc 1 1283 0
 837 0040 9DF80730 		ldrb	r3, [sp, #7]	@ zero_extendqisi2
 838 0044 03F0EF02 		and	r2, r3, #239
1284:D:\design-mpu\source\ejemplos\BME680\bme680.c **** 
 839              		.loc 1 1284 0
 840 0048 E378     		ldrb	r3, [r4, #3]	@ zero_extendqisi2
 841 004a 03F01003 		and	r3, r3, #16
 842 004e 1343     		orrs	r3, r3, r2
 843 0050 02AA     		add	r2, sp, #8
 844 0052 02F8013D 		strb	r3, [r2, #-1]!
1286:D:\design-mpu\source\ejemplos\BME680\bme680.c **** 					&reg, 1);
 845              		.loc 1 1286 0
 846 0056 E66C     		ldr	r6, [r4, #76]
 847 0058 0123     		movs	r3, #1
 848 005a 7321     		movs	r1, #115
 849 005c 6078     		ldrb	r0, [r4, #1]	@ zero_extendqisi2
 850 005e B047     		blx	r6
 851              	.LVL123:
 852 0060 84F85400 		strb	r0, [r4, #84]
1288:D:\design-mpu\source\ejemplos\BME680\bme680.c **** 					rslt = BME680_E_COM_FAIL;
 853              		.loc 1 1288 0
 854 0064 08B1     		cbz	r0, .L42
1289:D:\design-mpu\source\ejemplos\BME680\bme680.c **** 			}
 855              		.loc 1 1289 0
 856 0066 6FF00105 		mvn	r5, #1
 857              	.LVL124:
 858              	.L42:
1295:D:\design-mpu\source\ejemplos\BME680\bme680.c **** 
 859              		.loc 1 1295 0
 860 006a 2846     		mov	r0, r5
 861 006c 02B0     		add	sp, sp, #8
 862              		.cfi_def_cfa_offset 16
 863              		@ sp needed
 864 006e 70BD     		pop	{r4, r5, r6, pc}
 865              		.cfi_endproc
 866              	.LFE84:
 867              		.size	set_mem_page, .-set_mem_page
 868              		.section	.text.get_mem_page,"ax",%progbits
 869              		.align	2
 870              		.thumb
 871              		.thumb_func
 872              		.type	get_mem_page, %function
 873              	get_mem_page:
 874              	.LFB85:
1301:D:\design-mpu\source\ejemplos\BME680\bme680.c **** 	int8_t rslt;
 875              		.loc 1 1301 0
 876              		.cfi_startproc
 877              		@ args = 0, pretend = 0, frame = 8
 878              		@ frame_needed = 0, uses_anonymous_args = 0
 879              	.LVL125:
ARM GAS  C:\Users\adria\AppData\Local\Temp\ccOKprka.s 			page 41


 880 0000 70B5     		push	{r4, r5, r6, lr}
 881              		.cfi_def_cfa_offset 16
 882              		.cfi_offset 4, -16
 883              		.cfi_offset 5, -12
 884              		.cfi_offset 6, -8
 885              		.cfi_offset 14, -4
 886 0002 82B0     		sub	sp, sp, #8
 887              		.cfi_def_cfa_offset 24
 888 0004 0446     		mov	r4, r0
1306:D:\design-mpu\source\ejemplos\BME680\bme680.c **** 	if (rslt == BME680_OK) {
 889              		.loc 1 1306 0
 890 0006 FFF7FEFF 		bl	null_ptr_check
 891              	.LVL126:
1307:D:\design-mpu\source\ejemplos\BME680\bme680.c **** 		dev->com_rslt = dev->read(dev->dev_id, BME680_MEM_PAGE_ADDR | BME680_SPI_RD_MSK, &reg, 1);
 892              		.loc 1 1307 0
 893 000a 0546     		mov	r5, r0
 894 000c 88B9     		cbnz	r0, .L50
1308:D:\design-mpu\source\ejemplos\BME680\bme680.c **** 		if (dev->com_rslt != 0)
 895              		.loc 1 1308 0
 896 000e A66C     		ldr	r6, [r4, #72]
 897 0010 0123     		movs	r3, #1
 898 0012 0DF10702 		add	r2, sp, #7
 899 0016 F321     		movs	r1, #243
 900 0018 6078     		ldrb	r0, [r4, #1]	@ zero_extendqisi2
 901              	.LVL127:
 902 001a B047     		blx	r6
 903              	.LVL128:
 904 001c 84F85400 		strb	r0, [r4, #84]
1309:D:\design-mpu\source\ejemplos\BME680\bme680.c **** 			rslt = BME680_E_COM_FAIL;
 905              		.loc 1 1309 0
 906 0020 28B9     		cbnz	r0, .L51
1312:D:\design-mpu\source\ejemplos\BME680\bme680.c **** 	}
 907              		.loc 1 1312 0
 908 0022 9DF80730 		ldrb	r3, [sp, #7]	@ zero_extendqisi2
 909 0026 03F01003 		and	r3, r3, #16
 910 002a E370     		strb	r3, [r4, #3]
 911 002c 01E0     		b	.L50
 912              	.L51:
1310:D:\design-mpu\source\ejemplos\BME680\bme680.c **** 		else
 913              		.loc 1 1310 0
 914 002e 6FF00105 		mvn	r5, #1
 915              	.L50:
 916              	.LVL129:
1316:D:\design-mpu\source\ejemplos\BME680\bme680.c **** 
 917              		.loc 1 1316 0
 918 0032 2846     		mov	r0, r5
 919 0034 02B0     		add	sp, sp, #8
 920              		.cfi_def_cfa_offset 16
 921              		@ sp needed
 922 0036 70BD     		pop	{r4, r5, r6, pc}
 923              		.cfi_endproc
 924              	.LFE85:
 925              		.size	get_mem_page, .-get_mem_page
 926              		.section	.text.analyze_sensor_data,"ax",%progbits
 927              		.align	2
 928              		.thumb
 929              		.thumb_func
ARM GAS  C:\Users\adria\AppData\Local\Temp\ccOKprka.s 			page 42


 930              		.type	analyze_sensor_data, %function
 931              	analyze_sensor_data:
 932              	.LFB89:
1364:D:\design-mpu\source\ejemplos\BME680\bme680.c **** 
1365:D:\design-mpu\source\ejemplos\BME680\bme680.c **** /*!
1366:D:\design-mpu\source\ejemplos\BME680\bme680.c ****  * @brief       Function to analyze the sensor data
1367:D:\design-mpu\source\ejemplos\BME680\bme680.c ****  *
1368:D:\design-mpu\source\ejemplos\BME680\bme680.c ****  * @param[in]   data	Array of measurement data 
1369:D:\design-mpu\source\ejemplos\BME680\bme680.c ****  * @param[in]   n_meas	Number of measurements 
1370:D:\design-mpu\source\ejemplos\BME680\bme680.c ****  *
1371:D:\design-mpu\source\ejemplos\BME680\bme680.c ****  * @return      Error code
1372:D:\design-mpu\source\ejemplos\BME680\bme680.c ****  * @retval		0	Success
1373:D:\design-mpu\source\ejemplos\BME680\bme680.c ****  * @retval      > 0	Warning	
1374:D:\design-mpu\source\ejemplos\BME680\bme680.c ****  */
1375:D:\design-mpu\source\ejemplos\BME680\bme680.c **** static int8_t analyze_sensor_data(struct bme680_field_data *data, uint8_t n_meas);
1376:D:\design-mpu\source\ejemplos\BME680\bme680.c **** 
1377:D:\design-mpu\source\ejemplos\BME680\bme680.c **** /*!
1378:D:\design-mpu\source\ejemplos\BME680\bme680.c ****  * @brief       Self-test API for the BME680
1379:D:\design-mpu\source\ejemplos\BME680\bme680.c ****  */
1380:D:\design-mpu\source\ejemplos\BME680\bme680.c **** int8_t bme680_self_test(struct bme680_dev *dev)
1381:D:\design-mpu\source\ejemplos\BME680\bme680.c **** {
1382:D:\design-mpu\source\ejemplos\BME680\bme680.c **** 	int8_t rslt = BME680_OK;
1383:D:\design-mpu\source\ejemplos\BME680\bme680.c **** 	struct bme680_field_data data[N_MEAS];
1384:D:\design-mpu\source\ejemplos\BME680\bme680.c **** 
1385:D:\design-mpu\source\ejemplos\BME680\bme680.c **** 	struct bme680_dev t_dev;
1386:D:\design-mpu\source\ejemplos\BME680\bme680.c **** 
1387:D:\design-mpu\source\ejemplos\BME680\bme680.c **** 	/* Copy required parameters from reference bme680_dev struct */
1388:D:\design-mpu\source\ejemplos\BME680\bme680.c **** 	t_dev.dev_id = dev->dev_id;
1389:D:\design-mpu\source\ejemplos\BME680\bme680.c **** 	t_dev.amb_temp = 25;
1390:D:\design-mpu\source\ejemplos\BME680\bme680.c **** 	t_dev.read = dev->read;
1391:D:\design-mpu\source\ejemplos\BME680\bme680.c **** 	t_dev.write = dev->write;
1392:D:\design-mpu\source\ejemplos\BME680\bme680.c **** 	t_dev.intf = dev->intf;
1393:D:\design-mpu\source\ejemplos\BME680\bme680.c **** 	t_dev.delay_ms = dev->delay_ms;
1394:D:\design-mpu\source\ejemplos\BME680\bme680.c **** 
1395:D:\design-mpu\source\ejemplos\BME680\bme680.c **** 	rslt = bme680_init(&t_dev);
1396:D:\design-mpu\source\ejemplos\BME680\bme680.c **** 
1397:D:\design-mpu\source\ejemplos\BME680\bme680.c **** 	if (rslt == BME680_OK) {
1398:D:\design-mpu\source\ejemplos\BME680\bme680.c **** 		/* Select the power mode */
1399:D:\design-mpu\source\ejemplos\BME680\bme680.c **** 		/* Must be set before writing the sensor configuration */
1400:D:\design-mpu\source\ejemplos\BME680\bme680.c **** 		t_dev.power_mode = BME680_FORCED_MODE;
1401:D:\design-mpu\source\ejemplos\BME680\bme680.c **** 
1402:D:\design-mpu\source\ejemplos\BME680\bme680.c **** 		uint16_t settings_sel;
1403:D:\design-mpu\source\ejemplos\BME680\bme680.c **** 
1404:D:\design-mpu\source\ejemplos\BME680\bme680.c **** 		/* Set the temperature, pressure and humidity & filter settings */
1405:D:\design-mpu\source\ejemplos\BME680\bme680.c **** 		t_dev.tph_sett.os_hum = BME680_OS_1X;
1406:D:\design-mpu\source\ejemplos\BME680\bme680.c **** 		t_dev.tph_sett.os_pres = BME680_OS_16X;
1407:D:\design-mpu\source\ejemplos\BME680\bme680.c **** 		t_dev.tph_sett.os_temp = BME680_OS_2X;
1408:D:\design-mpu\source\ejemplos\BME680\bme680.c **** 
1409:D:\design-mpu\source\ejemplos\BME680\bme680.c **** 		/* Set the remaining gas sensor settings and link the heating profile */
1410:D:\design-mpu\source\ejemplos\BME680\bme680.c **** 		t_dev.gas_sett.run_gas = BME680_ENABLE_GAS_MEAS;
1411:D:\design-mpu\source\ejemplos\BME680\bme680.c **** 		t_dev.gas_sett.heatr_dur = HEATR_DUR;
1412:D:\design-mpu\source\ejemplos\BME680\bme680.c **** 
1413:D:\design-mpu\source\ejemplos\BME680\bme680.c **** 		settings_sel = BME680_OST_SEL | BME680_OSP_SEL | BME680_OSH_SEL | BME680_GAS_SENSOR_SEL;
1414:D:\design-mpu\source\ejemplos\BME680\bme680.c **** 
1415:D:\design-mpu\source\ejemplos\BME680\bme680.c **** 		uint16_t profile_dur = 0;
1416:D:\design-mpu\source\ejemplos\BME680\bme680.c **** 		bme680_get_profile_dur(&profile_dur, &t_dev);
1417:D:\design-mpu\source\ejemplos\BME680\bme680.c **** 
ARM GAS  C:\Users\adria\AppData\Local\Temp\ccOKprka.s 			page 43


1418:D:\design-mpu\source\ejemplos\BME680\bme680.c **** 		uint8_t i = 0;
1419:D:\design-mpu\source\ejemplos\BME680\bme680.c **** 		while ((rslt == BME680_OK) && (i < N_MEAS)) {
1420:D:\design-mpu\source\ejemplos\BME680\bme680.c **** 			if (rslt == BME680_OK) {
1421:D:\design-mpu\source\ejemplos\BME680\bme680.c **** 
1422:D:\design-mpu\source\ejemplos\BME680\bme680.c **** 				if (i % 2 == 0)
1423:D:\design-mpu\source\ejemplos\BME680\bme680.c **** 					t_dev.gas_sett.heatr_temp = HIGH_TEMP; /* Higher temperature */
1424:D:\design-mpu\source\ejemplos\BME680\bme680.c **** 				else
1425:D:\design-mpu\source\ejemplos\BME680\bme680.c **** 					t_dev.gas_sett.heatr_temp = LOW_TEMP; /* Lower temperature */
1426:D:\design-mpu\source\ejemplos\BME680\bme680.c **** 
1427:D:\design-mpu\source\ejemplos\BME680\bme680.c **** 				rslt = bme680_set_sensor_settings(settings_sel, &t_dev);
1428:D:\design-mpu\source\ejemplos\BME680\bme680.c **** 
1429:D:\design-mpu\source\ejemplos\BME680\bme680.c **** 				if (rslt == BME680_OK) {
1430:D:\design-mpu\source\ejemplos\BME680\bme680.c **** 
1431:D:\design-mpu\source\ejemplos\BME680\bme680.c **** 					rslt = bme680_set_sensor_mode(&t_dev); /* Trigger a measurement */
1432:D:\design-mpu\source\ejemplos\BME680\bme680.c **** 
1433:D:\design-mpu\source\ejemplos\BME680\bme680.c **** 					t_dev.delay_ms(profile_dur); /* Wait for the measurement to complete */
1434:D:\design-mpu\source\ejemplos\BME680\bme680.c **** 
1435:D:\design-mpu\source\ejemplos\BME680\bme680.c **** 					rslt = bme680_get_sensor_data(&data[i], &t_dev);
1436:D:\design-mpu\source\ejemplos\BME680\bme680.c **** 				}
1437:D:\design-mpu\source\ejemplos\BME680\bme680.c **** 			}
1438:D:\design-mpu\source\ejemplos\BME680\bme680.c **** 
1439:D:\design-mpu\source\ejemplos\BME680\bme680.c **** 			i++;
1440:D:\design-mpu\source\ejemplos\BME680\bme680.c **** 		}
1441:D:\design-mpu\source\ejemplos\BME680\bme680.c **** 
1442:D:\design-mpu\source\ejemplos\BME680\bme680.c **** 		if (rslt == BME680_OK)
1443:D:\design-mpu\source\ejemplos\BME680\bme680.c **** 			rslt = analyze_sensor_data(data, N_MEAS);
1444:D:\design-mpu\source\ejemplos\BME680\bme680.c **** 	}
1445:D:\design-mpu\source\ejemplos\BME680\bme680.c **** 
1446:D:\design-mpu\source\ejemplos\BME680\bme680.c **** 	return rslt;
1447:D:\design-mpu\source\ejemplos\BME680\bme680.c **** }
1448:D:\design-mpu\source\ejemplos\BME680\bme680.c **** 
1449:D:\design-mpu\source\ejemplos\BME680\bme680.c **** /*!
1450:D:\design-mpu\source\ejemplos\BME680\bme680.c ****  * @brief       Function to analyze the sensor data
1451:D:\design-mpu\source\ejemplos\BME680\bme680.c ****  */
1452:D:\design-mpu\source\ejemplos\BME680\bme680.c **** static int8_t analyze_sensor_data(struct bme680_field_data *data, uint8_t n_meas)
1453:D:\design-mpu\source\ejemplos\BME680\bme680.c **** {
 933              		.loc 1 1453 0
 934              		.cfi_startproc
 935              		@ args = 0, pretend = 0, frame = 0
 936              		@ frame_needed = 0, uses_anonymous_args = 0
 937              		@ link register save eliminated.
 938              	.LVL130:
 939 0000 30B4     		push	{r4, r5}
 940              		.cfi_def_cfa_offset 8
 941              		.cfi_offset 4, -8
 942              		.cfi_offset 5, -4
 943              	.LVL131:
1454:D:\design-mpu\source\ejemplos\BME680\bme680.c **** 	int8_t rslt = BME680_OK;
1455:D:\design-mpu\source\ejemplos\BME680\bme680.c **** 	uint8_t self_test_failed = 0, i;
1456:D:\design-mpu\source\ejemplos\BME680\bme680.c **** 	uint32_t cent_res = 0;
1457:D:\design-mpu\source\ejemplos\BME680\bme680.c **** 
1458:D:\design-mpu\source\ejemplos\BME680\bme680.c **** 	if ((data[0].temperature < MIN_TEMPERATURE) || (data[0].temperature > MAX_TEMPERATURE))
 944              		.loc 1 1458 0
 945 0002 8288     		ldrh	r2, [r0, #4]
 946 0004 41F27073 		movw	r3, #6000
 947 0008 9A42     		cmp	r2, r3
 948 000a 01D8     		bhi	.L63
ARM GAS  C:\Users\adria\AppData\Local\Temp\ccOKprka.s 			page 44


1455:D:\design-mpu\source\ejemplos\BME680\bme680.c **** 	uint32_t cent_res = 0;
 949              		.loc 1 1455 0
 950 000c 0025     		movs	r5, #0
 951 000e 00E0     		b	.L54
 952              	.L63:
1459:D:\design-mpu\source\ejemplos\BME680\bme680.c **** 		self_test_failed++;
 953              		.loc 1 1459 0
 954 0010 0125     		movs	r5, #1
 955              	.L54:
 956              	.LVL132:
1460:D:\design-mpu\source\ejemplos\BME680\bme680.c **** 
1461:D:\design-mpu\source\ejemplos\BME680\bme680.c **** 	if ((data[0].pressure < MIN_PRESSURE) || (data[0].pressure > MAX_PRESSURE))
 957              		.loc 1 1461 0
 958 0012 8368     		ldr	r3, [r0, #8]
 959 0014 A3F5AF33 		sub	r3, r3, #89600
 960 0018 A3F5C873 		sub	r3, r3, #400
 961 001c 44F62062 		movw	r2, #20000
 962 0020 9342     		cmp	r3, r2
 963 0022 01D9     		bls	.L55
1462:D:\design-mpu\source\ejemplos\BME680\bme680.c **** 		self_test_failed++;
 964              		.loc 1 1462 0
 965 0024 0135     		adds	r5, r5, #1
 966              	.LVL133:
 967 0026 EDB2     		uxtb	r5, r5
 968              	.LVL134:
 969              	.L55:
1463:D:\design-mpu\source\ejemplos\BME680\bme680.c **** 
1464:D:\design-mpu\source\ejemplos\BME680\bme680.c **** 	if ((data[0].humidity < MIN_HUMIDITY) || (data[0].humidity > MAX_HUMIDITY))
 970              		.loc 1 1464 0
 971 0028 C368     		ldr	r3, [r0, #12]
 972 002a A3F59C43 		sub	r3, r3, #19968
 973 002e 203B     		subs	r3, r3, #32
 974 0030 4EF66022 		movw	r2, #60000
 975 0034 9342     		cmp	r3, r2
 976 0036 01D9     		bls	.L56
1465:D:\design-mpu\source\ejemplos\BME680\bme680.c **** 		self_test_failed++;
 977              		.loc 1 1465 0
 978 0038 0135     		adds	r5, r5, #1
 979              	.LVL135:
 980 003a EDB2     		uxtb	r5, r5
 981              	.LVL136:
 982              	.L56:
1459:D:\design-mpu\source\ejemplos\BME680\bme680.c **** 
 983              		.loc 1 1459 0 discriminator 1
 984 003c 0023     		movs	r3, #0
 985 003e 0AE0     		b	.L57
 986              	.LVL137:
 987              	.L59:
1466:D:\design-mpu\source\ejemplos\BME680\bme680.c **** 
1467:D:\design-mpu\source\ejemplos\BME680\bme680.c **** 	for (i = 0; i < n_meas; i++) /* Every gas measurement should be valid */
1468:D:\design-mpu\source\ejemplos\BME680\bme680.c **** 		if (!(data[i].status & BME680_GASM_VALID_MSK))
 988              		.loc 1 1468 0
 989 0040 03EB8304 		add	r4, r3, r3, lsl #2
 990 0044 A200     		lsls	r2, r4, #2
 991 0046 825C     		ldrb	r2, [r0, r2]	@ zero_extendqisi2
 992 0048 12F0200F 		tst	r2, #32
 993 004c 01D1     		bne	.L58
ARM GAS  C:\Users\adria\AppData\Local\Temp\ccOKprka.s 			page 45


1469:D:\design-mpu\source\ejemplos\BME680\bme680.c **** 			self_test_failed++;
 994              		.loc 1 1469 0
 995 004e 0135     		adds	r5, r5, #1
 996              	.LVL138:
 997 0050 EDB2     		uxtb	r5, r5
 998              	.LVL139:
 999              	.L58:
1467:D:\design-mpu\source\ejemplos\BME680\bme680.c **** 		if (!(data[i].status & BME680_GASM_VALID_MSK))
 1000              		.loc 1 1467 0 discriminator 2
 1001 0052 0133     		adds	r3, r3, #1
 1002              	.LVL140:
 1003 0054 DBB2     		uxtb	r3, r3
 1004              	.LVL141:
 1005              	.L57:
1467:D:\design-mpu\source\ejemplos\BME680\bme680.c **** 		if (!(data[i].status & BME680_GASM_VALID_MSK))
 1006              		.loc 1 1467 0 is_stmt 0 discriminator 1
 1007 0056 8B42     		cmp	r3, r1
 1008 0058 F2D3     		bcc	.L59
1470:D:\design-mpu\source\ejemplos\BME680\bme680.c **** 
1471:D:\design-mpu\source\ejemplos\BME680\bme680.c **** 	if (n_meas >= 6)
 1009              		.loc 1 1471 0 is_stmt 1
 1010 005a 0529     		cmp	r1, #5
 1011 005c 07D9     		bls	.L64
1472:D:\design-mpu\source\ejemplos\BME680\bme680.c **** 		cent_res = (data[3].gas_resistance + data[5].gas_resistance) / (2 * data[4].gas_resistance);
 1012              		.loc 1 1472 0
 1013 005e C26C     		ldr	r2, [r0, #76]
 1014 0060 436F     		ldr	r3, [r0, #116]
 1015              	.LVL142:
 1016 0062 1344     		add	r3, r3, r2
 1017 0064 026E     		ldr	r2, [r0, #96]
 1018 0066 5200     		lsls	r2, r2, #1
 1019 0068 B3FBF2F3 		udiv	r3, r3, r2
 1020              	.LVL143:
 1021 006c 00E0     		b	.L60
 1022              	.LVL144:
 1023              	.L64:
1456:D:\design-mpu\source\ejemplos\BME680\bme680.c **** 
 1024              		.loc 1 1456 0
 1025 006e 0023     		movs	r3, #0
 1026              	.LVL145:
 1027              	.L60:
1473:D:\design-mpu\source\ejemplos\BME680\bme680.c **** 
1474:D:\design-mpu\source\ejemplos\BME680\bme680.c **** 	if ((cent_res * 5) < 6)
 1028              		.loc 1 1474 0
 1029 0070 03EB8303 		add	r3, r3, r3, lsl #2
 1030              	.LVL146:
 1031 0074 052B     		cmp	r3, #5
 1032 0076 01D8     		bhi	.L61
1475:D:\design-mpu\source\ejemplos\BME680\bme680.c **** 		self_test_failed++;
 1033              		.loc 1 1475 0
 1034 0078 0135     		adds	r5, r5, #1
 1035              	.LVL147:
 1036 007a EDB2     		uxtb	r5, r5
 1037              	.LVL148:
 1038              	.L61:
1476:D:\design-mpu\source\ejemplos\BME680\bme680.c **** 
1477:D:\design-mpu\source\ejemplos\BME680\bme680.c **** 	if (self_test_failed)
ARM GAS  C:\Users\adria\AppData\Local\Temp\ccOKprka.s 			page 46


 1039              		.loc 1 1477 0
 1040 007c 0DB9     		cbnz	r5, .L65
1454:D:\design-mpu\source\ejemplos\BME680\bme680.c **** 	uint8_t self_test_failed = 0, i;
 1041              		.loc 1 1454 0
 1042 007e 0020     		movs	r0, #0
 1043              	.LVL149:
 1044 0080 00E0     		b	.L62
 1045              	.LVL150:
 1046              	.L65:
1478:D:\design-mpu\source\ejemplos\BME680\bme680.c **** 		rslt = BME680_W_SELF_TEST_FAILED;
 1047              		.loc 1 1478 0
 1048 0082 0320     		movs	r0, #3
 1049              	.LVL151:
 1050              	.L62:
1479:D:\design-mpu\source\ejemplos\BME680\bme680.c **** 
1480:D:\design-mpu\source\ejemplos\BME680\bme680.c **** 	return rslt;
1481:D:\design-mpu\source\ejemplos\BME680\bme680.c **** }
 1051              		.loc 1 1481 0
 1052 0084 30BC     		pop	{r4, r5}
 1053              		.cfi_restore 5
 1054              		.cfi_restore 4
 1055              		.cfi_def_cfa_offset 0
 1056              	.LVL152:
 1057 0086 7047     		bx	lr
 1058              		.cfi_endproc
 1059              	.LFE89:
 1060              		.size	analyze_sensor_data, .-analyze_sensor_data
 1061              		.section	.text.user_delay_ms,"ax",%progbits
 1062              		.align	2
 1063              		.thumb
 1064              		.thumb_func
 1065              		.type	user_delay_ms, %function
 1066              	user_delay_ms:
 1067              	.LFB90:
1482:D:\design-mpu\source\ejemplos\BME680\bme680.c **** 
1483:D:\design-mpu\source\ejemplos\BME680\bme680.c **** static void user_delay_ms(uint32_t period)
1484:D:\design-mpu\source\ejemplos\BME680\bme680.c **** {
 1068              		.loc 1 1484 0
 1069              		.cfi_startproc
 1070              		@ args = 0, pretend = 0, frame = 0
 1071              		@ frame_needed = 0, uses_anonymous_args = 0
 1072              	.LVL153:
 1073 0000 08B5     		push	{r3, lr}
 1074              		.cfi_def_cfa_offset 8
 1075              		.cfi_offset 3, -8
 1076              		.cfi_offset 14, -4
1485:D:\design-mpu\source\ejemplos\BME680\bme680.c ****     /*
1486:D:\design-mpu\source\ejemplos\BME680\bme680.c ****      * Return control or wait,
1487:D:\design-mpu\source\ejemplos\BME680\bme680.c ****      * for a period amount of milliseconds
1488:D:\design-mpu\source\ejemplos\BME680\bme680.c ****      */
1489:D:\design-mpu\source\ejemplos\BME680\bme680.c ****     CyDelay(period);
 1077              		.loc 1 1489 0
 1078 0002 FFF7FEFF 		bl	CyDelay
 1079              	.LVL154:
 1080 0006 08BD     		pop	{r3, pc}
 1081              		.cfi_endproc
 1082              	.LFE90:
ARM GAS  C:\Users\adria\AppData\Local\Temp\ccOKprka.s 			page 47


 1083              		.size	user_delay_ms, .-user_delay_ms
 1084              		.section	.text.user_i2c_write,"ax",%progbits
 1085              		.align	2
 1086              		.thumb
 1087              		.thumb_func
 1088              		.type	user_i2c_write, %function
 1089              	user_i2c_write:
 1090              	.LFB92:
1490:D:\design-mpu\source\ejemplos\BME680\bme680.c **** }
1491:D:\design-mpu\source\ejemplos\BME680\bme680.c **** 
1492:D:\design-mpu\source\ejemplos\BME680\bme680.c **** static int8_t user_i2c_read(uint8_t dev_id, uint8_t reg_addr, uint8_t *reg_data, uint16_t len)
1493:D:\design-mpu\source\ejemplos\BME680\bme680.c **** {
1494:D:\design-mpu\source\ejemplos\BME680\bme680.c ****     int8_t rslt = 0; /* Return 0 for Success, non-zero for failure */
1495:D:\design-mpu\source\ejemplos\BME680\bme680.c ****     uint16_t i = 0;
1496:D:\design-mpu\source\ejemplos\BME680\bme680.c **** 
1497:D:\design-mpu\source\ejemplos\BME680\bme680.c ****     /*
1498:D:\design-mpu\source\ejemplos\BME680\bme680.c ****      * The parameter dev_id can be used as a variable to store the I2C address of the device
1499:D:\design-mpu\source\ejemplos\BME680\bme680.c ****      */
1500:D:\design-mpu\source\ejemplos\BME680\bme680.c **** 
1501:D:\design-mpu\source\ejemplos\BME680\bme680.c ****     /*
1502:D:\design-mpu\source\ejemplos\BME680\bme680.c ****      * Data on the bus should be like
1503:D:\design-mpu\source\ejemplos\BME680\bme680.c ****      * |------------+---------------------|
1504:D:\design-mpu\source\ejemplos\BME680\bme680.c ****      * | I2C action | Data                |
1505:D:\design-mpu\source\ejemplos\BME680\bme680.c ****      * |------------+---------------------|
1506:D:\design-mpu\source\ejemplos\BME680\bme680.c ****      * | Start      | -                   |
1507:D:\design-mpu\source\ejemplos\BME680\bme680.c ****      * | Write      | (reg_addr)          |
1508:D:\design-mpu\source\ejemplos\BME680\bme680.c ****      * | Stop       | -                   |
1509:D:\design-mpu\source\ejemplos\BME680\bme680.c ****      * | Start      | -                   |
1510:D:\design-mpu\source\ejemplos\BME680\bme680.c ****      * | Read       | (reg_data[0])       |
1511:D:\design-mpu\source\ejemplos\BME680\bme680.c ****      * | Read       | (....)              |
1512:D:\design-mpu\source\ejemplos\BME680\bme680.c ****      * | Read       | (reg_data[len - 1]) |
1513:D:\design-mpu\source\ejemplos\BME680\bme680.c ****      * | Stop       | -                   |
1514:D:\design-mpu\source\ejemplos\BME680\bme680.c ****      * |------------+---------------------|
1515:D:\design-mpu\source\ejemplos\BME680\bme680.c ****      */
1516:D:\design-mpu\source\ejemplos\BME680\bme680.c ****     
1517:D:\design-mpu\source\ejemplos\BME680\bme680.c ****     rslt = I2C_I2CMasterSendStart(dev_id,0,100);
1518:D:\design-mpu\source\ejemplos\BME680\bme680.c ****     rslt = I2C_I2CMasterWriteByte(reg_addr,100);
1519:D:\design-mpu\source\ejemplos\BME680\bme680.c ****     rslt = I2C_I2CMasterSendRestart(dev_id,1,100);
1520:D:\design-mpu\source\ejemplos\BME680\bme680.c ****     while(i < (len - 1)) {
1521:D:\design-mpu\source\ejemplos\BME680\bme680.c ****         rslt = I2C_I2CMasterReadByte(0,reg_data,100);
1522:D:\design-mpu\source\ejemplos\BME680\bme680.c ****         i++;
1523:D:\design-mpu\source\ejemplos\BME680\bme680.c ****         reg_data++;
1524:D:\design-mpu\source\ejemplos\BME680\bme680.c ****     }
1525:D:\design-mpu\source\ejemplos\BME680\bme680.c ****     rslt = I2C_I2CMasterReadByte(1,reg_data,100);
1526:D:\design-mpu\source\ejemplos\BME680\bme680.c ****     rslt = I2C_I2CMasterSendStop(100);
1527:D:\design-mpu\source\ejemplos\BME680\bme680.c ****         
1528:D:\design-mpu\source\ejemplos\BME680\bme680.c ****     return rslt;
1529:D:\design-mpu\source\ejemplos\BME680\bme680.c **** }
1530:D:\design-mpu\source\ejemplos\BME680\bme680.c **** 
1531:D:\design-mpu\source\ejemplos\BME680\bme680.c **** static int8_t user_i2c_write(uint8_t dev_id, uint8_t reg_addr, uint8_t *reg_data, uint16_t len)
1532:D:\design-mpu\source\ejemplos\BME680\bme680.c **** {
 1091              		.loc 1 1532 0
 1092              		.cfi_startproc
 1093              		@ args = 0, pretend = 0, frame = 0
 1094              		@ frame_needed = 0, uses_anonymous_args = 0
 1095              	.LVL155:
 1096 0000 70B5     		push	{r4, r5, r6, lr}
ARM GAS  C:\Users\adria\AppData\Local\Temp\ccOKprka.s 			page 48


 1097              		.cfi_def_cfa_offset 16
 1098              		.cfi_offset 4, -16
 1099              		.cfi_offset 5, -12
 1100              		.cfi_offset 6, -8
 1101              		.cfi_offset 14, -4
 1102 0002 0C46     		mov	r4, r1
 1103 0004 1546     		mov	r5, r2
 1104 0006 1E46     		mov	r6, r3
 1105              	.LVL156:
1533:D:\design-mpu\source\ejemplos\BME680\bme680.c ****     int8_t rslt = 0; /* Return 0 for Success, non-zero for failure */
1534:D:\design-mpu\source\ejemplos\BME680\bme680.c ****     uint16_t i = 0;
1535:D:\design-mpu\source\ejemplos\BME680\bme680.c **** 
1536:D:\design-mpu\source\ejemplos\BME680\bme680.c ****     /*
1537:D:\design-mpu\source\ejemplos\BME680\bme680.c ****      * The parameter dev_id can be used as a variable to store the I2C address of the device
1538:D:\design-mpu\source\ejemplos\BME680\bme680.c ****      */
1539:D:\design-mpu\source\ejemplos\BME680\bme680.c **** 
1540:D:\design-mpu\source\ejemplos\BME680\bme680.c ****     /*
1541:D:\design-mpu\source\ejemplos\BME680\bme680.c ****      * Data on the bus should be like
1542:D:\design-mpu\source\ejemplos\BME680\bme680.c ****      * |------------+---------------------|
1543:D:\design-mpu\source\ejemplos\BME680\bme680.c ****      * | I2C action | Data                |
1544:D:\design-mpu\source\ejemplos\BME680\bme680.c ****      * |------------+---------------------|
1545:D:\design-mpu\source\ejemplos\BME680\bme680.c ****      * | Start      | -                   |
1546:D:\design-mpu\source\ejemplos\BME680\bme680.c ****      * | Write      | (reg_addr)          |
1547:D:\design-mpu\source\ejemplos\BME680\bme680.c ****      * | Write      | (reg_data[0])       |
1548:D:\design-mpu\source\ejemplos\BME680\bme680.c ****      * | Write      | (....)              |
1549:D:\design-mpu\source\ejemplos\BME680\bme680.c ****      * | Write      | (reg_data[len - 1]) |
1550:D:\design-mpu\source\ejemplos\BME680\bme680.c ****      * | Stop       | -                   |
1551:D:\design-mpu\source\ejemplos\BME680\bme680.c ****      * |------------+---------------------|
1552:D:\design-mpu\source\ejemplos\BME680\bme680.c ****      */
1553:D:\design-mpu\source\ejemplos\BME680\bme680.c **** 
1554:D:\design-mpu\source\ejemplos\BME680\bme680.c ****     I2C_I2CMasterSendStart(dev_id,0,100);
 1106              		.loc 1 1554 0
 1107 0008 6422     		movs	r2, #100
 1108              	.LVL157:
 1109 000a 0021     		movs	r1, #0
 1110              	.LVL158:
 1111 000c FFF7FEFF 		bl	I2C_I2CMasterSendStart
 1112              	.LVL159:
1555:D:\design-mpu\source\ejemplos\BME680\bme680.c ****     I2C_I2CMasterWriteByte(reg_addr,100);
 1113              		.loc 1 1555 0
 1114 0010 6421     		movs	r1, #100
 1115 0012 2046     		mov	r0, r4
 1116 0014 FFF7FEFF 		bl	I2C_I2CMasterWriteByte
 1117              	.LVL160:
1534:D:\design-mpu\source\ejemplos\BME680\bme680.c **** 
 1118              		.loc 1 1534 0
 1119 0018 0024     		movs	r4, #0
1556:D:\design-mpu\source\ejemplos\BME680\bme680.c ****     while(i < len) {
 1120              		.loc 1 1556 0
 1121 001a 06E0     		b	.L70
 1122              	.LVL161:
 1123              	.L71:
1557:D:\design-mpu\source\ejemplos\BME680\bme680.c ****         I2C_I2CMasterWriteByte(*reg_data,100);
 1124              		.loc 1 1557 0
 1125 001c 6421     		movs	r1, #100
 1126 001e 15F8010B 		ldrb	r0, [r5], #1	@ zero_extendqisi2
 1127              	.LVL162:
ARM GAS  C:\Users\adria\AppData\Local\Temp\ccOKprka.s 			page 49


 1128 0022 FFF7FEFF 		bl	I2C_I2CMasterWriteByte
 1129              	.LVL163:
1558:D:\design-mpu\source\ejemplos\BME680\bme680.c ****         i++;
 1130              		.loc 1 1558 0
 1131 0026 0134     		adds	r4, r4, #1
 1132              	.LVL164:
 1133 0028 A4B2     		uxth	r4, r4
 1134              	.LVL165:
 1135              	.L70:
1556:D:\design-mpu\source\ejemplos\BME680\bme680.c ****     while(i < len) {
 1136              		.loc 1 1556 0
 1137 002a B442     		cmp	r4, r6
 1138 002c F6D3     		bcc	.L71
1559:D:\design-mpu\source\ejemplos\BME680\bme680.c ****         reg_data++;
1560:D:\design-mpu\source\ejemplos\BME680\bme680.c ****     }
1561:D:\design-mpu\source\ejemplos\BME680\bme680.c ****     I2C_I2CMasterSendStop(100);
 1139              		.loc 1 1561 0
 1140 002e 6420     		movs	r0, #100
 1141 0030 FFF7FEFF 		bl	I2C_I2CMasterSendStop
 1142              	.LVL166:
1562:D:\design-mpu\source\ejemplos\BME680\bme680.c ****     
1563:D:\design-mpu\source\ejemplos\BME680\bme680.c ****     return rslt;
1564:D:\design-mpu\source\ejemplos\BME680\bme680.c **** }
 1143              		.loc 1 1564 0
 1144 0034 0020     		movs	r0, #0
 1145 0036 70BD     		pop	{r4, r5, r6, pc}
 1146              		.cfi_endproc
 1147              	.LFE92:
 1148              		.size	user_i2c_write, .-user_i2c_write
 1149              		.section	.text.user_i2c_read,"ax",%progbits
 1150              		.align	2
 1151              		.thumb
 1152              		.thumb_func
 1153              		.type	user_i2c_read, %function
 1154              	user_i2c_read:
 1155              	.LFB91:
1493:D:\design-mpu\source\ejemplos\BME680\bme680.c ****     int8_t rslt = 0; /* Return 0 for Success, non-zero for failure */
 1156              		.loc 1 1493 0
 1157              		.cfi_startproc
 1158              		@ args = 0, pretend = 0, frame = 0
 1159              		@ frame_needed = 0, uses_anonymous_args = 0
 1160              	.LVL167:
 1161 0000 F8B5     		push	{r3, r4, r5, r6, r7, lr}
 1162              		.cfi_def_cfa_offset 24
 1163              		.cfi_offset 3, -24
 1164              		.cfi_offset 4, -20
 1165              		.cfi_offset 5, -16
 1166              		.cfi_offset 6, -12
 1167              		.cfi_offset 7, -8
 1168              		.cfi_offset 14, -4
 1169 0002 0446     		mov	r4, r0
 1170 0004 0F46     		mov	r7, r1
 1171 0006 1546     		mov	r5, r2
 1172 0008 1E46     		mov	r6, r3
 1173              	.LVL168:
1517:D:\design-mpu\source\ejemplos\BME680\bme680.c ****     rslt = I2C_I2CMasterWriteByte(reg_addr,100);
 1174              		.loc 1 1517 0
ARM GAS  C:\Users\adria\AppData\Local\Temp\ccOKprka.s 			page 50


 1175 000a 6422     		movs	r2, #100
 1176              	.LVL169:
 1177 000c 0021     		movs	r1, #0
 1178              	.LVL170:
 1179 000e FFF7FEFF 		bl	I2C_I2CMasterSendStart
 1180              	.LVL171:
1518:D:\design-mpu\source\ejemplos\BME680\bme680.c ****     rslt = I2C_I2CMasterSendRestart(dev_id,1,100);
 1181              		.loc 1 1518 0
 1182 0012 6421     		movs	r1, #100
 1183 0014 3846     		mov	r0, r7
 1184 0016 FFF7FEFF 		bl	I2C_I2CMasterWriteByte
 1185              	.LVL172:
1519:D:\design-mpu\source\ejemplos\BME680\bme680.c ****     while(i < (len - 1)) {
 1186              		.loc 1 1519 0
 1187 001a 6422     		movs	r2, #100
 1188 001c 0121     		movs	r1, #1
 1189 001e 2046     		mov	r0, r4
 1190 0020 FFF7FEFF 		bl	I2C_I2CMasterSendRestart
 1191              	.LVL173:
1495:D:\design-mpu\source\ejemplos\BME680\bme680.c **** 
 1192              		.loc 1 1495 0
 1193 0024 0024     		movs	r4, #0
1520:D:\design-mpu\source\ejemplos\BME680\bme680.c ****         rslt = I2C_I2CMasterReadByte(0,reg_data,100);
 1194              		.loc 1 1520 0
 1195 0026 07E0     		b	.L74
 1196              	.LVL174:
 1197              	.L75:
 1198              	.LBB2:
1521:D:\design-mpu\source\ejemplos\BME680\bme680.c ****         i++;
 1199              		.loc 1 1521 0
 1200 0028 6422     		movs	r2, #100
 1201 002a 2946     		mov	r1, r5
 1202 002c 0020     		movs	r0, #0
 1203 002e FFF7FEFF 		bl	I2C_I2CMasterReadByte
 1204              	.LVL175:
1522:D:\design-mpu\source\ejemplos\BME680\bme680.c ****         reg_data++;
 1205              		.loc 1 1522 0
 1206 0032 0134     		adds	r4, r4, #1
 1207              	.LVL176:
 1208 0034 A4B2     		uxth	r4, r4
 1209              	.LVL177:
1523:D:\design-mpu\source\ejemplos\BME680\bme680.c ****     }
 1210              		.loc 1 1523 0
 1211 0036 0135     		adds	r5, r5, #1
 1212              	.LVL178:
 1213              	.L74:
 1214              	.LBE2:
1520:D:\design-mpu\source\ejemplos\BME680\bme680.c ****         rslt = I2C_I2CMasterReadByte(0,reg_data,100);
 1215              		.loc 1 1520 0
 1216 0038 731E     		subs	r3, r6, #1
 1217 003a 9C42     		cmp	r4, r3
 1218 003c F4DB     		blt	.L75
1525:D:\design-mpu\source\ejemplos\BME680\bme680.c ****     rslt = I2C_I2CMasterSendStop(100);
 1219              		.loc 1 1525 0
 1220 003e 6422     		movs	r2, #100
 1221 0040 2946     		mov	r1, r5
 1222 0042 0120     		movs	r0, #1
ARM GAS  C:\Users\adria\AppData\Local\Temp\ccOKprka.s 			page 51


 1223 0044 FFF7FEFF 		bl	I2C_I2CMasterReadByte
 1224              	.LVL179:
1526:D:\design-mpu\source\ejemplos\BME680\bme680.c ****         
 1225              		.loc 1 1526 0
 1226 0048 6420     		movs	r0, #100
 1227 004a FFF7FEFF 		bl	I2C_I2CMasterSendStop
 1228              	.LVL180:
1529:D:\design-mpu\source\ejemplos\BME680\bme680.c **** 
 1229              		.loc 1 1529 0
 1230 004e 40B2     		sxtb	r0, r0
 1231 0050 F8BD     		pop	{r3, r4, r5, r6, r7, pc}
 1232              		.cfi_endproc
 1233              	.LFE91:
 1234              		.size	user_i2c_read, .-user_i2c_read
 1235 0052 00BF     		.section	.text.bme680_get_regs,"ax",%progbits
 1236              		.align	2
 1237              		.global	bme680_get_regs
 1238              		.thumb
 1239              		.thumb_func
 1240              		.type	bme680_get_regs, %function
 1241              	bme680_get_regs:
 1242              	.LFB64:
 312:D:\design-mpu\source\ejemplos\BME680\bme680.c **** 	int8_t rslt;
 1243              		.loc 1 312 0
 1244              		.cfi_startproc
 1245              		@ args = 0, pretend = 0, frame = 0
 1246              		@ frame_needed = 0, uses_anonymous_args = 0
 1247              	.LVL181:
 1248 0000 2DE9F843 		push	{r3, r4, r5, r6, r7, r8, r9, lr}
 1249              		.cfi_def_cfa_offset 32
 1250              		.cfi_offset 3, -32
 1251              		.cfi_offset 4, -28
 1252              		.cfi_offset 5, -24
 1253              		.cfi_offset 6, -20
 1254              		.cfi_offset 7, -16
 1255              		.cfi_offset 8, -12
 1256              		.cfi_offset 9, -8
 1257              		.cfi_offset 14, -4
 1258 0004 0646     		mov	r6, r0
 1259 0006 8846     		mov	r8, r1
 1260 0008 9146     		mov	r9, r2
 1261 000a 1C46     		mov	r4, r3
 316:D:\design-mpu\source\ejemplos\BME680\bme680.c **** 	if (rslt == BME680_OK) {
 1262              		.loc 1 316 0
 1263 000c 1846     		mov	r0, r3
 1264              	.LVL182:
 1265 000e FFF7FEFF 		bl	null_ptr_check
 1266              	.LVL183:
 317:D:\design-mpu\source\ejemplos\BME680\bme680.c **** 		if (dev->intf == BME680_SPI_INTF) {
 1267              		.loc 1 317 0
 1268 0012 0546     		mov	r5, r0
 1269 0014 A0B9     		cbnz	r0, .L78
 318:D:\design-mpu\source\ejemplos\BME680\bme680.c **** 			/* Set the memory page */
 1270              		.loc 1 318 0
 1271 0016 A378     		ldrb	r3, [r4, #2]	@ zero_extendqisi2
 1272 0018 3BB9     		cbnz	r3, .L79
 320:D:\design-mpu\source\ejemplos\BME680\bme680.c **** 			if (rslt == BME680_OK)
ARM GAS  C:\Users\adria\AppData\Local\Temp\ccOKprka.s 			page 52


 1273              		.loc 1 320 0
 1274 001a 2146     		mov	r1, r4
 1275 001c 3046     		mov	r0, r6
 1276              	.LVL184:
 1277 001e FFF7FEFF 		bl	set_mem_page
 1278              	.LVL185:
 321:D:\design-mpu\source\ejemplos\BME680\bme680.c **** 				reg_addr = reg_addr | BME680_SPI_RD_MSK;
 1279              		.loc 1 321 0
 1280 0022 0546     		mov	r5, r0
 1281 0024 08B9     		cbnz	r0, .L79
 322:D:\design-mpu\source\ejemplos\BME680\bme680.c **** 		}
 1282              		.loc 1 322 0
 1283 0026 46F08006 		orr	r6, r6, #128
 1284              	.LVL186:
 1285              	.L79:
 324:D:\design-mpu\source\ejemplos\BME680\bme680.c **** 		if (dev->com_rslt != 0)
 1286              		.loc 1 324 0
 1287 002a A76C     		ldr	r7, [r4, #72]
 1288 002c 4B46     		mov	r3, r9
 1289 002e 4246     		mov	r2, r8
 1290 0030 3146     		mov	r1, r6
 1291 0032 6078     		ldrb	r0, [r4, #1]	@ zero_extendqisi2
 1292 0034 B847     		blx	r7
 1293              	.LVL187:
 1294 0036 84F85400 		strb	r0, [r4, #84]
 325:D:\design-mpu\source\ejemplos\BME680\bme680.c **** 			rslt = BME680_E_COM_FAIL;
 1295              		.loc 1 325 0
 1296 003a 08B1     		cbz	r0, .L78
 326:D:\design-mpu\source\ejemplos\BME680\bme680.c **** 	}
 1297              		.loc 1 326 0
 1298 003c 6FF00105 		mvn	r5, #1
 1299              	.LVL188:
 1300              	.L78:
 330:D:\design-mpu\source\ejemplos\BME680\bme680.c **** 
 1301              		.loc 1 330 0
 1302 0040 2846     		mov	r0, r5
 1303 0042 BDE8F883 		pop	{r3, r4, r5, r6, r7, r8, r9, pc}
 1304              		.cfi_endproc
 1305              	.LFE64:
 1306              		.size	bme680_get_regs, .-bme680_get_regs
 1307 0046 00BF     		.section	.text.get_calib_data,"ax",%progbits
 1308              		.align	2
 1309              		.thumb
 1310              		.thumb_func
 1311              		.type	get_calib_data, %function
 1312              	get_calib_data:
 1313              	.LFB74:
 725:D:\design-mpu\source\ejemplos\BME680\bme680.c **** 	int8_t rslt;
 1314              		.loc 1 725 0
 1315              		.cfi_startproc
 1316              		@ args = 0, pretend = 0, frame = 48
 1317              		@ frame_needed = 0, uses_anonymous_args = 0
 1318              	.LVL189:
 1319 0000 10B5     		push	{r4, lr}
 1320              		.cfi_def_cfa_offset 8
 1321              		.cfi_offset 4, -8
 1322              		.cfi_offset 14, -4
ARM GAS  C:\Users\adria\AppData\Local\Temp\ccOKprka.s 			page 53


 1323 0002 8CB0     		sub	sp, sp, #48
 1324              		.cfi_def_cfa_offset 56
 1325 0004 0446     		mov	r4, r0
 727:D:\design-mpu\source\ejemplos\BME680\bme680.c **** 	uint8_t temp_var = 0; /* Temporary variable */
 1326              		.loc 1 727 0
 1327 0006 2922     		movs	r2, #41
 1328 0008 0021     		movs	r1, #0
 1329 000a 01A8     		add	r0, sp, #4
 1330              	.LVL190:
 1331 000c FFF7FEFF 		bl	memset
 1332              	.LVL191:
 728:D:\design-mpu\source\ejemplos\BME680\bme680.c **** 
 1333              		.loc 1 728 0
 1334 0010 0023     		movs	r3, #0
 1335 0012 8DF80330 		strb	r3, [sp, #3]
 731:D:\design-mpu\source\ejemplos\BME680\bme680.c **** 	if (rslt == BME680_OK) {
 1336              		.loc 1 731 0
 1337 0016 2046     		mov	r0, r4
 1338 0018 FFF7FEFF 		bl	null_ptr_check
 1339              	.LVL192:
 732:D:\design-mpu\source\ejemplos\BME680\bme680.c **** 		rslt = bme680_get_regs(BME680_COEFF_ADDR1, coeff_array, BME680_COEFF_ADDR1_LEN, dev);
 1340              		.loc 1 732 0
 1341 001c 0346     		mov	r3, r0
 1342 001e 0028     		cmp	r0, #0
 1343 0020 40F0B080 		bne	.L83
 733:D:\design-mpu\source\ejemplos\BME680\bme680.c **** 		/* Append the second half in the same array */
 1344              		.loc 1 733 0
 1345 0024 2346     		mov	r3, r4
 1346 0026 1922     		movs	r2, #25
 1347 0028 01A9     		add	r1, sp, #4
 1348 002a 8920     		movs	r0, #137
 1349              	.LVL193:
 1350 002c FFF7FEFF 		bl	bme680_get_regs
 1351              	.LVL194:
 735:D:\design-mpu\source\ejemplos\BME680\bme680.c **** 			rslt = bme680_get_regs(BME680_COEFF_ADDR2, &coeff_array[BME680_COEFF_ADDR1_LEN]
 1352              		.loc 1 735 0
 1353 0030 0346     		mov	r3, r0
 1354 0032 38B9     		cbnz	r0, .L84
 736:D:\design-mpu\source\ejemplos\BME680\bme680.c **** 			, BME680_COEFF_ADDR2_LEN, dev);
 1355              		.loc 1 736 0
 1356 0034 2346     		mov	r3, r4
 1357 0036 1022     		movs	r2, #16
 1358 0038 0DF11D01 		add	r1, sp, #29
 1359 003c E120     		movs	r0, #225
 1360              	.LVL195:
 1361 003e FFF7FEFF 		bl	bme680_get_regs
 1362              	.LVL196:
 1363 0042 0346     		mov	r3, r0
 1364              	.LVL197:
 1365              	.L84:
 740:D:\design-mpu\source\ejemplos\BME680\bme680.c **** 			coeff_array[BME680_T1_LSB_REG]));
 1366              		.loc 1 740 0
 1367 0044 9DF82610 		ldrb	r1, [sp, #38]	@ zero_extendqisi2
 1368 0048 9DF82520 		ldrb	r2, [sp, #37]	@ zero_extendqisi2
 1369 004c 42EA0122 		orr	r2, r2, r1, lsl #8
 1370 0050 E282     		strh	r2, [r4, #22]	@ movhi
 742:D:\design-mpu\source\ejemplos\BME680\bme680.c **** 			coeff_array[BME680_T2_LSB_REG]));
ARM GAS  C:\Users\adria\AppData\Local\Temp\ccOKprka.s 			page 54


 1371              		.loc 1 742 0
 1372 0052 9DF80610 		ldrb	r1, [sp, #6]	@ zero_extendqisi2
 1373 0056 9DF80520 		ldrb	r2, [sp, #5]	@ zero_extendqisi2
 1374 005a 42EA0122 		orr	r2, r2, r1, lsl #8
 1375 005e 2283     		strh	r2, [r4, #24]	@ movhi
 744:D:\design-mpu\source\ejemplos\BME680\bme680.c **** 
 1376              		.loc 1 744 0
 1377 0060 9DF90720 		ldrsb	r2, [sp, #7]
 1378 0064 A276     		strb	r2, [r4, #26]
 747:D:\design-mpu\source\ejemplos\BME680\bme680.c **** 			coeff_array[BME680_P1_LSB_REG]));
 1379              		.loc 1 747 0
 1380 0066 9DF80A10 		ldrb	r1, [sp, #10]	@ zero_extendqisi2
 1381 006a 9DF80920 		ldrb	r2, [sp, #9]	@ zero_extendqisi2
 1382 006e 42EA0122 		orr	r2, r2, r1, lsl #8
 1383 0072 A283     		strh	r2, [r4, #28]	@ movhi
 749:D:\design-mpu\source\ejemplos\BME680\bme680.c **** 			coeff_array[BME680_P2_LSB_REG]));
 1384              		.loc 1 749 0
 1385 0074 9DF80C10 		ldrb	r1, [sp, #12]	@ zero_extendqisi2
 1386 0078 9DF80B20 		ldrb	r2, [sp, #11]	@ zero_extendqisi2
 1387 007c 42EA0122 		orr	r2, r2, r1, lsl #8
 1388 0080 E283     		strh	r2, [r4, #30]	@ movhi
 751:D:\design-mpu\source\ejemplos\BME680\bme680.c **** 		dev->calib.par_p4 = (int16_t) (BME680_CONCAT_BYTES(coeff_array[BME680_P4_MSB_REG],
 1389              		.loc 1 751 0
 1390 0082 9DF90D20 		ldrsb	r2, [sp, #13]
 1391 0086 84F82020 		strb	r2, [r4, #32]
 752:D:\design-mpu\source\ejemplos\BME680\bme680.c **** 			coeff_array[BME680_P4_LSB_REG]));
 1392              		.loc 1 752 0
 1393 008a 9DF81010 		ldrb	r1, [sp, #16]	@ zero_extendqisi2
 1394 008e 9DF80F20 		ldrb	r2, [sp, #15]	@ zero_extendqisi2
 1395 0092 42EA0122 		orr	r2, r2, r1, lsl #8
 1396 0096 6284     		strh	r2, [r4, #34]	@ movhi
 754:D:\design-mpu\source\ejemplos\BME680\bme680.c **** 			coeff_array[BME680_P5_LSB_REG]));
 1397              		.loc 1 754 0
 1398 0098 9DF81210 		ldrb	r1, [sp, #18]	@ zero_extendqisi2
 1399 009c 9DF81120 		ldrb	r2, [sp, #17]	@ zero_extendqisi2
 1400 00a0 42EA0122 		orr	r2, r2, r1, lsl #8
 1401 00a4 A284     		strh	r2, [r4, #36]	@ movhi
 756:D:\design-mpu\source\ejemplos\BME680\bme680.c **** 		dev->calib.par_p7 = (int8_t) (coeff_array[BME680_P7_REG]);
 1402              		.loc 1 756 0
 1403 00a6 9DF91420 		ldrsb	r2, [sp, #20]
 1404 00aa 84F82620 		strb	r2, [r4, #38]
 757:D:\design-mpu\source\ejemplos\BME680\bme680.c **** 		dev->calib.par_p8 = (int16_t) (BME680_CONCAT_BYTES(coeff_array[BME680_P8_MSB_REG],
 1405              		.loc 1 757 0
 1406 00ae 9DF91320 		ldrsb	r2, [sp, #19]
 1407 00b2 84F82720 		strb	r2, [r4, #39]
 758:D:\design-mpu\source\ejemplos\BME680\bme680.c **** 			coeff_array[BME680_P8_LSB_REG]));
 1408              		.loc 1 758 0
 1409 00b6 9DF81810 		ldrb	r1, [sp, #24]	@ zero_extendqisi2
 1410 00ba 9DF81720 		ldrb	r2, [sp, #23]	@ zero_extendqisi2
 1411 00be 42EA0122 		orr	r2, r2, r1, lsl #8
 1412 00c2 2285     		strh	r2, [r4, #40]	@ movhi
 760:D:\design-mpu\source\ejemplos\BME680\bme680.c **** 			coeff_array[BME680_P9_LSB_REG]));
 1413              		.loc 1 760 0
 1414 00c4 9DF81A10 		ldrb	r1, [sp, #26]	@ zero_extendqisi2
 1415 00c8 9DF81920 		ldrb	r2, [sp, #25]	@ zero_extendqisi2
 1416 00cc 42EA0122 		orr	r2, r2, r1, lsl #8
 1417 00d0 6285     		strh	r2, [r4, #42]	@ movhi
ARM GAS  C:\Users\adria\AppData\Local\Temp\ccOKprka.s 			page 55


 762:D:\design-mpu\source\ejemplos\BME680\bme680.c **** 
 1418              		.loc 1 762 0
 1419 00d2 9DF81B20 		ldrb	r2, [sp, #27]	@ zero_extendqisi2
 1420 00d6 84F82C20 		strb	r2, [r4, #44]
 765:D:\design-mpu\source\ejemplos\BME680\bme680.c **** 			| (coeff_array[BME680_H1_LSB_REG] & BME680_BIT_H1_DATA_MSK));
 1421              		.loc 1 765 0
 1422 00da 9DF81F00 		ldrb	r0, [sp, #31]	@ zero_extendqisi2
 766:D:\design-mpu\source\ejemplos\BME680\bme680.c **** 		dev->calib.par_h2 = (uint16_t) (((uint16_t) coeff_array[BME680_H2_MSB_REG] << BME680_HUM_REG_SHIF
 1423              		.loc 1 766 0
 1424 00de 9DF81E20 		ldrb	r2, [sp, #30]	@ zero_extendqisi2
 765:D:\design-mpu\source\ejemplos\BME680\bme680.c **** 			| (coeff_array[BME680_H1_LSB_REG] & BME680_BIT_H1_DATA_MSK));
 1425              		.loc 1 765 0
 1426 00e2 02F00F01 		and	r1, r2, #15
 1427 00e6 41EA0011 		orr	r1, r1, r0, lsl #4
 1428 00ea 2181     		strh	r1, [r4, #8]	@ movhi
 767:D:\design-mpu\source\ejemplos\BME680\bme680.c **** 			| ((coeff_array[BME680_H2_LSB_REG]) >> BME680_HUM_REG_SHIFT_VAL));
 1429              		.loc 1 767 0
 1430 00ec 9DF81D10 		ldrb	r1, [sp, #29]	@ zero_extendqisi2
 1431 00f0 1209     		lsrs	r2, r2, #4
 1432 00f2 42EA0112 		orr	r2, r2, r1, lsl #4
 1433 00f6 6281     		strh	r2, [r4, #10]	@ movhi
 769:D:\design-mpu\source\ejemplos\BME680\bme680.c **** 		dev->calib.par_h4 = (int8_t) coeff_array[BME680_H4_REG];
 1434              		.loc 1 769 0
 1435 00f8 9DF92020 		ldrsb	r2, [sp, #32]
 1436 00fc 2273     		strb	r2, [r4, #12]
 770:D:\design-mpu\source\ejemplos\BME680\bme680.c **** 		dev->calib.par_h5 = (int8_t) coeff_array[BME680_H5_REG];
 1437              		.loc 1 770 0
 1438 00fe 9DF92120 		ldrsb	r2, [sp, #33]
 1439 0102 6273     		strb	r2, [r4, #13]
 771:D:\design-mpu\source\ejemplos\BME680\bme680.c **** 		dev->calib.par_h6 = (uint8_t) coeff_array[BME680_H6_REG];
 1440              		.loc 1 771 0
 1441 0104 9DF92220 		ldrsb	r2, [sp, #34]
 1442 0108 A273     		strb	r2, [r4, #14]
 772:D:\design-mpu\source\ejemplos\BME680\bme680.c **** 		dev->calib.par_h7 = (int8_t) coeff_array[BME680_H7_REG];
 1443              		.loc 1 772 0
 1444 010a 9DF82320 		ldrb	r2, [sp, #35]	@ zero_extendqisi2
 1445 010e E273     		strb	r2, [r4, #15]
 773:D:\design-mpu\source\ejemplos\BME680\bme680.c **** 
 1446              		.loc 1 773 0
 1447 0110 9DF92420 		ldrsb	r2, [sp, #36]
 1448 0114 2274     		strb	r2, [r4, #16]
 776:D:\design-mpu\source\ejemplos\BME680\bme680.c **** 		dev->calib.par_gh2 = (int16_t) (BME680_CONCAT_BYTES(coeff_array[BME680_GH2_MSB_REG],
 1449              		.loc 1 776 0
 1450 0116 9DF92920 		ldrsb	r2, [sp, #41]
 1451 011a 6274     		strb	r2, [r4, #17]
 777:D:\design-mpu\source\ejemplos\BME680\bme680.c **** 			coeff_array[BME680_GH2_LSB_REG]));
 1452              		.loc 1 777 0
 1453 011c 9DF82810 		ldrb	r1, [sp, #40]	@ zero_extendqisi2
 1454 0120 9DF82720 		ldrb	r2, [sp, #39]	@ zero_extendqisi2
 1455 0124 42EA0122 		orr	r2, r2, r1, lsl #8
 1456 0128 6282     		strh	r2, [r4, #18]	@ movhi
 779:D:\design-mpu\source\ejemplos\BME680\bme680.c **** 
 1457              		.loc 1 779 0
 1458 012a 9DF92A20 		ldrsb	r2, [sp, #42]
 1459 012e 2275     		strb	r2, [r4, #20]
 782:D:\design-mpu\source\ejemplos\BME680\bme680.c **** 			rslt = bme680_get_regs(BME680_ADDR_RES_HEAT_RANGE_ADDR, &temp_var, 1, dev);
 1460              		.loc 1 782 0
ARM GAS  C:\Users\adria\AppData\Local\Temp\ccOKprka.s 			page 56


 1461 0130 1BBB     		cbnz	r3, .L85
 783:D:\design-mpu\source\ejemplos\BME680\bme680.c **** 
 1462              		.loc 1 783 0
 1463 0132 2346     		mov	r3, r4
 1464              	.LVL198:
 1465 0134 0122     		movs	r2, #1
 1466 0136 0DF10301 		add	r1, sp, #3
 1467 013a 0220     		movs	r0, #2
 1468 013c FFF7FEFF 		bl	bme680_get_regs
 1469              	.LVL199:
 785:D:\design-mpu\source\ejemplos\BME680\bme680.c **** 			if (rslt == BME680_OK) {
 1470              		.loc 1 785 0
 1471 0140 9DF80330 		ldrb	r3, [sp, #3]	@ zero_extendqisi2
 1472 0144 03F03003 		and	r3, r3, #48
 1473 0148 1B11     		asrs	r3, r3, #4
 1474 014a 84F83430 		strb	r3, [r4, #52]
 786:D:\design-mpu\source\ejemplos\BME680\bme680.c **** 				rslt = bme680_get_regs(BME680_ADDR_RES_HEAT_VAL_ADDR, &temp_var, 1, dev);
 1475              		.loc 1 786 0
 1476 014e 0346     		mov	r3, r0
 1477 0150 98B9     		cbnz	r0, .L85
 787:D:\design-mpu\source\ejemplos\BME680\bme680.c **** 
 1478              		.loc 1 787 0
 1479 0152 2346     		mov	r3, r4
 1480 0154 0122     		movs	r2, #1
 1481 0156 0DF10301 		add	r1, sp, #3
 1482 015a FFF7FEFF 		bl	bme680_get_regs
 1483              	.LVL200:
 789:D:\design-mpu\source\ejemplos\BME680\bme680.c **** 				if (rslt == BME680_OK)
 1484              		.loc 1 789 0
 1485 015e 9DF90330 		ldrsb	r3, [sp, #3]
 1486 0162 84F83530 		strb	r3, [r4, #53]
 790:D:\design-mpu\source\ejemplos\BME680\bme680.c **** 					rslt = bme680_get_regs(BME680_ADDR_RANGE_SW_ERR_ADDR, &temp_var, 1, dev);
 1487              		.loc 1 790 0
 1488 0166 0346     		mov	r3, r0
 1489 0168 38B9     		cbnz	r0, .L85
 791:D:\design-mpu\source\ejemplos\BME680\bme680.c **** 			}
 1490              		.loc 1 791 0
 1491 016a 2346     		mov	r3, r4
 1492 016c 0122     		movs	r2, #1
 1493 016e 0DF10301 		add	r1, sp, #3
 1494 0172 0420     		movs	r0, #4
 1495              	.LVL201:
 1496 0174 FFF7FEFF 		bl	bme680_get_regs
 1497              	.LVL202:
 1498 0178 0346     		mov	r3, r0
 1499              	.LVL203:
 1500              	.L85:
 794:D:\design-mpu\source\ejemplos\BME680\bme680.c **** 	}
 1501              		.loc 1 794 0
 1502 017a 9DF90320 		ldrsb	r2, [sp, #3]
 1503 017e 1211     		asrs	r2, r2, #4
 1504 0180 84F83620 		strb	r2, [r4, #54]
 1505              	.LVL204:
 1506              	.L83:
 798:D:\design-mpu\source\ejemplos\BME680\bme680.c **** 
 1507              		.loc 1 798 0
 1508 0184 1846     		mov	r0, r3
ARM GAS  C:\Users\adria\AppData\Local\Temp\ccOKprka.s 			page 57


 1509 0186 0CB0     		add	sp, sp, #48
 1510              		.cfi_def_cfa_offset 8
 1511              		@ sp needed
 1512 0188 10BD     		pop	{r4, pc}
 1513              		.cfi_endproc
 1514              	.LFE74:
 1515              		.size	get_calib_data, .-get_calib_data
 1516 018a 00BF     		.section	.text.get_gas_config,"ax",%progbits
 1517              		.align	2
 1518              		.thumb
 1519              		.thumb_func
 1520              		.type	get_gas_config, %function
 1521              	get_gas_config:
 1522              	.LFB76:
 836:D:\design-mpu\source\ejemplos\BME680\bme680.c **** 	int8_t rslt;
 1523              		.loc 1 836 0
 1524              		.cfi_startproc
 1525              		@ args = 0, pretend = 0, frame = 8
 1526              		@ frame_needed = 0, uses_anonymous_args = 0
 1527              	.LVL205:
 1528 0000 10B5     		push	{r4, lr}
 1529              		.cfi_def_cfa_offset 8
 1530              		.cfi_offset 4, -8
 1531              		.cfi_offset 14, -4
 1532 0002 82B0     		sub	sp, sp, #8
 1533              		.cfi_def_cfa_offset 16
 1534 0004 0446     		mov	r4, r0
 1535              	.LVL206:
 841:D:\design-mpu\source\ejemplos\BME680\bme680.c **** 
 1536              		.loc 1 841 0
 1537 0006 0023     		movs	r3, #0
 1538 0008 8DF80730 		strb	r3, [sp, #7]
 844:D:\design-mpu\source\ejemplos\BME680\bme680.c **** 	if (rslt == BME680_OK) {
 1539              		.loc 1 844 0
 1540 000c FFF7FEFF 		bl	null_ptr_check
 1541              	.LVL207:
 845:D:\design-mpu\source\ejemplos\BME680\bme680.c **** 		if (BME680_SPI_INTF == dev->intf) {
 1542              		.loc 1 845 0
 1543 0010 0346     		mov	r3, r0
 1544 0012 00BB     		cbnz	r0, .L89
 846:D:\design-mpu\source\ejemplos\BME680\bme680.c **** 			/* Memory page switch the SPI address*/
 1545              		.loc 1 846 0
 1546 0014 A278     		ldrb	r2, [r4, #2]	@ zero_extendqisi2
 1547 0016 22B9     		cbnz	r2, .L90
 848:D:\design-mpu\source\ejemplos\BME680\bme680.c **** 		}
 1548              		.loc 1 848 0
 1549 0018 2146     		mov	r1, r4
 1550 001a 5A20     		movs	r0, #90
 1551              	.LVL208:
 1552 001c FFF7FEFF 		bl	set_mem_page
 1553              	.LVL209:
 1554 0020 0346     		mov	r3, r0
 1555              	.LVL210:
 1556              	.L90:
 851:D:\design-mpu\source\ejemplos\BME680\bme680.c **** 			rslt = bme680_get_regs(reg_addr1, &reg_data, 1, dev);
 1557              		.loc 1 851 0
 1558 0022 C3B9     		cbnz	r3, .L89
ARM GAS  C:\Users\adria\AppData\Local\Temp\ccOKprka.s 			page 58


 852:D:\design-mpu\source\ejemplos\BME680\bme680.c **** 			if (rslt == BME680_OK) {
 1559              		.loc 1 852 0
 1560 0024 2346     		mov	r3, r4
 1561              	.LVL211:
 1562 0026 0122     		movs	r2, #1
 1563 0028 0DF10701 		add	r1, sp, #7
 1564 002c 5A20     		movs	r0, #90
 1565 002e FFF7FEFF 		bl	bme680_get_regs
 1566              	.LVL212:
 853:D:\design-mpu\source\ejemplos\BME680\bme680.c **** 				dev->gas_sett.heatr_temp = reg_data;
 1567              		.loc 1 853 0
 1568 0032 0346     		mov	r3, r0
 1569 0034 78B9     		cbnz	r0, .L89
 854:D:\design-mpu\source\ejemplos\BME680\bme680.c **** 				rslt = bme680_get_regs(reg_addr2, &reg_data, 1, dev);
 1570              		.loc 1 854 0
 1571 0036 02A9     		add	r1, sp, #8
 1572 0038 11F8013D 		ldrb	r3, [r1, #-1]!	@ zero_extendqisi2
 1573 003c A4F84030 		strh	r3, [r4, #64]	@ movhi
 855:D:\design-mpu\source\ejemplos\BME680\bme680.c **** 				if (rslt == BME680_OK) {
 1574              		.loc 1 855 0
 1575 0040 2346     		mov	r3, r4
 1576 0042 0122     		movs	r2, #1
 1577 0044 6420     		movs	r0, #100
 1578              	.LVL213:
 1579 0046 FFF7FEFF 		bl	bme680_get_regs
 1580              	.LVL214:
 856:D:\design-mpu\source\ejemplos\BME680\bme680.c **** 					/* Heating duration register value */
 1581              		.loc 1 856 0
 1582 004a 0346     		mov	r3, r0
 1583 004c 18B9     		cbnz	r0, .L89
 858:D:\design-mpu\source\ejemplos\BME680\bme680.c **** 				}
 1584              		.loc 1 858 0
 1585 004e 9DF80720 		ldrb	r2, [sp, #7]	@ zero_extendqisi2
 1586 0052 A4F84220 		strh	r2, [r4, #66]	@ movhi
 1587              	.LVL215:
 1588              	.L89:
 865:D:\design-mpu\source\ejemplos\BME680\bme680.c **** 
 1589              		.loc 1 865 0
 1590 0056 1846     		mov	r0, r3
 1591 0058 02B0     		add	sp, sp, #8
 1592              		.cfi_def_cfa_offset 8
 1593              		@ sp needed
 1594 005a 10BD     		pop	{r4, pc}
 1595              		.cfi_endproc
 1596              	.LFE76:
 1597              		.size	get_gas_config, .-get_gas_config
 1598              		.section	.text.read_field_data,"ax",%progbits
 1599              		.align	2
 1600              		.thumb
 1601              		.thumb_func
 1602              		.type	read_field_data, %function
 1603              	read_field_data:
 1604              	.LFB83:
1206:D:\design-mpu\source\ejemplos\BME680\bme680.c **** 	int8_t rslt;
 1605              		.loc 1 1206 0
 1606              		.cfi_startproc
 1607              		@ args = 0, pretend = 0, frame = 16
ARM GAS  C:\Users\adria\AppData\Local\Temp\ccOKprka.s 			page 59


 1608              		@ frame_needed = 0, uses_anonymous_args = 0
 1609              	.LVL216:
 1610 0000 2DE9F04F 		push	{r4, r5, r6, r7, r8, r9, r10, fp, lr}
 1611              		.cfi_def_cfa_offset 36
 1612              		.cfi_offset 4, -36
 1613              		.cfi_offset 5, -32
 1614              		.cfi_offset 6, -28
 1615              		.cfi_offset 7, -24
 1616              		.cfi_offset 8, -20
 1617              		.cfi_offset 9, -16
 1618              		.cfi_offset 10, -12
 1619              		.cfi_offset 11, -8
 1620              		.cfi_offset 14, -4
 1621 0004 85B0     		sub	sp, sp, #20
 1622              		.cfi_def_cfa_offset 56
 1623 0006 0746     		mov	r7, r0
 1624 0008 8A46     		mov	r10, r1
1208:D:\design-mpu\source\ejemplos\BME680\bme680.c **** 	uint8_t gas_range;
 1625              		.loc 1 1208 0
 1626 000a 0023     		movs	r3, #0
 1627 000c 0093     		str	r3, [sp]
 1628 000e 0193     		str	r3, [sp, #4]
 1629 0010 0293     		str	r3, [sp, #8]
 1630 0012 CDF80B30 		str	r3, [sp, #11]	@ unaligned
 1631              	.LVL217:
1217:D:\design-mpu\source\ejemplos\BME680\bme680.c **** 	do {
 1632              		.loc 1 1217 0
 1633 0016 0846     		mov	r0, r1
 1634              	.LVL218:
 1635 0018 FFF7FEFF 		bl	null_ptr_check
 1636              	.LVL219:
 1637 001c 0646     		mov	r6, r0
 1638              	.LVL220:
1214:D:\design-mpu\source\ejemplos\BME680\bme680.c **** 
 1639              		.loc 1 1214 0
 1640 001e 0A24     		movs	r4, #10
 1641              	.LVL221:
 1642              	.L96:
1219:D:\design-mpu\source\ejemplos\BME680\bme680.c **** 			rslt = bme680_get_regs(((uint8_t) (BME680_FIELD0_ADDR)), buff, (uint16_t) BME680_FIELD_LENGTH,
 1643              		.loc 1 1219 0
 1644 0020 002E     		cmp	r6, #0
 1645 0022 59D1     		bne	.L93
1220:D:\design-mpu\source\ejemplos\BME680\bme680.c **** 				dev);
 1646              		.loc 1 1220 0
 1647 0024 5346     		mov	r3, r10
 1648 0026 0F22     		movs	r2, #15
 1649 0028 6946     		mov	r1, sp
 1650 002a 1D20     		movs	r0, #29
 1651 002c FFF7FEFF 		bl	bme680_get_regs
 1652              	.LVL222:
 1653 0030 0646     		mov	r6, r0
 1654              	.LVL223:
1223:D:\design-mpu\source\ejemplos\BME680\bme680.c **** 			data->gas_index = buff[0] & BME680_GAS_INDEX_MSK;
 1655              		.loc 1 1223 0
 1656 0032 9DF80030 		ldrb	r3, [sp]	@ zero_extendqisi2
 1657 0036 03F0800E 		and	lr, r3, #128
1224:D:\design-mpu\source\ejemplos\BME680\bme680.c **** 			data->meas_index = buff[1];
ARM GAS  C:\Users\adria\AppData\Local\Temp\ccOKprka.s 			page 60


 1658              		.loc 1 1224 0
 1659 003a 03F00F03 		and	r3, r3, #15
 1660 003e 7B70     		strb	r3, [r7, #1]
1225:D:\design-mpu\source\ejemplos\BME680\bme680.c **** 
 1661              		.loc 1 1225 0
 1662 0040 9DF80130 		ldrb	r3, [sp, #1]	@ zero_extendqisi2
 1663 0044 BB70     		strb	r3, [r7, #2]
1228:D:\design-mpu\source\ejemplos\BME680\bme680.c **** 				| ((uint32_t) buff[4] / 16));
 1664              		.loc 1 1228 0
 1665 0046 9DF80250 		ldrb	r5, [sp, #2]	@ zero_extendqisi2
 1666 004a 9DF80330 		ldrb	r3, [sp, #3]	@ zero_extendqisi2
 1667 004e 1B01     		lsls	r3, r3, #4
 1668 0050 43EA0533 		orr	r3, r3, r5, lsl #12
1229:D:\design-mpu\source\ejemplos\BME680\bme680.c **** 			adc_temp = (uint32_t) (((uint32_t) buff[5] * 4096) | ((uint32_t) buff[6] * 16)
 1669              		.loc 1 1229 0
 1670 0054 9DF80450 		ldrb	r5, [sp, #4]	@ zero_extendqisi2
1228:D:\design-mpu\source\ejemplos\BME680\bme680.c **** 				| ((uint32_t) buff[4] / 16));
 1671              		.loc 1 1228 0
 1672 0058 43EA1515 		orr	r5, r3, r5, lsr #4
 1673              	.LVL224:
1230:D:\design-mpu\source\ejemplos\BME680\bme680.c **** 				| ((uint32_t) buff[7] / 16));
 1674              		.loc 1 1230 0
 1675 005c 9DF80500 		ldrb	r0, [sp, #5]	@ zero_extendqisi2
 1676 0060 9DF80610 		ldrb	r1, [sp, #6]	@ zero_extendqisi2
 1677 0064 0901     		lsls	r1, r1, #4
 1678 0066 41EA0031 		orr	r1, r1, r0, lsl #12
1231:D:\design-mpu\source\ejemplos\BME680\bme680.c **** 			adc_hum = (uint16_t) (((uint32_t) buff[8] * 256) | (uint32_t) buff[9]);
 1679              		.loc 1 1231 0
 1680 006a 9DF80700 		ldrb	r0, [sp, #7]	@ zero_extendqisi2
1230:D:\design-mpu\source\ejemplos\BME680\bme680.c **** 				| ((uint32_t) buff[7] / 16));
 1681              		.loc 1 1230 0
 1682 006e 41EA1010 		orr	r0, r1, r0, lsr #4
 1683              	.LVL225:
1232:D:\design-mpu\source\ejemplos\BME680\bme680.c **** 			adc_gas_res = (uint16_t) ((uint32_t) buff[13] * 4 | (((uint32_t) buff[14]) / 64));
 1684              		.loc 1 1232 0
 1685 0072 9DF80890 		ldrb	r9, [sp, #8]	@ zero_extendqisi2
 1686 0076 9DF80930 		ldrb	r3, [sp, #9]	@ zero_extendqisi2
 1687 007a 43EA0929 		orr	r9, r3, r9, lsl #8
 1688              	.LVL226:
1233:D:\design-mpu\source\ejemplos\BME680\bme680.c **** 			gas_range = buff[14] & BME680_GAS_RANGE_MSK;
 1689              		.loc 1 1233 0
 1690 007e 9DF80D80 		ldrb	r8, [sp, #13]	@ zero_extendqisi2
 1691 0082 9DF80E30 		ldrb	r3, [sp, #14]	@ zero_extendqisi2
 1692 0086 9A09     		lsrs	r2, r3, #6
 1693 0088 42EA8808 		orr	r8, r2, r8, lsl #2
 1694              	.LVL227:
1234:D:\design-mpu\source\ejemplos\BME680\bme680.c **** 
 1695              		.loc 1 1234 0
 1696 008c 03F00F0B 		and	fp, r3, #15
 1697              	.LVL228:
1236:D:\design-mpu\source\ejemplos\BME680\bme680.c **** 			data->status |= buff[14] & BME680_HEAT_STAB_MSK;
 1698              		.loc 1 1236 0
 1699 0090 03F02002 		and	r2, r3, #32
 1700 0094 4EEA0202 		orr	r2, lr, r2
 1701 0098 52B2     		sxtb	r2, r2
1237:D:\design-mpu\source\ejemplos\BME680\bme680.c **** 
 1702              		.loc 1 1237 0
ARM GAS  C:\Users\adria\AppData\Local\Temp\ccOKprka.s 			page 61


 1703 009a 03F01003 		and	r3, r3, #16
 1704 009e 1343     		orrs	r3, r3, r2
 1705 00a0 3B70     		strb	r3, [r7]
1239:D:\design-mpu\source\ejemplos\BME680\bme680.c **** 				data->temperature = calc_temperature(adc_temp, dev);
 1706              		.loc 1 1239 0
 1707 00a2 002B     		cmp	r3, #0
 1708 00a4 14DA     		bge	.L94
1240:D:\design-mpu\source\ejemplos\BME680\bme680.c **** 				data->pressure = calc_pressure(adc_pres, dev);
 1709              		.loc 1 1240 0
 1710 00a6 5146     		mov	r1, r10
 1711 00a8 FFF7FEFF 		bl	calc_temperature
 1712              	.LVL229:
 1713 00ac B880     		strh	r0, [r7, #4]	@ movhi
1241:D:\design-mpu\source\ejemplos\BME680\bme680.c **** 				data->humidity = calc_humidity(adc_hum, dev);
 1714              		.loc 1 1241 0
 1715 00ae 5146     		mov	r1, r10
 1716 00b0 2846     		mov	r0, r5
 1717 00b2 FFF7FEFF 		bl	calc_pressure
 1718              	.LVL230:
 1719 00b6 B860     		str	r0, [r7, #8]
1242:D:\design-mpu\source\ejemplos\BME680\bme680.c **** 				data->gas_resistance = calc_gas_resistance(adc_gas_res, gas_range, dev);
 1720              		.loc 1 1242 0
 1721 00b8 5146     		mov	r1, r10
 1722 00ba 4846     		mov	r0, r9
 1723 00bc FFF7FEFF 		bl	calc_humidity
 1724              	.LVL231:
 1725 00c0 F860     		str	r0, [r7, #12]
1243:D:\design-mpu\source\ejemplos\BME680\bme680.c **** 				break;
 1726              		.loc 1 1243 0
 1727 00c2 5246     		mov	r2, r10
 1728 00c4 5946     		mov	r1, fp
 1729 00c6 4046     		mov	r0, r8
 1730 00c8 FFF7FEFF 		bl	calc_gas_resistance
 1731              	.LVL232:
 1732 00cc 3861     		str	r0, [r7, #16]
1244:D:\design-mpu\source\ejemplos\BME680\bme680.c **** 			}
 1733              		.loc 1 1244 0
 1734 00ce 07E0     		b	.L95
 1735              	.LVL233:
 1736              	.L94:
1247:D:\design-mpu\source\ejemplos\BME680\bme680.c **** 		}
 1737              		.loc 1 1247 0
 1738 00d0 DAF85030 		ldr	r3, [r10, #80]
 1739 00d4 0A20     		movs	r0, #10
 1740              	.LVL234:
 1741 00d6 9847     		blx	r3
 1742              	.LVL235:
 1743              	.L93:
1249:D:\design-mpu\source\ejemplos\BME680\bme680.c **** 	} while (tries);
 1744              		.loc 1 1249 0
 1745 00d8 631E     		subs	r3, r4, #1
 1746              	.LVL236:
1250:D:\design-mpu\source\ejemplos\BME680\bme680.c **** 
 1747              		.loc 1 1250 0
 1748 00da 13F0FF04 		ands	r4, r3, #255
 1749 00de 9FD1     		bne	.L96
 1750              	.LVL237:
ARM GAS  C:\Users\adria\AppData\Local\Temp\ccOKprka.s 			page 62


 1751              	.L95:
1252:D:\design-mpu\source\ejemplos\BME680\bme680.c **** 		rslt = BME680_W_NO_NEW_DATA;
 1752              		.loc 1 1252 0
 1753 00e0 04B9     		cbnz	r4, .L97
1253:D:\design-mpu\source\ejemplos\BME680\bme680.c **** 
 1754              		.loc 1 1253 0
 1755 00e2 0226     		movs	r6, #2
 1756              	.LVL238:
 1757              	.L97:
1256:D:\design-mpu\source\ejemplos\BME680\bme680.c **** 
 1758              		.loc 1 1256 0
 1759 00e4 3046     		mov	r0, r6
 1760 00e6 05B0     		add	sp, sp, #20
 1761              		.cfi_def_cfa_offset 36
 1762              		@ sp needed
 1763 00e8 BDE8F08F 		pop	{r4, r5, r6, r7, r8, r9, r10, fp, pc}
 1764              		.cfi_endproc
 1765              	.LFE83:
 1766              		.size	read_field_data, .-read_field_data
 1767              		.section	.text.bme680_set_regs,"ax",%progbits
 1768              		.align	2
 1769              		.global	bme680_set_regs
 1770              		.thumb
 1771              		.thumb_func
 1772              		.type	bme680_set_regs, %function
 1773              	bme680_set_regs:
 1774              	.LFB65:
 337:D:\design-mpu\source\ejemplos\BME680\bme680.c **** 	int8_t rslt;
 1775              		.loc 1 337 0
 1776              		.cfi_startproc
 1777              		@ args = 0, pretend = 0, frame = 40
 1778              		@ frame_needed = 0, uses_anonymous_args = 0
 1779              	.LVL239:
 1780 0000 2DE9F043 		push	{r4, r5, r6, r7, r8, r9, lr}
 1781              		.cfi_def_cfa_offset 28
 1782              		.cfi_offset 4, -28
 1783              		.cfi_offset 5, -24
 1784              		.cfi_offset 6, -20
 1785              		.cfi_offset 7, -16
 1786              		.cfi_offset 8, -12
 1787              		.cfi_offset 9, -8
 1788              		.cfi_offset 14, -4
 1789 0004 8BB0     		sub	sp, sp, #44
 1790              		.cfi_def_cfa_offset 72
 1791 0006 0646     		mov	r6, r0
 1792 0008 8846     		mov	r8, r1
 1793 000a 1746     		mov	r7, r2
 1794 000c 1D46     		mov	r5, r3
 340:D:\design-mpu\source\ejemplos\BME680\bme680.c **** 	uint16_t index;
 1795              		.loc 1 340 0
 1796 000e 2822     		movs	r2, #40
 1797              	.LVL240:
 1798 0010 0021     		movs	r1, #0
 1799              	.LVL241:
 1800 0012 6846     		mov	r0, sp
 1801              	.LVL242:
 1802 0014 FFF7FEFF 		bl	memset
ARM GAS  C:\Users\adria\AppData\Local\Temp\ccOKprka.s 			page 63


 1803              	.LVL243:
 344:D:\design-mpu\source\ejemplos\BME680\bme680.c **** 	if (rslt == BME680_OK) {
 1804              		.loc 1 344 0
 1805 0018 2846     		mov	r0, r5
 1806 001a FFF7FEFF 		bl	null_ptr_check
 1807              	.LVL244:
 345:D:\design-mpu\source\ejemplos\BME680\bme680.c **** 		if ((len > 0) && (len < BME680_TMP_BUFFER_LENGTH / 2)) {
 1808              		.loc 1 345 0
 1809 001e 8146     		mov	r9, r0
 1810 0020 0028     		cmp	r0, #0
 1811 0022 3DD1     		bne	.L101
 346:D:\design-mpu\source\ejemplos\BME680\bme680.c **** 			/* Interleave the 2 arrays */
 1812              		.loc 1 346 0
 1813 0024 7B1E     		subs	r3, r7, #1
 1814 0026 DBB2     		uxtb	r3, r3
 1815 0028 122B     		cmp	r3, #18
 1816 002a 23D9     		bls	.L106
 365:D:\design-mpu\source\ejemplos\BME680\bme680.c **** 		}
 1817              		.loc 1 365 0
 1818 002c 6FF00309 		mvn	r9, #3
 1819 0030 36E0     		b	.L101
 1820              	.LVL245:
 1821              	.L105:
 349:D:\design-mpu\source\ejemplos\BME680\bme680.c **** 					/* Set the memory page */
 1822              		.loc 1 349 0
 1823 0032 AB78     		ldrb	r3, [r5, #2]	@ zero_extendqisi2
 1824 0034 6BB9     		cbnz	r3, .L103
 351:D:\design-mpu\source\ejemplos\BME680\bme680.c **** 					tmp_buff[(2 * index)] = reg_addr[index] & BME680_SPI_WR_MSK;
 1825              		.loc 1 351 0
 1826 0036 2946     		mov	r1, r5
 1827 0038 305D     		ldrb	r0, [r6, r4]	@ zero_extendqisi2
 1828 003a FFF7FEFF 		bl	set_mem_page
 1829              	.LVL246:
 1830 003e 8146     		mov	r9, r0
 1831              	.LVL247:
 352:D:\design-mpu\source\ejemplos\BME680\bme680.c **** 				} else {
 1832              		.loc 1 352 0
 1833 0040 325D     		ldrb	r2, [r6, r4]	@ zero_extendqisi2
 1834 0042 02F07F02 		and	r2, r2, #127
 1835 0046 0AAB     		add	r3, sp, #40
 1836 0048 03EB4403 		add	r3, r3, r4, lsl #1
 1837 004c 03F8282C 		strb	r2, [r3, #-40]
 1838 0050 05E0     		b	.L104
 1839              	.L103:
 354:D:\design-mpu\source\ejemplos\BME680\bme680.c **** 				}
 1840              		.loc 1 354 0
 1841 0052 325D     		ldrb	r2, [r6, r4]	@ zero_extendqisi2
 1842 0054 0AAB     		add	r3, sp, #40
 1843 0056 03EB4403 		add	r3, r3, r4, lsl #1
 1844 005a 03F8282C 		strb	r2, [r3, #-40]
 1845              	.L104:
 356:D:\design-mpu\source\ejemplos\BME680\bme680.c **** 			}
 1846              		.loc 1 356 0 discriminator 2
 1847 005e 6300     		lsls	r3, r4, #1
 1848 0060 0133     		adds	r3, r3, #1
 1849 0062 18F80420 		ldrb	r2, [r8, r4]	@ zero_extendqisi2
 1850 0066 0AA9     		add	r1, sp, #40
ARM GAS  C:\Users\adria\AppData\Local\Temp\ccOKprka.s 			page 64


 1851 0068 0B44     		add	r3, r3, r1
 1852 006a 03F8282C 		strb	r2, [r3, #-40]
 348:D:\design-mpu\source\ejemplos\BME680\bme680.c **** 				if (dev->intf == BME680_SPI_INTF) {
 1853              		.loc 1 348 0 discriminator 2
 1854 006e 0134     		adds	r4, r4, #1
 1855              	.LVL248:
 1856 0070 A4B2     		uxth	r4, r4
 1857              	.LVL249:
 1858 0072 00E0     		b	.L102
 1859              	.LVL250:
 1860              	.L106:
 1861 0074 0024     		movs	r4, #0
 1862              	.LVL251:
 1863              	.L102:
 348:D:\design-mpu\source\ejemplos\BME680\bme680.c **** 				if (dev->intf == BME680_SPI_INTF) {
 1864              		.loc 1 348 0 is_stmt 0 discriminator 1
 1865 0076 BBB2     		uxth	r3, r7
 1866 0078 9C42     		cmp	r4, r3
 1867 007a DAD3     		bcc	.L105
 359:D:\design-mpu\source\ejemplos\BME680\bme680.c **** 				dev->com_rslt = dev->write(dev->dev_id, tmp_buff[0], &tmp_buff[1], (2 * len) - 1);
 1868              		.loc 1 359 0 is_stmt 1
 1869 007c B9F1000F 		cmp	r9, #0
 1870 0080 0ED1     		bne	.L101
 360:D:\design-mpu\source\ejemplos\BME680\bme680.c **** 				if (dev->com_rslt != 0)
 1871              		.loc 1 360 0
 1872 0082 EC6C     		ldr	r4, [r5, #76]
 1873              	.LVL252:
 1874 0084 5B00     		lsls	r3, r3, #1
 1875 0086 013B     		subs	r3, r3, #1
 1876 0088 9BB2     		uxth	r3, r3
 1877 008a 0DF10102 		add	r2, sp, #1
 1878 008e 9DF80010 		ldrb	r1, [sp]	@ zero_extendqisi2
 1879 0092 6878     		ldrb	r0, [r5, #1]	@ zero_extendqisi2
 1880 0094 A047     		blx	r4
 1881              	.LVL253:
 1882 0096 85F85400 		strb	r0, [r5, #84]
 361:D:\design-mpu\source\ejemplos\BME680\bme680.c **** 					rslt = BME680_E_COM_FAIL;
 1883              		.loc 1 361 0
 1884 009a 08B1     		cbz	r0, .L101
 362:D:\design-mpu\source\ejemplos\BME680\bme680.c **** 			}
 1885              		.loc 1 362 0
 1886 009c 6FF00109 		mvn	r9, #1
 1887              	.LVL254:
 1888              	.L101:
 370:D:\design-mpu\source\ejemplos\BME680\bme680.c **** 
 1889              		.loc 1 370 0
 1890 00a0 4846     		mov	r0, r9
 1891 00a2 0BB0     		add	sp, sp, #44
 1892              		.cfi_def_cfa_offset 28
 1893              		@ sp needed
 1894 00a4 BDE8F083 		pop	{r4, r5, r6, r7, r8, r9, pc}
 1895              		.cfi_endproc
 1896              	.LFE65:
 1897              		.size	bme680_set_regs, .-bme680_set_regs
 1898              		.section	.text.set_gas_config,"ax",%progbits
 1899              		.align	2
 1900              		.thumb
ARM GAS  C:\Users\adria\AppData\Local\Temp\ccOKprka.s 			page 65


 1901              		.thumb_func
 1902              		.type	set_gas_config, %function
 1903              	set_gas_config:
 1904              	.LFB75:
 804:D:\design-mpu\source\ejemplos\BME680\bme680.c **** 	int8_t rslt;
 1905              		.loc 1 804 0
 1906              		.cfi_startproc
 1907              		@ args = 0, pretend = 0, frame = 8
 1908              		@ frame_needed = 0, uses_anonymous_args = 0
 1909              	.LVL255:
 1910 0000 30B5     		push	{r4, r5, lr}
 1911              		.cfi_def_cfa_offset 12
 1912              		.cfi_offset 4, -12
 1913              		.cfi_offset 5, -8
 1914              		.cfi_offset 14, -4
 1915 0002 83B0     		sub	sp, sp, #12
 1916              		.cfi_def_cfa_offset 24
 1917 0004 0546     		mov	r5, r0
 808:D:\design-mpu\source\ejemplos\BME680\bme680.c **** 	if (rslt == BME680_OK) {
 1918              		.loc 1 808 0
 1919 0006 FFF7FEFF 		bl	null_ptr_check
 1920              	.LVL256:
 809:D:\design-mpu\source\ejemplos\BME680\bme680.c **** 
 1921              		.loc 1 809 0
 1922 000a 0446     		mov	r4, r0
 1923 000c 40BB     		cbnz	r0, .L110
 1924              	.LBB3:
 811:D:\design-mpu\source\ejemplos\BME680\bme680.c **** 		uint8_t reg_data[2] = {0};
 1925              		.loc 1 811 0
 1926 000e 0023     		movs	r3, #0
 1927 0010 ADF80030 		strh	r3, [sp]	@ movhi
 812:D:\design-mpu\source\ejemplos\BME680\bme680.c **** 
 1928              		.loc 1 812 0
 1929 0014 ADF80430 		strh	r3, [sp, #4]	@ movhi
 814:D:\design-mpu\source\ejemplos\BME680\bme680.c **** 			reg_addr[0] = BME680_RES_HEAT0_ADDR;
 1930              		.loc 1 814 0
 1931 0018 95F84430 		ldrb	r3, [r5, #68]	@ zero_extendqisi2
 1932 001c 012B     		cmp	r3, #1
 1933 001e 16D1     		bne	.L113
 815:D:\design-mpu\source\ejemplos\BME680\bme680.c **** 			reg_data[0] = calc_heater_res(dev->gas_sett.heatr_temp, dev);
 1934              		.loc 1 815 0
 1935 0020 5A23     		movs	r3, #90
 1936 0022 8DF80030 		strb	r3, [sp]
 816:D:\design-mpu\source\ejemplos\BME680\bme680.c **** 			reg_addr[1] = BME680_GAS_WAIT0_ADDR;
 1937              		.loc 1 816 0
 1938 0026 2946     		mov	r1, r5
 1939 0028 B5F84000 		ldrh	r0, [r5, #64]
 1940              	.LVL257:
 1941 002c FFF7FEFF 		bl	calc_heater_res
 1942              	.LVL258:
 1943 0030 8DF80400 		strb	r0, [sp, #4]
 817:D:\design-mpu\source\ejemplos\BME680\bme680.c **** 			reg_data[1] = calc_heater_dur(dev->gas_sett.heatr_dur);
 1944              		.loc 1 817 0
 1945 0034 6423     		movs	r3, #100
 1946 0036 8DF80130 		strb	r3, [sp, #1]
 818:D:\design-mpu\source\ejemplos\BME680\bme680.c **** 			dev->gas_sett.nb_conv = 0;
 1947              		.loc 1 818 0
ARM GAS  C:\Users\adria\AppData\Local\Temp\ccOKprka.s 			page 66


 1948 003a B5F84200 		ldrh	r0, [r5, #66]
 1949 003e FFF7FEFF 		bl	calc_heater_dur
 1950              	.LVL259:
 1951 0042 8DF80500 		strb	r0, [sp, #5]
 819:D:\design-mpu\source\ejemplos\BME680\bme680.c **** 		} else {
 1952              		.loc 1 819 0
 1953 0046 0023     		movs	r3, #0
 1954 0048 85F83C30 		strb	r3, [r5, #60]
 1955 004c 00E0     		b	.L111
 1956              	.LVL260:
 1957              	.L113:
 821:D:\design-mpu\source\ejemplos\BME680\bme680.c **** 		}
 1958              		.loc 1 821 0
 1959 004e 0124     		movs	r4, #1
 1960              	.LVL261:
 1961              	.L111:
 823:D:\design-mpu\source\ejemplos\BME680\bme680.c **** 			rslt = bme680_set_regs(reg_addr, reg_data, 2, dev);
 1962              		.loc 1 823 0
 1963 0050 34B9     		cbnz	r4, .L110
 824:D:\design-mpu\source\ejemplos\BME680\bme680.c **** 	}
 1964              		.loc 1 824 0
 1965 0052 2B46     		mov	r3, r5
 1966 0054 0222     		movs	r2, #2
 1967 0056 01A9     		add	r1, sp, #4
 1968 0058 6846     		mov	r0, sp
 1969 005a FFF7FEFF 		bl	bme680_set_regs
 1970              	.LVL262:
 1971 005e 0446     		mov	r4, r0
 1972              	.LVL263:
 1973              	.L110:
 1974              	.LBE3:
 828:D:\design-mpu\source\ejemplos\BME680\bme680.c **** 
 1975              		.loc 1 828 0
 1976 0060 2046     		mov	r0, r4
 1977 0062 03B0     		add	sp, sp, #12
 1978              		.cfi_def_cfa_offset 12
 1979              		@ sp needed
 1980 0064 30BD     		pop	{r4, r5, pc}
 1981              		.cfi_endproc
 1982              	.LFE75:
 1983              		.size	set_gas_config, .-set_gas_config
 1984 0066 00BF     		.section	.text.bme680_soft_reset,"ax",%progbits
 1985              		.align	2
 1986              		.global	bme680_soft_reset
 1987              		.thumb
 1988              		.thumb_func
 1989              		.type	bme680_soft_reset, %function
 1990              	bme680_soft_reset:
 1991              	.LFB66:
 376:D:\design-mpu\source\ejemplos\BME680\bme680.c **** 	int8_t rslt;
 1992              		.loc 1 376 0
 1993              		.cfi_startproc
 1994              		@ args = 0, pretend = 0, frame = 8
 1995              		@ frame_needed = 0, uses_anonymous_args = 0
 1996              	.LVL264:
 1997 0000 30B5     		push	{r4, r5, lr}
 1998              		.cfi_def_cfa_offset 12
ARM GAS  C:\Users\adria\AppData\Local\Temp\ccOKprka.s 			page 67


 1999              		.cfi_offset 4, -12
 2000              		.cfi_offset 5, -8
 2001              		.cfi_offset 14, -4
 2002 0002 83B0     		sub	sp, sp, #12
 2003              		.cfi_def_cfa_offset 24
 2004 0004 0546     		mov	r5, r0
 378:D:\design-mpu\source\ejemplos\BME680\bme680.c **** 	/* 0xb6 is the soft reset command */
 2005              		.loc 1 378 0
 2006 0006 E023     		movs	r3, #224
 2007 0008 8DF80730 		strb	r3, [sp, #7]
 380:D:\design-mpu\source\ejemplos\BME680\bme680.c **** 
 2008              		.loc 1 380 0
 2009 000c B623     		movs	r3, #182
 2010 000e 8DF80630 		strb	r3, [sp, #6]
 383:D:\design-mpu\source\ejemplos\BME680\bme680.c **** 	if (rslt == BME680_OK) {
 2011              		.loc 1 383 0
 2012 0012 FFF7FEFF 		bl	null_ptr_check
 2013              	.LVL265:
 384:D:\design-mpu\source\ejemplos\BME680\bme680.c **** 		if (dev->intf == BME680_SPI_INTF)
 2014              		.loc 1 384 0
 2015 0016 0446     		mov	r4, r0
 2016 0018 C8B9     		cbnz	r0, .L116
 385:D:\design-mpu\source\ejemplos\BME680\bme680.c **** 			rslt = get_mem_page(dev);
 2017              		.loc 1 385 0
 2018 001a AB78     		ldrb	r3, [r5, #2]	@ zero_extendqisi2
 2019 001c 1BB9     		cbnz	r3, .L117
 386:D:\design-mpu\source\ejemplos\BME680\bme680.c **** 
 2020              		.loc 1 386 0
 2021 001e 2846     		mov	r0, r5
 2022              	.LVL266:
 2023 0020 FFF7FEFF 		bl	get_mem_page
 2024              	.LVL267:
 2025 0024 0446     		mov	r4, r0
 2026              	.LVL268:
 2027              	.L117:
 389:D:\design-mpu\source\ejemplos\BME680\bme680.c **** 			rslt = bme680_set_regs(&reg_addr, &soft_rst_cmd, 1, dev);
 2028              		.loc 1 389 0
 2029 0026 94B9     		cbnz	r4, .L116
 390:D:\design-mpu\source\ejemplos\BME680\bme680.c **** 			/* Wait for 5ms */
 2030              		.loc 1 390 0
 2031 0028 2B46     		mov	r3, r5
 2032 002a 0122     		movs	r2, #1
 2033 002c 0DF10601 		add	r1, sp, #6
 2034 0030 0DF10700 		add	r0, sp, #7
 2035 0034 FFF7FEFF 		bl	bme680_set_regs
 2036              	.LVL269:
 2037 0038 0446     		mov	r4, r0
 2038              	.LVL270:
 392:D:\design-mpu\source\ejemplos\BME680\bme680.c **** 
 2039              		.loc 1 392 0
 2040 003a 2B6D     		ldr	r3, [r5, #80]
 2041 003c 0A20     		movs	r0, #10
 2042 003e 9847     		blx	r3
 2043              	.LVL271:
 394:D:\design-mpu\source\ejemplos\BME680\bme680.c **** 				/* After reset get the memory page */
 2044              		.loc 1 394 0
 2045 0040 2CB9     		cbnz	r4, .L116
ARM GAS  C:\Users\adria\AppData\Local\Temp\ccOKprka.s 			page 68


 396:D:\design-mpu\source\ejemplos\BME680\bme680.c **** 					rslt = get_mem_page(dev);
 2046              		.loc 1 396 0
 2047 0042 AB78     		ldrb	r3, [r5, #2]	@ zero_extendqisi2
 2048 0044 1BB9     		cbnz	r3, .L116
 397:D:\design-mpu\source\ejemplos\BME680\bme680.c **** 			}
 2049              		.loc 1 397 0
 2050 0046 2846     		mov	r0, r5
 2051 0048 FFF7FEFF 		bl	get_mem_page
 2052              	.LVL272:
 2053 004c 0446     		mov	r4, r0
 2054              	.LVL273:
 2055              	.L116:
 403:D:\design-mpu\source\ejemplos\BME680\bme680.c **** 
 2056              		.loc 1 403 0
 2057 004e 2046     		mov	r0, r4
 2058 0050 03B0     		add	sp, sp, #12
 2059              		.cfi_def_cfa_offset 12
 2060              		@ sp needed
 2061 0052 30BD     		pop	{r4, r5, pc}
 2062              		.cfi_endproc
 2063              	.LFE66:
 2064              		.size	bme680_soft_reset, .-bme680_soft_reset
 2065              		.section	.text.bme680_init,"ax",%progbits
 2066              		.align	2
 2067              		.global	bme680_init
 2068              		.thumb
 2069              		.thumb_func
 2070              		.type	bme680_init, %function
 2071              	bme680_init:
 2072              	.LFB63:
 284:D:\design-mpu\source\ejemplos\BME680\bme680.c **** 	int8_t rslt;
 2073              		.loc 1 284 0
 2074              		.cfi_startproc
 2075              		@ args = 0, pretend = 0, frame = 0
 2076              		@ frame_needed = 0, uses_anonymous_args = 0
 2077              	.LVL274:
 2078 0000 10B5     		push	{r4, lr}
 2079              		.cfi_def_cfa_offset 8
 2080              		.cfi_offset 4, -8
 2081              		.cfi_offset 14, -4
 2082 0002 0446     		mov	r4, r0
 288:D:\design-mpu\source\ejemplos\BME680\bme680.c **** 	if (rslt == BME680_OK) {
 2083              		.loc 1 288 0
 2084 0004 FFF7FEFF 		bl	null_ptr_check
 2085              	.LVL275:
 289:D:\design-mpu\source\ejemplos\BME680\bme680.c **** 		/* Soft reset to restore it to default values*/
 2086              		.loc 1 289 0
 2087 0008 0346     		mov	r3, r0
 2088 000a B0B9     		cbnz	r0, .L120
 291:D:\design-mpu\source\ejemplos\BME680\bme680.c **** 		if (rslt == BME680_OK) {
 2089              		.loc 1 291 0
 2090 000c 2046     		mov	r0, r4
 2091              	.LVL276:
 2092 000e FFF7FEFF 		bl	bme680_soft_reset
 2093              	.LVL277:
 292:D:\design-mpu\source\ejemplos\BME680\bme680.c **** 			rslt = bme680_get_regs(BME680_CHIP_ID_ADDR, &dev->chip_id, 1, dev);
 2094              		.loc 1 292 0
ARM GAS  C:\Users\adria\AppData\Local\Temp\ccOKprka.s 			page 69


 2095 0012 0346     		mov	r3, r0
 2096 0014 88B9     		cbnz	r0, .L120
 293:D:\design-mpu\source\ejemplos\BME680\bme680.c **** 			if (rslt == BME680_OK) {
 2097              		.loc 1 293 0
 2098 0016 2346     		mov	r3, r4
 2099 0018 0122     		movs	r2, #1
 2100 001a 2146     		mov	r1, r4
 2101 001c D020     		movs	r0, #208
 2102              	.LVL278:
 2103 001e FFF7FEFF 		bl	bme680_get_regs
 2104              	.LVL279:
 294:D:\design-mpu\source\ejemplos\BME680\bme680.c **** 				if (dev->chip_id == BME680_CHIP_ID) {
 2105              		.loc 1 294 0
 2106 0022 0346     		mov	r3, r0
 2107 0024 48B9     		cbnz	r0, .L120
 295:D:\design-mpu\source\ejemplos\BME680\bme680.c **** 					/* Get the Calibration data */
 2108              		.loc 1 295 0
 2109 0026 2378     		ldrb	r3, [r4]	@ zero_extendqisi2
 2110 0028 612B     		cmp	r3, #97
 2111 002a 04D1     		bne	.L121
 297:D:\design-mpu\source\ejemplos\BME680\bme680.c **** 				} else {
 2112              		.loc 1 297 0
 2113 002c 2046     		mov	r0, r4
 2114              	.LVL280:
 2115 002e FFF7FEFF 		bl	get_calib_data
 2116              	.LVL281:
 2117 0032 0346     		mov	r3, r0
 2118              	.LVL282:
 2119 0034 01E0     		b	.L120
 2120              	.LVL283:
 2121              	.L121:
 299:D:\design-mpu\source\ejemplos\BME680\bme680.c **** 				}
 2122              		.loc 1 299 0
 2123 0036 6FF00203 		mvn	r3, #2
 2124              	.LVL284:
 2125              	.L120:
 306:D:\design-mpu\source\ejemplos\BME680\bme680.c **** 
 2126              		.loc 1 306 0
 2127 003a 1846     		mov	r0, r3
 2128 003c 10BD     		pop	{r4, pc}
 2129              		.cfi_endproc
 2130              	.LFE63:
 2131              		.size	bme680_init, .-bme680_init
 2132 003e 00BF     		.section	.text.bme680_get_sensor_settings,"ax",%progbits
 2133              		.align	2
 2134              		.global	bme680_get_sensor_settings
 2135              		.thumb
 2136              		.thumb_func
 2137              		.type	bme680_get_sensor_settings, %function
 2138              	bme680_get_sensor_settings:
 2139              	.LFB68:
 534:D:\design-mpu\source\ejemplos\BME680\bme680.c **** 	int8_t rslt;
 2140              		.loc 1 534 0
 2141              		.cfi_startproc
 2142              		@ args = 0, pretend = 0, frame = 8
 2143              		@ frame_needed = 0, uses_anonymous_args = 0
 2144              	.LVL285:
ARM GAS  C:\Users\adria\AppData\Local\Temp\ccOKprka.s 			page 70


 2145 0000 30B5     		push	{r4, r5, lr}
 2146              		.cfi_def_cfa_offset 12
 2147              		.cfi_offset 4, -12
 2148              		.cfi_offset 5, -8
 2149              		.cfi_offset 14, -4
 2150 0002 83B0     		sub	sp, sp, #12
 2151              		.cfi_def_cfa_offset 24
 2152 0004 0546     		mov	r5, r0
 2153 0006 0C46     		mov	r4, r1
 2154              	.LVL286:
 538:D:\design-mpu\source\ejemplos\BME680\bme680.c **** 
 2155              		.loc 1 538 0
 2156 0008 0023     		movs	r3, #0
 2157 000a 0093     		str	r3, [sp]
 2158 000c ADF80430 		strh	r3, [sp, #4]	@ movhi
 541:D:\design-mpu\source\ejemplos\BME680\bme680.c **** 	if (rslt == BME680_OK) {
 2159              		.loc 1 541 0
 2160 0010 0846     		mov	r0, r1
 2161              	.LVL287:
 2162 0012 FFF7FEFF 		bl	null_ptr_check
 2163              	.LVL288:
 542:D:\design-mpu\source\ejemplos\BME680\bme680.c **** 		rslt = bme680_get_regs(reg_addr, data_array, BME680_REG_BUFFER_LENGTH, dev);
 2164              		.loc 1 542 0
 2165 0016 0028     		cmp	r0, #0
 2166 0018 48D1     		bne	.L130
 543:D:\design-mpu\source\ejemplos\BME680\bme680.c **** 
 2167              		.loc 1 543 0
 2168 001a 2346     		mov	r3, r4
 2169 001c 0622     		movs	r2, #6
 2170 001e 6946     		mov	r1, sp
 2171 0020 7020     		movs	r0, #112
 2172              	.LVL289:
 2173 0022 FFF7FEFF 		bl	bme680_get_regs
 2174              	.LVL290:
 545:D:\design-mpu\source\ejemplos\BME680\bme680.c **** 			if (desired_settings & BME680_GAS_MEAS_SEL)
 2175              		.loc 1 545 0
 2176 0026 0246     		mov	r2, r0
 2177 0028 0028     		cmp	r0, #0
 2178 002a 41D1     		bne	.L124
 546:D:\design-mpu\source\ejemplos\BME680\bme680.c **** 				rslt = get_gas_config(dev);
 2179              		.loc 1 546 0
 2180 002c 05F00803 		and	r3, r5, #8
 2181 0030 9BB2     		uxth	r3, r3
 2182 0032 1BB1     		cbz	r3, .L125
 547:D:\design-mpu\source\ejemplos\BME680\bme680.c **** 
 2183              		.loc 1 547 0
 2184 0034 2046     		mov	r0, r4
 2185              	.LVL291:
 2186 0036 FFF7FEFF 		bl	get_gas_config
 2187              	.LVL292:
 2188 003a 0246     		mov	r2, r0
 2189              	.LVL293:
 2190              	.L125:
 550:D:\design-mpu\source\ejemplos\BME680\bme680.c **** 				dev->tph_sett.filter = BME680_GET_BITS(data_array[BME680_REG_FILTER_INDEX],
 2191              		.loc 1 550 0
 2192 003c 05F01003 		and	r3, r5, #16
 2193 0040 9BB2     		uxth	r3, r3
ARM GAS  C:\Users\adria\AppData\Local\Temp\ccOKprka.s 			page 71


 2194 0042 2BB1     		cbz	r3, .L126
 551:D:\design-mpu\source\ejemplos\BME680\bme680.c **** 					BME680_FILTER);
 2195              		.loc 1 551 0
 2196 0044 9DF80530 		ldrb	r3, [sp, #5]	@ zero_extendqisi2
 2197 0048 C3F38203 		ubfx	r3, r3, #2, #3
 2198 004c 84F83B30 		strb	r3, [r4, #59]
 2199              	.L126:
 554:D:\design-mpu\source\ejemplos\BME680\bme680.c **** 				dev->tph_sett.os_temp = BME680_GET_BITS(data_array[BME680_REG_TEMP_INDEX], BME680_OST);
 2200              		.loc 1 554 0
 2201 0050 15F0030F 		tst	r5, #3
 2202 0054 08D0     		beq	.L127
 555:D:\design-mpu\source\ejemplos\BME680\bme680.c **** 				dev->tph_sett.os_pres = BME680_GET_BITS(data_array[BME680_REG_PRES_INDEX], BME680_OSP);
 2203              		.loc 1 555 0
 2204 0056 9DF80430 		ldrb	r3, [sp, #4]	@ zero_extendqisi2
 2205 005a 5909     		lsrs	r1, r3, #5
 2206 005c 84F83910 		strb	r1, [r4, #57]
 556:D:\design-mpu\source\ejemplos\BME680\bme680.c **** 			}
 2207              		.loc 1 556 0
 2208 0060 C3F38203 		ubfx	r3, r3, #2, #3
 2209 0064 84F83A30 		strb	r3, [r4, #58]
 2210              	.L127:
 559:D:\design-mpu\source\ejemplos\BME680\bme680.c **** 				dev->tph_sett.os_hum = BME680_GET_BITS_POS_0(data_array[BME680_REG_HUM_INDEX],
 2211              		.loc 1 559 0
 2212 0068 05F00403 		and	r3, r5, #4
 2213 006c 9BB2     		uxth	r3, r3
 2214 006e 2BB1     		cbz	r3, .L128
 560:D:\design-mpu\source\ejemplos\BME680\bme680.c **** 					BME680_OSH);
 2215              		.loc 1 560 0
 2216 0070 9DF80230 		ldrb	r3, [sp, #2]	@ zero_extendqisi2
 2217 0074 03F00703 		and	r3, r3, #7
 2218 0078 84F83830 		strb	r3, [r4, #56]
 2219              	.L128:
 564:D:\design-mpu\source\ejemplos\BME680\bme680.c **** 				dev->gas_sett.heatr_ctrl = BME680_GET_BITS_POS_0(data_array[BME680_REG_HCTRL_INDEX],
 2220              		.loc 1 564 0
 2221 007c 05F02003 		and	r3, r5, #32
 2222 0080 9BB2     		uxth	r3, r3
 2223 0082 2BB1     		cbz	r3, .L129
 565:D:\design-mpu\source\ejemplos\BME680\bme680.c **** 					BME680_HCTRL);
 2224              		.loc 1 565 0
 2225 0084 9DF80030 		ldrb	r3, [sp]	@ zero_extendqisi2
 2226 0088 03F00803 		and	r3, r3, #8
 2227 008c 84F83D30 		strb	r3, [r4, #61]
 2228              	.L129:
 568:D:\design-mpu\source\ejemplos\BME680\bme680.c **** 				dev->gas_sett.nb_conv = BME680_GET_BITS_POS_0(data_array[BME680_REG_NBCONV_INDEX],
 2229              		.loc 1 568 0
 2230 0090 15F0C00F 		tst	r5, #192
 2231 0094 0CD0     		beq	.L124
 569:D:\design-mpu\source\ejemplos\BME680\bme680.c **** 					BME680_NBCONV);
 2232              		.loc 1 569 0
 2233 0096 9DF80130 		ldrb	r3, [sp, #1]	@ zero_extendqisi2
 2234 009a 03F00F01 		and	r1, r3, #15
 2235 009e 84F83C10 		strb	r1, [r4, #60]
 571:D:\design-mpu\source\ejemplos\BME680\bme680.c **** 					BME680_RUN_GAS);
 2236              		.loc 1 571 0
 2237 00a2 C3F30013 		ubfx	r3, r3, #4, #1
 2238 00a6 84F83E30 		strb	r3, [r4, #62]
 2239 00aa 01E0     		b	.L124
ARM GAS  C:\Users\adria\AppData\Local\Temp\ccOKprka.s 			page 72


 2240              	.LVL294:
 2241              	.L130:
 576:D:\design-mpu\source\ejemplos\BME680\bme680.c **** 	}
 2242              		.loc 1 576 0
 2243 00ac 4FF0FF32 		mov	r2, #-1
 2244              	.LVL295:
 2245              	.L124:
 580:D:\design-mpu\source\ejemplos\BME680\bme680.c **** 
 2246              		.loc 1 580 0
 2247 00b0 1046     		mov	r0, r2
 2248 00b2 03B0     		add	sp, sp, #12
 2249              		.cfi_def_cfa_offset 12
 2250              		@ sp needed
 2251 00b4 30BD     		pop	{r4, r5, pc}
 2252              		.cfi_endproc
 2253              	.LFE68:
 2254              		.size	bme680_get_sensor_settings, .-bme680_get_sensor_settings
 2255 00b6 00BF     		.section	.text.bme680_set_sensor_mode,"ax",%progbits
 2256              		.align	2
 2257              		.global	bme680_set_sensor_mode
 2258              		.thumb
 2259              		.thumb_func
 2260              		.type	bme680_set_sensor_mode, %function
 2261              	bme680_set_sensor_mode:
 2262              	.LFB69:
 586:D:\design-mpu\source\ejemplos\BME680\bme680.c **** 	int8_t rslt;
 2263              		.loc 1 586 0
 2264              		.cfi_startproc
 2265              		@ args = 0, pretend = 0, frame = 8
 2266              		@ frame_needed = 0, uses_anonymous_args = 0
 2267              	.LVL296:
 2268 0000 70B5     		push	{r4, r5, r6, lr}
 2269              		.cfi_def_cfa_offset 16
 2270              		.cfi_offset 4, -16
 2271              		.cfi_offset 5, -12
 2272              		.cfi_offset 6, -8
 2273              		.cfi_offset 14, -4
 2274 0002 82B0     		sub	sp, sp, #8
 2275              		.cfi_def_cfa_offset 24
 2276 0004 0546     		mov	r5, r0
 2277              	.LVL297:
 590:D:\design-mpu\source\ejemplos\BME680\bme680.c **** 
 2278              		.loc 1 590 0
 2279 0006 7423     		movs	r3, #116
 2280 0008 8DF80630 		strb	r3, [sp, #6]
 593:D:\design-mpu\source\ejemplos\BME680\bme680.c **** 	if (rslt == BME680_OK) {
 2281              		.loc 1 593 0
 2282 000c FFF7FEFF 		bl	null_ptr_check
 2283              	.LVL298:
 594:D:\design-mpu\source\ejemplos\BME680\bme680.c **** 		/* Call repeatedly until in sleep */
 2284              		.loc 1 594 0
 2285 0010 0646     		mov	r6, r0
 2286 0012 A8BB     		cbnz	r0, .L133
 2287 0014 0024     		movs	r4, #0
 2288              	.LVL299:
 2289              	.L135:
 597:D:\design-mpu\source\ejemplos\BME680\bme680.c **** 			if (rslt == BME680_OK) {
ARM GAS  C:\Users\adria\AppData\Local\Temp\ccOKprka.s 			page 73


 2290              		.loc 1 597 0
 2291 0016 2B46     		mov	r3, r5
 2292 0018 0122     		movs	r2, #1
 2293 001a 0DF10701 		add	r1, sp, #7
 2294 001e 7420     		movs	r0, #116
 2295 0020 FFF7FEFF 		bl	bme680_get_regs
 2296              	.LVL300:
 598:D:\design-mpu\source\ejemplos\BME680\bme680.c **** 				/* Put to sleep before changing mode */
 2297              		.loc 1 598 0
 2298 0024 0646     		mov	r6, r0
 2299 0026 98B9     		cbnz	r0, .L134
 600:D:\design-mpu\source\ejemplos\BME680\bme680.c **** 
 2300              		.loc 1 600 0
 2301 0028 9DF80730 		ldrb	r3, [sp, #7]	@ zero_extendqisi2
 2302              	.LVL301:
 602:D:\design-mpu\source\ejemplos\BME680\bme680.c **** 					tmp_pow_mode = tmp_pow_mode & (~BME680_MODE_MSK); /* Set to sleep */
 2303              		.loc 1 602 0
 2304 002c 13F00304 		ands	r4, r3, #3
 2305 0030 0ED0     		beq	.L134
 603:D:\design-mpu\source\ejemplos\BME680\bme680.c **** 					rslt = bme680_set_regs(&reg_addr, &tmp_pow_mode, 1, dev);
 2306              		.loc 1 603 0
 2307 0032 23F00303 		bic	r3, r3, #3
 2308              	.LVL302:
 2309 0036 02A9     		add	r1, sp, #8
 2310 0038 01F8013D 		strb	r3, [r1, #-1]!
 2311              	.LVL303:
 604:D:\design-mpu\source\ejemplos\BME680\bme680.c **** 					dev->delay_ms(BME680_POLL_PERIOD_MS);
 2312              		.loc 1 604 0
 2313 003c 2B46     		mov	r3, r5
 2314 003e 0122     		movs	r2, #1
 2315 0040 0DF10600 		add	r0, sp, #6
 2316              	.LVL304:
 2317 0044 FFF7FEFF 		bl	bme680_set_regs
 2318              	.LVL305:
 2319 0048 0646     		mov	r6, r0
 2320              	.LVL306:
 605:D:\design-mpu\source\ejemplos\BME680\bme680.c **** 				}
 2321              		.loc 1 605 0
 2322 004a 2B6D     		ldr	r3, [r5, #80]
 2323 004c 0A20     		movs	r0, #10
 2324 004e 9847     		blx	r3
 2325              	.LVL307:
 2326              	.L134:
 608:D:\design-mpu\source\ejemplos\BME680\bme680.c **** 
 2327              		.loc 1 608 0
 2328 0050 002C     		cmp	r4, #0
 2329 0052 E0D1     		bne	.L135
 611:D:\design-mpu\source\ejemplos\BME680\bme680.c **** 			tmp_pow_mode = (tmp_pow_mode & ~BME680_MODE_MSK) | (dev->power_mode & BME680_MODE_MSK);
 2330              		.loc 1 611 0
 2331 0054 95F84430 		ldrb	r3, [r5, #68]	@ zero_extendqisi2
 2332 0058 93B1     		cbz	r3, .L133
 612:D:\design-mpu\source\ejemplos\BME680\bme680.c **** 			if (rslt == BME680_OK)
 2333              		.loc 1 612 0
 2334 005a 9DF80720 		ldrb	r2, [sp, #7]	@ zero_extendqisi2
 2335 005e 22F00302 		bic	r2, r2, #3
 2336 0062 03F00303 		and	r3, r3, #3
 2337 0066 1343     		orrs	r3, r3, r2
ARM GAS  C:\Users\adria\AppData\Local\Temp\ccOKprka.s 			page 74


 2338 0068 8DF80730 		strb	r3, [sp, #7]
 613:D:\design-mpu\source\ejemplos\BME680\bme680.c **** 				rslt = bme680_set_regs(&reg_addr, &tmp_pow_mode, 1, dev);
 2339              		.loc 1 613 0
 2340 006c 46B9     		cbnz	r6, .L133
 614:D:\design-mpu\source\ejemplos\BME680\bme680.c **** 		}
 2341              		.loc 1 614 0
 2342 006e 2B46     		mov	r3, r5
 2343 0070 0122     		movs	r2, #1
 2344 0072 0DF10701 		add	r1, sp, #7
 2345 0076 0DF10600 		add	r0, sp, #6
 2346 007a FFF7FEFF 		bl	bme680_set_regs
 2347              	.LVL308:
 2348 007e 0646     		mov	r6, r0
 2349              	.LVL309:
 2350              	.L133:
 619:D:\design-mpu\source\ejemplos\BME680\bme680.c **** 
 2351              		.loc 1 619 0
 2352 0080 3046     		mov	r0, r6
 2353 0082 02B0     		add	sp, sp, #8
 2354              		.cfi_def_cfa_offset 16
 2355              		@ sp needed
 2356 0084 70BD     		pop	{r4, r5, r6, pc}
 2357              		.cfi_endproc
 2358              	.LFE69:
 2359              		.size	bme680_set_sensor_mode, .-bme680_set_sensor_mode
 2360 0086 00BF     		.section	.text.bme680_set_sensor_settings,"ax",%progbits
 2361              		.align	2
 2362              		.global	bme680_set_sensor_settings
 2363              		.thumb
 2364              		.thumb_func
 2365              		.type	bme680_set_sensor_settings, %function
 2366              	bme680_set_sensor_settings:
 2367              	.LFB67:
 410:D:\design-mpu\source\ejemplos\BME680\bme680.c **** 	int8_t rslt;
 2368              		.loc 1 410 0
 2369              		.cfi_startproc
 2370              		@ args = 0, pretend = 0, frame = 16
 2371              		@ frame_needed = 0, uses_anonymous_args = 0
 2372              	.LVL310:
 2373 0000 F0B5     		push	{r4, r5, r6, r7, lr}
 2374              		.cfi_def_cfa_offset 20
 2375              		.cfi_offset 4, -20
 2376              		.cfi_offset 5, -16
 2377              		.cfi_offset 6, -12
 2378              		.cfi_offset 7, -8
 2379              		.cfi_offset 14, -4
 2380 0002 85B0     		sub	sp, sp, #20
 2381              		.cfi_def_cfa_offset 40
 2382 0004 0546     		mov	r5, r0
 2383 0006 0C46     		mov	r4, r1
 413:D:\design-mpu\source\ejemplos\BME680\bme680.c **** 	uint8_t count = 0;
 2384              		.loc 1 413 0
 2385 0008 0023     		movs	r3, #0
 2386 000a 8DF80F30 		strb	r3, [sp, #15]
 2387              	.LVL311:
 415:D:\design-mpu\source\ejemplos\BME680\bme680.c **** 	uint8_t data_array[BME680_REG_BUFFER_LENGTH] = { 0 };
 2388              		.loc 1 415 0
ARM GAS  C:\Users\adria\AppData\Local\Temp\ccOKprka.s 			page 75


 2389 000e 0293     		str	r3, [sp, #8]
 2390 0010 ADF80C30 		strh	r3, [sp, #12]	@ movhi
 416:D:\design-mpu\source\ejemplos\BME680\bme680.c **** 	uint8_t intended_power_mode = dev->power_mode; /* Save intended power mode */
 2391              		.loc 1 416 0
 2392 0014 0093     		str	r3, [sp]
 2393 0016 ADF80430 		strh	r3, [sp, #4]	@ movhi
 417:D:\design-mpu\source\ejemplos\BME680\bme680.c **** 
 2394              		.loc 1 417 0
 2395 001a 91F84470 		ldrb	r7, [r1, #68]	@ zero_extendqisi2
 2396              	.LVL312:
 420:D:\design-mpu\source\ejemplos\BME680\bme680.c **** 	if (rslt == BME680_OK) {
 2397              		.loc 1 420 0
 2398 001e 0846     		mov	r0, r1
 2399              	.LVL313:
 2400 0020 FFF7FEFF 		bl	null_ptr_check
 2401              	.LVL314:
 421:D:\design-mpu\source\ejemplos\BME680\bme680.c **** 		if (desired_settings & BME680_GAS_MEAS_SEL)
 2402              		.loc 1 421 0
 2403 0024 0346     		mov	r3, r0
 2404 0026 0028     		cmp	r0, #0
 2405 0028 40F01B81 		bne	.L138
 422:D:\design-mpu\source\ejemplos\BME680\bme680.c **** 			rslt = set_gas_config(dev);
 2406              		.loc 1 422 0
 2407 002c 05F00802 		and	r2, r5, #8
 2408 0030 92B2     		uxth	r2, r2
 2409 0032 1AB1     		cbz	r2, .L139
 423:D:\design-mpu\source\ejemplos\BME680\bme680.c **** 
 2410              		.loc 1 423 0
 2411 0034 2046     		mov	r0, r4
 2412              	.LVL315:
 2413 0036 FFF7FEFF 		bl	set_gas_config
 2414              	.LVL316:
 2415 003a 0346     		mov	r3, r0
 2416              	.LVL317:
 2417              	.L139:
 425:D:\design-mpu\source\ejemplos\BME680\bme680.c **** 		if (rslt == BME680_OK)
 2418              		.loc 1 425 0
 2419 003c 0022     		movs	r2, #0
 2420 003e 84F84420 		strb	r2, [r4, #68]
 426:D:\design-mpu\source\ejemplos\BME680\bme680.c **** 			rslt = bme680_set_sensor_mode(dev);
 2421              		.loc 1 426 0
 2422 0042 1BB9     		cbnz	r3, .L140
 427:D:\design-mpu\source\ejemplos\BME680\bme680.c **** 
 2423              		.loc 1 427 0
 2424 0044 2046     		mov	r0, r4
 2425 0046 FFF7FEFF 		bl	bme680_set_sensor_mode
 2426              	.LVL318:
 2427 004a 0346     		mov	r3, r0
 2428              	.LVL319:
 2429              	.L140:
 2430 004c 05F01006 		and	r6, r5, #16
 2431 0050 B6B2     		uxth	r6, r6
 430:D:\design-mpu\source\ejemplos\BME680\bme680.c **** 			rslt = boundary_check(&dev->tph_sett.filter, BME680_FILTER_SIZE_0, BME680_FILTER_SIZE_127, dev);
 2432              		.loc 1 430 0
 2433 0052 36B3     		cbz	r6, .L158
 431:D:\design-mpu\source\ejemplos\BME680\bme680.c **** 			reg_addr = BME680_CONF_ODR_FILT_ADDR;
 2434              		.loc 1 431 0
ARM GAS  C:\Users\adria\AppData\Local\Temp\ccOKprka.s 			page 76


 2435 0054 2346     		mov	r3, r4
 2436              	.LVL320:
 2437 0056 0722     		movs	r2, #7
 2438 0058 0021     		movs	r1, #0
 2439 005a 04F13B00 		add	r0, r4, #59
 2440 005e FFF7FEFF 		bl	boundary_check
 2441              	.LVL321:
 434:D:\design-mpu\source\ejemplos\BME680\bme680.c **** 				rslt = bme680_get_regs(reg_addr, &data, 1, dev);
 2442              		.loc 1 434 0
 2443 0062 0346     		mov	r3, r0
 2444 0064 38B9     		cbnz	r0, .L142
 435:D:\design-mpu\source\ejemplos\BME680\bme680.c **** 
 2445              		.loc 1 435 0
 2446 0066 2346     		mov	r3, r4
 2447 0068 0122     		movs	r2, #1
 2448 006a 0DF10F01 		add	r1, sp, #15
 2449 006e 7520     		movs	r0, #117
 2450              	.LVL322:
 2451 0070 FFF7FEFF 		bl	bme680_get_regs
 2452              	.LVL323:
 2453 0074 0346     		mov	r3, r0
 2454              	.LVL324:
 2455              	.L142:
 437:D:\design-mpu\source\ejemplos\BME680\bme680.c **** 				data = BME680_SET_BITS(data, BME680_FILTER, dev->tph_sett.filter);
 2456              		.loc 1 437 0
 2457 0076 5EB1     		cbz	r6, .L143
 438:D:\design-mpu\source\ejemplos\BME680\bme680.c **** 
 2458              		.loc 1 438 0
 2459 0078 94F83B20 		ldrb	r2, [r4, #59]	@ zero_extendqisi2
 2460 007c 9200     		lsls	r2, r2, #2
 2461 007e 9DF80F10 		ldrb	r1, [sp, #15]	@ zero_extendqisi2
 2462 0082 21F01C01 		bic	r1, r1, #28
 2463 0086 02F01C02 		and	r2, r2, #28
 2464 008a 0A43     		orrs	r2, r2, r1
 2465 008c 8DF80F20 		strb	r2, [sp, #15]
 2466              	.L143:
 440:D:\design-mpu\source\ejemplos\BME680\bme680.c **** 			data_array[count] = data;
 2467              		.loc 1 440 0
 2468 0090 7522     		movs	r2, #117
 2469 0092 8DF80820 		strb	r2, [sp, #8]
 441:D:\design-mpu\source\ejemplos\BME680\bme680.c **** 			count++;
 2470              		.loc 1 441 0
 2471 0096 9DF80F20 		ldrb	r2, [sp, #15]	@ zero_extendqisi2
 2472 009a 8DF80020 		strb	r2, [sp]
 2473              	.LVL325:
 442:D:\design-mpu\source\ejemplos\BME680\bme680.c **** 		}
 2474              		.loc 1 442 0
 2475 009e 0126     		movs	r6, #1
 2476 00a0 00E0     		b	.L141
 2477              	.LVL326:
 2478              	.L158:
 414:D:\design-mpu\source\ejemplos\BME680\bme680.c **** 	uint8_t reg_array[BME680_REG_BUFFER_LENGTH] = { 0 };
 2479              		.loc 1 414 0
 2480 00a2 0026     		movs	r6, #0
 2481              	.LVL327:
 2482              	.L141:
 446:D:\design-mpu\source\ejemplos\BME680\bme680.c **** 			rslt = boundary_check(&dev->gas_sett.heatr_ctrl, BME680_ENABLE_HEATER,
ARM GAS  C:\Users\adria\AppData\Local\Temp\ccOKprka.s 			page 77


 2483              		.loc 1 446 0
 2484 00a4 05F02002 		and	r2, r5, #32
 2485 00a8 92B2     		uxth	r2, r2
 2486 00aa 22B3     		cbz	r2, .L144
 447:D:\design-mpu\source\ejemplos\BME680\bme680.c **** 				BME680_DISABLE_HEATER, dev);
 2487              		.loc 1 447 0
 2488 00ac 2346     		mov	r3, r4
 2489              	.LVL328:
 2490 00ae 0822     		movs	r2, #8
 2491 00b0 0021     		movs	r1, #0
 2492 00b2 04F13D00 		add	r0, r4, #61
 2493 00b6 FFF7FEFF 		bl	boundary_check
 2494              	.LVL329:
 451:D:\design-mpu\source\ejemplos\BME680\bme680.c **** 				rslt = bme680_get_regs(reg_addr, &data, 1, dev);
 2495              		.loc 1 451 0
 2496 00ba 0346     		mov	r3, r0
 2497 00bc 38B9     		cbnz	r0, .L145
 452:D:\design-mpu\source\ejemplos\BME680\bme680.c **** 			data = BME680_SET_BITS_POS_0(data, BME680_HCTRL, dev->gas_sett.heatr_ctrl);
 2498              		.loc 1 452 0
 2499 00be 2346     		mov	r3, r4
 2500 00c0 0122     		movs	r2, #1
 2501 00c2 0DF10F01 		add	r1, sp, #15
 2502 00c6 7020     		movs	r0, #112
 2503              	.LVL330:
 2504 00c8 FFF7FEFF 		bl	bme680_get_regs
 2505              	.LVL331:
 2506 00cc 0346     		mov	r3, r0
 2507              	.LVL332:
 2508              	.L145:
 453:D:\design-mpu\source\ejemplos\BME680\bme680.c **** 
 2509              		.loc 1 453 0
 2510 00ce 94F83D20 		ldrb	r2, [r4, #61]	@ zero_extendqisi2
 2511 00d2 9DF80F10 		ldrb	r1, [sp, #15]	@ zero_extendqisi2
 2512 00d6 21F00801 		bic	r1, r1, #8
 2513 00da 02F00802 		and	r2, r2, #8
 2514 00de 0A43     		orrs	r2, r2, r1
 2515 00e0 8DF80F20 		strb	r2, [sp, #15]
 455:D:\design-mpu\source\ejemplos\BME680\bme680.c **** 			data_array[count] = data;
 2516              		.loc 1 455 0
 2517 00e4 04A9     		add	r1, sp, #16
 2518 00e6 3144     		add	r1, r1, r6
 2519 00e8 7020     		movs	r0, #112
 2520 00ea 01F8080C 		strb	r0, [r1, #-8]
 456:D:\design-mpu\source\ejemplos\BME680\bme680.c **** 			count++;
 2521              		.loc 1 456 0
 2522 00ee 01F8102C 		strb	r2, [r1, #-16]
 457:D:\design-mpu\source\ejemplos\BME680\bme680.c **** 		}
 2523              		.loc 1 457 0
 2524 00f2 0136     		adds	r6, r6, #1
 2525              	.LVL333:
 2526 00f4 F6B2     		uxtb	r6, r6
 2527              	.LVL334:
 2528              	.L144:
 461:D:\design-mpu\source\ejemplos\BME680\bme680.c **** 			rslt = boundary_check(&dev->tph_sett.os_temp, BME680_OS_NONE, BME680_OS_16X, dev);
 2529              		.loc 1 461 0
 2530 00f6 15F0030F 		tst	r5, #3
 2531 00fa 38D0     		beq	.L146
ARM GAS  C:\Users\adria\AppData\Local\Temp\ccOKprka.s 			page 78


 462:D:\design-mpu\source\ejemplos\BME680\bme680.c **** 			reg_addr = BME680_CONF_T_P_MODE_ADDR;
 2532              		.loc 1 462 0
 2533 00fc 2346     		mov	r3, r4
 2534              	.LVL335:
 2535 00fe 0522     		movs	r2, #5
 2536 0100 0021     		movs	r1, #0
 2537 0102 04F13900 		add	r0, r4, #57
 2538 0106 FFF7FEFF 		bl	boundary_check
 2539              	.LVL336:
 465:D:\design-mpu\source\ejemplos\BME680\bme680.c **** 				rslt = bme680_get_regs(reg_addr, &data, 1, dev);
 2540              		.loc 1 465 0
 2541 010a 0346     		mov	r3, r0
 2542 010c 38B9     		cbnz	r0, .L147
 466:D:\design-mpu\source\ejemplos\BME680\bme680.c **** 
 2543              		.loc 1 466 0
 2544 010e 2346     		mov	r3, r4
 2545 0110 0122     		movs	r2, #1
 2546 0112 0DF10F01 		add	r1, sp, #15
 2547 0116 7420     		movs	r0, #116
 2548              	.LVL337:
 2549 0118 FFF7FEFF 		bl	bme680_get_regs
 2550              	.LVL338:
 2551 011c 0346     		mov	r3, r0
 2552              	.LVL339:
 2553              	.L147:
 468:D:\design-mpu\source\ejemplos\BME680\bme680.c **** 				data = BME680_SET_BITS(data, BME680_OST, dev->tph_sett.os_temp);
 2554              		.loc 1 468 0
 2555 011e 15F0010F 		tst	r5, #1
 2556 0122 09D0     		beq	.L148
 469:D:\design-mpu\source\ejemplos\BME680\bme680.c **** 
 2557              		.loc 1 469 0
 2558 0124 94F83910 		ldrb	r1, [r4, #57]	@ zero_extendqisi2
 2559 0128 9DF80F20 		ldrb	r2, [sp, #15]	@ zero_extendqisi2
 2560 012c 02F01F02 		and	r2, r2, #31
 2561 0130 42EA4112 		orr	r2, r2, r1, lsl #5
 2562 0134 8DF80F20 		strb	r2, [sp, #15]
 2563              	.L148:
 471:D:\design-mpu\source\ejemplos\BME680\bme680.c **** 				data = BME680_SET_BITS(data, BME680_OSP, dev->tph_sett.os_pres);
 2564              		.loc 1 471 0
 2565 0138 05F00202 		and	r2, r5, #2
 2566 013c 92B2     		uxth	r2, r2
 2567 013e 5AB1     		cbz	r2, .L149
 472:D:\design-mpu\source\ejemplos\BME680\bme680.c **** 
 2568              		.loc 1 472 0
 2569 0140 94F83A20 		ldrb	r2, [r4, #58]	@ zero_extendqisi2
 2570 0144 9200     		lsls	r2, r2, #2
 2571 0146 9DF80F10 		ldrb	r1, [sp, #15]	@ zero_extendqisi2
 2572 014a 21F01C01 		bic	r1, r1, #28
 2573 014e 02F01C02 		and	r2, r2, #28
 2574 0152 0A43     		orrs	r2, r2, r1
 2575 0154 8DF80F20 		strb	r2, [sp, #15]
 2576              	.L149:
 474:D:\design-mpu\source\ejemplos\BME680\bme680.c **** 			data_array[count] = data;
 2577              		.loc 1 474 0
 2578 0158 04AA     		add	r2, sp, #16
 2579 015a 3244     		add	r2, r2, r6
 2580 015c 7421     		movs	r1, #116
ARM GAS  C:\Users\adria\AppData\Local\Temp\ccOKprka.s 			page 79


 2581 015e 02F8081C 		strb	r1, [r2, #-8]
 475:D:\design-mpu\source\ejemplos\BME680\bme680.c **** 			count++;
 2582              		.loc 1 475 0
 2583 0162 9DF80F10 		ldrb	r1, [sp, #15]	@ zero_extendqisi2
 2584 0166 02F8101C 		strb	r1, [r2, #-16]
 476:D:\design-mpu\source\ejemplos\BME680\bme680.c **** 		}
 2585              		.loc 1 476 0
 2586 016a 0136     		adds	r6, r6, #1
 2587              	.LVL340:
 2588 016c F6B2     		uxtb	r6, r6
 2589              	.LVL341:
 2590              	.L146:
 480:D:\design-mpu\source\ejemplos\BME680\bme680.c **** 			rslt = boundary_check(&dev->tph_sett.os_hum, BME680_OS_NONE, BME680_OS_16X, dev);
 2591              		.loc 1 480 0
 2592 016e 05F00402 		and	r2, r5, #4
 2593 0172 92B2     		uxth	r2, r2
 2594 0174 22B3     		cbz	r2, .L150
 481:D:\design-mpu\source\ejemplos\BME680\bme680.c **** 			reg_addr = BME680_CONF_OS_H_ADDR;
 2595              		.loc 1 481 0
 2596 0176 2346     		mov	r3, r4
 2597              	.LVL342:
 2598 0178 0522     		movs	r2, #5
 2599 017a 0021     		movs	r1, #0
 2600 017c 04F13800 		add	r0, r4, #56
 2601 0180 FFF7FEFF 		bl	boundary_check
 2602              	.LVL343:
 484:D:\design-mpu\source\ejemplos\BME680\bme680.c **** 				rslt = bme680_get_regs(reg_addr, &data, 1, dev);
 2603              		.loc 1 484 0
 2604 0184 0346     		mov	r3, r0
 2605 0186 38B9     		cbnz	r0, .L151
 485:D:\design-mpu\source\ejemplos\BME680\bme680.c **** 			data = BME680_SET_BITS_POS_0(data, BME680_OSH, dev->tph_sett.os_hum);
 2606              		.loc 1 485 0
 2607 0188 2346     		mov	r3, r4
 2608 018a 0122     		movs	r2, #1
 2609 018c 0DF10F01 		add	r1, sp, #15
 2610 0190 7220     		movs	r0, #114
 2611              	.LVL344:
 2612 0192 FFF7FEFF 		bl	bme680_get_regs
 2613              	.LVL345:
 2614 0196 0346     		mov	r3, r0
 2615              	.LVL346:
 2616              	.L151:
 486:D:\design-mpu\source\ejemplos\BME680\bme680.c **** 
 2617              		.loc 1 486 0
 2618 0198 94F83820 		ldrb	r2, [r4, #56]	@ zero_extendqisi2
 2619 019c 9DF80F10 		ldrb	r1, [sp, #15]	@ zero_extendqisi2
 2620 01a0 21F00701 		bic	r1, r1, #7
 2621 01a4 02F00702 		and	r2, r2, #7
 2622 01a8 0A43     		orrs	r2, r2, r1
 2623 01aa 8DF80F20 		strb	r2, [sp, #15]
 488:D:\design-mpu\source\ejemplos\BME680\bme680.c **** 			data_array[count] = data;
 2624              		.loc 1 488 0
 2625 01ae 04A9     		add	r1, sp, #16
 2626 01b0 3144     		add	r1, r1, r6
 2627 01b2 7220     		movs	r0, #114
 2628 01b4 01F8080C 		strb	r0, [r1, #-8]
 489:D:\design-mpu\source\ejemplos\BME680\bme680.c **** 			count++;
ARM GAS  C:\Users\adria\AppData\Local\Temp\ccOKprka.s 			page 80


 2629              		.loc 1 489 0
 2630 01b8 01F8102C 		strb	r2, [r1, #-16]
 490:D:\design-mpu\source\ejemplos\BME680\bme680.c **** 		}
 2631              		.loc 1 490 0
 2632 01bc 0136     		adds	r6, r6, #1
 2633              	.LVL347:
 2634 01be F6B2     		uxtb	r6, r6
 2635              	.LVL348:
 2636              	.L150:
 494:D:\design-mpu\source\ejemplos\BME680\bme680.c **** 			rslt = boundary_check(&dev->gas_sett.run_gas, BME680_RUN_GAS_DISABLE,
 2637              		.loc 1 494 0
 2638 01c0 15F0C00F 		tst	r5, #192
 2639 01c4 43D0     		beq	.L152
 495:D:\design-mpu\source\ejemplos\BME680\bme680.c **** 				BME680_RUN_GAS_ENABLE, dev);
 2640              		.loc 1 495 0
 2641 01c6 2346     		mov	r3, r4
 2642              	.LVL349:
 2643 01c8 0122     		movs	r2, #1
 2644 01ca 0021     		movs	r1, #0
 2645 01cc 04F13E00 		add	r0, r4, #62
 2646 01d0 FFF7FEFF 		bl	boundary_check
 2647              	.LVL350:
 497:D:\design-mpu\source\ejemplos\BME680\bme680.c **** 				/* Validate boundary conditions */
 2648              		.loc 1 497 0
 2649 01d4 0346     		mov	r3, r0
 2650 01d6 38B9     		cbnz	r0, .L153
 499:D:\design-mpu\source\ejemplos\BME680\bme680.c **** 					BME680_NBCONV_MAX, dev);
 2651              		.loc 1 499 0
 2652 01d8 2346     		mov	r3, r4
 2653 01da 0A22     		movs	r2, #10
 2654 01dc 0021     		movs	r1, #0
 2655 01de 04F13C00 		add	r0, r4, #60
 2656              	.LVL351:
 2657 01e2 FFF7FEFF 		bl	boundary_check
 2658              	.LVL352:
 2659 01e6 0346     		mov	r3, r0
 2660              	.LVL353:
 2661              	.L153:
 505:D:\design-mpu\source\ejemplos\BME680\bme680.c **** 				rslt = bme680_get_regs(reg_addr, &data, 1, dev);
 2662              		.loc 1 505 0
 2663 01e8 3BB9     		cbnz	r3, .L154
 506:D:\design-mpu\source\ejemplos\BME680\bme680.c **** 
 2664              		.loc 1 506 0
 2665 01ea 2346     		mov	r3, r4
 2666              	.LVL354:
 2667 01ec 0122     		movs	r2, #1
 2668 01ee 0DF10F01 		add	r1, sp, #15
 2669 01f2 7120     		movs	r0, #113
 2670 01f4 FFF7FEFF 		bl	bme680_get_regs
 2671              	.LVL355:
 2672 01f8 0346     		mov	r3, r0
 2673              	.LVL356:
 2674              	.L154:
 508:D:\design-mpu\source\ejemplos\BME680\bme680.c **** 				data = BME680_SET_BITS(data, BME680_RUN_GAS, dev->gas_sett.run_gas);
 2675              		.loc 1 508 0
 2676 01fa 05F04002 		and	r2, r5, #64
 2677 01fe 92B2     		uxth	r2, r2
ARM GAS  C:\Users\adria\AppData\Local\Temp\ccOKprka.s 			page 81


 2678 0200 5AB1     		cbz	r2, .L155
 509:D:\design-mpu\source\ejemplos\BME680\bme680.c **** 
 2679              		.loc 1 509 0
 2680 0202 94F83E20 		ldrb	r2, [r4, #62]	@ zero_extendqisi2
 2681 0206 1201     		lsls	r2, r2, #4
 2682 0208 9DF80F10 		ldrb	r1, [sp, #15]	@ zero_extendqisi2
 2683 020c 21F01001 		bic	r1, r1, #16
 2684 0210 02F01002 		and	r2, r2, #16
 2685 0214 0A43     		orrs	r2, r2, r1
 2686 0216 8DF80F20 		strb	r2, [sp, #15]
 2687              	.L155:
 511:D:\design-mpu\source\ejemplos\BME680\bme680.c **** 				data = BME680_SET_BITS_POS_0(data, BME680_NBCONV, dev->gas_sett.nb_conv);
 2688              		.loc 1 511 0
 2689 021a 05F08005 		and	r5, r5, #128
 2690 021e ADB2     		uxth	r5, r5
 2691 0220 55B1     		cbz	r5, .L156
 512:D:\design-mpu\source\ejemplos\BME680\bme680.c **** 
 2692              		.loc 1 512 0
 2693 0222 94F83C20 		ldrb	r2, [r4, #60]	@ zero_extendqisi2
 2694 0226 9DF80F10 		ldrb	r1, [sp, #15]	@ zero_extendqisi2
 2695 022a 21F00F01 		bic	r1, r1, #15
 2696 022e 02F00F02 		and	r2, r2, #15
 2697 0232 0A43     		orrs	r2, r2, r1
 2698 0234 8DF80F20 		strb	r2, [sp, #15]
 2699              	.L156:
 514:D:\design-mpu\source\ejemplos\BME680\bme680.c **** 			data_array[count] = data;
 2700              		.loc 1 514 0
 2701 0238 04AA     		add	r2, sp, #16
 2702 023a 3244     		add	r2, r2, r6
 2703 023c 7121     		movs	r1, #113
 2704 023e 02F8081C 		strb	r1, [r2, #-8]
 515:D:\design-mpu\source\ejemplos\BME680\bme680.c **** 			count++;
 2705              		.loc 1 515 0
 2706 0242 9DF80F10 		ldrb	r1, [sp, #15]	@ zero_extendqisi2
 2707 0246 02F8101C 		strb	r1, [r2, #-16]
 516:D:\design-mpu\source\ejemplos\BME680\bme680.c **** 		}
 2708              		.loc 1 516 0
 2709 024a 0136     		adds	r6, r6, #1
 2710              	.LVL357:
 2711 024c F6B2     		uxtb	r6, r6
 2712              	.LVL358:
 2713              	.L152:
 519:D:\design-mpu\source\ejemplos\BME680\bme680.c **** 			rslt = bme680_set_regs(reg_array, data_array, count, dev);
 2714              		.loc 1 519 0
 2715 024e 33B9     		cbnz	r3, .L157
 520:D:\design-mpu\source\ejemplos\BME680\bme680.c **** 
 2716              		.loc 1 520 0
 2717 0250 2346     		mov	r3, r4
 2718              	.LVL359:
 2719 0252 3246     		mov	r2, r6
 2720 0254 6946     		mov	r1, sp
 2721 0256 02A8     		add	r0, sp, #8
 2722 0258 FFF7FEFF 		bl	bme680_set_regs
 2723              	.LVL360:
 2724 025c 0346     		mov	r3, r0
 2725              	.LVL361:
 2726              	.L157:
ARM GAS  C:\Users\adria\AppData\Local\Temp\ccOKprka.s 			page 82


 523:D:\design-mpu\source\ejemplos\BME680\bme680.c **** 	}
 2727              		.loc 1 523 0
 2728 025e 84F84470 		strb	r7, [r4, #68]
 2729              	.LVL362:
 2730              	.L138:
 527:D:\design-mpu\source\ejemplos\BME680\bme680.c **** 
 2731              		.loc 1 527 0
 2732 0262 1846     		mov	r0, r3
 2733 0264 05B0     		add	sp, sp, #20
 2734              		.cfi_def_cfa_offset 20
 2735              		@ sp needed
 2736 0266 F0BD     		pop	{r4, r5, r6, r7, pc}
 2737              		.cfi_endproc
 2738              	.LFE67:
 2739              		.size	bme680_set_sensor_settings, .-bme680_set_sensor_settings
 2740              		.section	.text.bme680_get_sensor_mode,"ax",%progbits
 2741              		.align	2
 2742              		.global	bme680_get_sensor_mode
 2743              		.thumb
 2744              		.thumb_func
 2745              		.type	bme680_get_sensor_mode, %function
 2746              	bme680_get_sensor_mode:
 2747              	.LFB70:
 625:D:\design-mpu\source\ejemplos\BME680\bme680.c **** 	int8_t rslt;
 2748              		.loc 1 625 0
 2749              		.cfi_startproc
 2750              		@ args = 0, pretend = 0, frame = 8
 2751              		@ frame_needed = 0, uses_anonymous_args = 0
 2752              	.LVL363:
 2753 0000 10B5     		push	{r4, lr}
 2754              		.cfi_def_cfa_offset 8
 2755              		.cfi_offset 4, -8
 2756              		.cfi_offset 14, -4
 2757 0002 82B0     		sub	sp, sp, #8
 2758              		.cfi_def_cfa_offset 16
 2759 0004 0446     		mov	r4, r0
 630:D:\design-mpu\source\ejemplos\BME680\bme680.c **** 	if (rslt == BME680_OK) {
 2760              		.loc 1 630 0
 2761 0006 FFF7FEFF 		bl	null_ptr_check
 2762              	.LVL364:
 631:D:\design-mpu\source\ejemplos\BME680\bme680.c **** 		rslt = bme680_get_regs(BME680_CONF_T_P_MODE_ADDR, &mode, 1, dev);
 2763              		.loc 1 631 0
 2764 000a 0346     		mov	r3, r0
 2765 000c 68B9     		cbnz	r0, .L161
 632:D:\design-mpu\source\ejemplos\BME680\bme680.c **** 		/* Masking the other register bit info*/
 2766              		.loc 1 632 0
 2767 000e 2346     		mov	r3, r4
 2768 0010 0122     		movs	r2, #1
 2769 0012 0DF10701 		add	r1, sp, #7
 2770 0016 7420     		movs	r0, #116
 2771              	.LVL365:
 2772 0018 FFF7FEFF 		bl	bme680_get_regs
 2773              	.LVL366:
 2774 001c 0346     		mov	r3, r0
 2775              	.LVL367:
 634:D:\design-mpu\source\ejemplos\BME680\bme680.c **** 	}
 2776              		.loc 1 634 0
ARM GAS  C:\Users\adria\AppData\Local\Temp\ccOKprka.s 			page 83


 2777 001e 9DF80720 		ldrb	r2, [sp, #7]	@ zero_extendqisi2
 2778 0022 02F00302 		and	r2, r2, #3
 2779 0026 84F84420 		strb	r2, [r4, #68]
 2780              	.LVL368:
 2781              	.L161:
 638:D:\design-mpu\source\ejemplos\BME680\bme680.c **** 
 2782              		.loc 1 638 0
 2783 002a 1846     		mov	r0, r3
 2784 002c 02B0     		add	sp, sp, #8
 2785              		.cfi_def_cfa_offset 8
 2786              		@ sp needed
 2787 002e 10BD     		pop	{r4, pc}
 2788              		.cfi_endproc
 2789              	.LFE70:
 2790              		.size	bme680_get_sensor_mode, .-bme680_get_sensor_mode
 2791              		.section	.text.bme680_set_profile_dur,"ax",%progbits
 2792              		.align	2
 2793              		.global	bme680_set_profile_dur
 2794              		.thumb
 2795              		.thumb_func
 2796              		.type	bme680_set_profile_dur, %function
 2797              	bme680_set_profile_dur:
 2798              	.LFB71:
 644:D:\design-mpu\source\ejemplos\BME680\bme680.c **** 	uint32_t tph_dur; /* Calculate in us */
 2799              		.loc 1 644 0
 2800              		.cfi_startproc
 2801              		@ args = 0, pretend = 0, frame = 8
 2802              		@ frame_needed = 0, uses_anonymous_args = 0
 2803              		@ link register save eliminated.
 2804              	.LVL369:
 2805 0000 10B4     		push	{r4}
 2806              		.cfi_def_cfa_offset 4
 2807              		.cfi_offset 4, -4
 2808 0002 83B0     		sub	sp, sp, #12
 2809              		.cfi_def_cfa_offset 16
 2810 0004 0246     		mov	r2, r0
 647:D:\design-mpu\source\ejemplos\BME680\bme680.c **** 
 2811              		.loc 1 647 0
 2812 0006 154B     		ldr	r3, .L165
 2813 0008 53F8800F 		ldr	r0, [r3, #128]!	@ unaligned
 2814              	.LVL370:
 2815 000c 0090     		str	r0, [sp]	@ unaligned
 2816 000e 9B88     		ldrh	r3, [r3, #4]	@ unaligned
 2817 0010 ADF80430 		strh	r3, [sp, #4]	@ unaligned
 649:D:\design-mpu\source\ejemplos\BME680\bme680.c **** 	meas_cycles += os_to_meas_cycles[dev->tph_sett.os_pres];
 2818              		.loc 1 649 0
 2819 0014 91F83930 		ldrb	r3, [r1, #57]	@ zero_extendqisi2
 2820 0018 02A8     		add	r0, sp, #8
 2821 001a 0344     		add	r3, r3, r0
 2822 001c 13F8083C 		ldrb	r3, [r3, #-8]	@ zero_extendqisi2
 2823              	.LVL371:
 650:D:\design-mpu\source\ejemplos\BME680\bme680.c **** 	meas_cycles += os_to_meas_cycles[dev->tph_sett.os_hum];
 2824              		.loc 1 650 0
 2825 0020 91F83A00 		ldrb	r0, [r1, #58]	@ zero_extendqisi2
 2826 0024 02AC     		add	r4, sp, #8
 2827 0026 2044     		add	r0, r0, r4
 2828 0028 10F8080C 		ldrb	r0, [r0, #-8]	@ zero_extendqisi2
ARM GAS  C:\Users\adria\AppData\Local\Temp\ccOKprka.s 			page 84


 2829 002c 0344     		add	r3, r3, r0
 2830              	.LVL372:
 651:D:\design-mpu\source\ejemplos\BME680\bme680.c **** 
 2831              		.loc 1 651 0
 2832 002e 91F83800 		ldrb	r0, [r1, #56]	@ zero_extendqisi2
 2833 0032 2044     		add	r0, r0, r4
 2834 0034 10F8080C 		ldrb	r0, [r0, #-8]	@ zero_extendqisi2
 2835 0038 0344     		add	r3, r3, r0
 2836              	.LVL373:
 657:D:\design-mpu\source\ejemplos\BME680\bme680.c **** 	tph_dur /= UINT32_C(1000); /* Convert to ms */
 2837              		.loc 1 657 0
 2838 003a 41F2B920 		movw	r0, #4793
 2839 003e 40F2AB74 		movw	r4, #1963
 2840 0042 04FB0300 		mla	r0, r4, r3, r0
 2841              	.LVL374:
 658:D:\design-mpu\source\ejemplos\BME680\bme680.c **** 
 2842              		.loc 1 658 0
 2843 0046 064B     		ldr	r3, .L165+4
 2844              	.LVL375:
 2845 0048 A3FB0030 		umull	r3, r0, r3, r0
 2846              	.LVL376:
 2847 004c 8009     		lsrs	r0, r0, #6
 2848              	.LVL377:
 660:D:\design-mpu\source\ejemplos\BME680\bme680.c **** 	/* The remaining time should be used for heating */
 2849              		.loc 1 660 0
 2850 004e 0130     		adds	r0, r0, #1
 2851              	.LVL378:
 662:D:\design-mpu\source\ejemplos\BME680\bme680.c **** }
 2852              		.loc 1 662 0
 2853 0050 101A     		subs	r0, r2, r0
 2854              	.LVL379:
 2855 0052 A1F84200 		strh	r0, [r1, #66]	@ movhi
 663:D:\design-mpu\source\ejemplos\BME680\bme680.c **** 
 2856              		.loc 1 663 0
 2857 0056 03B0     		add	sp, sp, #12
 2858              		.cfi_def_cfa_offset 4
 2859              		@ sp needed
 2860 0058 10BC     		pop	{r4}
 2861              		.cfi_restore 4
 2862              		.cfi_def_cfa_offset 0
 2863              	.LVL380:
 2864 005a 7047     		bx	lr
 2865              	.L166:
 2866              		.align	2
 2867              	.L165:
 2868 005c 00000000 		.word	.LANCHOR0
 2869 0060 D34D6210 		.word	274877907
 2870              		.cfi_endproc
 2871              	.LFE71:
 2872              		.size	bme680_set_profile_dur, .-bme680_set_profile_dur
 2873              		.section	.text.bme680_get_profile_dur,"ax",%progbits
 2874              		.align	2
 2875              		.global	bme680_get_profile_dur
 2876              		.thumb
 2877              		.thumb_func
 2878              		.type	bme680_get_profile_dur, %function
 2879              	bme680_get_profile_dur:
ARM GAS  C:\Users\adria\AppData\Local\Temp\ccOKprka.s 			page 85


 2880              	.LFB72:
 669:D:\design-mpu\source\ejemplos\BME680\bme680.c **** 	uint32_t tph_dur; /* Calculate in us */
 2881              		.loc 1 669 0
 2882              		.cfi_startproc
 2883              		@ args = 0, pretend = 0, frame = 8
 2884              		@ frame_needed = 0, uses_anonymous_args = 0
 2885              		@ link register save eliminated.
 2886              	.LVL381:
 2887 0000 10B4     		push	{r4}
 2888              		.cfi_def_cfa_offset 4
 2889              		.cfi_offset 4, -4
 2890 0002 83B0     		sub	sp, sp, #12
 2891              		.cfi_def_cfa_offset 16
 2892 0004 0446     		mov	r4, r0
 672:D:\design-mpu\source\ejemplos\BME680\bme680.c **** 
 2893              		.loc 1 672 0
 2894 0006 184B     		ldr	r3, .L170
 2895 0008 53F8800F 		ldr	r0, [r3, #128]!	@ unaligned
 2896              	.LVL382:
 2897 000c 0090     		str	r0, [sp]	@ unaligned
 2898 000e 9B88     		ldrh	r3, [r3, #4]	@ unaligned
 2899 0010 ADF80430 		strh	r3, [sp, #4]	@ unaligned
 674:D:\design-mpu\source\ejemplos\BME680\bme680.c **** 	meas_cycles += os_to_meas_cycles[dev->tph_sett.os_pres];
 2900              		.loc 1 674 0
 2901 0014 91F83930 		ldrb	r3, [r1, #57]	@ zero_extendqisi2
 2902 0018 02AA     		add	r2, sp, #8
 2903 001a 1344     		add	r3, r3, r2
 2904 001c 13F8083C 		ldrb	r3, [r3, #-8]	@ zero_extendqisi2
 2905              	.LVL383:
 675:D:\design-mpu\source\ejemplos\BME680\bme680.c **** 	meas_cycles += os_to_meas_cycles[dev->tph_sett.os_hum];
 2906              		.loc 1 675 0
 2907 0020 91F83A20 		ldrb	r2, [r1, #58]	@ zero_extendqisi2
 2908 0024 02A8     		add	r0, sp, #8
 2909 0026 0244     		add	r2, r2, r0
 2910 0028 12F8082C 		ldrb	r2, [r2, #-8]	@ zero_extendqisi2
 2911 002c 1344     		add	r3, r3, r2
 2912              	.LVL384:
 676:D:\design-mpu\source\ejemplos\BME680\bme680.c **** 
 2913              		.loc 1 676 0
 2914 002e 91F83820 		ldrb	r2, [r1, #56]	@ zero_extendqisi2
 2915 0032 0244     		add	r2, r2, r0
 2916 0034 12F8082C 		ldrb	r2, [r2, #-8]	@ zero_extendqisi2
 2917 0038 1A44     		add	r2, r2, r3
 2918              	.LVL385:
 682:D:\design-mpu\source\ejemplos\BME680\bme680.c **** 	tph_dur /= UINT32_C(1000); /* Convert to ms */
 2919              		.loc 1 682 0
 2920 003a 41F2B923 		movw	r3, #4793
 2921 003e 40F2AB70 		movw	r0, #1963
 2922 0042 00FB0233 		mla	r3, r0, r2, r3
 2923              	.LVL386:
 683:D:\design-mpu\source\ejemplos\BME680\bme680.c **** 
 2924              		.loc 1 683 0
 2925 0046 094A     		ldr	r2, .L170+4
 2926              	.LVL387:
 2927 0048 A2FB0323 		umull	r2, r3, r2, r3
 2928              	.LVL388:
 2929 004c 9B09     		lsrs	r3, r3, #6
ARM GAS  C:\Users\adria\AppData\Local\Temp\ccOKprka.s 			page 86


 2930              	.LVL389:
 685:D:\design-mpu\source\ejemplos\BME680\bme680.c **** 
 2931              		.loc 1 685 0
 2932 004e 0133     		adds	r3, r3, #1
 2933              	.LVL390:
 687:D:\design-mpu\source\ejemplos\BME680\bme680.c **** 
 2934              		.loc 1 687 0
 2935 0050 9BB2     		uxth	r3, r3
 2936              	.LVL391:
 2937 0052 2380     		strh	r3, [r4]	@ movhi
 2938              	.LVL392:
 690:D:\design-mpu\source\ejemplos\BME680\bme680.c **** 		/* The remaining time should be used for heating */
 2939              		.loc 1 690 0
 2940 0054 91F83E20 		ldrb	r2, [r1, #62]	@ zero_extendqisi2
 2941 0058 1AB1     		cbz	r2, .L167
 692:D:\design-mpu\source\ejemplos\BME680\bme680.c **** 	}
 2942              		.loc 1 692 0
 2943 005a B1F84220 		ldrh	r2, [r1, #66]
 2944 005e 1344     		add	r3, r3, r2
 2945 0060 2380     		strh	r3, [r4]	@ movhi
 2946              	.L167:
 694:D:\design-mpu\source\ejemplos\BME680\bme680.c **** 
 2947              		.loc 1 694 0
 2948 0062 03B0     		add	sp, sp, #12
 2949              		.cfi_def_cfa_offset 4
 2950              		@ sp needed
 2951 0064 10BC     		pop	{r4}
 2952              		.cfi_restore 4
 2953              		.cfi_def_cfa_offset 0
 2954              	.LVL393:
 2955 0066 7047     		bx	lr
 2956              	.L171:
 2957              		.align	2
 2958              	.L170:
 2959 0068 00000000 		.word	.LANCHOR0
 2960 006c D34D6210 		.word	274877907
 2961              		.cfi_endproc
 2962              	.LFE72:
 2963              		.size	bme680_get_profile_dur, .-bme680_get_profile_dur
 2964              		.section	.text.bme680_get_sensor_data,"ax",%progbits
 2965              		.align	2
 2966              		.global	bme680_get_sensor_data
 2967              		.thumb
 2968              		.thumb_func
 2969              		.type	bme680_get_sensor_data, %function
 2970              	bme680_get_sensor_data:
 2971              	.LFB73:
 702:D:\design-mpu\source\ejemplos\BME680\bme680.c **** 	int8_t rslt;
 2972              		.loc 1 702 0
 2973              		.cfi_startproc
 2974              		@ args = 0, pretend = 0, frame = 0
 2975              		@ frame_needed = 0, uses_anonymous_args = 0
 2976              	.LVL394:
 2977 0000 38B5     		push	{r3, r4, r5, lr}
 2978              		.cfi_def_cfa_offset 16
 2979              		.cfi_offset 3, -16
 2980              		.cfi_offset 4, -12
ARM GAS  C:\Users\adria\AppData\Local\Temp\ccOKprka.s 			page 87


 2981              		.cfi_offset 5, -8
 2982              		.cfi_offset 14, -4
 2983 0002 0546     		mov	r5, r0
 2984 0004 0C46     		mov	r4, r1
 706:D:\design-mpu\source\ejemplos\BME680\bme680.c **** 	if (rslt == BME680_OK) {
 2985              		.loc 1 706 0
 2986 0006 0846     		mov	r0, r1
 2987              	.LVL395:
 2988 0008 FFF7FEFF 		bl	null_ptr_check
 2989              	.LVL396:
 707:D:\design-mpu\source\ejemplos\BME680\bme680.c **** 		/* Reading the sensor data in forced mode only */
 2990              		.loc 1 707 0
 2991 000c 0346     		mov	r3, r0
 2992 000e 80B9     		cbnz	r0, .L173
 709:D:\design-mpu\source\ejemplos\BME680\bme680.c **** 		if (rslt == BME680_OK) {
 2993              		.loc 1 709 0
 2994 0010 2146     		mov	r1, r4
 2995 0012 2846     		mov	r0, r5
 2996              	.LVL397:
 2997 0014 FFF7FEFF 		bl	read_field_data
 2998              	.LVL398:
 710:D:\design-mpu\source\ejemplos\BME680\bme680.c **** 			if (data->status & BME680_NEW_DATA_MSK)
 2999              		.loc 1 710 0
 3000 0018 0346     		mov	r3, r0
 3001 001a 50B9     		cbnz	r0, .L173
 711:D:\design-mpu\source\ejemplos\BME680\bme680.c **** 				dev->new_fields = 1;
 3002              		.loc 1 711 0
 3003 001c 95F90020 		ldrsb	r2, [r5]
 3004 0020 002A     		cmp	r2, #0
 3005 0022 03DA     		bge	.L174
 712:D:\design-mpu\source\ejemplos\BME680\bme680.c **** 			else
 3006              		.loc 1 712 0
 3007 0024 0122     		movs	r2, #1
 3008 0026 84F84520 		strb	r2, [r4, #69]
 3009 002a 02E0     		b	.L173
 3010              	.L174:
 714:D:\design-mpu\source\ejemplos\BME680\bme680.c **** 		}
 3011              		.loc 1 714 0
 3012 002c 0022     		movs	r2, #0
 3013 002e 84F84520 		strb	r2, [r4, #69]
 3014              	.L173:
 3015              	.LVL399:
 719:D:\design-mpu\source\ejemplos\BME680\bme680.c **** 
 3016              		.loc 1 719 0
 3017 0032 1846     		mov	r0, r3
 3018 0034 38BD     		pop	{r3, r4, r5, pc}
 3019              		.cfi_endproc
 3020              	.LFE73:
 3021              		.size	bme680_get_sensor_data, .-bme680_get_sensor_data
 3022 0036 00BF     		.section	.text.bme680_self_test,"ax",%progbits
 3023              		.align	2
 3024              		.global	bme680_self_test
 3025              		.thumb
 3026              		.thumb_func
 3027              		.type	bme680_self_test, %function
 3028              	bme680_self_test:
 3029              	.LFB88:
ARM GAS  C:\Users\adria\AppData\Local\Temp\ccOKprka.s 			page 88


1381:D:\design-mpu\source\ejemplos\BME680\bme680.c **** 	int8_t rslt = BME680_OK;
 3030              		.loc 1 1381 0
 3031              		.cfi_startproc
 3032              		@ args = 0, pretend = 0, frame = 216
 3033              		@ frame_needed = 0, uses_anonymous_args = 0
 3034              	.LVL400:
 3035 0000 30B5     		push	{r4, r5, lr}
 3036              		.cfi_def_cfa_offset 12
 3037              		.cfi_offset 4, -12
 3038              		.cfi_offset 5, -8
 3039              		.cfi_offset 14, -4
 3040 0002 B7B0     		sub	sp, sp, #220
 3041              		.cfi_def_cfa_offset 232
 3042              	.LVL401:
1388:D:\design-mpu\source\ejemplos\BME680\bme680.c **** 	t_dev.amb_temp = 25;
 3043              		.loc 1 1388 0
 3044 0004 4378     		ldrb	r3, [r0, #1]	@ zero_extendqisi2
 3045 0006 8DF80930 		strb	r3, [sp, #9]
1389:D:\design-mpu\source\ejemplos\BME680\bme680.c **** 	t_dev.read = dev->read;
 3046              		.loc 1 1389 0
 3047 000a 1923     		movs	r3, #25
 3048 000c 8DF80C30 		strb	r3, [sp, #12]
1390:D:\design-mpu\source\ejemplos\BME680\bme680.c **** 	t_dev.write = dev->write;
 3049              		.loc 1 1390 0
 3050 0010 836C     		ldr	r3, [r0, #72]
 3051 0012 1493     		str	r3, [sp, #80]
1391:D:\design-mpu\source\ejemplos\BME680\bme680.c **** 	t_dev.intf = dev->intf;
 3052              		.loc 1 1391 0
 3053 0014 C36C     		ldr	r3, [r0, #76]
 3054 0016 1593     		str	r3, [sp, #84]
1392:D:\design-mpu\source\ejemplos\BME680\bme680.c **** 	t_dev.delay_ms = dev->delay_ms;
 3055              		.loc 1 1392 0
 3056 0018 8378     		ldrb	r3, [r0, #2]	@ zero_extendqisi2
 3057 001a 8DF80A30 		strb	r3, [sp, #10]
1393:D:\design-mpu\source\ejemplos\BME680\bme680.c **** 
 3058              		.loc 1 1393 0
 3059 001e 036D     		ldr	r3, [r0, #80]
 3060 0020 1693     		str	r3, [sp, #88]
1395:D:\design-mpu\source\ejemplos\BME680\bme680.c **** 
 3061              		.loc 1 1395 0
 3062 0022 02A8     		add	r0, sp, #8
 3063              	.LVL402:
 3064 0024 FFF7FEFF 		bl	bme680_init
 3065              	.LVL403:
1397:D:\design-mpu\source\ejemplos\BME680\bme680.c **** 		/* Select the power mode */
 3066              		.loc 1 1397 0
 3067 0028 0546     		mov	r5, r0
 3068 002a 0028     		cmp	r0, #0
 3069 002c 46D1     		bne	.L177
 3070              	.LBB4:
1400:D:\design-mpu\source\ejemplos\BME680\bme680.c **** 
 3071              		.loc 1 1400 0
 3072 002e 0123     		movs	r3, #1
 3073 0030 8DF84C30 		strb	r3, [sp, #76]
1405:D:\design-mpu\source\ejemplos\BME680\bme680.c **** 		t_dev.tph_sett.os_pres = BME680_OS_16X;
 3074              		.loc 1 1405 0
 3075 0034 8DF84030 		strb	r3, [sp, #64]
ARM GAS  C:\Users\adria\AppData\Local\Temp\ccOKprka.s 			page 89


1406:D:\design-mpu\source\ejemplos\BME680\bme680.c **** 		t_dev.tph_sett.os_temp = BME680_OS_2X;
 3076              		.loc 1 1406 0
 3077 0038 0522     		movs	r2, #5
 3078 003a 8DF84220 		strb	r2, [sp, #66]
1407:D:\design-mpu\source\ejemplos\BME680\bme680.c **** 
 3079              		.loc 1 1407 0
 3080 003e 0222     		movs	r2, #2
 3081 0040 8DF84120 		strb	r2, [sp, #65]
1410:D:\design-mpu\source\ejemplos\BME680\bme680.c **** 		t_dev.gas_sett.heatr_dur = HEATR_DUR;
 3082              		.loc 1 1410 0
 3083 0044 8DF84630 		strb	r3, [sp, #70]
1411:D:\design-mpu\source\ejemplos\BME680\bme680.c **** 
 3084              		.loc 1 1411 0
 3085 0048 4FF4FA63 		mov	r3, #2000
 3086 004c ADF84A30 		strh	r3, [sp, #74]	@ movhi
 3087              	.LVL404:
1415:D:\design-mpu\source\ejemplos\BME680\bme680.c **** 		bme680_get_profile_dur(&profile_dur, &t_dev);
 3088              		.loc 1 1415 0
 3089 0050 0024     		movs	r4, #0
 3090 0052 ADF80640 		strh	r4, [sp, #6]	@ movhi
1416:D:\design-mpu\source\ejemplos\BME680\bme680.c **** 
 3091              		.loc 1 1416 0
 3092 0056 02A9     		add	r1, sp, #8
 3093 0058 0DF10600 		add	r0, sp, #6
 3094              	.LVL405:
 3095 005c FFF7FEFF 		bl	bme680_get_profile_dur
 3096              	.LVL406:
1419:D:\design-mpu\source\ejemplos\BME680\bme680.c **** 			if (rslt == BME680_OK) {
 3097              		.loc 1 1419 0
 3098 0060 23E0     		b	.L178
 3099              	.LVL407:
 3100              	.L183:
1420:D:\design-mpu\source\ejemplos\BME680\bme680.c **** 
 3101              		.loc 1 1420 0
 3102 0062 05BB     		cbnz	r5, .L179
1422:D:\design-mpu\source\ejemplos\BME680\bme680.c **** 					t_dev.gas_sett.heatr_temp = HIGH_TEMP; /* Higher temperature */
 3103              		.loc 1 1422 0
 3104 0064 14F0010F 		tst	r4, #1
 3105 0068 04D1     		bne	.L180
1423:D:\design-mpu\source\ejemplos\BME680\bme680.c **** 				else
 3106              		.loc 1 1423 0
 3107 006a 4FF4AF73 		mov	r3, #350
 3108 006e ADF84830 		strh	r3, [sp, #72]	@ movhi
 3109 0072 02E0     		b	.L181
 3110              	.L180:
1425:D:\design-mpu\source\ejemplos\BME680\bme680.c **** 
 3111              		.loc 1 1425 0
 3112 0074 9623     		movs	r3, #150
 3113 0076 ADF84830 		strh	r3, [sp, #72]	@ movhi
 3114              	.L181:
1427:D:\design-mpu\source\ejemplos\BME680\bme680.c **** 
 3115              		.loc 1 1427 0
 3116 007a 02A9     		add	r1, sp, #8
 3117 007c CF20     		movs	r0, #207
 3118 007e FFF7FEFF 		bl	bme680_set_sensor_settings
 3119              	.LVL408:
1429:D:\design-mpu\source\ejemplos\BME680\bme680.c **** 
ARM GAS  C:\Users\adria\AppData\Local\Temp\ccOKprka.s 			page 90


 3120              		.loc 1 1429 0
 3121 0082 0546     		mov	r5, r0
 3122 0084 78B9     		cbnz	r0, .L179
1431:D:\design-mpu\source\ejemplos\BME680\bme680.c **** 
 3123              		.loc 1 1431 0
 3124 0086 02A8     		add	r0, sp, #8
 3125              	.LVL409:
 3126 0088 FFF7FEFF 		bl	bme680_set_sensor_mode
 3127              	.LVL410:
1433:D:\design-mpu\source\ejemplos\BME680\bme680.c **** 
 3128              		.loc 1 1433 0
 3129 008c BDF80600 		ldrh	r0, [sp, #6]
 3130 0090 169B     		ldr	r3, [sp, #88]
 3131 0092 9847     		blx	r3
 3132              	.LVL411:
1435:D:\design-mpu\source\ejemplos\BME680\bme680.c **** 				}
 3133              		.loc 1 1435 0
 3134 0094 04EB8403 		add	r3, r4, r4, lsl #2
 3135 0098 9800     		lsls	r0, r3, #2
 3136 009a 02A9     		add	r1, sp, #8
 3137 009c 18AB     		add	r3, sp, #96
 3138 009e 1844     		add	r0, r0, r3
 3139 00a0 FFF7FEFF 		bl	bme680_get_sensor_data
 3140              	.LVL412:
 3141 00a4 0546     		mov	r5, r0
 3142              	.LVL413:
 3143              	.L179:
1439:D:\design-mpu\source\ejemplos\BME680\bme680.c **** 		}
 3144              		.loc 1 1439 0
 3145 00a6 0134     		adds	r4, r4, #1
 3146              	.LVL414:
 3147 00a8 E4B2     		uxtb	r4, r4
 3148              	.LVL415:
 3149              	.L178:
1419:D:\design-mpu\source\ejemplos\BME680\bme680.c **** 			if (rslt == BME680_OK) {
 3150              		.loc 1 1419 0
 3151 00aa 0DB9     		cbnz	r5, .L182
1419:D:\design-mpu\source\ejemplos\BME680\bme680.c **** 			if (rslt == BME680_OK) {
 3152              		.loc 1 1419 0 is_stmt 0 discriminator 1
 3153 00ac 052C     		cmp	r4, #5
 3154 00ae D8D9     		bls	.L183
 3155              	.L182:
1442:D:\design-mpu\source\ejemplos\BME680\bme680.c **** 			rslt = analyze_sensor_data(data, N_MEAS);
 3156              		.loc 1 1442 0 is_stmt 1
 3157 00b0 25B9     		cbnz	r5, .L177
1443:D:\design-mpu\source\ejemplos\BME680\bme680.c **** 	}
 3158              		.loc 1 1443 0
 3159 00b2 0621     		movs	r1, #6
 3160 00b4 18A8     		add	r0, sp, #96
 3161 00b6 FFF7FEFF 		bl	analyze_sensor_data
 3162              	.LVL416:
 3163 00ba 0546     		mov	r5, r0
 3164              	.LVL417:
 3165              	.L177:
 3166              	.LBE4:
1447:D:\design-mpu\source\ejemplos\BME680\bme680.c **** 
 3167              		.loc 1 1447 0
ARM GAS  C:\Users\adria\AppData\Local\Temp\ccOKprka.s 			page 91


 3168 00bc 2846     		mov	r0, r5
 3169 00be 37B0     		add	sp, sp, #220
 3170              		.cfi_def_cfa_offset 12
 3171              		@ sp needed
 3172 00c0 30BD     		pop	{r4, r5, pc}
 3173              		.cfi_endproc
 3174              	.LFE88:
 3175              		.size	bme680_self_test, .-bme680_self_test
 3176 00c2 00BF     		.section	.text.bme680_setup,"ax",%progbits
 3177              		.align	2
 3178              		.global	bme680_setup
 3179              		.thumb
 3180              		.thumb_func
 3181              		.type	bme680_setup, %function
 3182              	bme680_setup:
 3183              	.LFB93:
1565:D:\design-mpu\source\ejemplos\BME680\bme680.c **** 
1566:D:\design-mpu\source\ejemplos\BME680\bme680.c **** int8_t bme680_setup(struct bme680_dev *dev)
1567:D:\design-mpu\source\ejemplos\BME680\bme680.c **** {
 3184              		.loc 1 1567 0
 3185              		.cfi_startproc
 3186              		@ args = 0, pretend = 0, frame = 0
 3187              		@ frame_needed = 0, uses_anonymous_args = 0
 3188              	.LVL418:
 3189 0000 08B5     		push	{r3, lr}
 3190              		.cfi_def_cfa_offset 8
 3191              		.cfi_offset 3, -8
 3192              		.cfi_offset 14, -4
1568:D:\design-mpu\source\ejemplos\BME680\bme680.c ****     dev->dev_id = BME680_I2C_ADDR_PRIMARY;
 3193              		.loc 1 1568 0
 3194 0002 7622     		movs	r2, #118
 3195 0004 4270     		strb	r2, [r0, #1]
1569:D:\design-mpu\source\ejemplos\BME680\bme680.c ****     dev->intf = BME680_I2C_INTF;
 3196              		.loc 1 1569 0
 3197 0006 0122     		movs	r2, #1
 3198 0008 8270     		strb	r2, [r0, #2]
1570:D:\design-mpu\source\ejemplos\BME680\bme680.c ****     dev->read = user_i2c_read;
 3199              		.loc 1 1570 0
 3200 000a 054A     		ldr	r2, .L188
 3201 000c 8264     		str	r2, [r0, #72]
1571:D:\design-mpu\source\ejemplos\BME680\bme680.c ****     dev->write = user_i2c_write;
 3202              		.loc 1 1571 0
 3203 000e 054A     		ldr	r2, .L188+4
 3204 0010 C264     		str	r2, [r0, #76]
1572:D:\design-mpu\source\ejemplos\BME680\bme680.c ****     dev->delay_ms = user_delay_ms;
 3205              		.loc 1 1572 0
 3206 0012 054A     		ldr	r2, .L188+8
 3207 0014 0265     		str	r2, [r0, #80]
1573:D:\design-mpu\source\ejemplos\BME680\bme680.c ****     /* amb_temp can be set to 25 prior to configuring the gas sensor 
1574:D:\design-mpu\source\ejemplos\BME680\bme680.c ****      * or by performing a few temperature readings without operating the gas sensor.
1575:D:\design-mpu\source\ejemplos\BME680\bme680.c ****      */
1576:D:\design-mpu\source\ejemplos\BME680\bme680.c ****     dev->amb_temp = 25;
 3208              		.loc 1 1576 0
 3209 0016 1922     		movs	r2, #25
 3210 0018 0271     		strb	r2, [r0, #4]
 3211              	.LVL419:
1577:D:\design-mpu\source\ejemplos\BME680\bme680.c ****     
ARM GAS  C:\Users\adria\AppData\Local\Temp\ccOKprka.s 			page 92


1578:D:\design-mpu\source\ejemplos\BME680\bme680.c ****     int8_t rslt = BME680_OK;
1579:D:\design-mpu\source\ejemplos\BME680\bme680.c ****     rslt = bme680_init(dev);
 3212              		.loc 1 1579 0
 3213 001a FFF7FEFF 		bl	bme680_init
 3214              	.LVL420:
1580:D:\design-mpu\source\ejemplos\BME680\bme680.c ****     
1581:D:\design-mpu\source\ejemplos\BME680\bme680.c ****     return rslt;
1582:D:\design-mpu\source\ejemplos\BME680\bme680.c **** }
 3215              		.loc 1 1582 0
 3216 001e 08BD     		pop	{r3, pc}
 3217              	.L189:
 3218              		.align	2
 3219              	.L188:
 3220 0020 00000000 		.word	user_i2c_read
 3221 0024 00000000 		.word	user_i2c_write
 3222 0028 00000000 		.word	user_delay_ms
 3223              		.cfi_endproc
 3224              	.LFE93:
 3225              		.size	bme680_setup, .-bme680_setup
 3226              		.section	.text.bme680_config,"ax",%progbits
 3227              		.align	2
 3228              		.global	bme680_config
 3229              		.thumb
 3230              		.thumb_func
 3231              		.type	bme680_config, %function
 3232              	bme680_config:
 3233              	.LFB94:
1583:D:\design-mpu\source\ejemplos\BME680\bme680.c **** 
1584:D:\design-mpu\source\ejemplos\BME680\bme680.c **** int8_t bme680_config(struct bme680_dev *dev)
1585:D:\design-mpu\source\ejemplos\BME680\bme680.c **** {
 3234              		.loc 1 1585 0
 3235              		.cfi_startproc
 3236              		@ args = 0, pretend = 0, frame = 0
 3237              		@ frame_needed = 0, uses_anonymous_args = 0
 3238              	.LVL421:
 3239 0000 10B5     		push	{r4, lr}
 3240              		.cfi_def_cfa_offset 8
 3241              		.cfi_offset 4, -8
 3242              		.cfi_offset 14, -4
 3243 0002 0446     		mov	r4, r0
1586:D:\design-mpu\source\ejemplos\BME680\bme680.c ****     uint8_t set_required_settings;
1587:D:\design-mpu\source\ejemplos\BME680\bme680.c ****     
1588:D:\design-mpu\source\ejemplos\BME680\bme680.c ****     /* Set the temperature, pressure and humidity settings */
1589:D:\design-mpu\source\ejemplos\BME680\bme680.c ****     dev->tph_sett.os_hum = BME680_OS_2X;
 3244              		.loc 1 1589 0
 3245 0004 0223     		movs	r3, #2
 3246 0006 80F83830 		strb	r3, [r0, #56]
1590:D:\design-mpu\source\ejemplos\BME680\bme680.c ****     dev->tph_sett.os_pres = BME680_OS_4X;
 3247              		.loc 1 1590 0
 3248 000a 0322     		movs	r2, #3
 3249 000c 80F83A20 		strb	r2, [r0, #58]
1591:D:\design-mpu\source\ejemplos\BME680\bme680.c ****     dev->tph_sett.os_temp = BME680_OS_8X;
 3250              		.loc 1 1591 0
 3251 0010 0422     		movs	r2, #4
 3252 0012 80F83920 		strb	r2, [r0, #57]
1592:D:\design-mpu\source\ejemplos\BME680\bme680.c ****     dev->tph_sett.filter = BME680_FILTER_SIZE_3;
 3253              		.loc 1 1592 0
ARM GAS  C:\Users\adria\AppData\Local\Temp\ccOKprka.s 			page 93


 3254 0016 80F83B30 		strb	r3, [r0, #59]
1593:D:\design-mpu\source\ejemplos\BME680\bme680.c ****     
1594:D:\design-mpu\source\ejemplos\BME680\bme680.c ****     /* Set the remaining gas sensor settings and link the heating profile */
1595:D:\design-mpu\source\ejemplos\BME680\bme680.c ****     dev->gas_sett.run_gas = BME680_ENABLE_GAS_MEAS;
 3255              		.loc 1 1595 0
 3256 001a 0123     		movs	r3, #1
 3257 001c 80F83E30 		strb	r3, [r0, #62]
1596:D:\design-mpu\source\ejemplos\BME680\bme680.c ****     /* Create a ramp heat waveform in 3 steps */
1597:D:\design-mpu\source\ejemplos\BME680\bme680.c ****     dev->gas_sett.heatr_temp = 320; /* degree Celsius */
 3258              		.loc 1 1597 0
 3259 0020 4FF4A072 		mov	r2, #320
 3260 0024 A0F84020 		strh	r2, [r0, #64]	@ movhi
1598:D:\design-mpu\source\ejemplos\BME680\bme680.c ****     dev->gas_sett.heatr_dur = 150; /* milliseconds */
 3261              		.loc 1 1598 0
 3262 0028 9622     		movs	r2, #150
 3263 002a A0F84220 		strh	r2, [r0, #66]	@ movhi
1599:D:\design-mpu\source\ejemplos\BME680\bme680.c ****     
1600:D:\design-mpu\source\ejemplos\BME680\bme680.c ****     /* Select the power mode */
1601:D:\design-mpu\source\ejemplos\BME680\bme680.c ****     /* Must be set before writing the sensor configuration */
1602:D:\design-mpu\source\ejemplos\BME680\bme680.c ****     dev->power_mode = BME680_FORCED_MODE;
 3264              		.loc 1 1602 0
 3265 002e 80F84430 		strb	r3, [r0, #68]
 3266              	.LVL422:
1603:D:\design-mpu\source\ejemplos\BME680\bme680.c ****     
1604:D:\design-mpu\source\ejemplos\BME680\bme680.c ****     /* Set the required sensor settings needed */
1605:D:\design-mpu\source\ejemplos\BME680\bme680.c ****     set_required_settings = BME680_OST_SEL | BME680_OSP_SEL | BME680_OSH_SEL | BME680_FILTER_SEL 
1606:D:\design-mpu\source\ejemplos\BME680\bme680.c ****         | BME680_GAS_SENSOR_SEL;
1607:D:\design-mpu\source\ejemplos\BME680\bme680.c ****     
1608:D:\design-mpu\source\ejemplos\BME680\bme680.c ****     int8_t rslt = BME680_OK;
1609:D:\design-mpu\source\ejemplos\BME680\bme680.c **** 
1610:D:\design-mpu\source\ejemplos\BME680\bme680.c ****     /* Set the desired sensor configuration */
1611:D:\design-mpu\source\ejemplos\BME680\bme680.c ****     rslt = bme680_set_sensor_settings(set_required_settings,dev);
 3267              		.loc 1 1611 0
 3268 0032 0146     		mov	r1, r0
 3269 0034 DF20     		movs	r0, #223
 3270              	.LVL423:
 3271 0036 FFF7FEFF 		bl	bme680_set_sensor_settings
 3272              	.LVL424:
1612:D:\design-mpu\source\ejemplos\BME680\bme680.c **** 
1613:D:\design-mpu\source\ejemplos\BME680\bme680.c ****     /* Set the power mode */
1614:D:\design-mpu\source\ejemplos\BME680\bme680.c ****     rslt = bme680_set_sensor_mode(dev);
 3273              		.loc 1 1614 0
 3274 003a 2046     		mov	r0, r4
 3275 003c FFF7FEFF 		bl	bme680_set_sensor_mode
 3276              	.LVL425:
1615:D:\design-mpu\source\ejemplos\BME680\bme680.c ****     
1616:D:\design-mpu\source\ejemplos\BME680\bme680.c ****     return rslt;
1617:D:\design-mpu\source\ejemplos\BME680\bme680.c **** }
 3277              		.loc 1 1617 0
 3278 0040 10BD     		pop	{r4, pc}
 3279              		.cfi_endproc
 3280              	.LFE94:
 3281              		.size	bme680_config, .-bme680_config
 3282 0042 00BF     		.section	.text.bme680_readData,"ax",%progbits
 3283              		.align	2
 3284              		.global	bme680_readData
 3285              		.thumb
ARM GAS  C:\Users\adria\AppData\Local\Temp\ccOKprka.s 			page 94


 3286              		.thumb_func
 3287              		.type	bme680_readData, %function
 3288              	bme680_readData:
 3289              	.LFB95:
1618:D:\design-mpu\source\ejemplos\BME680\bme680.c **** 
1619:D:\design-mpu\source\ejemplos\BME680\bme680.c **** sdata_bme680 bme680_readData(struct bme680_dev *dev)
1620:D:\design-mpu\source\ejemplos\BME680\bme680.c **** {
 3290              		.loc 1 1620 0
 3291              		.cfi_startproc
 3292              		@ args = 0, pretend = 0, frame = 24
 3293              		@ frame_needed = 0, uses_anonymous_args = 0
 3294              	.LVL426:
 3295 0000 70B5     		push	{r4, r5, r6, lr}
 3296              		.cfi_def_cfa_offset 16
 3297              		.cfi_offset 4, -16
 3298              		.cfi_offset 5, -12
 3299              		.cfi_offset 6, -8
 3300              		.cfi_offset 14, -4
 3301 0002 86B0     		sub	sp, sp, #24
 3302              		.cfi_def_cfa_offset 40
 3303 0004 0646     		mov	r6, r0
 3304 0006 0C46     		mov	r4, r1
1621:D:\design-mpu\source\ejemplos\BME680\bme680.c ****     uint16_t meas_period;
1622:D:\design-mpu\source\ejemplos\BME680\bme680.c ****     uint8_t rslt;
1623:D:\design-mpu\source\ejemplos\BME680\bme680.c ****     
1624:D:\design-mpu\source\ejemplos\BME680\bme680.c ****     bme680_get_profile_dur(&meas_period, dev);
 3305              		.loc 1 1624 0
 3306 0008 0DF11600 		add	r0, sp, #22
 3307              	.LVL427:
 3308 000c FFF7FEFF 		bl	bme680_get_profile_dur
 3309              	.LVL428:
1625:D:\design-mpu\source\ejemplos\BME680\bme680.c **** 
1626:D:\design-mpu\source\ejemplos\BME680\bme680.c ****     sdata_bme680 data;
1627:D:\design-mpu\source\ejemplos\BME680\bme680.c **** 
1628:D:\design-mpu\source\ejemplos\BME680\bme680.c ****     user_delay_ms(meas_period); /* Delay till the measurement is ready */
 3310              		.loc 1 1628 0
 3311 0010 BDF81600 		ldrh	r0, [sp, #22]
 3312 0014 FFF7FEFF 		bl	user_delay_ms
 3313              	.LVL429:
1629:D:\design-mpu\source\ejemplos\BME680\bme680.c **** 
1630:D:\design-mpu\source\ejemplos\BME680\bme680.c ****     rslt = bme680_get_sensor_data(&data, dev);
 3314              		.loc 1 1630 0
 3315 0018 2146     		mov	r1, r4
 3316 001a 6846     		mov	r0, sp
 3317 001c FFF7FEFF 		bl	bme680_get_sensor_data
 3318              	.LVL430:
1631:D:\design-mpu\source\ejemplos\BME680\bme680.c ****     
1632:D:\design-mpu\source\ejemplos\BME680\bme680.c ****     /* Trigger the next measurement if you would like to read data out continuously */
1633:D:\design-mpu\source\ejemplos\BME680\bme680.c ****     if (dev->power_mode == BME680_FORCED_MODE) {
 3319              		.loc 1 1633 0
 3320 0020 94F84430 		ldrb	r3, [r4, #68]	@ zero_extendqisi2
 3321 0024 012B     		cmp	r3, #1
 3322 0026 02D1     		bne	.L193
1634:D:\design-mpu\source\ejemplos\BME680\bme680.c ****         rslt = bme680_set_sensor_mode(dev);
 3323              		.loc 1 1634 0
 3324 0028 2046     		mov	r0, r4
 3325 002a FFF7FEFF 		bl	bme680_set_sensor_mode
ARM GAS  C:\Users\adria\AppData\Local\Temp\ccOKprka.s 			page 95


 3326              	.LVL431:
 3327              	.L193:
1635:D:\design-mpu\source\ejemplos\BME680\bme680.c ****     }
1636:D:\design-mpu\source\ejemplos\BME680\bme680.c ****         
1637:D:\design-mpu\source\ejemplos\BME680\bme680.c ****     return data;
 3328              		.loc 1 1637 0
 3329 002e 3446     		mov	r4, r6
 3330              	.LVL432:
 3331 0030 6D46     		mov	r5, sp
 3332 0032 0FCD     		ldmia	r5!, {r0, r1, r2, r3}
 3333 0034 0FC4     		stmia	r4!, {r0, r1, r2, r3}
 3334 0036 2B68     		ldr	r3, [r5]
 3335 0038 2360     		str	r3, [r4]
1638:D:\design-mpu\source\ejemplos\BME680\bme680.c **** }
 3336              		.loc 1 1638 0
 3337 003a 3046     		mov	r0, r6
 3338 003c 06B0     		add	sp, sp, #24
 3339              		.cfi_def_cfa_offset 16
 3340              		@ sp needed
 3341 003e 70BD     		pop	{r4, r5, r6, pc}
 3342              		.cfi_endproc
 3343              	.LFE95:
 3344              		.size	bme680_readData, .-bme680_readData
 3345              		.section	.text.bme680_Start,"ax",%progbits
 3346              		.align	2
 3347              		.global	bme680_Start
 3348              		.thumb
 3349              		.thumb_func
 3350              		.type	bme680_Start, %function
 3351              	bme680_Start:
 3352              	.LFB96:
1639:D:\design-mpu\source\ejemplos\BME680\bme680.c **** 
1640:D:\design-mpu\source\ejemplos\BME680\bme680.c **** int8_t bme680_Start(struct bme680_dev *dev)
1641:D:\design-mpu\source\ejemplos\BME680\bme680.c **** {
 3353              		.loc 1 1641 0
 3354              		.cfi_startproc
 3355              		@ args = 0, pretend = 0, frame = 0
 3356              		@ frame_needed = 0, uses_anonymous_args = 0
 3357              	.LVL433:
 3358 0000 10B5     		push	{r4, lr}
 3359              		.cfi_def_cfa_offset 8
 3360              		.cfi_offset 4, -8
 3361              		.cfi_offset 14, -4
 3362 0002 0446     		mov	r4, r0
1642:D:\design-mpu\source\ejemplos\BME680\bme680.c ****     int8_t rslt;
1643:D:\design-mpu\source\ejemplos\BME680\bme680.c ****     
1644:D:\design-mpu\source\ejemplos\BME680\bme680.c ****     rslt = bme680_setup(dev);
 3363              		.loc 1 1644 0
 3364 0004 FFF7FEFF 		bl	bme680_setup
 3365              	.LVL434:
1645:D:\design-mpu\source\ejemplos\BME680\bme680.c ****     rslt = bme680_config(dev);
 3366              		.loc 1 1645 0
 3367 0008 2046     		mov	r0, r4
 3368 000a FFF7FEFF 		bl	bme680_config
 3369              	.LVL435:
1646:D:\design-mpu\source\ejemplos\BME680\bme680.c ****     
1647:D:\design-mpu\source\ejemplos\BME680\bme680.c ****     return rslt;
ARM GAS  C:\Users\adria\AppData\Local\Temp\ccOKprka.s 			page 96


1648:D:\design-mpu\source\ejemplos\BME680\bme680.c **** }
 3370              		.loc 1 1648 0
 3371 000e 10BD     		pop	{r4, pc}
 3372              		.cfi_endproc
 3373              	.LFE96:
 3374              		.size	bme680_Start, .-bme680_Start
 3375              		.comm	sensor_bme680,88,4
 3376              		.section	.rodata
 3377              		.align	2
 3378              		.set	.LANCHOR0,. + 0
 3379              	.LC1:
 3380 0000 FFFFFF7F 		.word	2147483647
 3381 0004 FFFFFF7F 		.word	2147483647
 3382 0008 FFFFFF7F 		.word	2147483647
 3383 000c FFFFFF7F 		.word	2147483647
 3384 0010 FFFFFF7F 		.word	2147483647
 3385 0014 EA51B87E 		.word	2126008810
 3386 0018 FFFFFF7F 		.word	2147483647
 3387 001c 21DBF97E 		.word	2130303777
 3388 0020 FFFFFF7F 		.word	2147483647
 3389 0024 FFFFFF7F 		.word	2147483647
 3390 0028 C776BE7F 		.word	2143188679
 3391 002c F4285C7F 		.word	2136746228
 3392 0030 FFFFFF7F 		.word	2147483647
 3393 0034 EA51B87E 		.word	2126008810
 3394 0038 FFFFFF7F 		.word	2147483647
 3395 003c FFFFFF7F 		.word	2147483647
 3396              	.LC2:
 3397 0040 000024F4 		.word	-198967296
 3398 0044 0000127A 		.word	2048000000
 3399 0048 0000093D 		.word	1024000000
 3400 004c 0080841E 		.word	512000000
 3401 0050 FF583E0F 		.word	255744255
 3402 0054 548C9307 		.word	127110228
 3403 0058 0090D003 		.word	64000000
 3404 005c 1038EC01 		.word	32258064
 3405 0060 9062F400 		.word	16016016
 3406 0064 00127A00 		.word	8000000
 3407 0068 00093D00 		.word	4000000
 3408 006c 80841E00 		.word	2000000
 3409 0070 40420F00 		.word	1000000
 3410 0074 20A10700 		.word	500000
 3411 0078 90D00300 		.word	250000
 3412 007c 48E80100 		.word	125000
 3413              	.LC0:
 3414 0080 00       		.byte	0
 3415 0081 01       		.byte	1
 3416 0082 02       		.byte	2
 3417 0083 04       		.byte	4
 3418 0084 08       		.byte	8
 3419 0085 10       		.byte	16
 3420              		.text
 3421              	.Letext0:
 3422              		.file 2 "c:\\program files (x86)\\cypress\\psoc creator\\4.4\\psoc creator\\import\\gnu\\arm\\5.4.
 3423              		.file 3 "c:\\program files (x86)\\cypress\\psoc creator\\4.4\\psoc creator\\import\\gnu\\arm\\5.4.
 3424              		.file 4 "D:\\design-mpu\\source\\ejemplos\\BME680\\bme680_defs.h"
 3425              		.file 5 "D:\\design-mpu\\source\\ejemplos\\BME680\\bme680.h"
ARM GAS  C:\Users\adria\AppData\Local\Temp\ccOKprka.s 			page 97


 3426              		.file 6 "Generated_Source\\PSoC5/core_cm3.h"
 3427              		.file 7 "Generated_Source\\PSoC5/CyLib.h"
 3428              		.section	.debug_info,"",%progbits
 3429              	.Ldebug_info0:
 3430 0000 651E0000 		.4byte	0x1e65
 3431 0004 0400     		.2byte	0x4
 3432 0006 00000000 		.4byte	.Ldebug_abbrev0
 3433 000a 04       		.byte	0x4
 3434 000b 01       		.uleb128 0x1
 3435 000c F5020000 		.4byte	.LASF201
 3436 0010 0C       		.byte	0xc
 3437 0011 8A050000 		.4byte	.LASF202
 3438 0015 14020000 		.4byte	.LASF203
 3439 0019 00000000 		.4byte	.Ldebug_ranges0+0
 3440 001d 00000000 		.4byte	0
 3441 0021 00000000 		.4byte	.Ldebug_line0
 3442 0025 02       		.uleb128 0x2
 3443 0026 08       		.byte	0x8
 3444 0027 07       		.byte	0x7
 3445 0028 73020000 		.4byte	.LASF0
 3446 002c 02       		.uleb128 0x2
 3447 002d 04       		.byte	0x4
 3448 002e 07       		.byte	0x7
 3449 002f E8000000 		.4byte	.LASF1
 3450 0033 03       		.uleb128 0x3
 3451 0034 04       		.byte	0x4
 3452 0035 05       		.byte	0x5
 3453 0036 696E7400 		.ascii	"int\000"
 3454 003a 02       		.uleb128 0x2
 3455 003b 01       		.byte	0x1
 3456 003c 06       		.byte	0x6
 3457 003d 47090000 		.4byte	.LASF2
 3458 0041 04       		.uleb128 0x4
 3459 0042 55060000 		.4byte	.LASF3
 3460 0046 02       		.byte	0x2
 3461 0047 1B       		.byte	0x1b
 3462 0048 3A000000 		.4byte	0x3a
 3463 004c 04       		.uleb128 0x4
 3464 004d E4070000 		.4byte	.LASF4
 3465 0051 02       		.byte	0x2
 3466 0052 1D       		.byte	0x1d
 3467 0053 57000000 		.4byte	0x57
 3468 0057 02       		.uleb128 0x2
 3469 0058 01       		.byte	0x1
 3470 0059 08       		.byte	0x8
 3471 005a 8B080000 		.4byte	.LASF5
 3472 005e 04       		.uleb128 0x4
 3473 005f D9050000 		.4byte	.LASF6
 3474 0063 02       		.byte	0x2
 3475 0064 29       		.byte	0x29
 3476 0065 69000000 		.4byte	0x69
 3477 0069 02       		.uleb128 0x2
 3478 006a 02       		.byte	0x2
 3479 006b 05       		.byte	0x5
 3480 006c FD060000 		.4byte	.LASF7
 3481 0070 04       		.uleb128 0x4
 3482 0071 9E020000 		.4byte	.LASF8
ARM GAS  C:\Users\adria\AppData\Local\Temp\ccOKprka.s 			page 98


 3483 0075 02       		.byte	0x2
 3484 0076 2B       		.byte	0x2b
 3485 0077 7B000000 		.4byte	0x7b
 3486 007b 02       		.uleb128 0x2
 3487 007c 02       		.byte	0x2
 3488 007d 07       		.byte	0x7
 3489 007e 85090000 		.4byte	.LASF9
 3490 0082 04       		.uleb128 0x4
 3491 0083 09010000 		.4byte	.LASF10
 3492 0087 02       		.byte	0x2
 3493 0088 3F       		.byte	0x3f
 3494 0089 8D000000 		.4byte	0x8d
 3495 008d 02       		.uleb128 0x2
 3496 008e 04       		.byte	0x4
 3497 008f 05       		.byte	0x5
 3498 0090 24070000 		.4byte	.LASF11
 3499 0094 04       		.uleb128 0x4
 3500 0095 AE080000 		.4byte	.LASF12
 3501 0099 02       		.byte	0x2
 3502 009a 41       		.byte	0x41
 3503 009b 9F000000 		.4byte	0x9f
 3504 009f 02       		.uleb128 0x2
 3505 00a0 04       		.byte	0x4
 3506 00a1 07       		.byte	0x7
 3507 00a2 2B080000 		.4byte	.LASF13
 3508 00a6 04       		.uleb128 0x4
 3509 00a7 8B060000 		.4byte	.LASF14
 3510 00ab 02       		.byte	0x2
 3511 00ac 59       		.byte	0x59
 3512 00ad B1000000 		.4byte	0xb1
 3513 00b1 02       		.uleb128 0x2
 3514 00b2 08       		.byte	0x8
 3515 00b3 05       		.byte	0x5
 3516 00b4 5E050000 		.4byte	.LASF15
 3517 00b8 04       		.uleb128 0x4
 3518 00b9 F8030000 		.4byte	.LASF16
 3519 00bd 02       		.byte	0x2
 3520 00be 5B       		.byte	0x5b
 3521 00bf 25000000 		.4byte	0x25
 3522 00c3 04       		.uleb128 0x4
 3523 00c4 CC010000 		.4byte	.LASF17
 3524 00c8 03       		.byte	0x3
 3525 00c9 14       		.byte	0x14
 3526 00ca 41000000 		.4byte	0x41
 3527 00ce 04       		.uleb128 0x4
 3528 00cf BE040000 		.4byte	.LASF18
 3529 00d3 03       		.byte	0x3
 3530 00d4 18       		.byte	0x18
 3531 00d5 4C000000 		.4byte	0x4c
 3532 00d9 04       		.uleb128 0x4
 3533 00da 0C020000 		.4byte	.LASF19
 3534 00de 03       		.byte	0x3
 3535 00df 20       		.byte	0x20
 3536 00e0 5E000000 		.4byte	0x5e
 3537 00e4 04       		.uleb128 0x4
 3538 00e5 A1060000 		.4byte	.LASF20
 3539 00e9 03       		.byte	0x3
ARM GAS  C:\Users\adria\AppData\Local\Temp\ccOKprka.s 			page 99


 3540 00ea 24       		.byte	0x24
 3541 00eb 70000000 		.4byte	0x70
 3542 00ef 04       		.uleb128 0x4
 3543 00f0 3D080000 		.4byte	.LASF21
 3544 00f4 03       		.byte	0x3
 3545 00f5 2C       		.byte	0x2c
 3546 00f6 82000000 		.4byte	0x82
 3547 00fa 04       		.uleb128 0x4
 3548 00fb C3010000 		.4byte	.LASF22
 3549 00ff 03       		.byte	0x3
 3550 0100 30       		.byte	0x30
 3551 0101 94000000 		.4byte	0x94
 3552 0105 04       		.uleb128 0x4
 3553 0106 A8030000 		.4byte	.LASF23
 3554 010a 03       		.byte	0x3
 3555 010b 38       		.byte	0x38
 3556 010c A6000000 		.4byte	0xa6
 3557 0110 04       		.uleb128 0x4
 3558 0111 67070000 		.4byte	.LASF24
 3559 0115 03       		.byte	0x3
 3560 0116 3C       		.byte	0x3c
 3561 0117 B8000000 		.4byte	0xb8
 3562 011b 02       		.uleb128 0x2
 3563 011c 08       		.byte	0x8
 3564 011d 04       		.byte	0x4
 3565 011e 95060000 		.4byte	.LASF25
 3566 0122 05       		.uleb128 0x5
 3567 0123 15050000 		.4byte	.LASF26
 3568 0127 04       		.byte	0x4
 3569 0128 6901     		.2byte	0x169
 3570 012a 2E010000 		.4byte	0x12e
 3571 012e 06       		.uleb128 0x6
 3572 012f 04       		.byte	0x4
 3573 0130 34010000 		.4byte	0x134
 3574 0134 07       		.uleb128 0x7
 3575 0135 C3000000 		.4byte	0xc3
 3576 0139 52010000 		.4byte	0x152
 3577 013d 08       		.uleb128 0x8
 3578 013e CE000000 		.4byte	0xce
 3579 0142 08       		.uleb128 0x8
 3580 0143 CE000000 		.4byte	0xce
 3581 0147 08       		.uleb128 0x8
 3582 0148 52010000 		.4byte	0x152
 3583 014c 08       		.uleb128 0x8
 3584 014d E4000000 		.4byte	0xe4
 3585 0151 00       		.byte	0
 3586 0152 06       		.uleb128 0x6
 3587 0153 04       		.byte	0x4
 3588 0154 CE000000 		.4byte	0xce
 3589 0158 05       		.uleb128 0x5
 3590 0159 A5070000 		.4byte	.LASF27
 3591 015d 04       		.byte	0x4
 3592 015e 6F01     		.2byte	0x16f
 3593 0160 64010000 		.4byte	0x164
 3594 0164 06       		.uleb128 0x6
 3595 0165 04       		.byte	0x4
 3596 0166 6A010000 		.4byte	0x16a
ARM GAS  C:\Users\adria\AppData\Local\Temp\ccOKprka.s 			page 100


 3597 016a 09       		.uleb128 0x9
 3598 016b 75010000 		.4byte	0x175
 3599 016f 08       		.uleb128 0x8
 3600 0170 FA000000 		.4byte	0xfa
 3601 0174 00       		.byte	0
 3602 0175 0A       		.uleb128 0xa
 3603 0176 9E040000 		.4byte	.LASF204
 3604 017a 01       		.byte	0x1
 3605 017b 57000000 		.4byte	0x57
 3606 017f 04       		.byte	0x4
 3607 0180 7501     		.2byte	0x175
 3608 0182 93010000 		.4byte	0x193
 3609 0186 0B       		.uleb128 0xb
 3610 0187 46010000 		.4byte	.LASF28
 3611 018b 00       		.byte	0
 3612 018c 0B       		.uleb128 0xb
 3613 018d 6C010000 		.4byte	.LASF29
 3614 0191 01       		.byte	0x1
 3615 0192 00       		.byte	0
 3616 0193 0C       		.uleb128 0xc
 3617 0194 35090000 		.4byte	.LASF37
 3618 0198 14       		.byte	0x14
 3619 0199 04       		.byte	0x4
 3620 019a 8001     		.2byte	0x180
 3621 019c FC010000 		.4byte	0x1fc
 3622 01a0 0D       		.uleb128 0xd
 3623 01a1 D4040000 		.4byte	.LASF30
 3624 01a5 04       		.byte	0x4
 3625 01a6 8201     		.2byte	0x182
 3626 01a8 CE000000 		.4byte	0xce
 3627 01ac 00       		.byte	0
 3628 01ad 0D       		.uleb128 0xd
 3629 01ae 9B070000 		.4byte	.LASF31
 3630 01b2 04       		.byte	0x4
 3631 01b3 8401     		.2byte	0x184
 3632 01b5 CE000000 		.4byte	0xce
 3633 01b9 01       		.byte	0x1
 3634 01ba 0D       		.uleb128 0xd
 3635 01bb 8A020000 		.4byte	.LASF32
 3636 01bf 04       		.byte	0x4
 3637 01c0 8601     		.2byte	0x186
 3638 01c2 CE000000 		.4byte	0xce
 3639 01c6 02       		.byte	0x2
 3640 01c7 0D       		.uleb128 0xd
 3641 01c8 67000000 		.4byte	.LASF33
 3642 01cc 04       		.byte	0x4
 3643 01cd 8A01     		.2byte	0x18a
 3644 01cf D9000000 		.4byte	0xd9
 3645 01d3 04       		.byte	0x4
 3646 01d4 0D       		.uleb128 0xd
 3647 01d5 78000000 		.4byte	.LASF34
 3648 01d9 04       		.byte	0x4
 3649 01da 8C01     		.2byte	0x18c
 3650 01dc FA000000 		.4byte	0xfa
 3651 01e0 08       		.byte	0x8
 3652 01e1 0D       		.uleb128 0xd
 3653 01e2 F2090000 		.4byte	.LASF35
ARM GAS  C:\Users\adria\AppData\Local\Temp\ccOKprka.s 			page 101


 3654 01e6 04       		.byte	0x4
 3655 01e7 8E01     		.2byte	0x18e
 3656 01e9 FA000000 		.4byte	0xfa
 3657 01ed 0C       		.byte	0xc
 3658 01ee 0D       		.uleb128 0xd
 3659 01ef 8D000000 		.4byte	.LASF36
 3660 01f3 04       		.byte	0x4
 3661 01f4 9001     		.2byte	0x190
 3662 01f6 FA000000 		.4byte	0xfa
 3663 01fa 10       		.byte	0x10
 3664 01fb 00       		.byte	0
 3665 01fc 0C       		.uleb128 0xc
 3666 01fd 2C060000 		.4byte	.LASF38
 3667 0201 30       		.byte	0x30
 3668 0202 04       		.byte	0x4
 3669 0203 A201     		.2byte	0x1a2
 3670 0205 69030000 		.4byte	0x369
 3671 0209 0D       		.uleb128 0xd
 3672 020a 84080000 		.4byte	.LASF39
 3673 020e 04       		.byte	0x4
 3674 020f A401     		.2byte	0x1a4
 3675 0211 E4000000 		.4byte	0xe4
 3676 0215 00       		.byte	0
 3677 0216 0D       		.uleb128 0xd
 3678 0217 C0020000 		.4byte	.LASF40
 3679 021b 04       		.byte	0x4
 3680 021c A601     		.2byte	0x1a6
 3681 021e E4000000 		.4byte	0xe4
 3682 0222 02       		.byte	0x2
 3683 0223 0D       		.uleb128 0xd
 3684 0224 99080000 		.4byte	.LASF41
 3685 0228 04       		.byte	0x4
 3686 0229 A801     		.2byte	0x1a8
 3687 022b C3000000 		.4byte	0xc3
 3688 022f 04       		.byte	0x4
 3689 0230 0D       		.uleb128 0xd
 3690 0231 A0080000 		.4byte	.LASF42
 3691 0235 04       		.byte	0x4
 3692 0236 AA01     		.2byte	0x1aa
 3693 0238 C3000000 		.4byte	0xc3
 3694 023c 05       		.byte	0x5
 3695 023d 0D       		.uleb128 0xd
 3696 023e A7080000 		.4byte	.LASF43
 3697 0242 04       		.byte	0x4
 3698 0243 AC01     		.2byte	0x1ac
 3699 0245 C3000000 		.4byte	0xc3
 3700 0249 06       		.byte	0x6
 3701 024a 0D       		.uleb128 0xd
 3702 024b CF020000 		.4byte	.LASF44
 3703 024f 04       		.byte	0x4
 3704 0250 AE01     		.2byte	0x1ae
 3705 0252 CE000000 		.4byte	0xce
 3706 0256 07       		.byte	0x7
 3707 0257 0D       		.uleb128 0xd
 3708 0258 B9080000 		.4byte	.LASF45
 3709 025c 04       		.byte	0x4
 3710 025d B001     		.2byte	0x1b0
ARM GAS  C:\Users\adria\AppData\Local\Temp\ccOKprka.s 			page 102


 3711 025f C3000000 		.4byte	0xc3
 3712 0263 08       		.byte	0x8
 3713 0264 0D       		.uleb128 0xd
 3714 0265 72050000 		.4byte	.LASF46
 3715 0269 04       		.byte	0x4
 3716 026a B201     		.2byte	0x1b2
 3717 026c C3000000 		.4byte	0xc3
 3718 0270 09       		.byte	0x9
 3719 0271 0D       		.uleb128 0xd
 3720 0272 7A050000 		.4byte	.LASF47
 3721 0276 04       		.byte	0x4
 3722 0277 B401     		.2byte	0x1b4
 3723 0279 D9000000 		.4byte	0xd9
 3724 027d 0A       		.byte	0xa
 3725 027e 0D       		.uleb128 0xd
 3726 027f 82050000 		.4byte	.LASF48
 3727 0283 04       		.byte	0x4
 3728 0284 B601     		.2byte	0x1b6
 3729 0286 C3000000 		.4byte	0xc3
 3730 028a 0C       		.byte	0xc
 3731 028b 0D       		.uleb128 0xd
 3732 028c 7D060000 		.4byte	.LASF49
 3733 0290 04       		.byte	0x4
 3734 0291 B801     		.2byte	0x1b8
 3735 0293 E4000000 		.4byte	0xe4
 3736 0297 0E       		.byte	0xe
 3737 0298 0D       		.uleb128 0xd
 3738 0299 84060000 		.4byte	.LASF50
 3739 029d 04       		.byte	0x4
 3740 029e BA01     		.2byte	0x1ba
 3741 02a0 D9000000 		.4byte	0xd9
 3742 02a4 10       		.byte	0x10
 3743 02a5 0D       		.uleb128 0xd
 3744 02a6 D1080000 		.4byte	.LASF51
 3745 02aa 04       		.byte	0x4
 3746 02ab BC01     		.2byte	0x1bc
 3747 02ad C3000000 		.4byte	0xc3
 3748 02b1 12       		.byte	0x12
 3749 02b2 0D       		.uleb128 0xd
 3750 02b3 DC030000 		.4byte	.LASF52
 3751 02b7 04       		.byte	0x4
 3752 02b8 BE01     		.2byte	0x1be
 3753 02ba E4000000 		.4byte	0xe4
 3754 02be 14       		.byte	0x14
 3755 02bf 0D       		.uleb128 0xd
 3756 02c0 E3030000 		.4byte	.LASF53
 3757 02c4 04       		.byte	0x4
 3758 02c5 C001     		.2byte	0x1c0
 3759 02c7 D9000000 		.4byte	0xd9
 3760 02cb 16       		.byte	0x16
 3761 02cc 0D       		.uleb128 0xd
 3762 02cd EA030000 		.4byte	.LASF54
 3763 02d1 04       		.byte	0x4
 3764 02d2 C201     		.2byte	0x1c2
 3765 02d4 C3000000 		.4byte	0xc3
 3766 02d8 18       		.byte	0x18
 3767 02d9 0D       		.uleb128 0xd
ARM GAS  C:\Users\adria\AppData\Local\Temp\ccOKprka.s 			page 103


 3768 02da F1030000 		.4byte	.LASF55
 3769 02de 04       		.byte	0x4
 3770 02df C401     		.2byte	0x1c4
 3771 02e1 D9000000 		.4byte	0xd9
 3772 02e5 1A       		.byte	0x1a
 3773 02e6 0D       		.uleb128 0xd
 3774 02e7 B0030000 		.4byte	.LASF56
 3775 02eb 04       		.byte	0x4
 3776 02ec C601     		.2byte	0x1c6
 3777 02ee D9000000 		.4byte	0xd9
 3778 02f2 1C       		.byte	0x1c
 3779 02f3 0D       		.uleb128 0xd
 3780 02f4 03040000 		.4byte	.LASF57
 3781 02f8 04       		.byte	0x4
 3782 02f9 C801     		.2byte	0x1c8
 3783 02fb C3000000 		.4byte	0xc3
 3784 02ff 1E       		.byte	0x1e
 3785 0300 0D       		.uleb128 0xd
 3786 0301 0A040000 		.4byte	.LASF58
 3787 0305 04       		.byte	0x4
 3788 0306 CA01     		.2byte	0x1ca
 3789 0308 C3000000 		.4byte	0xc3
 3790 030c 1F       		.byte	0x1f
 3791 030d 0D       		.uleb128 0xd
 3792 030e 11040000 		.4byte	.LASF59
 3793 0312 04       		.byte	0x4
 3794 0313 CC01     		.2byte	0x1cc
 3795 0315 D9000000 		.4byte	0xd9
 3796 0319 20       		.byte	0x20
 3797 031a 0D       		.uleb128 0xd
 3798 031b 18040000 		.4byte	.LASF60
 3799 031f 04       		.byte	0x4
 3800 0320 CE01     		.2byte	0x1ce
 3801 0322 D9000000 		.4byte	0xd9
 3802 0326 22       		.byte	0x22
 3803 0327 0D       		.uleb128 0xd
 3804 0328 F9040000 		.4byte	.LASF61
 3805 032c 04       		.byte	0x4
 3806 032d D001     		.2byte	0x1d0
 3807 032f CE000000 		.4byte	0xce
 3808 0333 24       		.byte	0x24
 3809 0334 0D       		.uleb128 0xd
 3810 0335 01050000 		.4byte	.LASF62
 3811 0339 04       		.byte	0x4
 3812 033a D401     		.2byte	0x1d4
 3813 033c EF000000 		.4byte	0xef
 3814 0340 28       		.byte	0x28
 3815 0341 0D       		.uleb128 0xd
 3816 0342 FB090000 		.4byte	.LASF63
 3817 0346 04       		.byte	0x4
 3818 0347 DA01     		.2byte	0x1da
 3819 0349 CE000000 		.4byte	0xce
 3820 034d 2C       		.byte	0x2c
 3821 034e 0D       		.uleb128 0xd
 3822 034f 5E060000 		.4byte	.LASF64
 3823 0353 04       		.byte	0x4
 3824 0354 DC01     		.2byte	0x1dc
ARM GAS  C:\Users\adria\AppData\Local\Temp\ccOKprka.s 			page 104


 3825 0356 C3000000 		.4byte	0xc3
 3826 035a 2D       		.byte	0x2d
 3827 035b 0D       		.uleb128 0xd
 3828 035c F0010000 		.4byte	.LASF65
 3829 0360 04       		.byte	0x4
 3830 0361 DE01     		.2byte	0x1de
 3831 0363 C3000000 		.4byte	0xc3
 3832 0367 2E       		.byte	0x2e
 3833 0368 00       		.byte	0
 3834 0369 0C       		.uleb128 0xc
 3835 036a 8B070000 		.4byte	.LASF66
 3836 036e 04       		.byte	0x4
 3837 036f 04       		.byte	0x4
 3838 0370 E501     		.2byte	0x1e5
 3839 0372 AB030000 		.4byte	0x3ab
 3840 0376 0D       		.uleb128 0xd
 3841 0377 AA040000 		.4byte	.LASF67
 3842 037b 04       		.byte	0x4
 3843 037c E701     		.2byte	0x1e7
 3844 037e CE000000 		.4byte	0xce
 3845 0382 00       		.byte	0
 3846 0383 0D       		.uleb128 0xd
 3847 0384 3E010000 		.4byte	.LASF68
 3848 0388 04       		.byte	0x4
 3849 0389 E901     		.2byte	0x1e9
 3850 038b CE000000 		.4byte	0xce
 3851 038f 01       		.byte	0x1
 3852 0390 0D       		.uleb128 0xd
 3853 0391 F1040000 		.4byte	.LASF69
 3854 0395 04       		.byte	0x4
 3855 0396 EB01     		.2byte	0x1eb
 3856 0398 CE000000 		.4byte	0xce
 3857 039c 02       		.byte	0x2
 3858 039d 0D       		.uleb128 0xd
 3859 039e 60070000 		.4byte	.LASF70
 3860 03a2 04       		.byte	0x4
 3861 03a3 ED01     		.2byte	0x1ed
 3862 03a5 CE000000 		.4byte	0xce
 3863 03a9 03       		.byte	0x3
 3864 03aa 00       		.byte	0
 3865 03ab 0C       		.uleb128 0xc
 3866 03ac 90030000 		.4byte	.LASF71
 3867 03b0 08       		.byte	0x8
 3868 03b1 04       		.byte	0x4
 3869 03b2 F401     		.2byte	0x1f4
 3870 03b4 FA030000 		.4byte	0x3fa
 3871 03b8 0D       		.uleb128 0xd
 3872 03b9 3D050000 		.4byte	.LASF72
 3873 03bd 04       		.byte	0x4
 3874 03be F601     		.2byte	0x1f6
 3875 03c0 CE000000 		.4byte	0xce
 3876 03c4 00       		.byte	0
 3877 03c5 0D       		.uleb128 0xd
 3878 03c6 5D040000 		.4byte	.LASF73
 3879 03ca 04       		.byte	0x4
 3880 03cb F801     		.2byte	0x1f8
 3881 03cd CE000000 		.4byte	0xce
ARM GAS  C:\Users\adria\AppData\Local\Temp\ccOKprka.s 			page 105


 3882 03d1 01       		.byte	0x1
 3883 03d2 0D       		.uleb128 0xd
 3884 03d3 DC060000 		.4byte	.LASF74
 3885 03d7 04       		.byte	0x4
 3886 03d8 FA01     		.2byte	0x1fa
 3887 03da CE000000 		.4byte	0xce
 3888 03de 02       		.byte	0x2
 3889 03df 0D       		.uleb128 0xd
 3890 03e0 B2090000 		.4byte	.LASF75
 3891 03e4 04       		.byte	0x4
 3892 03e5 FC01     		.2byte	0x1fc
 3893 03e7 E4000000 		.4byte	0xe4
 3894 03eb 04       		.byte	0x4
 3895 03ec 0D       		.uleb128 0xd
 3896 03ed 36040000 		.4byte	.LASF76
 3897 03f1 04       		.byte	0x4
 3898 03f2 FE01     		.2byte	0x1fe
 3899 03f4 E4000000 		.4byte	0xe4
 3900 03f8 06       		.byte	0x6
 3901 03f9 00       		.byte	0
 3902 03fa 0C       		.uleb128 0xc
 3903 03fb 5C000000 		.4byte	.LASF77
 3904 03ff 58       		.byte	0x58
 3905 0400 04       		.byte	0x4
 3906 0401 0402     		.2byte	0x204
 3907 0403 CB040000 		.4byte	0x4cb
 3908 0407 0D       		.uleb128 0xd
 3909 0408 A0030000 		.4byte	.LASF78
 3910 040c 04       		.byte	0x4
 3911 040d 0602     		.2byte	0x206
 3912 040f CE000000 		.4byte	0xce
 3913 0413 00       		.byte	0
 3914 0414 0D       		.uleb128 0xd
 3915 0415 EA080000 		.4byte	.LASF79
 3916 0419 04       		.byte	0x4
 3917 041a 0802     		.2byte	0x208
 3918 041c CE000000 		.4byte	0xce
 3919 0420 01       		.byte	0x1
 3920 0421 0D       		.uleb128 0xd
 3921 0422 51050000 		.4byte	.LASF80
 3922 0426 04       		.byte	0x4
 3923 0427 0A02     		.2byte	0x20a
 3924 0429 75010000 		.4byte	0x175
 3925 042d 02       		.byte	0x2
 3926 042e 0D       		.uleb128 0xd
 3927 042f 9F010000 		.4byte	.LASF81
 3928 0433 04       		.byte	0x4
 3929 0434 0C02     		.2byte	0x20c
 3930 0436 CE000000 		.4byte	0xce
 3931 043a 03       		.byte	0x3
 3932 043b 0D       		.uleb128 0xd
 3933 043c FA080000 		.4byte	.LASF82
 3934 0440 04       		.byte	0x4
 3935 0441 0E02     		.2byte	0x20e
 3936 0443 C3000000 		.4byte	0xc3
 3937 0447 04       		.byte	0x4
 3938 0448 0D       		.uleb128 0xd
ARM GAS  C:\Users\adria\AppData\Local\Temp\ccOKprka.s 			page 106


 3939 0449 5D020000 		.4byte	.LASF83
 3940 044d 04       		.byte	0x4
 3941 044e 1002     		.2byte	0x210
 3942 0450 FC010000 		.4byte	0x1fc
 3943 0454 08       		.byte	0x8
 3944 0455 0D       		.uleb128 0xd
 3945 0456 00000000 		.4byte	.LASF84
 3946 045a 04       		.byte	0x4
 3947 045b 1202     		.2byte	0x212
 3948 045d 69030000 		.4byte	0x369
 3949 0461 38       		.byte	0x38
 3950 0462 0D       		.uleb128 0xd
 3951 0463 23060000 		.4byte	.LASF85
 3952 0467 04       		.byte	0x4
 3953 0468 1402     		.2byte	0x214
 3954 046a AB030000 		.4byte	0x3ab
 3955 046e 3C       		.byte	0x3c
 3956 046f 0D       		.uleb128 0xd
 3957 0470 B0060000 		.4byte	.LASF86
 3958 0474 04       		.byte	0x4
 3959 0475 1602     		.2byte	0x216
 3960 0477 CE000000 		.4byte	0xce
 3961 047b 44       		.byte	0x44
 3962 047c 0D       		.uleb128 0xd
 3963 047d 68040000 		.4byte	.LASF87
 3964 0481 04       		.byte	0x4
 3965 0482 1802     		.2byte	0x218
 3966 0484 CE000000 		.4byte	0xce
 3967 0488 45       		.byte	0x45
 3968 0489 0D       		.uleb128 0xd
 3969 048a D3060000 		.4byte	.LASF88
 3970 048e 04       		.byte	0x4
 3971 048f 1A02     		.2byte	0x21a
 3972 0491 CE000000 		.4byte	0xce
 3973 0495 46       		.byte	0x46
 3974 0496 0D       		.uleb128 0xd
 3975 0497 EE070000 		.4byte	.LASF89
 3976 049b 04       		.byte	0x4
 3977 049c 1C02     		.2byte	0x21c
 3978 049e 22010000 		.4byte	0x122
 3979 04a2 48       		.byte	0x48
 3980 04a3 0D       		.uleb128 0xd
 3981 04a4 6C050000 		.4byte	.LASF90
 3982 04a8 04       		.byte	0x4
 3983 04a9 1E02     		.2byte	0x21e
 3984 04ab 22010000 		.4byte	0x122
 3985 04af 4C       		.byte	0x4c
 3986 04b0 0D       		.uleb128 0xd
 3987 04b1 1F040000 		.4byte	.LASF91
 3988 04b5 04       		.byte	0x4
 3989 04b6 2002     		.2byte	0x220
 3990 04b8 58010000 		.4byte	0x158
 3991 04bc 50       		.byte	0x50
 3992 04bd 0D       		.uleb128 0xd
 3993 04be 5C080000 		.4byte	.LASF92
 3994 04c2 04       		.byte	0x4
 3995 04c3 2202     		.2byte	0x222
ARM GAS  C:\Users\adria\AppData\Local\Temp\ccOKprka.s 			page 107


 3996 04c5 C3000000 		.4byte	0xc3
 3997 04c9 54       		.byte	0x54
 3998 04ca 00       		.byte	0
 3999 04cb 04       		.uleb128 0x4
 4000 04cc 73040000 		.4byte	.LASF93
 4001 04d0 05       		.byte	0x5
 4002 04d1 3C       		.byte	0x3c
 4003 04d2 93010000 		.4byte	0x193
 4004 04d6 02       		.uleb128 0x2
 4005 04d7 04       		.byte	0x4
 4006 04d8 04       		.byte	0x4
 4007 04d9 EA010000 		.4byte	.LASF94
 4008 04dd 02       		.uleb128 0x2
 4009 04de 08       		.byte	0x8
 4010 04df 04       		.byte	0x4
 4011 04e0 CB090000 		.4byte	.LASF95
 4012 04e4 02       		.uleb128 0x2
 4013 04e5 01       		.byte	0x1
 4014 04e6 08       		.byte	0x8
 4015 04e7 80040000 		.4byte	.LASF96
 4016 04eb 02       		.uleb128 0x2
 4017 04ec 04       		.byte	0x4
 4018 04ed 07       		.byte	0x7
 4019 04ee 22080000 		.4byte	.LASF97
 4020 04f2 0E       		.uleb128 0xe
 4021 04f3 C0080000 		.4byte	.LASF102
 4022 04f7 01       		.byte	0x1
 4023 04f8 6803     		.2byte	0x368
 4024 04fa D9000000 		.4byte	0xd9
 4025 04fe 00000000 		.4byte	.LFB77
 4026 0502 70000000 		.4byte	.LFE77-.LFB77
 4027 0506 01       		.uleb128 0x1
 4028 0507 9C       		.byte	0x9c
 4029 0508 67050000 		.4byte	0x567
 4030 050c 0F       		.uleb128 0xf
 4031 050d F3070000 		.4byte	.LASF98
 4032 0511 01       		.byte	0x1
 4033 0512 6803     		.2byte	0x368
 4034 0514 FA000000 		.4byte	0xfa
 4035 0518 00000000 		.4byte	.LLST0
 4036 051c 10       		.uleb128 0x10
 4037 051d 64657600 		.ascii	"dev\000"
 4038 0521 01       		.byte	0x1
 4039 0522 6803     		.2byte	0x368
 4040 0524 67050000 		.4byte	0x567
 4041 0528 01       		.uleb128 0x1
 4042 0529 51       		.byte	0x51
 4043 052a 11       		.uleb128 0x11
 4044 052b EC050000 		.4byte	.LASF99
 4045 052f 01       		.byte	0x1
 4046 0530 6A03     		.2byte	0x36a
 4047 0532 05010000 		.4byte	0x105
 4048 0536 21000000 		.4byte	.LLST1
 4049 053a 12       		.uleb128 0x12
 4050 053b F1050000 		.4byte	.LASF105
 4051 053f 01       		.byte	0x1
 4052 0540 6B03     		.2byte	0x36b
ARM GAS  C:\Users\adria\AppData\Local\Temp\ccOKprka.s 			page 108


 4053 0542 05010000 		.4byte	0x105
 4054 0546 11       		.uleb128 0x11
 4055 0547 F6050000 		.4byte	.LASF100
 4056 054b 01       		.byte	0x1
 4057 054c 6C03     		.2byte	0x36c
 4058 054e 05010000 		.4byte	0x105
 4059 0552 39000000 		.4byte	.LLST2
 4060 0556 11       		.uleb128 0x11
 4061 0557 D2090000 		.4byte	.LASF101
 4062 055b 01       		.byte	0x1
 4063 055c 6D03     		.2byte	0x36d
 4064 055e D9000000 		.4byte	0xd9
 4065 0562 51000000 		.4byte	.LLST3
 4066 0566 00       		.byte	0
 4067 0567 06       		.uleb128 0x6
 4068 0568 04       		.byte	0x4
 4069 0569 FA030000 		.4byte	0x3fa
 4070 056d 0E       		.uleb128 0xe
 4071 056e BD090000 		.4byte	.LASF103
 4072 0572 01       		.byte	0x1
 4073 0573 7C03     		.2byte	0x37c
 4074 0575 FA000000 		.4byte	0xfa
 4075 0579 00000000 		.4byte	.LFB78
 4076 057d C4000000 		.4byte	.LFE78-.LFB78
 4077 0581 01       		.uleb128 0x1
 4078 0582 9C       		.byte	0x9c
 4079 0583 E6050000 		.4byte	0x5e6
 4080 0587 0F       		.uleb128 0xf
 4081 0588 CA060000 		.4byte	.LASF104
 4082 058c 01       		.byte	0x1
 4083 058d 7C03     		.2byte	0x37c
 4084 058f FA000000 		.4byte	0xfa
 4085 0593 85000000 		.4byte	.LLST4
 4086 0597 10       		.uleb128 0x10
 4087 0598 64657600 		.ascii	"dev\000"
 4088 059c 01       		.byte	0x1
 4089 059d 7C03     		.2byte	0x37c
 4090 059f E6050000 		.4byte	0x5e6
 4091 05a3 01       		.uleb128 0x1
 4092 05a4 51       		.byte	0x51
 4093 05a5 11       		.uleb128 0x11
 4094 05a6 EC050000 		.4byte	.LASF99
 4095 05aa 01       		.byte	0x1
 4096 05ab 7E03     		.2byte	0x37e
 4097 05ad EF000000 		.4byte	0xef
 4098 05b1 A6000000 		.4byte	.LLST5
 4099 05b5 11       		.uleb128 0x11
 4100 05b6 F1050000 		.4byte	.LASF105
 4101 05ba 01       		.byte	0x1
 4102 05bb 7F03     		.2byte	0x37f
 4103 05bd EF000000 		.4byte	0xef
 4104 05c1 B5010000 		.4byte	.LLST6
 4105 05c5 11       		.uleb128 0x11
 4106 05c6 F6050000 		.4byte	.LASF100
 4107 05ca 01       		.byte	0x1
 4108 05cb 8003     		.2byte	0x380
 4109 05cd EF000000 		.4byte	0xef
ARM GAS  C:\Users\adria\AppData\Local\Temp\ccOKprka.s 			page 109


 4110 05d1 4D020000 		.4byte	.LLST7
 4111 05d5 11       		.uleb128 0x11
 4112 05d6 53090000 		.4byte	.LASF106
 4113 05da 01       		.byte	0x1
 4114 05db 8103     		.2byte	0x381
 4115 05dd EF000000 		.4byte	0xef
 4116 05e1 A5020000 		.4byte	.LLST8
 4117 05e5 00       		.byte	0
 4118 05e6 06       		.uleb128 0x6
 4119 05e7 04       		.byte	0x4
 4120 05e8 EC050000 		.4byte	0x5ec
 4121 05ec 13       		.uleb128 0x13
 4122 05ed FA030000 		.4byte	0x3fa
 4123 05f1 0E       		.uleb128 0xe
 4124 05f2 28040000 		.4byte	.LASF107
 4125 05f6 01       		.byte	0x1
 4126 05f7 A503     		.2byte	0x3a5
 4127 05f9 FA000000 		.4byte	0xfa
 4128 05fd 00000000 		.4byte	.LFB79
 4129 0601 C4000000 		.4byte	.LFE79-.LFB79
 4130 0605 01       		.uleb128 0x1
 4131 0606 9C       		.byte	0x9c
 4132 0607 AA060000 		.4byte	0x6aa
 4133 060b 0F       		.uleb128 0xf
 4134 060c C7020000 		.4byte	.LASF108
 4135 0610 01       		.byte	0x1
 4136 0611 A503     		.2byte	0x3a5
 4137 0613 E4000000 		.4byte	0xe4
 4138 0617 06030000 		.4byte	.LLST9
 4139 061b 10       		.uleb128 0x10
 4140 061c 64657600 		.ascii	"dev\000"
 4141 0620 01       		.byte	0x1
 4142 0621 A503     		.2byte	0x3a5
 4143 0623 E6050000 		.4byte	0x5e6
 4144 0627 01       		.uleb128 0x1
 4145 0628 51       		.byte	0x51
 4146 0629 11       		.uleb128 0x11
 4147 062a EC050000 		.4byte	.LASF99
 4148 062e 01       		.byte	0x1
 4149 062f A703     		.2byte	0x3a7
 4150 0631 EF000000 		.4byte	0xef
 4151 0635 27030000 		.4byte	.LLST10
 4152 0639 11       		.uleb128 0x11
 4153 063a F1050000 		.4byte	.LASF105
 4154 063e 01       		.byte	0x1
 4155 063f A803     		.2byte	0x3a8
 4156 0641 EF000000 		.4byte	0xef
 4157 0645 3A030000 		.4byte	.LLST11
 4158 0649 11       		.uleb128 0x11
 4159 064a F6050000 		.4byte	.LASF100
 4160 064e 01       		.byte	0x1
 4161 064f A903     		.2byte	0x3a9
 4162 0651 EF000000 		.4byte	0xef
 4163 0655 11050000 		.4byte	.LLST12
 4164 0659 11       		.uleb128 0x11
 4165 065a FB050000 		.4byte	.LASF109
 4166 065e 01       		.byte	0x1
ARM GAS  C:\Users\adria\AppData\Local\Temp\ccOKprka.s 			page 110


 4167 065f AA03     		.2byte	0x3aa
 4168 0661 EF000000 		.4byte	0xef
 4169 0665 24050000 		.4byte	.LLST13
 4170 0669 11       		.uleb128 0x11
 4171 066a 00060000 		.4byte	.LASF110
 4172 066e 01       		.byte	0x1
 4173 066f AB03     		.2byte	0x3ab
 4174 0671 EF000000 		.4byte	0xef
 4175 0675 F8050000 		.4byte	.LLST14
 4176 0679 11       		.uleb128 0x11
 4177 067a 05060000 		.4byte	.LASF111
 4178 067e 01       		.byte	0x1
 4179 067f AC03     		.2byte	0x3ac
 4180 0681 EF000000 		.4byte	0xef
 4181 0685 0B060000 		.4byte	.LLST15
 4182 0689 11       		.uleb128 0x11
 4183 068a DE010000 		.4byte	.LASF112
 4184 068e 01       		.byte	0x1
 4185 068f AD03     		.2byte	0x3ad
 4186 0691 EF000000 		.4byte	0xef
 4187 0695 22060000 		.4byte	.LLST16
 4188 0699 11       		.uleb128 0x11
 4189 069a 0A0A0000 		.4byte	.LASF113
 4190 069e 01       		.byte	0x1
 4191 069f AE03     		.2byte	0x3ae
 4192 06a1 EF000000 		.4byte	0xef
 4193 06a5 4A060000 		.4byte	.LLST17
 4194 06a9 00       		.byte	0
 4195 06aa 14       		.uleb128 0x14
 4196 06ab F5000000 		.4byte	.LASF114
 4197 06af 01       		.byte	0x1
 4198 06b0 C903     		.2byte	0x3c9
 4199 06b2 FA000000 		.4byte	0xfa
 4200 06b6 00000000 		.4byte	.LFB80
 4201 06ba AC000000 		.4byte	.LFE80-.LFB80
 4202 06be 01       		.uleb128 0x1
 4203 06bf 9C       		.byte	0x9c
 4204 06c0 53070000 		.4byte	0x753
 4205 06c4 0F       		.uleb128 0xf
 4206 06c5 81000000 		.4byte	.LASF115
 4207 06c9 01       		.byte	0x1
 4208 06ca C903     		.2byte	0x3c9
 4209 06cc E4000000 		.4byte	0xe4
 4210 06d0 68060000 		.4byte	.LLST18
 4211 06d4 0F       		.uleb128 0xf
 4212 06d5 7C010000 		.4byte	.LASF116
 4213 06d9 01       		.byte	0x1
 4214 06da C903     		.2byte	0x3c9
 4215 06dc CE000000 		.4byte	0xce
 4216 06e0 89060000 		.4byte	.LLST19
 4217 06e4 15       		.uleb128 0x15
 4218 06e5 64657600 		.ascii	"dev\000"
 4219 06e9 01       		.byte	0x1
 4220 06ea C903     		.2byte	0x3c9
 4221 06ec E6050000 		.4byte	0x5e6
 4222 06f0 AA060000 		.4byte	.LLST20
 4223 06f4 11       		.uleb128 0x11
ARM GAS  C:\Users\adria\AppData\Local\Temp\ccOKprka.s 			page 111


 4224 06f5 EC050000 		.4byte	.LASF99
 4225 06f9 01       		.byte	0x1
 4226 06fa CB03     		.2byte	0x3cb
 4227 06fc 05010000 		.4byte	0x105
 4228 0700 D6060000 		.4byte	.LLST21
 4229 0704 11       		.uleb128 0x11
 4230 0705 F1050000 		.4byte	.LASF105
 4231 0709 01       		.byte	0x1
 4232 070a CC03     		.2byte	0x3cc
 4233 070c 10010000 		.4byte	0x110
 4234 0710 EE060000 		.4byte	.LLST22
 4235 0714 11       		.uleb128 0x11
 4236 0715 F6050000 		.4byte	.LASF100
 4237 0719 01       		.byte	0x1
 4238 071a CD03     		.2byte	0x3cd
 4239 071c 05010000 		.4byte	0x105
 4240 0720 06070000 		.4byte	.LLST23
 4241 0724 16       		.uleb128 0x16
 4242 0725 53070000 		.4byte	.LASF117
 4243 0729 01       		.byte	0x1
 4244 072a CE03     		.2byte	0x3ce
 4245 072c FA000000 		.4byte	0xfa
 4246 0730 01       		.uleb128 0x1
 4247 0731 50       		.byte	0x50
 4248 0732 16       		.uleb128 0x16
 4249 0733 98090000 		.4byte	.LASF118
 4250 0737 01       		.byte	0x1
 4251 0738 D003     		.2byte	0x3d0
 4252 073a 53070000 		.4byte	0x753
 4253 073e 03       		.uleb128 0x3
 4254 073f 91       		.byte	0x91
 4255 0740 A87F     		.sleb128 -88
 4256 0742 16       		.uleb128 0x16
 4257 0743 A5090000 		.4byte	.LASF119
 4258 0747 01       		.byte	0x1
 4259 0748 D503     		.2byte	0x3d5
 4260 074a 53070000 		.4byte	0x753
 4261 074e 03       		.uleb128 0x3
 4262 074f 91       		.byte	0x91
 4263 0750 E87E     		.sleb128 -152
 4264 0752 00       		.byte	0
 4265 0753 17       		.uleb128 0x17
 4266 0754 FA000000 		.4byte	0xfa
 4267 0758 63070000 		.4byte	0x763
 4268 075c 18       		.uleb128 0x18
 4269 075d EB040000 		.4byte	0x4eb
 4270 0761 0F       		.byte	0xf
 4271 0762 00       		.byte	0
 4272 0763 0E       		.uleb128 0xe
 4273 0764 C6070000 		.4byte	.LASF120
 4274 0768 01       		.byte	0x1
 4275 0769 E603     		.2byte	0x3e6
 4276 076b CE000000 		.4byte	0xce
 4277 076f 00000000 		.4byte	.LFB81
 4278 0773 B0000000 		.4byte	.LFE81-.LFB81
 4279 0777 01       		.uleb128 0x1
 4280 0778 9C       		.byte	0x9c
ARM GAS  C:\Users\adria\AppData\Local\Temp\ccOKprka.s 			page 112


 4281 0779 0C080000 		.4byte	0x80c
 4282 077d 0F       		.uleb128 0xf
 4283 077e 73000000 		.4byte	.LASF121
 4284 0782 01       		.byte	0x1
 4285 0783 E603     		.2byte	0x3e6
 4286 0785 E4000000 		.4byte	0xe4
 4287 0789 1E070000 		.4byte	.LLST24
 4288 078d 15       		.uleb128 0x15
 4289 078e 64657600 		.ascii	"dev\000"
 4290 0792 01       		.byte	0x1
 4291 0793 E603     		.2byte	0x3e6
 4292 0795 E6050000 		.4byte	0x5e6
 4293 0799 3C070000 		.4byte	.LLST25
 4294 079d 16       		.uleb128 0x16
 4295 079e 12090000 		.4byte	.LASF122
 4296 07a2 01       		.byte	0x1
 4297 07a3 E803     		.2byte	0x3e8
 4298 07a5 CE000000 		.4byte	0xce
 4299 07a9 01       		.uleb128 0x1
 4300 07aa 50       		.byte	0x50
 4301 07ab 11       		.uleb128 0x11
 4302 07ac EC050000 		.4byte	.LASF99
 4303 07b0 01       		.byte	0x1
 4304 07b1 E903     		.2byte	0x3e9
 4305 07b3 EF000000 		.4byte	0xef
 4306 07b7 5D070000 		.4byte	.LLST26
 4307 07bb 11       		.uleb128 0x11
 4308 07bc F1050000 		.4byte	.LASF105
 4309 07c0 01       		.byte	0x1
 4310 07c1 EA03     		.2byte	0x3ea
 4311 07c3 EF000000 		.4byte	0xef
 4312 07c7 C3070000 		.4byte	.LLST27
 4313 07cb 11       		.uleb128 0x11
 4314 07cc F6050000 		.4byte	.LASF100
 4315 07d0 01       		.byte	0x1
 4316 07d1 EB03     		.2byte	0x3eb
 4317 07d3 EF000000 		.4byte	0xef
 4318 07d7 E6070000 		.4byte	.LLST28
 4319 07db 11       		.uleb128 0x11
 4320 07dc FB050000 		.4byte	.LASF109
 4321 07e0 01       		.byte	0x1
 4322 07e1 EC03     		.2byte	0x3ec
 4323 07e3 EF000000 		.4byte	0xef
 4324 07e7 F9070000 		.4byte	.LLST29
 4325 07eb 11       		.uleb128 0x11
 4326 07ec 00060000 		.4byte	.LASF110
 4327 07f0 01       		.byte	0x1
 4328 07f1 ED03     		.2byte	0x3ed
 4329 07f3 EF000000 		.4byte	0xef
 4330 07f7 26080000 		.4byte	.LLST30
 4331 07fb 11       		.uleb128 0x11
 4332 07fc 7C070000 		.4byte	.LASF123
 4333 0800 01       		.byte	0x1
 4334 0801 EE03     		.2byte	0x3ee
 4335 0803 EF000000 		.4byte	0xef
 4336 0807 58080000 		.4byte	.LLST31
 4337 080b 00       		.byte	0
ARM GAS  C:\Users\adria\AppData\Local\Temp\ccOKprka.s 			page 113


 4338 080c 0E       		.uleb128 0xe
 4339 080d 63020000 		.4byte	.LASF124
 4340 0811 01       		.byte	0x1
 4341 0812 A004     		.2byte	0x4a0
 4342 0814 CE000000 		.4byte	0xce
 4343 0818 00000000 		.4byte	.LFB82
 4344 081c 24000000 		.4byte	.LFE82-.LFB82
 4345 0820 01       		.uleb128 0x1
 4346 0821 9C       		.byte	0x9c
 4347 0822 57080000 		.4byte	0x857
 4348 0826 15       		.uleb128 0x15
 4349 0827 64757200 		.ascii	"dur\000"
 4350 082b 01       		.byte	0x1
 4351 082c A004     		.2byte	0x4a0
 4352 082e E4000000 		.4byte	0xe4
 4353 0832 AE080000 		.4byte	.LLST32
 4354 0836 11       		.uleb128 0x11
 4355 0837 DC090000 		.4byte	.LASF125
 4356 083b 01       		.byte	0x1
 4357 083c A204     		.2byte	0x4a2
 4358 083e CE000000 		.4byte	0xce
 4359 0842 E5080000 		.4byte	.LLST33
 4360 0846 11       		.uleb128 0x11
 4361 0847 B7030000 		.4byte	.LASF126
 4362 084b 01       		.byte	0x1
 4363 084c A304     		.2byte	0x4a3
 4364 084e CE000000 		.4byte	0xce
 4365 0852 1B090000 		.4byte	.LLST34
 4366 0856 00       		.byte	0
 4367 0857 0E       		.uleb128 0xe
 4368 0858 CA050000 		.4byte	.LASF127
 4369 085c 01       		.byte	0x1
 4370 085d 2A05     		.2byte	0x52a
 4371 085f C3000000 		.4byte	0xc3
 4372 0863 00000000 		.4byte	.LFB86
 4373 0867 3E000000 		.4byte	.LFE86-.LFB86
 4374 086b 01       		.uleb128 0x1
 4375 086c 9C       		.byte	0x9c
 4376 086d C0080000 		.4byte	0x8c0
 4377 0871 0F       		.uleb128 0xf
 4378 0872 EF020000 		.4byte	.LASF128
 4379 0876 01       		.byte	0x1
 4380 0877 2A05     		.2byte	0x52a
 4381 0879 52010000 		.4byte	0x152
 4382 087d 39090000 		.4byte	.LLST35
 4383 0881 15       		.uleb128 0x15
 4384 0882 6D696E00 		.ascii	"min\000"
 4385 0886 01       		.byte	0x1
 4386 0887 2A05     		.2byte	0x52a
 4387 0889 CE000000 		.4byte	0xce
 4388 088d 89090000 		.4byte	.LLST36
 4389 0891 15       		.uleb128 0x15
 4390 0892 6D617800 		.ascii	"max\000"
 4391 0896 01       		.byte	0x1
 4392 0897 2A05     		.2byte	0x52a
 4393 0899 CE000000 		.4byte	0xce
 4394 089d CF090000 		.4byte	.LLST37
ARM GAS  C:\Users\adria\AppData\Local\Temp\ccOKprka.s 			page 114


 4395 08a1 10       		.uleb128 0x10
 4396 08a2 64657600 		.ascii	"dev\000"
 4397 08a6 01       		.byte	0x1
 4398 08a7 2A05     		.2byte	0x52a
 4399 08a9 67050000 		.4byte	0x567
 4400 08ad 01       		.uleb128 0x1
 4401 08ae 53       		.byte	0x53
 4402 08af 11       		.uleb128 0x11
 4403 08b0 2D070000 		.4byte	.LASF129
 4404 08b4 01       		.byte	0x1
 4405 08b5 2C05     		.2byte	0x52c
 4406 08b7 C3000000 		.4byte	0xc3
 4407 08bb 150A0000 		.4byte	.LLST38
 4408 08bf 00       		.byte	0
 4409 08c0 0E       		.uleb128 0xe
 4410 08c1 E2040000 		.4byte	.LASF130
 4411 08c5 01       		.byte	0x1
 4412 08c6 4605     		.2byte	0x546
 4413 08c8 C3000000 		.4byte	0xc3
 4414 08cc 00000000 		.4byte	.LFB87
 4415 08d0 2A000000 		.4byte	.LFE87-.LFB87
 4416 08d4 01       		.uleb128 0x1
 4417 08d5 9C       		.byte	0x9c
 4418 08d6 F9080000 		.4byte	0x8f9
 4419 08da 15       		.uleb128 0x15
 4420 08db 64657600 		.ascii	"dev\000"
 4421 08df 01       		.byte	0x1
 4422 08e0 4605     		.2byte	0x546
 4423 08e2 E6050000 		.4byte	0x5e6
 4424 08e6 4B0A0000 		.4byte	.LLST39
 4425 08ea 16       		.uleb128 0x16
 4426 08eb 2D070000 		.4byte	.LASF129
 4427 08ef 01       		.byte	0x1
 4428 08f0 4805     		.2byte	0x548
 4429 08f2 C3000000 		.4byte	0xc3
 4430 08f6 01       		.uleb128 0x1
 4431 08f7 50       		.byte	0x50
 4432 08f8 00       		.byte	0
 4433 08f9 0E       		.uleb128 0xe
 4434 08fa 08050000 		.4byte	.LASF131
 4435 08fe 01       		.byte	0x1
 4436 08ff ED04     		.2byte	0x4ed
 4437 0901 C3000000 		.4byte	0xc3
 4438 0905 00000000 		.4byte	.LFB84
 4439 0909 70000000 		.4byte	.LFE84-.LFB84
 4440 090d 01       		.uleb128 0x1
 4441 090e 9C       		.byte	0x9c
 4442 090f AF090000 		.4byte	0x9af
 4443 0913 0F       		.uleb128 0xf
 4444 0914 1B070000 		.4byte	.LASF132
 4445 0918 01       		.byte	0x1
 4446 0919 ED04     		.2byte	0x4ed
 4447 091b CE000000 		.4byte	0xce
 4448 091f D00A0000 		.4byte	.LLST40
 4449 0923 15       		.uleb128 0x15
 4450 0924 64657600 		.ascii	"dev\000"
 4451 0928 01       		.byte	0x1
ARM GAS  C:\Users\adria\AppData\Local\Temp\ccOKprka.s 			page 115


 4452 0929 ED04     		.2byte	0x4ed
 4453 092b 67050000 		.4byte	0x567
 4454 092f F10A0000 		.4byte	.LLST41
 4455 0933 11       		.uleb128 0x11
 4456 0934 2D070000 		.4byte	.LASF129
 4457 0938 01       		.byte	0x1
 4458 0939 EF04     		.2byte	0x4ef
 4459 093b C3000000 		.4byte	0xc3
 4460 093f 0F0B0000 		.4byte	.LLST42
 4461 0943 19       		.uleb128 0x19
 4462 0944 72656700 		.ascii	"reg\000"
 4463 0948 01       		.byte	0x1
 4464 0949 F004     		.2byte	0x4f0
 4465 094b CE000000 		.4byte	0xce
 4466 094f 02       		.uleb128 0x2
 4467 0950 91       		.byte	0x91
 4468 0951 6F       		.sleb128 -17
 4469 0952 11       		.uleb128 0x11
 4470 0953 9F010000 		.4byte	.LASF81
 4471 0957 01       		.byte	0x1
 4472 0958 F104     		.2byte	0x4f1
 4473 095a CE000000 		.4byte	0xce
 4474 095e 2D0B0000 		.4byte	.LLST43
 4475 0962 1A       		.uleb128 0x1a
 4476 0963 0E000000 		.4byte	.LVL117
 4477 0967 C0080000 		.4byte	0x8c0
 4478 096b 76090000 		.4byte	0x976
 4479 096f 1B       		.uleb128 0x1b
 4480 0970 01       		.uleb128 0x1
 4481 0971 50       		.byte	0x50
 4482 0972 02       		.uleb128 0x2
 4483 0973 74       		.byte	0x74
 4484 0974 00       		.sleb128 0
 4485 0975 00       		.byte	0
 4486 0976 1C       		.uleb128 0x1c
 4487 0977 34000000 		.4byte	.LVL121
 4488 097b 02       		.uleb128 0x2
 4489 097c 76       		.byte	0x76
 4490 097d 00       		.sleb128 0
 4491 097e 94090000 		.4byte	0x994
 4492 0982 1B       		.uleb128 0x1b
 4493 0983 01       		.uleb128 0x1
 4494 0984 51       		.byte	0x51
 4495 0985 02       		.uleb128 0x2
 4496 0986 09       		.byte	0x9
 4497 0987 F3       		.byte	0xf3
 4498 0988 1B       		.uleb128 0x1b
 4499 0989 01       		.uleb128 0x1
 4500 098a 52       		.byte	0x52
 4501 098b 02       		.uleb128 0x2
 4502 098c 91       		.byte	0x91
 4503 098d 6F       		.sleb128 -17
 4504 098e 1B       		.uleb128 0x1b
 4505 098f 01       		.uleb128 0x1
 4506 0990 53       		.byte	0x53
 4507 0991 01       		.uleb128 0x1
 4508 0992 31       		.byte	0x31
ARM GAS  C:\Users\adria\AppData\Local\Temp\ccOKprka.s 			page 116


 4509 0993 00       		.byte	0
 4510 0994 1D       		.uleb128 0x1d
 4511 0995 60000000 		.4byte	.LVL123
 4512 0999 02       		.uleb128 0x2
 4513 099a 76       		.byte	0x76
 4514 099b 00       		.sleb128 0
 4515 099c 1B       		.uleb128 0x1b
 4516 099d 01       		.uleb128 0x1
 4517 099e 51       		.byte	0x51
 4518 099f 02       		.uleb128 0x2
 4519 09a0 08       		.byte	0x8
 4520 09a1 73       		.byte	0x73
 4521 09a2 1B       		.uleb128 0x1b
 4522 09a3 01       		.uleb128 0x1
 4523 09a4 52       		.byte	0x52
 4524 09a5 02       		.uleb128 0x2
 4525 09a6 91       		.byte	0x91
 4526 09a7 6F       		.sleb128 -17
 4527 09a8 1B       		.uleb128 0x1b
 4528 09a9 01       		.uleb128 0x1
 4529 09aa 53       		.byte	0x53
 4530 09ab 01       		.uleb128 0x1
 4531 09ac 31       		.byte	0x31
 4532 09ad 00       		.byte	0
 4533 09ae 00       		.byte	0
 4534 09af 0E       		.uleb128 0xe
 4535 09b0 83030000 		.4byte	.LASF133
 4536 09b4 01       		.byte	0x1
 4537 09b5 1405     		.2byte	0x514
 4538 09b7 C3000000 		.4byte	0xc3
 4539 09bb 00000000 		.4byte	.LFB85
 4540 09bf 38000000 		.4byte	.LFE85-.LFB85
 4541 09c3 01       		.uleb128 0x1
 4542 09c4 9C       		.byte	0x9c
 4543 09c5 270A0000 		.4byte	0xa27
 4544 09c9 15       		.uleb128 0x15
 4545 09ca 64657600 		.ascii	"dev\000"
 4546 09ce 01       		.byte	0x1
 4547 09cf 1405     		.2byte	0x514
 4548 09d1 67050000 		.4byte	0x567
 4549 09d5 4C0B0000 		.4byte	.LLST44
 4550 09d9 11       		.uleb128 0x11
 4551 09da 2D070000 		.4byte	.LASF129
 4552 09de 01       		.byte	0x1
 4553 09df 1605     		.2byte	0x516
 4554 09e1 C3000000 		.4byte	0xc3
 4555 09e5 6A0B0000 		.4byte	.LLST45
 4556 09e9 19       		.uleb128 0x19
 4557 09ea 72656700 		.ascii	"reg\000"
 4558 09ee 01       		.byte	0x1
 4559 09ef 1705     		.2byte	0x517
 4560 09f1 CE000000 		.4byte	0xce
 4561 09f5 02       		.uleb128 0x2
 4562 09f6 91       		.byte	0x91
 4563 09f7 6F       		.sleb128 -17
 4564 09f8 1A       		.uleb128 0x1a
 4565 09f9 0A000000 		.4byte	.LVL126
ARM GAS  C:\Users\adria\AppData\Local\Temp\ccOKprka.s 			page 117


 4566 09fd C0080000 		.4byte	0x8c0
 4567 0a01 0C0A0000 		.4byte	0xa0c
 4568 0a05 1B       		.uleb128 0x1b
 4569 0a06 01       		.uleb128 0x1
 4570 0a07 50       		.byte	0x50
 4571 0a08 02       		.uleb128 0x2
 4572 0a09 74       		.byte	0x74
 4573 0a0a 00       		.sleb128 0
 4574 0a0b 00       		.byte	0
 4575 0a0c 1D       		.uleb128 0x1d
 4576 0a0d 1C000000 		.4byte	.LVL128
 4577 0a11 02       		.uleb128 0x2
 4578 0a12 76       		.byte	0x76
 4579 0a13 00       		.sleb128 0
 4580 0a14 1B       		.uleb128 0x1b
 4581 0a15 01       		.uleb128 0x1
 4582 0a16 51       		.byte	0x51
 4583 0a17 02       		.uleb128 0x2
 4584 0a18 09       		.byte	0x9
 4585 0a19 F3       		.byte	0xf3
 4586 0a1a 1B       		.uleb128 0x1b
 4587 0a1b 01       		.uleb128 0x1
 4588 0a1c 52       		.byte	0x52
 4589 0a1d 02       		.uleb128 0x2
 4590 0a1e 91       		.byte	0x91
 4591 0a1f 6F       		.sleb128 -17
 4592 0a20 1B       		.uleb128 0x1b
 4593 0a21 01       		.uleb128 0x1
 4594 0a22 53       		.byte	0x53
 4595 0a23 01       		.uleb128 0x1
 4596 0a24 31       		.byte	0x31
 4597 0a25 00       		.byte	0
 4598 0a26 00       		.byte	0
 4599 0a27 0E       		.uleb128 0xe
 4600 0a28 07070000 		.4byte	.LASF134
 4601 0a2c 01       		.byte	0x1
 4602 0a2d AC05     		.2byte	0x5ac
 4603 0a2f C3000000 		.4byte	0xc3
 4604 0a33 00000000 		.4byte	.LFB89
 4605 0a37 88000000 		.4byte	.LFE89-.LFB89
 4606 0a3b 01       		.uleb128 0x1
 4607 0a3c 9C       		.byte	0x9c
 4608 0a3d 9E0A0000 		.4byte	0xa9e
 4609 0a41 0F       		.uleb128 0xf
 4610 0a42 B9040000 		.4byte	.LASF135
 4611 0a46 01       		.byte	0x1
 4612 0a47 AC05     		.2byte	0x5ac
 4613 0a49 9E0A0000 		.4byte	0xa9e
 4614 0a4d 880B0000 		.4byte	.LLST46
 4615 0a51 1E       		.uleb128 0x1e
 4616 0a52 DB040000 		.4byte	.LASF136
 4617 0a56 01       		.byte	0x1
 4618 0a57 AC05     		.2byte	0x5ac
 4619 0a59 CE000000 		.4byte	0xce
 4620 0a5d 01       		.uleb128 0x1
 4621 0a5e 51       		.byte	0x51
 4622 0a5f 11       		.uleb128 0x11
ARM GAS  C:\Users\adria\AppData\Local\Temp\ccOKprka.s 			page 118


 4623 0a60 2D070000 		.4byte	.LASF129
 4624 0a64 01       		.byte	0x1
 4625 0a65 AE05     		.2byte	0x5ae
 4626 0a67 C3000000 		.4byte	0xc3
 4627 0a6b C20B0000 		.4byte	.LLST47
 4628 0a6f 11       		.uleb128 0x11
 4629 0a70 CB030000 		.4byte	.LASF137
 4630 0a74 01       		.byte	0x1
 4631 0a75 AF05     		.2byte	0x5af
 4632 0a77 CE000000 		.4byte	0xce
 4633 0a7b E10B0000 		.4byte	.LLST48
 4634 0a7f 1F       		.uleb128 0x1f
 4635 0a80 6900     		.ascii	"i\000"
 4636 0a82 01       		.byte	0x1
 4637 0a83 AF05     		.2byte	0x5af
 4638 0a85 CE000000 		.4byte	0xce
 4639 0a89 2C0C0000 		.4byte	.LLST49
 4640 0a8d 11       		.uleb128 0x11
 4641 0a8e F4060000 		.4byte	.LASF138
 4642 0a92 01       		.byte	0x1
 4643 0a93 B005     		.2byte	0x5b0
 4644 0a95 FA000000 		.4byte	0xfa
 4645 0a99 550C0000 		.4byte	.LLST50
 4646 0a9d 00       		.byte	0
 4647 0a9e 06       		.uleb128 0x6
 4648 0a9f 04       		.byte	0x4
 4649 0aa0 93010000 		.4byte	0x193
 4650 0aa4 20       		.uleb128 0x20
 4651 0aa5 13010000 		.4byte	.LASF205
 4652 0aa9 01       		.byte	0x1
 4653 0aaa CB05     		.2byte	0x5cb
 4654 0aac 00000000 		.4byte	.LFB90
 4655 0ab0 08000000 		.4byte	.LFE90-.LFB90
 4656 0ab4 01       		.uleb128 0x1
 4657 0ab5 9C       		.byte	0x9c
 4658 0ab6 DC0A0000 		.4byte	0xadc
 4659 0aba 0F       		.uleb128 0xf
 4660 0abb 38000000 		.4byte	.LASF139
 4661 0abf 01       		.byte	0x1
 4662 0ac0 CB05     		.2byte	0x5cb
 4663 0ac2 FA000000 		.4byte	0xfa
 4664 0ac6 8B0C0000 		.4byte	.LLST51
 4665 0aca 21       		.uleb128 0x21
 4666 0acb 06000000 		.4byte	.LVL154
 4667 0acf 181E0000 		.4byte	0x1e18
 4668 0ad3 1B       		.uleb128 0x1b
 4669 0ad4 01       		.uleb128 0x1
 4670 0ad5 50       		.byte	0x50
 4671 0ad6 03       		.uleb128 0x3
 4672 0ad7 F3       		.byte	0xf3
 4673 0ad8 01       		.uleb128 0x1
 4674 0ad9 50       		.byte	0x50
 4675 0ada 00       		.byte	0
 4676 0adb 00       		.byte	0
 4677 0adc 0E       		.uleb128 0xe
 4678 0add E3090000 		.4byte	.LASF140
 4679 0ae1 01       		.byte	0x1
ARM GAS  C:\Users\adria\AppData\Local\Temp\ccOKprka.s 			page 119


 4680 0ae2 FB05     		.2byte	0x5fb
 4681 0ae4 C3000000 		.4byte	0xc3
 4682 0ae8 00000000 		.4byte	.LFB92
 4683 0aec 38000000 		.4byte	.LFE92-.LFB92
 4684 0af0 01       		.uleb128 0x1
 4685 0af1 9C       		.byte	0x9c
 4686 0af2 DF0B0000 		.4byte	0xbdf
 4687 0af6 0F       		.uleb128 0xf
 4688 0af7 EA080000 		.4byte	.LASF79
 4689 0afb 01       		.byte	0x1
 4690 0afc FB05     		.2byte	0x5fb
 4691 0afe CE000000 		.4byte	0xce
 4692 0b02 AC0C0000 		.4byte	.LLST52
 4693 0b06 0F       		.uleb128 0xf
 4694 0b07 1B070000 		.4byte	.LASF132
 4695 0b0b 01       		.byte	0x1
 4696 0b0c FB05     		.2byte	0x5fb
 4697 0b0e CE000000 		.4byte	0xce
 4698 0b12 CD0C0000 		.4byte	.LLST53
 4699 0b16 0F       		.uleb128 0xf
 4700 0b17 95020000 		.4byte	.LASF141
 4701 0b1b 01       		.byte	0x1
 4702 0b1c FB05     		.2byte	0x5fb
 4703 0b1e 52010000 		.4byte	0x152
 4704 0b22 EE0C0000 		.4byte	.LLST54
 4705 0b26 15       		.uleb128 0x15
 4706 0b27 6C656E00 		.ascii	"len\000"
 4707 0b2b 01       		.byte	0x1
 4708 0b2c FB05     		.2byte	0x5fb
 4709 0b2e E4000000 		.4byte	0xe4
 4710 0b32 240D0000 		.4byte	.LLST55
 4711 0b36 22       		.uleb128 0x22
 4712 0b37 2D070000 		.4byte	.LASF129
 4713 0b3b 01       		.byte	0x1
 4714 0b3c FD05     		.2byte	0x5fd
 4715 0b3e C3000000 		.4byte	0xc3
 4716 0b42 00       		.byte	0
 4717 0b43 1F       		.uleb128 0x1f
 4718 0b44 6900     		.ascii	"i\000"
 4719 0b46 01       		.byte	0x1
 4720 0b47 FE05     		.2byte	0x5fe
 4721 0b49 E4000000 		.4byte	0xe4
 4722 0b4d 450D0000 		.4byte	.LLST56
 4723 0b51 23       		.uleb128 0x23
 4724 0b52 FC070000 		.4byte	.LASF142
 4725 0b56 01       		.byte	0x1
 4726 0b57 ED05     		.2byte	0x5ed
 4727 0b59 33000000 		.4byte	0x33
 4728 0b5d 630B0000 		.4byte	0xb63
 4729 0b61 24       		.uleb128 0x24
 4730 0b62 00       		.byte	0
 4731 0b63 23       		.uleb128 0x23
 4732 0b64 BA000000 		.4byte	.LASF143
 4733 0b68 01       		.byte	0x1
 4734 0b69 EE05     		.2byte	0x5ee
 4735 0b6b 33000000 		.4byte	0x33
 4736 0b6f 750B0000 		.4byte	0xb75
ARM GAS  C:\Users\adria\AppData\Local\Temp\ccOKprka.s 			page 120


 4737 0b73 24       		.uleb128 0x24
 4738 0b74 00       		.byte	0
 4739 0b75 23       		.uleb128 0x23
 4740 0b76 27050000 		.4byte	.LASF144
 4741 0b7a 01       		.byte	0x1
 4742 0b7b F605     		.2byte	0x5f6
 4743 0b7d 33000000 		.4byte	0x33
 4744 0b81 870B0000 		.4byte	0xb87
 4745 0b85 24       		.uleb128 0x24
 4746 0b86 00       		.byte	0
 4747 0b87 1A       		.uleb128 0x1a
 4748 0b88 10000000 		.4byte	.LVL159
 4749 0b8c 231E0000 		.4byte	0x1e23
 4750 0b90 A00B0000 		.4byte	0xba0
 4751 0b94 1B       		.uleb128 0x1b
 4752 0b95 01       		.uleb128 0x1
 4753 0b96 51       		.byte	0x51
 4754 0b97 01       		.uleb128 0x1
 4755 0b98 30       		.byte	0x30
 4756 0b99 1B       		.uleb128 0x1b
 4757 0b9a 01       		.uleb128 0x1
 4758 0b9b 52       		.byte	0x52
 4759 0b9c 02       		.uleb128 0x2
 4760 0b9d 08       		.byte	0x8
 4761 0b9e 64       		.byte	0x64
 4762 0b9f 00       		.byte	0
 4763 0ba0 1A       		.uleb128 0x1a
 4764 0ba1 18000000 		.4byte	.LVL160
 4765 0ba5 2F1E0000 		.4byte	0x1e2f
 4766 0ba9 BA0B0000 		.4byte	0xbba
 4767 0bad 1B       		.uleb128 0x1b
 4768 0bae 01       		.uleb128 0x1
 4769 0baf 50       		.byte	0x50
 4770 0bb0 02       		.uleb128 0x2
 4771 0bb1 74       		.byte	0x74
 4772 0bb2 00       		.sleb128 0
 4773 0bb3 1B       		.uleb128 0x1b
 4774 0bb4 01       		.uleb128 0x1
 4775 0bb5 51       		.byte	0x51
 4776 0bb6 02       		.uleb128 0x2
 4777 0bb7 08       		.byte	0x8
 4778 0bb8 64       		.byte	0x64
 4779 0bb9 00       		.byte	0
 4780 0bba 1A       		.uleb128 0x1a
 4781 0bbb 26000000 		.4byte	.LVL163
 4782 0bbf 2F1E0000 		.4byte	0x1e2f
 4783 0bc3 CE0B0000 		.4byte	0xbce
 4784 0bc7 1B       		.uleb128 0x1b
 4785 0bc8 01       		.uleb128 0x1
 4786 0bc9 51       		.byte	0x51
 4787 0bca 02       		.uleb128 0x2
 4788 0bcb 08       		.byte	0x8
 4789 0bcc 64       		.byte	0x64
 4790 0bcd 00       		.byte	0
 4791 0bce 21       		.uleb128 0x21
 4792 0bcf 34000000 		.4byte	.LVL166
 4793 0bd3 3B1E0000 		.4byte	0x1e3b
ARM GAS  C:\Users\adria\AppData\Local\Temp\ccOKprka.s 			page 121


 4794 0bd7 1B       		.uleb128 0x1b
 4795 0bd8 01       		.uleb128 0x1
 4796 0bd9 50       		.byte	0x50
 4797 0bda 02       		.uleb128 0x2
 4798 0bdb 08       		.byte	0x8
 4799 0bdc 64       		.byte	0x64
 4800 0bdd 00       		.byte	0
 4801 0bde 00       		.byte	0
 4802 0bdf 0E       		.uleb128 0xe
 4803 0be0 C6040000 		.4byte	.LASF145
 4804 0be4 01       		.byte	0x1
 4805 0be5 D405     		.2byte	0x5d4
 4806 0be7 C3000000 		.4byte	0xc3
 4807 0beb 00000000 		.4byte	.LFB91
 4808 0bef 52000000 		.4byte	.LFE91-.LFB91
 4809 0bf3 01       		.uleb128 0x1
 4810 0bf4 9C       		.byte	0x9c
 4811 0bf5 740D0000 		.4byte	0xd74
 4812 0bf9 0F       		.uleb128 0xf
 4813 0bfa EA080000 		.4byte	.LASF79
 4814 0bfe 01       		.byte	0x1
 4815 0bff D405     		.2byte	0x5d4
 4816 0c01 CE000000 		.4byte	0xce
 4817 0c05 6F0D0000 		.4byte	.LLST57
 4818 0c09 0F       		.uleb128 0xf
 4819 0c0a 1B070000 		.4byte	.LASF132
 4820 0c0e 01       		.byte	0x1
 4821 0c0f D405     		.2byte	0x5d4
 4822 0c11 CE000000 		.4byte	0xce
 4823 0c15 900D0000 		.4byte	.LLST58
 4824 0c19 0F       		.uleb128 0xf
 4825 0c1a 95020000 		.4byte	.LASF141
 4826 0c1e 01       		.byte	0x1
 4827 0c1f D405     		.2byte	0x5d4
 4828 0c21 52010000 		.4byte	0x152
 4829 0c25 B10D0000 		.4byte	.LLST59
 4830 0c29 15       		.uleb128 0x15
 4831 0c2a 6C656E00 		.ascii	"len\000"
 4832 0c2e 01       		.byte	0x1
 4833 0c2f D405     		.2byte	0x5d4
 4834 0c31 E4000000 		.4byte	0xe4
 4835 0c35 CF0D0000 		.4byte	.LLST60
 4836 0c39 11       		.uleb128 0x11
 4837 0c3a 2D070000 		.4byte	.LASF129
 4838 0c3e 01       		.byte	0x1
 4839 0c3f D605     		.2byte	0x5d6
 4840 0c41 C3000000 		.4byte	0xc3
 4841 0c45 F00D0000 		.4byte	.LLST61
 4842 0c49 1F       		.uleb128 0x1f
 4843 0c4a 6900     		.ascii	"i\000"
 4844 0c4c 01       		.byte	0x1
 4845 0c4d D705     		.2byte	0x5d7
 4846 0c4f E4000000 		.4byte	0xe4
 4847 0c53 0F0E0000 		.4byte	.LLST62
 4848 0c57 23       		.uleb128 0x23
 4849 0c58 FC070000 		.4byte	.LASF142
 4850 0c5c 01       		.byte	0x1
ARM GAS  C:\Users\adria\AppData\Local\Temp\ccOKprka.s 			page 122


 4851 0c5d ED05     		.2byte	0x5ed
 4852 0c5f 33000000 		.4byte	0x33
 4853 0c63 690C0000 		.4byte	0xc69
 4854 0c67 24       		.uleb128 0x24
 4855 0c68 00       		.byte	0
 4856 0c69 23       		.uleb128 0x23
 4857 0c6a BA000000 		.4byte	.LASF143
 4858 0c6e 01       		.byte	0x1
 4859 0c6f EE05     		.2byte	0x5ee
 4860 0c71 33000000 		.4byte	0x33
 4861 0c75 7B0C0000 		.4byte	0xc7b
 4862 0c79 24       		.uleb128 0x24
 4863 0c7a 00       		.byte	0
 4864 0c7b 23       		.uleb128 0x23
 4865 0c7c 86010000 		.4byte	.LASF146
 4866 0c80 01       		.byte	0x1
 4867 0c81 EF05     		.2byte	0x5ef
 4868 0c83 33000000 		.4byte	0x33
 4869 0c87 8D0C0000 		.4byte	0xc8d
 4870 0c8b 24       		.uleb128 0x24
 4871 0c8c 00       		.byte	0
 4872 0c8d 23       		.uleb128 0x23
 4873 0c8e 6E080000 		.4byte	.LASF147
 4874 0c92 01       		.byte	0x1
 4875 0c93 F105     		.2byte	0x5f1
 4876 0c95 33000000 		.4byte	0x33
 4877 0c99 9F0C0000 		.4byte	0xc9f
 4878 0c9d 24       		.uleb128 0x24
 4879 0c9e 00       		.byte	0
 4880 0c9f 23       		.uleb128 0x23
 4881 0ca0 27050000 		.4byte	.LASF144
 4882 0ca4 01       		.byte	0x1
 4883 0ca5 F605     		.2byte	0x5f6
 4884 0ca7 33000000 		.4byte	0x33
 4885 0cab B10C0000 		.4byte	0xcb1
 4886 0caf 24       		.uleb128 0x24
 4887 0cb0 00       		.byte	0
 4888 0cb1 25       		.uleb128 0x25
 4889 0cb2 28000000 		.4byte	.LBB2
 4890 0cb6 10000000 		.4byte	.LBE2-.LBB2
 4891 0cba EC0C0000 		.4byte	0xcec
 4892 0cbe 23       		.uleb128 0x23
 4893 0cbf 6E080000 		.4byte	.LASF147
 4894 0cc3 01       		.byte	0x1
 4895 0cc4 F105     		.2byte	0x5f1
 4896 0cc6 33000000 		.4byte	0x33
 4897 0cca D00C0000 		.4byte	0xcd0
 4898 0cce 24       		.uleb128 0x24
 4899 0ccf 00       		.byte	0
 4900 0cd0 21       		.uleb128 0x21
 4901 0cd1 32000000 		.4byte	.LVL175
 4902 0cd5 471E0000 		.4byte	0x1e47
 4903 0cd9 1B       		.uleb128 0x1b
 4904 0cda 01       		.uleb128 0x1
 4905 0cdb 50       		.byte	0x50
 4906 0cdc 01       		.uleb128 0x1
 4907 0cdd 30       		.byte	0x30
ARM GAS  C:\Users\adria\AppData\Local\Temp\ccOKprka.s 			page 123


 4908 0cde 1B       		.uleb128 0x1b
 4909 0cdf 01       		.uleb128 0x1
 4910 0ce0 51       		.byte	0x51
 4911 0ce1 02       		.uleb128 0x2
 4912 0ce2 75       		.byte	0x75
 4913 0ce3 00       		.sleb128 0
 4914 0ce4 1B       		.uleb128 0x1b
 4915 0ce5 01       		.uleb128 0x1
 4916 0ce6 52       		.byte	0x52
 4917 0ce7 02       		.uleb128 0x2
 4918 0ce8 08       		.byte	0x8
 4919 0ce9 64       		.byte	0x64
 4920 0cea 00       		.byte	0
 4921 0ceb 00       		.byte	0
 4922 0cec 1A       		.uleb128 0x1a
 4923 0ced 12000000 		.4byte	.LVL171
 4924 0cf1 231E0000 		.4byte	0x1e23
 4925 0cf5 0B0D0000 		.4byte	0xd0b
 4926 0cf9 1B       		.uleb128 0x1b
 4927 0cfa 01       		.uleb128 0x1
 4928 0cfb 50       		.byte	0x50
 4929 0cfc 02       		.uleb128 0x2
 4930 0cfd 74       		.byte	0x74
 4931 0cfe 00       		.sleb128 0
 4932 0cff 1B       		.uleb128 0x1b
 4933 0d00 01       		.uleb128 0x1
 4934 0d01 51       		.byte	0x51
 4935 0d02 01       		.uleb128 0x1
 4936 0d03 30       		.byte	0x30
 4937 0d04 1B       		.uleb128 0x1b
 4938 0d05 01       		.uleb128 0x1
 4939 0d06 52       		.byte	0x52
 4940 0d07 02       		.uleb128 0x2
 4941 0d08 08       		.byte	0x8
 4942 0d09 64       		.byte	0x64
 4943 0d0a 00       		.byte	0
 4944 0d0b 1A       		.uleb128 0x1a
 4945 0d0c 1A000000 		.4byte	.LVL172
 4946 0d10 2F1E0000 		.4byte	0x1e2f
 4947 0d14 250D0000 		.4byte	0xd25
 4948 0d18 1B       		.uleb128 0x1b
 4949 0d19 01       		.uleb128 0x1
 4950 0d1a 50       		.byte	0x50
 4951 0d1b 02       		.uleb128 0x2
 4952 0d1c 77       		.byte	0x77
 4953 0d1d 00       		.sleb128 0
 4954 0d1e 1B       		.uleb128 0x1b
 4955 0d1f 01       		.uleb128 0x1
 4956 0d20 51       		.byte	0x51
 4957 0d21 02       		.uleb128 0x2
 4958 0d22 08       		.byte	0x8
 4959 0d23 64       		.byte	0x64
 4960 0d24 00       		.byte	0
 4961 0d25 1A       		.uleb128 0x1a
 4962 0d26 24000000 		.4byte	.LVL173
 4963 0d2a 531E0000 		.4byte	0x1e53
 4964 0d2e 440D0000 		.4byte	0xd44
ARM GAS  C:\Users\adria\AppData\Local\Temp\ccOKprka.s 			page 124


 4965 0d32 1B       		.uleb128 0x1b
 4966 0d33 01       		.uleb128 0x1
 4967 0d34 50       		.byte	0x50
 4968 0d35 02       		.uleb128 0x2
 4969 0d36 74       		.byte	0x74
 4970 0d37 00       		.sleb128 0
 4971 0d38 1B       		.uleb128 0x1b
 4972 0d39 01       		.uleb128 0x1
 4973 0d3a 51       		.byte	0x51
 4974 0d3b 01       		.uleb128 0x1
 4975 0d3c 31       		.byte	0x31
 4976 0d3d 1B       		.uleb128 0x1b
 4977 0d3e 01       		.uleb128 0x1
 4978 0d3f 52       		.byte	0x52
 4979 0d40 02       		.uleb128 0x2
 4980 0d41 08       		.byte	0x8
 4981 0d42 64       		.byte	0x64
 4982 0d43 00       		.byte	0
 4983 0d44 1A       		.uleb128 0x1a
 4984 0d45 48000000 		.4byte	.LVL179
 4985 0d49 471E0000 		.4byte	0x1e47
 4986 0d4d 630D0000 		.4byte	0xd63
 4987 0d51 1B       		.uleb128 0x1b
 4988 0d52 01       		.uleb128 0x1
 4989 0d53 50       		.byte	0x50
 4990 0d54 01       		.uleb128 0x1
 4991 0d55 31       		.byte	0x31
 4992 0d56 1B       		.uleb128 0x1b
 4993 0d57 01       		.uleb128 0x1
 4994 0d58 51       		.byte	0x51
 4995 0d59 02       		.uleb128 0x2
 4996 0d5a 75       		.byte	0x75
 4997 0d5b 00       		.sleb128 0
 4998 0d5c 1B       		.uleb128 0x1b
 4999 0d5d 01       		.uleb128 0x1
 5000 0d5e 52       		.byte	0x52
 5001 0d5f 02       		.uleb128 0x2
 5002 0d60 08       		.byte	0x8
 5003 0d61 64       		.byte	0x64
 5004 0d62 00       		.byte	0
 5005 0d63 21       		.uleb128 0x21
 5006 0d64 4E000000 		.4byte	.LVL180
 5007 0d68 3B1E0000 		.4byte	0x1e3b
 5008 0d6c 1B       		.uleb128 0x1b
 5009 0d6d 01       		.uleb128 0x1
 5010 0d6e 50       		.byte	0x50
 5011 0d6f 02       		.uleb128 0x2
 5012 0d70 08       		.byte	0x8
 5013 0d71 64       		.byte	0x64
 5014 0d72 00       		.byte	0
 5015 0d73 00       		.byte	0
 5016 0d74 26       		.uleb128 0x26
 5017 0d75 E4060000 		.4byte	.LASF161
 5018 0d79 01       		.byte	0x1
 5019 0d7a 3701     		.2byte	0x137
 5020 0d7c C3000000 		.4byte	0xc3
 5021 0d80 00000000 		.4byte	.LFB64
ARM GAS  C:\Users\adria\AppData\Local\Temp\ccOKprka.s 			page 125


 5022 0d84 46000000 		.4byte	.LFE64-.LFB64
 5023 0d88 01       		.uleb128 0x1
 5024 0d89 9C       		.byte	0x9c
 5025 0d8a 280E0000 		.4byte	0xe28
 5026 0d8e 0F       		.uleb128 0xf
 5027 0d8f 1B070000 		.4byte	.LASF132
 5028 0d93 01       		.byte	0x1
 5029 0d94 3701     		.2byte	0x137
 5030 0d96 CE000000 		.4byte	0xce
 5031 0d9a 390E0000 		.4byte	.LLST63
 5032 0d9e 0F       		.uleb128 0xf
 5033 0d9f 95020000 		.4byte	.LASF141
 5034 0da3 01       		.byte	0x1
 5035 0da4 3701     		.2byte	0x137
 5036 0da6 52010000 		.4byte	0x152
 5037 0daa 650E0000 		.4byte	.LLST64
 5038 0dae 15       		.uleb128 0x15
 5039 0daf 6C656E00 		.ascii	"len\000"
 5040 0db3 01       		.byte	0x1
 5041 0db4 3701     		.2byte	0x137
 5042 0db6 E4000000 		.4byte	0xe4
 5043 0dba 830E0000 		.4byte	.LLST65
 5044 0dbe 15       		.uleb128 0x15
 5045 0dbf 64657600 		.ascii	"dev\000"
 5046 0dc3 01       		.byte	0x1
 5047 0dc4 3701     		.2byte	0x137
 5048 0dc6 67050000 		.4byte	0x567
 5049 0dca A40E0000 		.4byte	.LLST66
 5050 0dce 11       		.uleb128 0x11
 5051 0dcf 2D070000 		.4byte	.LASF129
 5052 0dd3 01       		.byte	0x1
 5053 0dd4 3901     		.2byte	0x139
 5054 0dd6 C3000000 		.4byte	0xc3
 5055 0dda C20E0000 		.4byte	.LLST67
 5056 0dde 1A       		.uleb128 0x1a
 5057 0ddf 12000000 		.4byte	.LVL183
 5058 0de3 C0080000 		.4byte	0x8c0
 5059 0de7 F20D0000 		.4byte	0xdf2
 5060 0deb 1B       		.uleb128 0x1b
 5061 0dec 01       		.uleb128 0x1
 5062 0ded 50       		.byte	0x50
 5063 0dee 02       		.uleb128 0x2
 5064 0def 74       		.byte	0x74
 5065 0df0 00       		.sleb128 0
 5066 0df1 00       		.byte	0
 5067 0df2 1A       		.uleb128 0x1a
 5068 0df3 22000000 		.4byte	.LVL185
 5069 0df7 F9080000 		.4byte	0x8f9
 5070 0dfb 0C0E0000 		.4byte	0xe0c
 5071 0dff 1B       		.uleb128 0x1b
 5072 0e00 01       		.uleb128 0x1
 5073 0e01 50       		.byte	0x50
 5074 0e02 02       		.uleb128 0x2
 5075 0e03 76       		.byte	0x76
 5076 0e04 00       		.sleb128 0
 5077 0e05 1B       		.uleb128 0x1b
 5078 0e06 01       		.uleb128 0x1
ARM GAS  C:\Users\adria\AppData\Local\Temp\ccOKprka.s 			page 126


 5079 0e07 51       		.byte	0x51
 5080 0e08 02       		.uleb128 0x2
 5081 0e09 74       		.byte	0x74
 5082 0e0a 00       		.sleb128 0
 5083 0e0b 00       		.byte	0
 5084 0e0c 1D       		.uleb128 0x1d
 5085 0e0d 36000000 		.4byte	.LVL187
 5086 0e11 02       		.uleb128 0x2
 5087 0e12 77       		.byte	0x77
 5088 0e13 00       		.sleb128 0
 5089 0e14 1B       		.uleb128 0x1b
 5090 0e15 01       		.uleb128 0x1
 5091 0e16 51       		.byte	0x51
 5092 0e17 02       		.uleb128 0x2
 5093 0e18 76       		.byte	0x76
 5094 0e19 00       		.sleb128 0
 5095 0e1a 1B       		.uleb128 0x1b
 5096 0e1b 01       		.uleb128 0x1
 5097 0e1c 52       		.byte	0x52
 5098 0e1d 02       		.uleb128 0x2
 5099 0e1e 78       		.byte	0x78
 5100 0e1f 00       		.sleb128 0
 5101 0e20 1B       		.uleb128 0x1b
 5102 0e21 01       		.uleb128 0x1
 5103 0e22 53       		.byte	0x53
 5104 0e23 02       		.uleb128 0x2
 5105 0e24 79       		.byte	0x79
 5106 0e25 00       		.sleb128 0
 5107 0e26 00       		.byte	0
 5108 0e27 00       		.byte	0
 5109 0e28 0E       		.uleb128 0xe
 5110 0e29 03090000 		.4byte	.LASF148
 5111 0e2d 01       		.byte	0x1
 5112 0e2e D402     		.2byte	0x2d4
 5113 0e30 C3000000 		.4byte	0xc3
 5114 0e34 00000000 		.4byte	.LFB74
 5115 0e38 8A010000 		.4byte	.LFE74-.LFB74
 5116 0e3c 01       		.uleb128 0x1
 5117 0e3d 9C       		.byte	0x9c
 5118 0e3e 610F0000 		.4byte	0xf61
 5119 0e42 15       		.uleb128 0x15
 5120 0e43 64657600 		.ascii	"dev\000"
 5121 0e47 01       		.byte	0x1
 5122 0e48 D402     		.2byte	0x2d4
 5123 0e4a 67050000 		.4byte	0x567
 5124 0e4e EB0E0000 		.4byte	.LLST68
 5125 0e52 11       		.uleb128 0x11
 5126 0e53 2D070000 		.4byte	.LASF129
 5127 0e57 01       		.byte	0x1
 5128 0e58 D602     		.2byte	0x2d6
 5129 0e5a C3000000 		.4byte	0xc3
 5130 0e5e 090F0000 		.4byte	.LLST69
 5131 0e62 16       		.uleb128 0x16
 5132 0e63 3F000000 		.4byte	.LASF149
 5133 0e67 01       		.byte	0x1
 5134 0e68 D702     		.2byte	0x2d7
 5135 0e6a 610F0000 		.4byte	0xf61
ARM GAS  C:\Users\adria\AppData\Local\Temp\ccOKprka.s 			page 127


 5136 0e6e 02       		.uleb128 0x2
 5137 0e6f 91       		.byte	0x91
 5138 0e70 4C       		.sleb128 -52
 5139 0e71 16       		.uleb128 0x16
 5140 0e72 61090000 		.4byte	.LASF150
 5141 0e76 01       		.byte	0x1
 5142 0e77 D802     		.2byte	0x2d8
 5143 0e79 CE000000 		.4byte	0xce
 5144 0e7d 02       		.uleb128 0x2
 5145 0e7e 91       		.byte	0x91
 5146 0e7f 4B       		.sleb128 -53
 5147 0e80 1A       		.uleb128 0x1a
 5148 0e81 10000000 		.4byte	.LVL191
 5149 0e85 5F1E0000 		.4byte	0x1e5f
 5150 0e89 9F0E0000 		.4byte	0xe9f
 5151 0e8d 1B       		.uleb128 0x1b
 5152 0e8e 01       		.uleb128 0x1
 5153 0e8f 50       		.byte	0x50
 5154 0e90 02       		.uleb128 0x2
 5155 0e91 91       		.byte	0x91
 5156 0e92 4C       		.sleb128 -52
 5157 0e93 1B       		.uleb128 0x1b
 5158 0e94 01       		.uleb128 0x1
 5159 0e95 51       		.byte	0x51
 5160 0e96 01       		.uleb128 0x1
 5161 0e97 30       		.byte	0x30
 5162 0e98 1B       		.uleb128 0x1b
 5163 0e99 01       		.uleb128 0x1
 5164 0e9a 52       		.byte	0x52
 5165 0e9b 02       		.uleb128 0x2
 5166 0e9c 08       		.byte	0x8
 5167 0e9d 29       		.byte	0x29
 5168 0e9e 00       		.byte	0
 5169 0e9f 1A       		.uleb128 0x1a
 5170 0ea0 1C000000 		.4byte	.LVL192
 5171 0ea4 C0080000 		.4byte	0x8c0
 5172 0ea8 B30E0000 		.4byte	0xeb3
 5173 0eac 1B       		.uleb128 0x1b
 5174 0ead 01       		.uleb128 0x1
 5175 0eae 50       		.byte	0x50
 5176 0eaf 02       		.uleb128 0x2
 5177 0eb0 74       		.byte	0x74
 5178 0eb1 00       		.sleb128 0
 5179 0eb2 00       		.byte	0
 5180 0eb3 1A       		.uleb128 0x1a
 5181 0eb4 30000000 		.4byte	.LVL194
 5182 0eb8 740D0000 		.4byte	0xd74
 5183 0ebc D80E0000 		.4byte	0xed8
 5184 0ec0 1B       		.uleb128 0x1b
 5185 0ec1 01       		.uleb128 0x1
 5186 0ec2 50       		.byte	0x50
 5187 0ec3 02       		.uleb128 0x2
 5188 0ec4 09       		.byte	0x9
 5189 0ec5 89       		.byte	0x89
 5190 0ec6 1B       		.uleb128 0x1b
 5191 0ec7 01       		.uleb128 0x1
 5192 0ec8 51       		.byte	0x51
ARM GAS  C:\Users\adria\AppData\Local\Temp\ccOKprka.s 			page 128


 5193 0ec9 02       		.uleb128 0x2
 5194 0eca 91       		.byte	0x91
 5195 0ecb 4C       		.sleb128 -52
 5196 0ecc 1B       		.uleb128 0x1b
 5197 0ecd 01       		.uleb128 0x1
 5198 0ece 52       		.byte	0x52
 5199 0ecf 01       		.uleb128 0x1
 5200 0ed0 49       		.byte	0x49
 5201 0ed1 1B       		.uleb128 0x1b
 5202 0ed2 01       		.uleb128 0x1
 5203 0ed3 53       		.byte	0x53
 5204 0ed4 02       		.uleb128 0x2
 5205 0ed5 74       		.byte	0x74
 5206 0ed6 00       		.sleb128 0
 5207 0ed7 00       		.byte	0
 5208 0ed8 1A       		.uleb128 0x1a
 5209 0ed9 42000000 		.4byte	.LVL196
 5210 0edd 740D0000 		.4byte	0xd74
 5211 0ee1 FD0E0000 		.4byte	0xefd
 5212 0ee5 1B       		.uleb128 0x1b
 5213 0ee6 01       		.uleb128 0x1
 5214 0ee7 50       		.byte	0x50
 5215 0ee8 02       		.uleb128 0x2
 5216 0ee9 09       		.byte	0x9
 5217 0eea E1       		.byte	0xe1
 5218 0eeb 1B       		.uleb128 0x1b
 5219 0eec 01       		.uleb128 0x1
 5220 0eed 51       		.byte	0x51
 5221 0eee 02       		.uleb128 0x2
 5222 0eef 91       		.byte	0x91
 5223 0ef0 65       		.sleb128 -27
 5224 0ef1 1B       		.uleb128 0x1b
 5225 0ef2 01       		.uleb128 0x1
 5226 0ef3 52       		.byte	0x52
 5227 0ef4 01       		.uleb128 0x1
 5228 0ef5 40       		.byte	0x40
 5229 0ef6 1B       		.uleb128 0x1b
 5230 0ef7 01       		.uleb128 0x1
 5231 0ef8 53       		.byte	0x53
 5232 0ef9 02       		.uleb128 0x2
 5233 0efa 74       		.byte	0x74
 5234 0efb 00       		.sleb128 0
 5235 0efc 00       		.byte	0
 5236 0efd 1A       		.uleb128 0x1a
 5237 0efe 40010000 		.4byte	.LVL199
 5238 0f02 740D0000 		.4byte	0xd74
 5239 0f06 210F0000 		.4byte	0xf21
 5240 0f0a 1B       		.uleb128 0x1b
 5241 0f0b 01       		.uleb128 0x1
 5242 0f0c 50       		.byte	0x50
 5243 0f0d 01       		.uleb128 0x1
 5244 0f0e 32       		.byte	0x32
 5245 0f0f 1B       		.uleb128 0x1b
 5246 0f10 01       		.uleb128 0x1
 5247 0f11 51       		.byte	0x51
 5248 0f12 02       		.uleb128 0x2
 5249 0f13 91       		.byte	0x91
ARM GAS  C:\Users\adria\AppData\Local\Temp\ccOKprka.s 			page 129


 5250 0f14 4B       		.sleb128 -53
 5251 0f15 1B       		.uleb128 0x1b
 5252 0f16 01       		.uleb128 0x1
 5253 0f17 52       		.byte	0x52
 5254 0f18 01       		.uleb128 0x1
 5255 0f19 31       		.byte	0x31
 5256 0f1a 1B       		.uleb128 0x1b
 5257 0f1b 01       		.uleb128 0x1
 5258 0f1c 53       		.byte	0x53
 5259 0f1d 02       		.uleb128 0x2
 5260 0f1e 74       		.byte	0x74
 5261 0f1f 00       		.sleb128 0
 5262 0f20 00       		.byte	0
 5263 0f21 1A       		.uleb128 0x1a
 5264 0f22 5E010000 		.4byte	.LVL200
 5265 0f26 740D0000 		.4byte	0xd74
 5266 0f2a 400F0000 		.4byte	0xf40
 5267 0f2e 1B       		.uleb128 0x1b
 5268 0f2f 01       		.uleb128 0x1
 5269 0f30 51       		.byte	0x51
 5270 0f31 02       		.uleb128 0x2
 5271 0f32 91       		.byte	0x91
 5272 0f33 4B       		.sleb128 -53
 5273 0f34 1B       		.uleb128 0x1b
 5274 0f35 01       		.uleb128 0x1
 5275 0f36 52       		.byte	0x52
 5276 0f37 01       		.uleb128 0x1
 5277 0f38 31       		.byte	0x31
 5278 0f39 1B       		.uleb128 0x1b
 5279 0f3a 01       		.uleb128 0x1
 5280 0f3b 53       		.byte	0x53
 5281 0f3c 02       		.uleb128 0x2
 5282 0f3d 74       		.byte	0x74
 5283 0f3e 00       		.sleb128 0
 5284 0f3f 00       		.byte	0
 5285 0f40 21       		.uleb128 0x21
 5286 0f41 78010000 		.4byte	.LVL202
 5287 0f45 740D0000 		.4byte	0xd74
 5288 0f49 1B       		.uleb128 0x1b
 5289 0f4a 01       		.uleb128 0x1
 5290 0f4b 50       		.byte	0x50
 5291 0f4c 01       		.uleb128 0x1
 5292 0f4d 34       		.byte	0x34
 5293 0f4e 1B       		.uleb128 0x1b
 5294 0f4f 01       		.uleb128 0x1
 5295 0f50 51       		.byte	0x51
 5296 0f51 02       		.uleb128 0x2
 5297 0f52 91       		.byte	0x91
 5298 0f53 4B       		.sleb128 -53
 5299 0f54 1B       		.uleb128 0x1b
 5300 0f55 01       		.uleb128 0x1
 5301 0f56 52       		.byte	0x52
 5302 0f57 01       		.uleb128 0x1
 5303 0f58 31       		.byte	0x31
 5304 0f59 1B       		.uleb128 0x1b
 5305 0f5a 01       		.uleb128 0x1
 5306 0f5b 53       		.byte	0x53
ARM GAS  C:\Users\adria\AppData\Local\Temp\ccOKprka.s 			page 130


 5307 0f5c 02       		.uleb128 0x2
 5308 0f5d 74       		.byte	0x74
 5309 0f5e 00       		.sleb128 0
 5310 0f5f 00       		.byte	0
 5311 0f60 00       		.byte	0
 5312 0f61 17       		.uleb128 0x17
 5313 0f62 CE000000 		.4byte	0xce
 5314 0f66 710F0000 		.4byte	0xf71
 5315 0f6a 18       		.uleb128 0x18
 5316 0f6b EB040000 		.4byte	0x4eb
 5317 0f6f 28       		.byte	0x28
 5318 0f70 00       		.byte	0
 5319 0f71 0E       		.uleb128 0xe
 5320 0f72 13080000 		.4byte	.LASF151
 5321 0f76 01       		.byte	0x1
 5322 0f77 4303     		.2byte	0x343
 5323 0f79 C3000000 		.4byte	0xc3
 5324 0f7d 00000000 		.4byte	.LFB76
 5325 0f81 5C000000 		.4byte	.LFE76-.LFB76
 5326 0f85 01       		.uleb128 0x1
 5327 0f86 9C       		.byte	0x9c
 5328 0f87 49100000 		.4byte	0x1049
 5329 0f8b 15       		.uleb128 0x15
 5330 0f8c 64657600 		.ascii	"dev\000"
 5331 0f90 01       		.byte	0x1
 5332 0f91 4303     		.2byte	0x343
 5333 0f93 67050000 		.4byte	0x567
 5334 0f97 530F0000 		.4byte	.LLST70
 5335 0f9b 11       		.uleb128 0x11
 5336 0f9c 2D070000 		.4byte	.LASF129
 5337 0fa0 01       		.byte	0x1
 5338 0fa1 4503     		.2byte	0x345
 5339 0fa3 C3000000 		.4byte	0xc3
 5340 0fa7 710F0000 		.4byte	.LLST71
 5341 0fab 22       		.uleb128 0x22
 5342 0fac 8A040000 		.4byte	.LASF152
 5343 0fb0 01       		.byte	0x1
 5344 0fb1 4703     		.2byte	0x347
 5345 0fb3 CE000000 		.4byte	0xce
 5346 0fb7 5A       		.byte	0x5a
 5347 0fb8 22       		.uleb128 0x22
 5348 0fb9 94040000 		.4byte	.LASF153
 5349 0fbd 01       		.byte	0x1
 5350 0fbe 4803     		.2byte	0x348
 5351 0fc0 CE000000 		.4byte	0xce
 5352 0fc4 64       		.byte	0x64
 5353 0fc5 16       		.uleb128 0x16
 5354 0fc6 95020000 		.4byte	.LASF141
 5355 0fca 01       		.byte	0x1
 5356 0fcb 4903     		.2byte	0x349
 5357 0fcd CE000000 		.4byte	0xce
 5358 0fd1 02       		.uleb128 0x2
 5359 0fd2 91       		.byte	0x91
 5360 0fd3 77       		.sleb128 -9
 5361 0fd4 1A       		.uleb128 0x1a
 5362 0fd5 10000000 		.4byte	.LVL207
 5363 0fd9 C0080000 		.4byte	0x8c0
ARM GAS  C:\Users\adria\AppData\Local\Temp\ccOKprka.s 			page 131


 5364 0fdd E80F0000 		.4byte	0xfe8
 5365 0fe1 1B       		.uleb128 0x1b
 5366 0fe2 01       		.uleb128 0x1
 5367 0fe3 50       		.byte	0x50
 5368 0fe4 02       		.uleb128 0x2
 5369 0fe5 74       		.byte	0x74
 5370 0fe6 00       		.sleb128 0
 5371 0fe7 00       		.byte	0
 5372 0fe8 1A       		.uleb128 0x1a
 5373 0fe9 20000000 		.4byte	.LVL209
 5374 0fed F9080000 		.4byte	0x8f9
 5375 0ff1 02100000 		.4byte	0x1002
 5376 0ff5 1B       		.uleb128 0x1b
 5377 0ff6 01       		.uleb128 0x1
 5378 0ff7 50       		.byte	0x50
 5379 0ff8 02       		.uleb128 0x2
 5380 0ff9 08       		.byte	0x8
 5381 0ffa 5A       		.byte	0x5a
 5382 0ffb 1B       		.uleb128 0x1b
 5383 0ffc 01       		.uleb128 0x1
 5384 0ffd 51       		.byte	0x51
 5385 0ffe 02       		.uleb128 0x2
 5386 0fff 74       		.byte	0x74
 5387 1000 00       		.sleb128 0
 5388 1001 00       		.byte	0
 5389 1002 1A       		.uleb128 0x1a
 5390 1003 32000000 		.4byte	.LVL212
 5391 1007 740D0000 		.4byte	0xd74
 5392 100b 27100000 		.4byte	0x1027
 5393 100f 1B       		.uleb128 0x1b
 5394 1010 01       		.uleb128 0x1
 5395 1011 50       		.byte	0x50
 5396 1012 02       		.uleb128 0x2
 5397 1013 08       		.byte	0x8
 5398 1014 5A       		.byte	0x5a
 5399 1015 1B       		.uleb128 0x1b
 5400 1016 01       		.uleb128 0x1
 5401 1017 51       		.byte	0x51
 5402 1018 02       		.uleb128 0x2
 5403 1019 91       		.byte	0x91
 5404 101a 77       		.sleb128 -9
 5405 101b 1B       		.uleb128 0x1b
 5406 101c 01       		.uleb128 0x1
 5407 101d 52       		.byte	0x52
 5408 101e 01       		.uleb128 0x1
 5409 101f 31       		.byte	0x31
 5410 1020 1B       		.uleb128 0x1b
 5411 1021 01       		.uleb128 0x1
 5412 1022 53       		.byte	0x53
 5413 1023 02       		.uleb128 0x2
 5414 1024 74       		.byte	0x74
 5415 1025 00       		.sleb128 0
 5416 1026 00       		.byte	0
 5417 1027 21       		.uleb128 0x21
 5418 1028 4A000000 		.4byte	.LVL214
 5419 102c 740D0000 		.4byte	0xd74
 5420 1030 1B       		.uleb128 0x1b
ARM GAS  C:\Users\adria\AppData\Local\Temp\ccOKprka.s 			page 132


 5421 1031 01       		.uleb128 0x1
 5422 1032 50       		.byte	0x50
 5423 1033 02       		.uleb128 0x2
 5424 1034 08       		.byte	0x8
 5425 1035 64       		.byte	0x64
 5426 1036 1B       		.uleb128 0x1b
 5427 1037 01       		.uleb128 0x1
 5428 1038 51       		.byte	0x51
 5429 1039 02       		.uleb128 0x2
 5430 103a 91       		.byte	0x91
 5431 103b 77       		.sleb128 -9
 5432 103c 1B       		.uleb128 0x1b
 5433 103d 01       		.uleb128 0x1
 5434 103e 52       		.byte	0x52
 5435 103f 01       		.uleb128 0x1
 5436 1040 31       		.byte	0x31
 5437 1041 1B       		.uleb128 0x1b
 5438 1042 01       		.uleb128 0x1
 5439 1043 53       		.byte	0x53
 5440 1044 02       		.uleb128 0x2
 5441 1045 74       		.byte	0x74
 5442 1046 00       		.sleb128 0
 5443 1047 00       		.byte	0
 5444 1048 00       		.byte	0
 5445 1049 0E       		.uleb128 0xe
 5446 104a 13060000 		.4byte	.LASF154
 5447 104e 01       		.byte	0x1
 5448 104f B504     		.2byte	0x4b5
 5449 1051 C3000000 		.4byte	0xc3
 5450 1055 00000000 		.4byte	.LFB83
 5451 1059 EC000000 		.4byte	.LFE83-.LFB83
 5452 105d 01       		.uleb128 0x1
 5453 105e 9C       		.byte	0x9c
 5454 105f AC110000 		.4byte	0x11ac
 5455 1063 0F       		.uleb128 0xf
 5456 1064 B9040000 		.4byte	.LASF135
 5457 1068 01       		.byte	0x1
 5458 1069 B504     		.2byte	0x4b5
 5459 106b 9E0A0000 		.4byte	0xa9e
 5460 106f B00F0000 		.4byte	.LLST72
 5461 1073 15       		.uleb128 0x15
 5462 1074 64657600 		.ascii	"dev\000"
 5463 1078 01       		.byte	0x1
 5464 1079 B504     		.2byte	0x4b5
 5465 107b 67050000 		.4byte	0x567
 5466 107f CE0F0000 		.4byte	.LLST73
 5467 1083 16       		.uleb128 0x16
 5468 1084 2D070000 		.4byte	.LASF129
 5469 1088 01       		.byte	0x1
 5470 1089 B704     		.2byte	0x4b7
 5471 108b C3000000 		.4byte	0xc3
 5472 108f 01       		.uleb128 0x1
 5473 1090 56       		.byte	0x56
 5474 1091 16       		.uleb128 0x16
 5475 1092 85040000 		.4byte	.LASF155
 5476 1096 01       		.byte	0x1
 5477 1097 B804     		.2byte	0x4b8
ARM GAS  C:\Users\adria\AppData\Local\Temp\ccOKprka.s 			page 133


 5478 1099 AC110000 		.4byte	0x11ac
 5479 109d 02       		.uleb128 0x2
 5480 109e 91       		.byte	0x91
 5481 109f 48       		.sleb128 -56
 5482 10a0 11       		.uleb128 0x11
 5483 10a1 7C010000 		.4byte	.LASF116
 5484 10a5 01       		.byte	0x1
 5485 10a6 B904     		.2byte	0x4b9
 5486 10a8 CE000000 		.4byte	0xce
 5487 10ac EC0F0000 		.4byte	.LLST74
 5488 10b0 11       		.uleb128 0x11
 5489 10b1 0A060000 		.4byte	.LASF156
 5490 10b5 01       		.byte	0x1
 5491 10b6 BA04     		.2byte	0x4ba
 5492 10b8 FA000000 		.4byte	0xfa
 5493 10bc FF0F0000 		.4byte	.LLST75
 5494 10c0 11       		.uleb128 0x11
 5495 10c1 F1080000 		.4byte	.LASF157
 5496 10c5 01       		.byte	0x1
 5497 10c6 BB04     		.2byte	0x4bb
 5498 10c8 FA000000 		.4byte	0xfa
 5499 10cc 1D100000 		.4byte	.LLST76
 5500 10d0 11       		.uleb128 0x11
 5501 10d1 56050000 		.4byte	.LASF158
 5502 10d5 01       		.byte	0x1
 5503 10d6 BC04     		.2byte	0x4bc
 5504 10d8 E4000000 		.4byte	0xe4
 5505 10dc 30100000 		.4byte	.LLST77
 5506 10e0 11       		.uleb128 0x11
 5507 10e1 45050000 		.4byte	.LASF159
 5508 10e5 01       		.byte	0x1
 5509 10e6 BD04     		.2byte	0x4bd
 5510 10e8 E4000000 		.4byte	0xe4
 5511 10ec 43100000 		.4byte	.LLST78
 5512 10f0 11       		.uleb128 0x11
 5513 10f1 E4080000 		.4byte	.LASF160
 5514 10f5 01       		.byte	0x1
 5515 10f6 BE04     		.2byte	0x4be
 5516 10f8 CE000000 		.4byte	0xce
 5517 10fc 56100000 		.4byte	.LLST79
 5518 1100 1A       		.uleb128 0x1a
 5519 1101 1C000000 		.4byte	.LVL219
 5520 1105 C0080000 		.4byte	0x8c0
 5521 1109 14110000 		.4byte	0x1114
 5522 110d 1B       		.uleb128 0x1b
 5523 110e 01       		.uleb128 0x1
 5524 110f 50       		.byte	0x50
 5525 1110 02       		.uleb128 0x2
 5526 1111 7A       		.byte	0x7a
 5527 1112 00       		.sleb128 0
 5528 1113 00       		.byte	0
 5529 1114 1A       		.uleb128 0x1a
 5530 1115 30000000 		.4byte	.LVL222
 5531 1119 740D0000 		.4byte	0xd74
 5532 111d 38110000 		.4byte	0x1138
 5533 1121 1B       		.uleb128 0x1b
 5534 1122 01       		.uleb128 0x1
ARM GAS  C:\Users\adria\AppData\Local\Temp\ccOKprka.s 			page 134


 5535 1123 50       		.byte	0x50
 5536 1124 01       		.uleb128 0x1
 5537 1125 4D       		.byte	0x4d
 5538 1126 1B       		.uleb128 0x1b
 5539 1127 01       		.uleb128 0x1
 5540 1128 51       		.byte	0x51
 5541 1129 02       		.uleb128 0x2
 5542 112a 7D       		.byte	0x7d
 5543 112b 00       		.sleb128 0
 5544 112c 1B       		.uleb128 0x1b
 5545 112d 01       		.uleb128 0x1
 5546 112e 52       		.byte	0x52
 5547 112f 01       		.uleb128 0x1
 5548 1130 3F       		.byte	0x3f
 5549 1131 1B       		.uleb128 0x1b
 5550 1132 01       		.uleb128 0x1
 5551 1133 53       		.byte	0x53
 5552 1134 02       		.uleb128 0x2
 5553 1135 7A       		.byte	0x7a
 5554 1136 00       		.sleb128 0
 5555 1137 00       		.byte	0
 5556 1138 1A       		.uleb128 0x1a
 5557 1139 AC000000 		.4byte	.LVL229
 5558 113d F2040000 		.4byte	0x4f2
 5559 1141 4C110000 		.4byte	0x114c
 5560 1145 1B       		.uleb128 0x1b
 5561 1146 01       		.uleb128 0x1
 5562 1147 51       		.byte	0x51
 5563 1148 02       		.uleb128 0x2
 5564 1149 7A       		.byte	0x7a
 5565 114a 00       		.sleb128 0
 5566 114b 00       		.byte	0
 5567 114c 1A       		.uleb128 0x1a
 5568 114d B6000000 		.4byte	.LVL230
 5569 1151 6D050000 		.4byte	0x56d
 5570 1155 66110000 		.4byte	0x1166
 5571 1159 1B       		.uleb128 0x1b
 5572 115a 01       		.uleb128 0x1
 5573 115b 50       		.byte	0x50
 5574 115c 02       		.uleb128 0x2
 5575 115d 75       		.byte	0x75
 5576 115e 00       		.sleb128 0
 5577 115f 1B       		.uleb128 0x1b
 5578 1160 01       		.uleb128 0x1
 5579 1161 51       		.byte	0x51
 5580 1162 02       		.uleb128 0x2
 5581 1163 7A       		.byte	0x7a
 5582 1164 00       		.sleb128 0
 5583 1165 00       		.byte	0
 5584 1166 1A       		.uleb128 0x1a
 5585 1167 C0000000 		.4byte	.LVL231
 5586 116b F1050000 		.4byte	0x5f1
 5587 116f 80110000 		.4byte	0x1180
 5588 1173 1B       		.uleb128 0x1b
 5589 1174 01       		.uleb128 0x1
 5590 1175 50       		.byte	0x50
 5591 1176 02       		.uleb128 0x2
ARM GAS  C:\Users\adria\AppData\Local\Temp\ccOKprka.s 			page 135


 5592 1177 79       		.byte	0x79
 5593 1178 00       		.sleb128 0
 5594 1179 1B       		.uleb128 0x1b
 5595 117a 01       		.uleb128 0x1
 5596 117b 51       		.byte	0x51
 5597 117c 02       		.uleb128 0x2
 5598 117d 7A       		.byte	0x7a
 5599 117e 00       		.sleb128 0
 5600 117f 00       		.byte	0
 5601 1180 1A       		.uleb128 0x1a
 5602 1181 CC000000 		.4byte	.LVL232
 5603 1185 AA060000 		.4byte	0x6aa
 5604 1189 A0110000 		.4byte	0x11a0
 5605 118d 1B       		.uleb128 0x1b
 5606 118e 01       		.uleb128 0x1
 5607 118f 50       		.byte	0x50
 5608 1190 02       		.uleb128 0x2
 5609 1191 78       		.byte	0x78
 5610 1192 00       		.sleb128 0
 5611 1193 1B       		.uleb128 0x1b
 5612 1194 01       		.uleb128 0x1
 5613 1195 51       		.byte	0x51
 5614 1196 02       		.uleb128 0x2
 5615 1197 7B       		.byte	0x7b
 5616 1198 00       		.sleb128 0
 5617 1199 1B       		.uleb128 0x1b
 5618 119a 01       		.uleb128 0x1
 5619 119b 52       		.byte	0x52
 5620 119c 02       		.uleb128 0x2
 5621 119d 7A       		.byte	0x7a
 5622 119e 00       		.sleb128 0
 5623 119f 00       		.byte	0
 5624 11a0 27       		.uleb128 0x27
 5625 11a1 D8000000 		.4byte	.LVL235
 5626 11a5 1B       		.uleb128 0x1b
 5627 11a6 01       		.uleb128 0x1
 5628 11a7 50       		.byte	0x50
 5629 11a8 01       		.uleb128 0x1
 5630 11a9 3A       		.byte	0x3a
 5631 11aa 00       		.byte	0
 5632 11ab 00       		.byte	0
 5633 11ac 17       		.uleb128 0x17
 5634 11ad CE000000 		.4byte	0xce
 5635 11b1 BC110000 		.4byte	0x11bc
 5636 11b5 18       		.uleb128 0x18
 5637 11b6 EB040000 		.4byte	0x4eb
 5638 11ba 0E       		.byte	0xe
 5639 11bb 00       		.byte	0
 5640 11bc 26       		.uleb128 0x26
 5641 11bd AA000000 		.4byte	.LASF162
 5642 11c1 01       		.byte	0x1
 5643 11c2 5001     		.2byte	0x150
 5644 11c4 C3000000 		.4byte	0xc3
 5645 11c8 00000000 		.4byte	.LFB65
 5646 11cc A8000000 		.4byte	.LFE65-.LFB65
 5647 11d0 01       		.uleb128 0x1
 5648 11d1 9C       		.byte	0x9c
ARM GAS  C:\Users\adria\AppData\Local\Temp\ccOKprka.s 			page 136


 5649 11d2 AC120000 		.4byte	0x12ac
 5650 11d6 0F       		.uleb128 0xf
 5651 11d7 1B070000 		.4byte	.LASF132
 5652 11db 01       		.byte	0x1
 5653 11dc 5001     		.2byte	0x150
 5654 11de AC120000 		.4byte	0x12ac
 5655 11e2 8B100000 		.4byte	.LLST80
 5656 11e6 0F       		.uleb128 0xf
 5657 11e7 95020000 		.4byte	.LASF141
 5658 11eb 01       		.byte	0x1
 5659 11ec 5001     		.2byte	0x150
 5660 11ee AC120000 		.4byte	0x12ac
 5661 11f2 A9100000 		.4byte	.LLST81
 5662 11f6 15       		.uleb128 0x15
 5663 11f7 6C656E00 		.ascii	"len\000"
 5664 11fb 01       		.byte	0x1
 5665 11fc 5001     		.2byte	0x150
 5666 11fe CE000000 		.4byte	0xce
 5667 1202 C7100000 		.4byte	.LLST82
 5668 1206 15       		.uleb128 0x15
 5669 1207 64657600 		.ascii	"dev\000"
 5670 120b 01       		.byte	0x1
 5671 120c 5001     		.2byte	0x150
 5672 120e 67050000 		.4byte	0x567
 5673 1212 E8100000 		.4byte	.LLST83
 5674 1216 11       		.uleb128 0x11
 5675 1217 2D070000 		.4byte	.LASF129
 5676 121b 01       		.byte	0x1
 5677 121c 5201     		.2byte	0x152
 5678 121e C3000000 		.4byte	0xc3
 5679 1222 06110000 		.4byte	.LLST84
 5680 1226 16       		.uleb128 0x16
 5681 1227 65080000 		.4byte	.LASF163
 5682 122b 01       		.byte	0x1
 5683 122c 5401     		.2byte	0x154
 5684 122e B7120000 		.4byte	0x12b7
 5685 1232 03       		.uleb128 0x3
 5686 1233 91       		.byte	0x91
 5687 1234 B87F     		.sleb128 -72
 5688 1236 11       		.uleb128 0x11
 5689 1237 FD010000 		.4byte	.LASF164
 5690 123b 01       		.byte	0x1
 5691 123c 5501     		.2byte	0x155
 5692 123e E4000000 		.4byte	0xe4
 5693 1242 3A110000 		.4byte	.LLST85
 5694 1246 1A       		.uleb128 0x1a
 5695 1247 18000000 		.4byte	.LVL243
 5696 124b 5F1E0000 		.4byte	0x1e5f
 5697 124f 65120000 		.4byte	0x1265
 5698 1253 1B       		.uleb128 0x1b
 5699 1254 01       		.uleb128 0x1
 5700 1255 50       		.byte	0x50
 5701 1256 02       		.uleb128 0x2
 5702 1257 7D       		.byte	0x7d
 5703 1258 00       		.sleb128 0
 5704 1259 1B       		.uleb128 0x1b
 5705 125a 01       		.uleb128 0x1
ARM GAS  C:\Users\adria\AppData\Local\Temp\ccOKprka.s 			page 137


 5706 125b 51       		.byte	0x51
 5707 125c 01       		.uleb128 0x1
 5708 125d 30       		.byte	0x30
 5709 125e 1B       		.uleb128 0x1b
 5710 125f 01       		.uleb128 0x1
 5711 1260 52       		.byte	0x52
 5712 1261 02       		.uleb128 0x2
 5713 1262 08       		.byte	0x8
 5714 1263 28       		.byte	0x28
 5715 1264 00       		.byte	0
 5716 1265 1A       		.uleb128 0x1a
 5717 1266 1E000000 		.4byte	.LVL244
 5718 126a C0080000 		.4byte	0x8c0
 5719 126e 79120000 		.4byte	0x1279
 5720 1272 1B       		.uleb128 0x1b
 5721 1273 01       		.uleb128 0x1
 5722 1274 50       		.byte	0x50
 5723 1275 02       		.uleb128 0x2
 5724 1276 75       		.byte	0x75
 5725 1277 00       		.sleb128 0
 5726 1278 00       		.byte	0
 5727 1279 1A       		.uleb128 0x1a
 5728 127a 3E000000 		.4byte	.LVL246
 5729 127e F9080000 		.4byte	0x8f9
 5730 1282 8D120000 		.4byte	0x128d
 5731 1286 1B       		.uleb128 0x1b
 5732 1287 01       		.uleb128 0x1
 5733 1288 51       		.byte	0x51
 5734 1289 02       		.uleb128 0x2
 5735 128a 75       		.byte	0x75
 5736 128b 00       		.sleb128 0
 5737 128c 00       		.byte	0
 5738 128d 1D       		.uleb128 0x1d
 5739 128e 96000000 		.4byte	.LVL253
 5740 1292 02       		.uleb128 0x2
 5741 1293 74       		.byte	0x74
 5742 1294 00       		.sleb128 0
 5743 1295 1B       		.uleb128 0x1b
 5744 1296 01       		.uleb128 0x1
 5745 1297 52       		.byte	0x52
 5746 1298 03       		.uleb128 0x3
 5747 1299 91       		.byte	0x91
 5748 129a B97F     		.sleb128 -71
 5749 129c 1B       		.uleb128 0x1b
 5750 129d 01       		.uleb128 0x1
 5751 129e 53       		.byte	0x53
 5752 129f 0A       		.uleb128 0xa
 5753 12a0 77       		.byte	0x77
 5754 12a1 00       		.sleb128 0
 5755 12a2 0A       		.byte	0xa
 5756 12a3 FFFF     		.2byte	0xffff
 5757 12a5 1A       		.byte	0x1a
 5758 12a6 31       		.byte	0x31
 5759 12a7 24       		.byte	0x24
 5760 12a8 31       		.byte	0x31
 5761 12a9 1C       		.byte	0x1c
 5762 12aa 00       		.byte	0
ARM GAS  C:\Users\adria\AppData\Local\Temp\ccOKprka.s 			page 138


 5763 12ab 00       		.byte	0
 5764 12ac 06       		.uleb128 0x6
 5765 12ad 04       		.byte	0x4
 5766 12ae B2120000 		.4byte	0x12b2
 5767 12b2 13       		.uleb128 0x13
 5768 12b3 CE000000 		.4byte	0xce
 5769 12b7 17       		.uleb128 0x17
 5770 12b8 CE000000 		.4byte	0xce
 5771 12bc C7120000 		.4byte	0x12c7
 5772 12c0 18       		.uleb128 0x18
 5773 12c1 EB040000 		.4byte	0x4eb
 5774 12c5 27       		.byte	0x27
 5775 12c6 00       		.byte	0
 5776 12c7 0E       		.uleb128 0xe
 5777 12c8 BB060000 		.4byte	.LASF165
 5778 12cc 01       		.byte	0x1
 5779 12cd 2303     		.2byte	0x323
 5780 12cf C3000000 		.4byte	0xc3
 5781 12d3 00000000 		.4byte	.LFB75
 5782 12d7 66000000 		.4byte	.LFE75-.LFB75
 5783 12db 01       		.uleb128 0x1
 5784 12dc 9C       		.byte	0x9c
 5785 12dd 7C130000 		.4byte	0x137c
 5786 12e1 15       		.uleb128 0x15
 5787 12e2 64657600 		.ascii	"dev\000"
 5788 12e6 01       		.byte	0x1
 5789 12e7 2303     		.2byte	0x323
 5790 12e9 67050000 		.4byte	0x567
 5791 12ed 63110000 		.4byte	.LLST86
 5792 12f1 11       		.uleb128 0x11
 5793 12f2 2D070000 		.4byte	.LASF129
 5794 12f6 01       		.byte	0x1
 5795 12f7 2503     		.2byte	0x325
 5796 12f9 C3000000 		.4byte	0xc3
 5797 12fd 81110000 		.4byte	.LLST87
 5798 1301 25       		.uleb128 0x25
 5799 1302 0E000000 		.4byte	.LBB3
 5800 1306 52000000 		.4byte	.LBE3-.LBB3
 5801 130a 6B130000 		.4byte	0x136b
 5802 130e 16       		.uleb128 0x16
 5803 130f 1B070000 		.4byte	.LASF132
 5804 1313 01       		.byte	0x1
 5805 1314 2B03     		.2byte	0x32b
 5806 1316 7C130000 		.4byte	0x137c
 5807 131a 02       		.uleb128 0x2
 5808 131b 91       		.byte	0x91
 5809 131c 68       		.sleb128 -24
 5810 131d 16       		.uleb128 0x16
 5811 131e 95020000 		.4byte	.LASF141
 5812 1322 01       		.byte	0x1
 5813 1323 2C03     		.2byte	0x32c
 5814 1325 7C130000 		.4byte	0x137c
 5815 1329 02       		.uleb128 0x2
 5816 132a 91       		.byte	0x91
 5817 132b 6C       		.sleb128 -20
 5818 132c 1A       		.uleb128 0x1a
 5819 132d 30000000 		.4byte	.LVL258
ARM GAS  C:\Users\adria\AppData\Local\Temp\ccOKprka.s 			page 139


 5820 1331 63070000 		.4byte	0x763
 5821 1335 40130000 		.4byte	0x1340
 5822 1339 1B       		.uleb128 0x1b
 5823 133a 01       		.uleb128 0x1
 5824 133b 51       		.byte	0x51
 5825 133c 02       		.uleb128 0x2
 5826 133d 75       		.byte	0x75
 5827 133e 00       		.sleb128 0
 5828 133f 00       		.byte	0
 5829 1340 28       		.uleb128 0x28
 5830 1341 42000000 		.4byte	.LVL259
 5831 1345 0C080000 		.4byte	0x80c
 5832 1349 21       		.uleb128 0x21
 5833 134a 5E000000 		.4byte	.LVL262
 5834 134e BC110000 		.4byte	0x11bc
 5835 1352 1B       		.uleb128 0x1b
 5836 1353 01       		.uleb128 0x1
 5837 1354 50       		.byte	0x50
 5838 1355 02       		.uleb128 0x2
 5839 1356 7D       		.byte	0x7d
 5840 1357 00       		.sleb128 0
 5841 1358 1B       		.uleb128 0x1b
 5842 1359 01       		.uleb128 0x1
 5843 135a 51       		.byte	0x51
 5844 135b 02       		.uleb128 0x2
 5845 135c 91       		.byte	0x91
 5846 135d 6C       		.sleb128 -20
 5847 135e 1B       		.uleb128 0x1b
 5848 135f 01       		.uleb128 0x1
 5849 1360 52       		.byte	0x52
 5850 1361 01       		.uleb128 0x1
 5851 1362 32       		.byte	0x32
 5852 1363 1B       		.uleb128 0x1b
 5853 1364 01       		.uleb128 0x1
 5854 1365 53       		.byte	0x53
 5855 1366 02       		.uleb128 0x2
 5856 1367 75       		.byte	0x75
 5857 1368 00       		.sleb128 0
 5858 1369 00       		.byte	0
 5859 136a 00       		.byte	0
 5860 136b 21       		.uleb128 0x21
 5861 136c 0A000000 		.4byte	.LVL256
 5862 1370 C0080000 		.4byte	0x8c0
 5863 1374 1B       		.uleb128 0x1b
 5864 1375 01       		.uleb128 0x1
 5865 1376 50       		.byte	0x50
 5866 1377 02       		.uleb128 0x2
 5867 1378 75       		.byte	0x75
 5868 1379 00       		.sleb128 0
 5869 137a 00       		.byte	0
 5870 137b 00       		.byte	0
 5871 137c 17       		.uleb128 0x17
 5872 137d CE000000 		.4byte	0xce
 5873 1381 8C130000 		.4byte	0x138c
 5874 1385 18       		.uleb128 0x18
 5875 1386 EB040000 		.4byte	0x4eb
 5876 138a 01       		.byte	0x1
ARM GAS  C:\Users\adria\AppData\Local\Temp\ccOKprka.s 			page 140


 5877 138b 00       		.byte	0
 5878 138c 26       		.uleb128 0x26
 5879 138d 6B060000 		.4byte	.LASF166
 5880 1391 01       		.byte	0x1
 5881 1392 7701     		.2byte	0x177
 5882 1394 C3000000 		.4byte	0xc3
 5883 1398 00000000 		.4byte	.LFB66
 5884 139c 54000000 		.4byte	.LFE66-.LFB66
 5885 13a0 01       		.uleb128 0x1
 5886 13a1 9C       		.byte	0x9c
 5887 13a2 51140000 		.4byte	0x1451
 5888 13a6 15       		.uleb128 0x15
 5889 13a7 64657600 		.ascii	"dev\000"
 5890 13ab 01       		.byte	0x1
 5891 13ac 7701     		.2byte	0x177
 5892 13ae 67050000 		.4byte	0x567
 5893 13b2 AA110000 		.4byte	.LLST88
 5894 13b6 11       		.uleb128 0x11
 5895 13b7 2D070000 		.4byte	.LASF129
 5896 13bb 01       		.byte	0x1
 5897 13bc 7901     		.2byte	0x179
 5898 13be C3000000 		.4byte	0xc3
 5899 13c2 C8110000 		.4byte	.LLST89
 5900 13c6 16       		.uleb128 0x16
 5901 13c7 1B070000 		.4byte	.LASF132
 5902 13cb 01       		.byte	0x1
 5903 13cc 7A01     		.2byte	0x17a
 5904 13ce CE000000 		.4byte	0xce
 5905 13d2 02       		.uleb128 0x2
 5906 13d3 91       		.byte	0x91
 5907 13d4 6F       		.sleb128 -17
 5908 13d5 16       		.uleb128 0x16
 5909 13d6 BE030000 		.4byte	.LASF167
 5910 13da 01       		.byte	0x1
 5911 13db 7C01     		.2byte	0x17c
 5912 13dd CE000000 		.4byte	0xce
 5913 13e1 02       		.uleb128 0x2
 5914 13e2 91       		.byte	0x91
 5915 13e3 6E       		.sleb128 -18
 5916 13e4 1A       		.uleb128 0x1a
 5917 13e5 16000000 		.4byte	.LVL265
 5918 13e9 C0080000 		.4byte	0x8c0
 5919 13ed F8130000 		.4byte	0x13f8
 5920 13f1 1B       		.uleb128 0x1b
 5921 13f2 01       		.uleb128 0x1
 5922 13f3 50       		.byte	0x50
 5923 13f4 02       		.uleb128 0x2
 5924 13f5 75       		.byte	0x75
 5925 13f6 00       		.sleb128 0
 5926 13f7 00       		.byte	0
 5927 13f8 1A       		.uleb128 0x1a
 5928 13f9 24000000 		.4byte	.LVL267
 5929 13fd AF090000 		.4byte	0x9af
 5930 1401 0C140000 		.4byte	0x140c
 5931 1405 1B       		.uleb128 0x1b
 5932 1406 01       		.uleb128 0x1
 5933 1407 50       		.byte	0x50
ARM GAS  C:\Users\adria\AppData\Local\Temp\ccOKprka.s 			page 141


 5934 1408 02       		.uleb128 0x2
 5935 1409 75       		.byte	0x75
 5936 140a 00       		.sleb128 0
 5937 140b 00       		.byte	0
 5938 140c 1A       		.uleb128 0x1a
 5939 140d 38000000 		.4byte	.LVL269
 5940 1411 BC110000 		.4byte	0x11bc
 5941 1415 31140000 		.4byte	0x1431
 5942 1419 1B       		.uleb128 0x1b
 5943 141a 01       		.uleb128 0x1
 5944 141b 50       		.byte	0x50
 5945 141c 02       		.uleb128 0x2
 5946 141d 91       		.byte	0x91
 5947 141e 6F       		.sleb128 -17
 5948 141f 1B       		.uleb128 0x1b
 5949 1420 01       		.uleb128 0x1
 5950 1421 51       		.byte	0x51
 5951 1422 02       		.uleb128 0x2
 5952 1423 91       		.byte	0x91
 5953 1424 6E       		.sleb128 -18
 5954 1425 1B       		.uleb128 0x1b
 5955 1426 01       		.uleb128 0x1
 5956 1427 52       		.byte	0x52
 5957 1428 01       		.uleb128 0x1
 5958 1429 31       		.byte	0x31
 5959 142a 1B       		.uleb128 0x1b
 5960 142b 01       		.uleb128 0x1
 5961 142c 53       		.byte	0x53
 5962 142d 02       		.uleb128 0x2
 5963 142e 75       		.byte	0x75
 5964 142f 00       		.sleb128 0
 5965 1430 00       		.byte	0
 5966 1431 29       		.uleb128 0x29
 5967 1432 40000000 		.4byte	.LVL271
 5968 1436 40140000 		.4byte	0x1440
 5969 143a 1B       		.uleb128 0x1b
 5970 143b 01       		.uleb128 0x1
 5971 143c 50       		.byte	0x50
 5972 143d 01       		.uleb128 0x1
 5973 143e 3A       		.byte	0x3a
 5974 143f 00       		.byte	0
 5975 1440 21       		.uleb128 0x21
 5976 1441 4C000000 		.4byte	.LVL272
 5977 1445 AF090000 		.4byte	0x9af
 5978 1449 1B       		.uleb128 0x1b
 5979 144a 01       		.uleb128 0x1
 5980 144b 50       		.byte	0x50
 5981 144c 02       		.uleb128 0x2
 5982 144d 75       		.byte	0x75
 5983 144e 00       		.sleb128 0
 5984 144f 00       		.byte	0
 5985 1450 00       		.byte	0
 5986 1451 26       		.uleb128 0x26
 5987 1452 70070000 		.4byte	.LASF168
 5988 1456 01       		.byte	0x1
 5989 1457 1B01     		.2byte	0x11b
 5990 1459 C3000000 		.4byte	0xc3
ARM GAS  C:\Users\adria\AppData\Local\Temp\ccOKprka.s 			page 142


 5991 145d 00000000 		.4byte	.LFB63
 5992 1461 3E000000 		.4byte	.LFE63-.LFB63
 5993 1465 01       		.uleb128 0x1
 5994 1466 9C       		.byte	0x9c
 5995 1467 E9140000 		.4byte	0x14e9
 5996 146b 15       		.uleb128 0x15
 5997 146c 64657600 		.ascii	"dev\000"
 5998 1470 01       		.byte	0x1
 5999 1471 1B01     		.2byte	0x11b
 6000 1473 67050000 		.4byte	0x567
 6001 1477 E6110000 		.4byte	.LLST90
 6002 147b 11       		.uleb128 0x11
 6003 147c 2D070000 		.4byte	.LASF129
 6004 1480 01       		.byte	0x1
 6005 1481 1D01     		.2byte	0x11d
 6006 1483 C3000000 		.4byte	0xc3
 6007 1487 04120000 		.4byte	.LLST91
 6008 148b 1A       		.uleb128 0x1a
 6009 148c 08000000 		.4byte	.LVL275
 6010 1490 C0080000 		.4byte	0x8c0
 6011 1494 9F140000 		.4byte	0x149f
 6012 1498 1B       		.uleb128 0x1b
 6013 1499 01       		.uleb128 0x1
 6014 149a 50       		.byte	0x50
 6015 149b 02       		.uleb128 0x2
 6016 149c 74       		.byte	0x74
 6017 149d 00       		.sleb128 0
 6018 149e 00       		.byte	0
 6019 149f 1A       		.uleb128 0x1a
 6020 14a0 12000000 		.4byte	.LVL277
 6021 14a4 8C130000 		.4byte	0x138c
 6022 14a8 B3140000 		.4byte	0x14b3
 6023 14ac 1B       		.uleb128 0x1b
 6024 14ad 01       		.uleb128 0x1
 6025 14ae 50       		.byte	0x50
 6026 14af 02       		.uleb128 0x2
 6027 14b0 74       		.byte	0x74
 6028 14b1 00       		.sleb128 0
 6029 14b2 00       		.byte	0
 6030 14b3 1A       		.uleb128 0x1a
 6031 14b4 22000000 		.4byte	.LVL279
 6032 14b8 740D0000 		.4byte	0xd74
 6033 14bc D8140000 		.4byte	0x14d8
 6034 14c0 1B       		.uleb128 0x1b
 6035 14c1 01       		.uleb128 0x1
 6036 14c2 50       		.byte	0x50
 6037 14c3 02       		.uleb128 0x2
 6038 14c4 09       		.byte	0x9
 6039 14c5 D0       		.byte	0xd0
 6040 14c6 1B       		.uleb128 0x1b
 6041 14c7 01       		.uleb128 0x1
 6042 14c8 51       		.byte	0x51
 6043 14c9 02       		.uleb128 0x2
 6044 14ca 74       		.byte	0x74
 6045 14cb 00       		.sleb128 0
 6046 14cc 1B       		.uleb128 0x1b
 6047 14cd 01       		.uleb128 0x1
ARM GAS  C:\Users\adria\AppData\Local\Temp\ccOKprka.s 			page 143


 6048 14ce 52       		.byte	0x52
 6049 14cf 01       		.uleb128 0x1
 6050 14d0 31       		.byte	0x31
 6051 14d1 1B       		.uleb128 0x1b
 6052 14d2 01       		.uleb128 0x1
 6053 14d3 53       		.byte	0x53
 6054 14d4 02       		.uleb128 0x2
 6055 14d5 74       		.byte	0x74
 6056 14d6 00       		.sleb128 0
 6057 14d7 00       		.byte	0
 6058 14d8 21       		.uleb128 0x21
 6059 14d9 32000000 		.4byte	.LVL281
 6060 14dd 280E0000 		.4byte	0xe28
 6061 14e1 1B       		.uleb128 0x1b
 6062 14e2 01       		.uleb128 0x1
 6063 14e3 50       		.byte	0x50
 6064 14e4 02       		.uleb128 0x2
 6065 14e5 74       		.byte	0x74
 6066 14e6 00       		.sleb128 0
 6067 14e7 00       		.byte	0
 6068 14e8 00       		.byte	0
 6069 14e9 26       		.uleb128 0x26
 6070 14ea A8010000 		.4byte	.LASF169
 6071 14ee 01       		.byte	0x1
 6072 14ef 1502     		.2byte	0x215
 6073 14f1 C3000000 		.4byte	0xc3
 6074 14f5 00000000 		.4byte	.LFB68
 6075 14f9 B6000000 		.4byte	.LFE68-.LFB68
 6076 14fd 01       		.uleb128 0x1
 6077 14fe 9C       		.byte	0x9c
 6078 14ff 99150000 		.4byte	0x1599
 6079 1503 0F       		.uleb128 0xf
 6080 1504 5B010000 		.4byte	.LASF170
 6081 1508 01       		.byte	0x1
 6082 1509 1502     		.2byte	0x215
 6083 150b E4000000 		.4byte	0xe4
 6084 150f 4E120000 		.4byte	.LLST92
 6085 1513 15       		.uleb128 0x15
 6086 1514 64657600 		.ascii	"dev\000"
 6087 1518 01       		.byte	0x1
 6088 1519 1502     		.2byte	0x215
 6089 151b 67050000 		.4byte	0x567
 6090 151f 6F120000 		.4byte	.LLST93
 6091 1523 11       		.uleb128 0x11
 6092 1524 2D070000 		.4byte	.LASF129
 6093 1528 01       		.byte	0x1
 6094 1529 1702     		.2byte	0x217
 6095 152b C3000000 		.4byte	0xc3
 6096 152f 8D120000 		.4byte	.LLST94
 6097 1533 22       		.uleb128 0x22
 6098 1534 1B070000 		.4byte	.LASF132
 6099 1538 01       		.byte	0x1
 6100 1539 1902     		.2byte	0x219
 6101 153b CE000000 		.4byte	0xce
 6102 153f 70       		.byte	0x70
 6103 1540 16       		.uleb128 0x16
 6104 1541 D3010000 		.4byte	.LASF171
ARM GAS  C:\Users\adria\AppData\Local\Temp\ccOKprka.s 			page 144


 6105 1545 01       		.byte	0x1
 6106 1546 1A02     		.2byte	0x21a
 6107 1548 99150000 		.4byte	0x1599
 6108 154c 02       		.uleb128 0x2
 6109 154d 91       		.byte	0x91
 6110 154e 68       		.sleb128 -24
 6111 154f 1A       		.uleb128 0x1a
 6112 1550 16000000 		.4byte	.LVL288
 6113 1554 C0080000 		.4byte	0x8c0
 6114 1558 63150000 		.4byte	0x1563
 6115 155c 1B       		.uleb128 0x1b
 6116 155d 01       		.uleb128 0x1
 6117 155e 50       		.byte	0x50
 6118 155f 02       		.uleb128 0x2
 6119 1560 74       		.byte	0x74
 6120 1561 00       		.sleb128 0
 6121 1562 00       		.byte	0
 6122 1563 1A       		.uleb128 0x1a
 6123 1564 26000000 		.4byte	.LVL290
 6124 1568 740D0000 		.4byte	0xd74
 6125 156c 88150000 		.4byte	0x1588
 6126 1570 1B       		.uleb128 0x1b
 6127 1571 01       		.uleb128 0x1
 6128 1572 50       		.byte	0x50
 6129 1573 02       		.uleb128 0x2
 6130 1574 08       		.byte	0x8
 6131 1575 70       		.byte	0x70
 6132 1576 1B       		.uleb128 0x1b
 6133 1577 01       		.uleb128 0x1
 6134 1578 51       		.byte	0x51
 6135 1579 02       		.uleb128 0x2
 6136 157a 7D       		.byte	0x7d
 6137 157b 00       		.sleb128 0
 6138 157c 1B       		.uleb128 0x1b
 6139 157d 01       		.uleb128 0x1
 6140 157e 52       		.byte	0x52
 6141 157f 01       		.uleb128 0x1
 6142 1580 36       		.byte	0x36
 6143 1581 1B       		.uleb128 0x1b
 6144 1582 01       		.uleb128 0x1
 6145 1583 53       		.byte	0x53
 6146 1584 02       		.uleb128 0x2
 6147 1585 74       		.byte	0x74
 6148 1586 00       		.sleb128 0
 6149 1587 00       		.byte	0
 6150 1588 21       		.uleb128 0x21
 6151 1589 3A000000 		.4byte	.LVL292
 6152 158d 710F0000 		.4byte	0xf71
 6153 1591 1B       		.uleb128 0x1b
 6154 1592 01       		.uleb128 0x1
 6155 1593 50       		.byte	0x50
 6156 1594 02       		.uleb128 0x2
 6157 1595 74       		.byte	0x74
 6158 1596 00       		.sleb128 0
 6159 1597 00       		.byte	0
 6160 1598 00       		.byte	0
 6161 1599 17       		.uleb128 0x17
ARM GAS  C:\Users\adria\AppData\Local\Temp\ccOKprka.s 			page 145


 6162 159a CE000000 		.4byte	0xce
 6163 159e A9150000 		.4byte	0x15a9
 6164 15a2 18       		.uleb128 0x18
 6165 15a3 EB040000 		.4byte	0x4eb
 6166 15a7 05       		.byte	0x5
 6167 15a8 00       		.byte	0
 6168 15a9 26       		.uleb128 0x26
 6169 15aa 3E060000 		.4byte	.LASF172
 6170 15ae 01       		.byte	0x1
 6171 15af 4902     		.2byte	0x249
 6172 15b1 C3000000 		.4byte	0xc3
 6173 15b5 00000000 		.4byte	.LFB69
 6174 15b9 86000000 		.4byte	.LFE69-.LFB69
 6175 15bd 01       		.uleb128 0x1
 6176 15be 9C       		.byte	0x9c
 6177 15bf A0160000 		.4byte	0x16a0
 6178 15c3 15       		.uleb128 0x15
 6179 15c4 64657600 		.ascii	"dev\000"
 6180 15c8 01       		.byte	0x1
 6181 15c9 4902     		.2byte	0x249
 6182 15cb 67050000 		.4byte	0x567
 6183 15cf CC120000 		.4byte	.LLST95
 6184 15d3 11       		.uleb128 0x11
 6185 15d4 2D070000 		.4byte	.LASF129
 6186 15d8 01       		.byte	0x1
 6187 15d9 4B02     		.2byte	0x24b
 6188 15db C3000000 		.4byte	0xc3
 6189 15df EA120000 		.4byte	.LLST96
 6190 15e3 16       		.uleb128 0x16
 6191 15e4 28090000 		.4byte	.LASF173
 6192 15e8 01       		.byte	0x1
 6193 15e9 4C02     		.2byte	0x24c
 6194 15eb CE000000 		.4byte	0xce
 6195 15ef 02       		.uleb128 0x2
 6196 15f0 91       		.byte	0x91
 6197 15f1 6F       		.sleb128 -17
 6198 15f2 11       		.uleb128 0x11
 6199 15f3 E3050000 		.4byte	.LASF174
 6200 15f7 01       		.byte	0x1
 6201 15f8 4D02     		.2byte	0x24d
 6202 15fa CE000000 		.4byte	0xce
 6203 15fe 13130000 		.4byte	.LLST97
 6204 1602 16       		.uleb128 0x16
 6205 1603 1B070000 		.4byte	.LASF132
 6206 1607 01       		.byte	0x1
 6207 1608 4E02     		.2byte	0x24e
 6208 160a CE000000 		.4byte	0xce
 6209 160e 02       		.uleb128 0x2
 6210 160f 91       		.byte	0x91
 6211 1610 6E       		.sleb128 -18
 6212 1611 1A       		.uleb128 0x1a
 6213 1612 10000000 		.4byte	.LVL298
 6214 1616 C0080000 		.4byte	0x8c0
 6215 161a 25160000 		.4byte	0x1625
 6216 161e 1B       		.uleb128 0x1b
 6217 161f 01       		.uleb128 0x1
 6218 1620 50       		.byte	0x50
ARM GAS  C:\Users\adria\AppData\Local\Temp\ccOKprka.s 			page 146


 6219 1621 02       		.uleb128 0x2
 6220 1622 75       		.byte	0x75
 6221 1623 00       		.sleb128 0
 6222 1624 00       		.byte	0
 6223 1625 1A       		.uleb128 0x1a
 6224 1626 24000000 		.4byte	.LVL300
 6225 162a 740D0000 		.4byte	0xd74
 6226 162e 4A160000 		.4byte	0x164a
 6227 1632 1B       		.uleb128 0x1b
 6228 1633 01       		.uleb128 0x1
 6229 1634 50       		.byte	0x50
 6230 1635 02       		.uleb128 0x2
 6231 1636 08       		.byte	0x8
 6232 1637 74       		.byte	0x74
 6233 1638 1B       		.uleb128 0x1b
 6234 1639 01       		.uleb128 0x1
 6235 163a 51       		.byte	0x51
 6236 163b 02       		.uleb128 0x2
 6237 163c 91       		.byte	0x91
 6238 163d 6F       		.sleb128 -17
 6239 163e 1B       		.uleb128 0x1b
 6240 163f 01       		.uleb128 0x1
 6241 1640 52       		.byte	0x52
 6242 1641 01       		.uleb128 0x1
 6243 1642 31       		.byte	0x31
 6244 1643 1B       		.uleb128 0x1b
 6245 1644 01       		.uleb128 0x1
 6246 1645 53       		.byte	0x53
 6247 1646 02       		.uleb128 0x2
 6248 1647 75       		.byte	0x75
 6249 1648 00       		.sleb128 0
 6250 1649 00       		.byte	0
 6251 164a 1A       		.uleb128 0x1a
 6252 164b 48000000 		.4byte	.LVL305
 6253 164f BC110000 		.4byte	0x11bc
 6254 1653 6F160000 		.4byte	0x166f
 6255 1657 1B       		.uleb128 0x1b
 6256 1658 01       		.uleb128 0x1
 6257 1659 50       		.byte	0x50
 6258 165a 02       		.uleb128 0x2
 6259 165b 91       		.byte	0x91
 6260 165c 6E       		.sleb128 -18
 6261 165d 1B       		.uleb128 0x1b
 6262 165e 01       		.uleb128 0x1
 6263 165f 51       		.byte	0x51
 6264 1660 02       		.uleb128 0x2
 6265 1661 91       		.byte	0x91
 6266 1662 6F       		.sleb128 -17
 6267 1663 1B       		.uleb128 0x1b
 6268 1664 01       		.uleb128 0x1
 6269 1665 52       		.byte	0x52
 6270 1666 01       		.uleb128 0x1
 6271 1667 31       		.byte	0x31
 6272 1668 1B       		.uleb128 0x1b
 6273 1669 01       		.uleb128 0x1
 6274 166a 53       		.byte	0x53
 6275 166b 02       		.uleb128 0x2
ARM GAS  C:\Users\adria\AppData\Local\Temp\ccOKprka.s 			page 147


 6276 166c 75       		.byte	0x75
 6277 166d 00       		.sleb128 0
 6278 166e 00       		.byte	0
 6279 166f 29       		.uleb128 0x29
 6280 1670 50000000 		.4byte	.LVL307
 6281 1674 7E160000 		.4byte	0x167e
 6282 1678 1B       		.uleb128 0x1b
 6283 1679 01       		.uleb128 0x1
 6284 167a 50       		.byte	0x50
 6285 167b 01       		.uleb128 0x1
 6286 167c 3A       		.byte	0x3a
 6287 167d 00       		.byte	0
 6288 167e 21       		.uleb128 0x21
 6289 167f 7E000000 		.4byte	.LVL308
 6290 1683 BC110000 		.4byte	0x11bc
 6291 1687 1B       		.uleb128 0x1b
 6292 1688 01       		.uleb128 0x1
 6293 1689 50       		.byte	0x50
 6294 168a 02       		.uleb128 0x2
 6295 168b 91       		.byte	0x91
 6296 168c 6E       		.sleb128 -18
 6297 168d 1B       		.uleb128 0x1b
 6298 168e 01       		.uleb128 0x1
 6299 168f 51       		.byte	0x51
 6300 1690 02       		.uleb128 0x2
 6301 1691 91       		.byte	0x91
 6302 1692 6F       		.sleb128 -17
 6303 1693 1B       		.uleb128 0x1b
 6304 1694 01       		.uleb128 0x1
 6305 1695 52       		.byte	0x52
 6306 1696 01       		.uleb128 0x1
 6307 1697 31       		.byte	0x31
 6308 1698 1B       		.uleb128 0x1b
 6309 1699 01       		.uleb128 0x1
 6310 169a 53       		.byte	0x53
 6311 169b 02       		.uleb128 0x2
 6312 169c 75       		.byte	0x75
 6313 169d 00       		.sleb128 0
 6314 169e 00       		.byte	0
 6315 169f 00       		.byte	0
 6316 16a0 26       		.uleb128 0x26
 6317 16a1 6A090000 		.4byte	.LASF175
 6318 16a5 01       		.byte	0x1
 6319 16a6 9901     		.2byte	0x199
 6320 16a8 C3000000 		.4byte	0xc3
 6321 16ac 00000000 		.4byte	.LFB67
 6322 16b0 68020000 		.4byte	.LFE67-.LFB67
 6323 16b4 01       		.uleb128 0x1
 6324 16b5 9C       		.byte	0x9c
 6325 16b6 35190000 		.4byte	0x1935
 6326 16ba 0F       		.uleb128 0xf
 6327 16bb 5B010000 		.4byte	.LASF170
 6328 16bf 01       		.byte	0x1
 6329 16c0 9901     		.2byte	0x199
 6330 16c2 E4000000 		.4byte	0xe4
 6331 16c6 5D130000 		.4byte	.LLST98
 6332 16ca 15       		.uleb128 0x15
ARM GAS  C:\Users\adria\AppData\Local\Temp\ccOKprka.s 			page 148


 6333 16cb 64657600 		.ascii	"dev\000"
 6334 16cf 01       		.byte	0x1
 6335 16d0 9901     		.2byte	0x199
 6336 16d2 67050000 		.4byte	0x567
 6337 16d6 7E130000 		.4byte	.LLST99
 6338 16da 11       		.uleb128 0x11
 6339 16db 2D070000 		.4byte	.LASF129
 6340 16df 01       		.byte	0x1
 6341 16e0 9B01     		.2byte	0x19b
 6342 16e2 C3000000 		.4byte	0xc3
 6343 16e6 9C130000 		.4byte	.LLST100
 6344 16ea 11       		.uleb128 0x11
 6345 16eb 1B070000 		.4byte	.LASF132
 6346 16ef 01       		.byte	0x1
 6347 16f0 9C01     		.2byte	0x19c
 6348 16f2 CE000000 		.4byte	0xce
 6349 16f6 49140000 		.4byte	.LLST101
 6350 16fa 16       		.uleb128 0x16
 6351 16fb B9040000 		.4byte	.LASF135
 6352 16ff 01       		.byte	0x1
 6353 1700 9D01     		.2byte	0x19d
 6354 1702 CE000000 		.4byte	0xce
 6355 1706 02       		.uleb128 0x2
 6356 1707 91       		.byte	0x91
 6357 1708 67       		.sleb128 -25
 6358 1709 11       		.uleb128 0x11
 6359 170a 57040000 		.4byte	.LASF176
 6360 170e 01       		.byte	0x1
 6361 170f 9E01     		.2byte	0x19e
 6362 1711 CE000000 		.4byte	0xce
 6363 1715 92140000 		.4byte	.LLST102
 6364 1719 16       		.uleb128 0x16
 6365 171a 09000000 		.4byte	.LASF177
 6366 171e 01       		.byte	0x1
 6367 171f 9F01     		.2byte	0x19f
 6368 1721 99150000 		.4byte	0x1599
 6369 1725 02       		.uleb128 0x2
 6370 1726 91       		.byte	0x91
 6371 1727 60       		.sleb128 -32
 6372 1728 16       		.uleb128 0x16
 6373 1729 D3010000 		.4byte	.LASF171
 6374 172d 01       		.byte	0x1
 6375 172e A001     		.2byte	0x1a0
 6376 1730 99150000 		.4byte	0x1599
 6377 1734 02       		.uleb128 0x2
 6378 1735 91       		.byte	0x91
 6379 1736 58       		.sleb128 -40
 6380 1737 16       		.uleb128 0x16
 6381 1738 3F070000 		.4byte	.LASF178
 6382 173c 01       		.byte	0x1
 6383 173d A101     		.2byte	0x1a1
 6384 173f CE000000 		.4byte	0xce
 6385 1743 01       		.uleb128 0x1
 6386 1744 57       		.byte	0x57
 6387 1745 1A       		.uleb128 0x1a
 6388 1746 24000000 		.4byte	.LVL314
 6389 174a C0080000 		.4byte	0x8c0
ARM GAS  C:\Users\adria\AppData\Local\Temp\ccOKprka.s 			page 149


 6390 174e 59170000 		.4byte	0x1759
 6391 1752 1B       		.uleb128 0x1b
 6392 1753 01       		.uleb128 0x1
 6393 1754 50       		.byte	0x50
 6394 1755 02       		.uleb128 0x2
 6395 1756 74       		.byte	0x74
 6396 1757 00       		.sleb128 0
 6397 1758 00       		.byte	0
 6398 1759 1A       		.uleb128 0x1a
 6399 175a 3A000000 		.4byte	.LVL316
 6400 175e C7120000 		.4byte	0x12c7
 6401 1762 6D170000 		.4byte	0x176d
 6402 1766 1B       		.uleb128 0x1b
 6403 1767 01       		.uleb128 0x1
 6404 1768 50       		.byte	0x50
 6405 1769 02       		.uleb128 0x2
 6406 176a 74       		.byte	0x74
 6407 176b 00       		.sleb128 0
 6408 176c 00       		.byte	0
 6409 176d 1A       		.uleb128 0x1a
 6410 176e 4A000000 		.4byte	.LVL318
 6411 1772 A9150000 		.4byte	0x15a9
 6412 1776 81170000 		.4byte	0x1781
 6413 177a 1B       		.uleb128 0x1b
 6414 177b 01       		.uleb128 0x1
 6415 177c 50       		.byte	0x50
 6416 177d 02       		.uleb128 0x2
 6417 177e 74       		.byte	0x74
 6418 177f 00       		.sleb128 0
 6419 1780 00       		.byte	0
 6420 1781 1A       		.uleb128 0x1a
 6421 1782 62000000 		.4byte	.LVL321
 6422 1786 57080000 		.4byte	0x857
 6423 178a A5170000 		.4byte	0x17a5
 6424 178e 1B       		.uleb128 0x1b
 6425 178f 01       		.uleb128 0x1
 6426 1790 50       		.byte	0x50
 6427 1791 02       		.uleb128 0x2
 6428 1792 74       		.byte	0x74
 6429 1793 3B       		.sleb128 59
 6430 1794 1B       		.uleb128 0x1b
 6431 1795 01       		.uleb128 0x1
 6432 1796 51       		.byte	0x51
 6433 1797 01       		.uleb128 0x1
 6434 1798 30       		.byte	0x30
 6435 1799 1B       		.uleb128 0x1b
 6436 179a 01       		.uleb128 0x1
 6437 179b 52       		.byte	0x52
 6438 179c 01       		.uleb128 0x1
 6439 179d 37       		.byte	0x37
 6440 179e 1B       		.uleb128 0x1b
 6441 179f 01       		.uleb128 0x1
 6442 17a0 53       		.byte	0x53
 6443 17a1 02       		.uleb128 0x2
 6444 17a2 74       		.byte	0x74
 6445 17a3 00       		.sleb128 0
 6446 17a4 00       		.byte	0
ARM GAS  C:\Users\adria\AppData\Local\Temp\ccOKprka.s 			page 150


 6447 17a5 1A       		.uleb128 0x1a
 6448 17a6 74000000 		.4byte	.LVL323
 6449 17aa 740D0000 		.4byte	0xd74
 6450 17ae CA170000 		.4byte	0x17ca
 6451 17b2 1B       		.uleb128 0x1b
 6452 17b3 01       		.uleb128 0x1
 6453 17b4 50       		.byte	0x50
 6454 17b5 02       		.uleb128 0x2
 6455 17b6 08       		.byte	0x8
 6456 17b7 75       		.byte	0x75
 6457 17b8 1B       		.uleb128 0x1b
 6458 17b9 01       		.uleb128 0x1
 6459 17ba 51       		.byte	0x51
 6460 17bb 02       		.uleb128 0x2
 6461 17bc 91       		.byte	0x91
 6462 17bd 67       		.sleb128 -25
 6463 17be 1B       		.uleb128 0x1b
 6464 17bf 01       		.uleb128 0x1
 6465 17c0 52       		.byte	0x52
 6466 17c1 01       		.uleb128 0x1
 6467 17c2 31       		.byte	0x31
 6468 17c3 1B       		.uleb128 0x1b
 6469 17c4 01       		.uleb128 0x1
 6470 17c5 53       		.byte	0x53
 6471 17c6 02       		.uleb128 0x2
 6472 17c7 74       		.byte	0x74
 6473 17c8 00       		.sleb128 0
 6474 17c9 00       		.byte	0
 6475 17ca 1A       		.uleb128 0x1a
 6476 17cb BA000000 		.4byte	.LVL329
 6477 17cf 57080000 		.4byte	0x857
 6478 17d3 EE170000 		.4byte	0x17ee
 6479 17d7 1B       		.uleb128 0x1b
 6480 17d8 01       		.uleb128 0x1
 6481 17d9 50       		.byte	0x50
 6482 17da 02       		.uleb128 0x2
 6483 17db 74       		.byte	0x74
 6484 17dc 3D       		.sleb128 61
 6485 17dd 1B       		.uleb128 0x1b
 6486 17de 01       		.uleb128 0x1
 6487 17df 51       		.byte	0x51
 6488 17e0 01       		.uleb128 0x1
 6489 17e1 30       		.byte	0x30
 6490 17e2 1B       		.uleb128 0x1b
 6491 17e3 01       		.uleb128 0x1
 6492 17e4 52       		.byte	0x52
 6493 17e5 01       		.uleb128 0x1
 6494 17e6 38       		.byte	0x38
 6495 17e7 1B       		.uleb128 0x1b
 6496 17e8 01       		.uleb128 0x1
 6497 17e9 53       		.byte	0x53
 6498 17ea 02       		.uleb128 0x2
 6499 17eb 74       		.byte	0x74
 6500 17ec 00       		.sleb128 0
 6501 17ed 00       		.byte	0
 6502 17ee 1A       		.uleb128 0x1a
 6503 17ef CC000000 		.4byte	.LVL331
ARM GAS  C:\Users\adria\AppData\Local\Temp\ccOKprka.s 			page 151


 6504 17f3 740D0000 		.4byte	0xd74
 6505 17f7 13180000 		.4byte	0x1813
 6506 17fb 1B       		.uleb128 0x1b
 6507 17fc 01       		.uleb128 0x1
 6508 17fd 50       		.byte	0x50
 6509 17fe 02       		.uleb128 0x2
 6510 17ff 08       		.byte	0x8
 6511 1800 70       		.byte	0x70
 6512 1801 1B       		.uleb128 0x1b
 6513 1802 01       		.uleb128 0x1
 6514 1803 51       		.byte	0x51
 6515 1804 02       		.uleb128 0x2
 6516 1805 91       		.byte	0x91
 6517 1806 67       		.sleb128 -25
 6518 1807 1B       		.uleb128 0x1b
 6519 1808 01       		.uleb128 0x1
 6520 1809 52       		.byte	0x52
 6521 180a 01       		.uleb128 0x1
 6522 180b 31       		.byte	0x31
 6523 180c 1B       		.uleb128 0x1b
 6524 180d 01       		.uleb128 0x1
 6525 180e 53       		.byte	0x53
 6526 180f 02       		.uleb128 0x2
 6527 1810 74       		.byte	0x74
 6528 1811 00       		.sleb128 0
 6529 1812 00       		.byte	0
 6530 1813 1A       		.uleb128 0x1a
 6531 1814 0A010000 		.4byte	.LVL336
 6532 1818 57080000 		.4byte	0x857
 6533 181c 37180000 		.4byte	0x1837
 6534 1820 1B       		.uleb128 0x1b
 6535 1821 01       		.uleb128 0x1
 6536 1822 50       		.byte	0x50
 6537 1823 02       		.uleb128 0x2
 6538 1824 74       		.byte	0x74
 6539 1825 39       		.sleb128 57
 6540 1826 1B       		.uleb128 0x1b
 6541 1827 01       		.uleb128 0x1
 6542 1828 51       		.byte	0x51
 6543 1829 01       		.uleb128 0x1
 6544 182a 30       		.byte	0x30
 6545 182b 1B       		.uleb128 0x1b
 6546 182c 01       		.uleb128 0x1
 6547 182d 52       		.byte	0x52
 6548 182e 01       		.uleb128 0x1
 6549 182f 35       		.byte	0x35
 6550 1830 1B       		.uleb128 0x1b
 6551 1831 01       		.uleb128 0x1
 6552 1832 53       		.byte	0x53
 6553 1833 02       		.uleb128 0x2
 6554 1834 74       		.byte	0x74
 6555 1835 00       		.sleb128 0
 6556 1836 00       		.byte	0
 6557 1837 1A       		.uleb128 0x1a
 6558 1838 1C010000 		.4byte	.LVL338
 6559 183c 740D0000 		.4byte	0xd74
 6560 1840 5C180000 		.4byte	0x185c
ARM GAS  C:\Users\adria\AppData\Local\Temp\ccOKprka.s 			page 152


 6561 1844 1B       		.uleb128 0x1b
 6562 1845 01       		.uleb128 0x1
 6563 1846 50       		.byte	0x50
 6564 1847 02       		.uleb128 0x2
 6565 1848 08       		.byte	0x8
 6566 1849 74       		.byte	0x74
 6567 184a 1B       		.uleb128 0x1b
 6568 184b 01       		.uleb128 0x1
 6569 184c 51       		.byte	0x51
 6570 184d 02       		.uleb128 0x2
 6571 184e 91       		.byte	0x91
 6572 184f 67       		.sleb128 -25
 6573 1850 1B       		.uleb128 0x1b
 6574 1851 01       		.uleb128 0x1
 6575 1852 52       		.byte	0x52
 6576 1853 01       		.uleb128 0x1
 6577 1854 31       		.byte	0x31
 6578 1855 1B       		.uleb128 0x1b
 6579 1856 01       		.uleb128 0x1
 6580 1857 53       		.byte	0x53
 6581 1858 02       		.uleb128 0x2
 6582 1859 74       		.byte	0x74
 6583 185a 00       		.sleb128 0
 6584 185b 00       		.byte	0
 6585 185c 1A       		.uleb128 0x1a
 6586 185d 84010000 		.4byte	.LVL343
 6587 1861 57080000 		.4byte	0x857
 6588 1865 80180000 		.4byte	0x1880
 6589 1869 1B       		.uleb128 0x1b
 6590 186a 01       		.uleb128 0x1
 6591 186b 50       		.byte	0x50
 6592 186c 02       		.uleb128 0x2
 6593 186d 74       		.byte	0x74
 6594 186e 38       		.sleb128 56
 6595 186f 1B       		.uleb128 0x1b
 6596 1870 01       		.uleb128 0x1
 6597 1871 51       		.byte	0x51
 6598 1872 01       		.uleb128 0x1
 6599 1873 30       		.byte	0x30
 6600 1874 1B       		.uleb128 0x1b
 6601 1875 01       		.uleb128 0x1
 6602 1876 52       		.byte	0x52
 6603 1877 01       		.uleb128 0x1
 6604 1878 35       		.byte	0x35
 6605 1879 1B       		.uleb128 0x1b
 6606 187a 01       		.uleb128 0x1
 6607 187b 53       		.byte	0x53
 6608 187c 02       		.uleb128 0x2
 6609 187d 74       		.byte	0x74
 6610 187e 00       		.sleb128 0
 6611 187f 00       		.byte	0
 6612 1880 1A       		.uleb128 0x1a
 6613 1881 96010000 		.4byte	.LVL345
 6614 1885 740D0000 		.4byte	0xd74
 6615 1889 A5180000 		.4byte	0x18a5
 6616 188d 1B       		.uleb128 0x1b
 6617 188e 01       		.uleb128 0x1
ARM GAS  C:\Users\adria\AppData\Local\Temp\ccOKprka.s 			page 153


 6618 188f 50       		.byte	0x50
 6619 1890 02       		.uleb128 0x2
 6620 1891 08       		.byte	0x8
 6621 1892 72       		.byte	0x72
 6622 1893 1B       		.uleb128 0x1b
 6623 1894 01       		.uleb128 0x1
 6624 1895 51       		.byte	0x51
 6625 1896 02       		.uleb128 0x2
 6626 1897 91       		.byte	0x91
 6627 1898 67       		.sleb128 -25
 6628 1899 1B       		.uleb128 0x1b
 6629 189a 01       		.uleb128 0x1
 6630 189b 52       		.byte	0x52
 6631 189c 01       		.uleb128 0x1
 6632 189d 31       		.byte	0x31
 6633 189e 1B       		.uleb128 0x1b
 6634 189f 01       		.uleb128 0x1
 6635 18a0 53       		.byte	0x53
 6636 18a1 02       		.uleb128 0x2
 6637 18a2 74       		.byte	0x74
 6638 18a3 00       		.sleb128 0
 6639 18a4 00       		.byte	0
 6640 18a5 1A       		.uleb128 0x1a
 6641 18a6 D4010000 		.4byte	.LVL350
 6642 18aa 57080000 		.4byte	0x857
 6643 18ae C9180000 		.4byte	0x18c9
 6644 18b2 1B       		.uleb128 0x1b
 6645 18b3 01       		.uleb128 0x1
 6646 18b4 50       		.byte	0x50
 6647 18b5 02       		.uleb128 0x2
 6648 18b6 74       		.byte	0x74
 6649 18b7 3E       		.sleb128 62
 6650 18b8 1B       		.uleb128 0x1b
 6651 18b9 01       		.uleb128 0x1
 6652 18ba 51       		.byte	0x51
 6653 18bb 01       		.uleb128 0x1
 6654 18bc 30       		.byte	0x30
 6655 18bd 1B       		.uleb128 0x1b
 6656 18be 01       		.uleb128 0x1
 6657 18bf 52       		.byte	0x52
 6658 18c0 01       		.uleb128 0x1
 6659 18c1 31       		.byte	0x31
 6660 18c2 1B       		.uleb128 0x1b
 6661 18c3 01       		.uleb128 0x1
 6662 18c4 53       		.byte	0x53
 6663 18c5 02       		.uleb128 0x2
 6664 18c6 74       		.byte	0x74
 6665 18c7 00       		.sleb128 0
 6666 18c8 00       		.byte	0
 6667 18c9 1A       		.uleb128 0x1a
 6668 18ca E6010000 		.4byte	.LVL352
 6669 18ce 57080000 		.4byte	0x857
 6670 18d2 ED180000 		.4byte	0x18ed
 6671 18d6 1B       		.uleb128 0x1b
 6672 18d7 01       		.uleb128 0x1
 6673 18d8 50       		.byte	0x50
 6674 18d9 02       		.uleb128 0x2
ARM GAS  C:\Users\adria\AppData\Local\Temp\ccOKprka.s 			page 154


 6675 18da 74       		.byte	0x74
 6676 18db 3C       		.sleb128 60
 6677 18dc 1B       		.uleb128 0x1b
 6678 18dd 01       		.uleb128 0x1
 6679 18de 51       		.byte	0x51
 6680 18df 01       		.uleb128 0x1
 6681 18e0 30       		.byte	0x30
 6682 18e1 1B       		.uleb128 0x1b
 6683 18e2 01       		.uleb128 0x1
 6684 18e3 52       		.byte	0x52
 6685 18e4 01       		.uleb128 0x1
 6686 18e5 3A       		.byte	0x3a
 6687 18e6 1B       		.uleb128 0x1b
 6688 18e7 01       		.uleb128 0x1
 6689 18e8 53       		.byte	0x53
 6690 18e9 02       		.uleb128 0x2
 6691 18ea 74       		.byte	0x74
 6692 18eb 00       		.sleb128 0
 6693 18ec 00       		.byte	0
 6694 18ed 1A       		.uleb128 0x1a
 6695 18ee F8010000 		.4byte	.LVL355
 6696 18f2 740D0000 		.4byte	0xd74
 6697 18f6 12190000 		.4byte	0x1912
 6698 18fa 1B       		.uleb128 0x1b
 6699 18fb 01       		.uleb128 0x1
 6700 18fc 50       		.byte	0x50
 6701 18fd 02       		.uleb128 0x2
 6702 18fe 08       		.byte	0x8
 6703 18ff 71       		.byte	0x71
 6704 1900 1B       		.uleb128 0x1b
 6705 1901 01       		.uleb128 0x1
 6706 1902 51       		.byte	0x51
 6707 1903 02       		.uleb128 0x2
 6708 1904 91       		.byte	0x91
 6709 1905 67       		.sleb128 -25
 6710 1906 1B       		.uleb128 0x1b
 6711 1907 01       		.uleb128 0x1
 6712 1908 52       		.byte	0x52
 6713 1909 01       		.uleb128 0x1
 6714 190a 31       		.byte	0x31
 6715 190b 1B       		.uleb128 0x1b
 6716 190c 01       		.uleb128 0x1
 6717 190d 53       		.byte	0x53
 6718 190e 02       		.uleb128 0x2
 6719 190f 74       		.byte	0x74
 6720 1910 00       		.sleb128 0
 6721 1911 00       		.byte	0
 6722 1912 21       		.uleb128 0x21
 6723 1913 5C020000 		.4byte	.LVL360
 6724 1917 BC110000 		.4byte	0x11bc
 6725 191b 1B       		.uleb128 0x1b
 6726 191c 01       		.uleb128 0x1
 6727 191d 50       		.byte	0x50
 6728 191e 02       		.uleb128 0x2
 6729 191f 91       		.byte	0x91
 6730 1920 60       		.sleb128 -32
 6731 1921 1B       		.uleb128 0x1b
ARM GAS  C:\Users\adria\AppData\Local\Temp\ccOKprka.s 			page 155


 6732 1922 01       		.uleb128 0x1
 6733 1923 51       		.byte	0x51
 6734 1924 02       		.uleb128 0x2
 6735 1925 7D       		.byte	0x7d
 6736 1926 00       		.sleb128 0
 6737 1927 1B       		.uleb128 0x1b
 6738 1928 01       		.uleb128 0x1
 6739 1929 52       		.byte	0x52
 6740 192a 02       		.uleb128 0x2
 6741 192b 76       		.byte	0x76
 6742 192c 00       		.sleb128 0
 6743 192d 1B       		.uleb128 0x1b
 6744 192e 01       		.uleb128 0x1
 6745 192f 53       		.byte	0x53
 6746 1930 02       		.uleb128 0x2
 6747 1931 74       		.byte	0x74
 6748 1932 00       		.sleb128 0
 6749 1933 00       		.byte	0
 6750 1934 00       		.byte	0
 6751 1935 26       		.uleb128 0x26
 6752 1936 A9020000 		.4byte	.LASF179
 6753 193a 01       		.byte	0x1
 6754 193b 7002     		.2byte	0x270
 6755 193d C3000000 		.4byte	0xc3
 6756 1941 00000000 		.4byte	.LFB70
 6757 1945 30000000 		.4byte	.LFE70-.LFB70
 6758 1949 01       		.uleb128 0x1
 6759 194a 9C       		.byte	0x9c
 6760 194b B4190000 		.4byte	0x19b4
 6761 194f 15       		.uleb128 0x15
 6762 1950 64657600 		.ascii	"dev\000"
 6763 1954 01       		.byte	0x1
 6764 1955 7002     		.2byte	0x270
 6765 1957 67050000 		.4byte	0x567
 6766 195b F5140000 		.4byte	.LLST103
 6767 195f 11       		.uleb128 0x11
 6768 1960 2D070000 		.4byte	.LASF129
 6769 1964 01       		.byte	0x1
 6770 1965 7202     		.2byte	0x272
 6771 1967 C3000000 		.4byte	0xc3
 6772 196b 13150000 		.4byte	.LLST104
 6773 196f 16       		.uleb128 0x16
 6774 1970 56010000 		.4byte	.LASF180
 6775 1974 01       		.byte	0x1
 6776 1975 7302     		.2byte	0x273
 6777 1977 CE000000 		.4byte	0xce
 6778 197b 02       		.uleb128 0x2
 6779 197c 91       		.byte	0x91
 6780 197d 77       		.sleb128 -9
 6781 197e 1A       		.uleb128 0x1a
 6782 197f 0A000000 		.4byte	.LVL364
 6783 1983 C0080000 		.4byte	0x8c0
 6784 1987 92190000 		.4byte	0x1992
 6785 198b 1B       		.uleb128 0x1b
 6786 198c 01       		.uleb128 0x1
 6787 198d 50       		.byte	0x50
 6788 198e 02       		.uleb128 0x2
ARM GAS  C:\Users\adria\AppData\Local\Temp\ccOKprka.s 			page 156


 6789 198f 74       		.byte	0x74
 6790 1990 00       		.sleb128 0
 6791 1991 00       		.byte	0
 6792 1992 21       		.uleb128 0x21
 6793 1993 1C000000 		.4byte	.LVL366
 6794 1997 740D0000 		.4byte	0xd74
 6795 199b 1B       		.uleb128 0x1b
 6796 199c 01       		.uleb128 0x1
 6797 199d 50       		.byte	0x50
 6798 199e 02       		.uleb128 0x2
 6799 199f 08       		.byte	0x8
 6800 19a0 74       		.byte	0x74
 6801 19a1 1B       		.uleb128 0x1b
 6802 19a2 01       		.uleb128 0x1
 6803 19a3 51       		.byte	0x51
 6804 19a4 02       		.uleb128 0x2
 6805 19a5 91       		.byte	0x91
 6806 19a6 77       		.sleb128 -9
 6807 19a7 1B       		.uleb128 0x1b
 6808 19a8 01       		.uleb128 0x1
 6809 19a9 52       		.byte	0x52
 6810 19aa 01       		.uleb128 0x1
 6811 19ab 31       		.byte	0x31
 6812 19ac 1B       		.uleb128 0x1b
 6813 19ad 01       		.uleb128 0x1
 6814 19ae 53       		.byte	0x53
 6815 19af 02       		.uleb128 0x2
 6816 19b0 74       		.byte	0x74
 6817 19b1 00       		.sleb128 0
 6818 19b2 00       		.byte	0
 6819 19b3 00       		.byte	0
 6820 19b4 2A       		.uleb128 0x2a
 6821 19b5 40040000 		.4byte	.LASF185
 6822 19b9 01       		.byte	0x1
 6823 19ba 8302     		.2byte	0x283
 6824 19bc 00000000 		.4byte	.LFB71
 6825 19c0 64000000 		.4byte	.LFE71-.LFB71
 6826 19c4 01       		.uleb128 0x1
 6827 19c5 9C       		.byte	0x9c
 6828 19c6 181A0000 		.4byte	0x1a18
 6829 19ca 0F       		.uleb128 0xf
 6830 19cb 03020000 		.4byte	.LASF181
 6831 19cf 01       		.byte	0x1
 6832 19d0 8302     		.2byte	0x283
 6833 19d2 E4000000 		.4byte	0xe4
 6834 19d6 31150000 		.4byte	.LLST105
 6835 19da 10       		.uleb128 0x10
 6836 19db 64657600 		.ascii	"dev\000"
 6837 19df 01       		.byte	0x1
 6838 19e0 8302     		.2byte	0x283
 6839 19e2 67050000 		.4byte	0x567
 6840 19e6 01       		.uleb128 0x1
 6841 19e7 51       		.byte	0x51
 6842 19e8 11       		.uleb128 0x11
 6843 19e9 30000000 		.4byte	.LASF182
 6844 19ed 01       		.byte	0x1
 6845 19ee 8502     		.2byte	0x285
ARM GAS  C:\Users\adria\AppData\Local\Temp\ccOKprka.s 			page 157


 6846 19f0 FA000000 		.4byte	0xfa
 6847 19f4 52150000 		.4byte	.LLST106
 6848 19f8 11       		.uleb128 0x11
 6849 19f9 1C090000 		.4byte	.LASF183
 6850 19fd 01       		.byte	0x1
 6851 19fe 8602     		.2byte	0x286
 6852 1a00 FA000000 		.4byte	0xfa
 6853 1a04 85160000 		.4byte	.LLST107
 6854 1a08 16       		.uleb128 0x16
 6855 1a09 B8050000 		.4byte	.LASF184
 6856 1a0d 01       		.byte	0x1
 6857 1a0e 8702     		.2byte	0x287
 6858 1a10 99150000 		.4byte	0x1599
 6859 1a14 02       		.uleb128 0x2
 6860 1a15 91       		.byte	0x91
 6861 1a16 70       		.sleb128 -16
 6862 1a17 00       		.byte	0
 6863 1a18 2A       		.uleb128 0x2a
 6864 1a19 D1000000 		.4byte	.LASF186
 6865 1a1d 01       		.byte	0x1
 6866 1a1e 9C02     		.2byte	0x29c
 6867 1a20 00000000 		.4byte	.LFB72
 6868 1a24 70000000 		.4byte	.LFE72-.LFB72
 6869 1a28 01       		.uleb128 0x1
 6870 1a29 9C       		.byte	0x9c
 6871 1a2a 7C1A0000 		.4byte	0x1a7c
 6872 1a2e 0F       		.uleb128 0xf
 6873 1a2f 03020000 		.4byte	.LASF181
 6874 1a33 01       		.byte	0x1
 6875 1a34 9C02     		.2byte	0x29c
 6876 1a36 7C1A0000 		.4byte	0x1a7c
 6877 1a3a 18170000 		.4byte	.LLST108
 6878 1a3e 10       		.uleb128 0x10
 6879 1a3f 64657600 		.ascii	"dev\000"
 6880 1a43 01       		.byte	0x1
 6881 1a44 9C02     		.2byte	0x29c
 6882 1a46 E6050000 		.4byte	0x5e6
 6883 1a4a 01       		.uleb128 0x1
 6884 1a4b 51       		.byte	0x51
 6885 1a4c 11       		.uleb128 0x11
 6886 1a4d 30000000 		.4byte	.LASF182
 6887 1a51 01       		.byte	0x1
 6888 1a52 9E02     		.2byte	0x29e
 6889 1a54 FA000000 		.4byte	0xfa
 6890 1a58 44170000 		.4byte	.LLST109
 6891 1a5c 11       		.uleb128 0x11
 6892 1a5d 1C090000 		.4byte	.LASF183
 6893 1a61 01       		.byte	0x1
 6894 1a62 9F02     		.2byte	0x29f
 6895 1a64 FA000000 		.4byte	0xfa
 6896 1a68 19180000 		.4byte	.LLST110
 6897 1a6c 16       		.uleb128 0x16
 6898 1a6d B8050000 		.4byte	.LASF184
 6899 1a71 01       		.byte	0x1
 6900 1a72 A002     		.2byte	0x2a0
 6901 1a74 99150000 		.4byte	0x1599
 6902 1a78 02       		.uleb128 0x2
ARM GAS  C:\Users\adria\AppData\Local\Temp\ccOKprka.s 			page 158


 6903 1a79 91       		.byte	0x91
 6904 1a7a 70       		.sleb128 -16
 6905 1a7b 00       		.byte	0
 6906 1a7c 06       		.uleb128 0x6
 6907 1a7d 04       		.byte	0x4
 6908 1a7e E4000000 		.4byte	0xe4
 6909 1a82 26       		.uleb128 0x26
 6910 1a83 45080000 		.4byte	.LASF187
 6911 1a87 01       		.byte	0x1
 6912 1a88 BD02     		.2byte	0x2bd
 6913 1a8a C3000000 		.4byte	0xc3
 6914 1a8e 00000000 		.4byte	.LFB73
 6915 1a92 36000000 		.4byte	.LFE73-.LFB73
 6916 1a96 01       		.uleb128 0x1
 6917 1a97 9C       		.byte	0x9c
 6918 1a98 F71A0000 		.4byte	0x1af7
 6919 1a9c 0F       		.uleb128 0xf
 6920 1a9d B9040000 		.4byte	.LASF135
 6921 1aa1 01       		.byte	0x1
 6922 1aa2 BD02     		.2byte	0x2bd
 6923 1aa4 9E0A0000 		.4byte	0xa9e
 6924 1aa8 77180000 		.4byte	.LLST111
 6925 1aac 15       		.uleb128 0x15
 6926 1aad 64657600 		.ascii	"dev\000"
 6927 1ab1 01       		.byte	0x1
 6928 1ab2 BD02     		.2byte	0x2bd
 6929 1ab4 67050000 		.4byte	0x567
 6930 1ab8 95180000 		.4byte	.LLST112
 6931 1abc 11       		.uleb128 0x11
 6932 1abd 2D070000 		.4byte	.LASF129
 6933 1ac1 01       		.byte	0x1
 6934 1ac2 BF02     		.2byte	0x2bf
 6935 1ac4 C3000000 		.4byte	0xc3
 6936 1ac8 B3180000 		.4byte	.LLST113
 6937 1acc 1A       		.uleb128 0x1a
 6938 1acd 0C000000 		.4byte	.LVL396
 6939 1ad1 C0080000 		.4byte	0x8c0
 6940 1ad5 E01A0000 		.4byte	0x1ae0
 6941 1ad9 1B       		.uleb128 0x1b
 6942 1ada 01       		.uleb128 0x1
 6943 1adb 50       		.byte	0x50
 6944 1adc 02       		.uleb128 0x2
 6945 1add 74       		.byte	0x74
 6946 1ade 00       		.sleb128 0
 6947 1adf 00       		.byte	0
 6948 1ae0 21       		.uleb128 0x21
 6949 1ae1 18000000 		.4byte	.LVL398
 6950 1ae5 49100000 		.4byte	0x1049
 6951 1ae9 1B       		.uleb128 0x1b
 6952 1aea 01       		.uleb128 0x1
 6953 1aeb 50       		.byte	0x50
 6954 1aec 02       		.uleb128 0x2
 6955 1aed 75       		.byte	0x75
 6956 1aee 00       		.sleb128 0
 6957 1aef 1B       		.uleb128 0x1b
 6958 1af0 01       		.uleb128 0x1
 6959 1af1 51       		.byte	0x51
ARM GAS  C:\Users\adria\AppData\Local\Temp\ccOKprka.s 			page 159


 6960 1af2 02       		.uleb128 0x2
 6961 1af3 74       		.byte	0x74
 6962 1af4 00       		.sleb128 0
 6963 1af5 00       		.byte	0
 6964 1af6 00       		.byte	0
 6965 1af7 2B       		.uleb128 0x2b
 6966 1af8 4B000000 		.4byte	.LASF188
 6967 1afc 01       		.byte	0x1
 6968 1afd 6405     		.2byte	0x564
 6969 1aff C3000000 		.4byte	0xc3
 6970 1b03 00000000 		.4byte	.LFB88
 6971 1b07 C2000000 		.4byte	.LFE88-.LFB88
 6972 1b0b 01       		.uleb128 0x1
 6973 1b0c 9C       		.byte	0x9c
 6974 1b0d 291C0000 		.4byte	0x1c29
 6975 1b11 15       		.uleb128 0x15
 6976 1b12 64657600 		.ascii	"dev\000"
 6977 1b16 01       		.byte	0x1
 6978 1b17 6405     		.2byte	0x564
 6979 1b19 67050000 		.4byte	0x567
 6980 1b1d DC180000 		.4byte	.LLST114
 6981 1b21 11       		.uleb128 0x11
 6982 1b22 2D070000 		.4byte	.LASF129
 6983 1b26 01       		.byte	0x1
 6984 1b27 6605     		.2byte	0x566
 6985 1b29 C3000000 		.4byte	0xc3
 6986 1b2d FD180000 		.4byte	.LLST115
 6987 1b31 16       		.uleb128 0x16
 6988 1b32 B9040000 		.4byte	.LASF135
 6989 1b36 01       		.byte	0x1
 6990 1b37 6705     		.2byte	0x567
 6991 1b39 291C0000 		.4byte	0x1c29
 6992 1b3d 03       		.uleb128 0x3
 6993 1b3e 91       		.byte	0x91
 6994 1b3f F87E     		.sleb128 -136
 6995 1b41 16       		.uleb128 0x16
 6996 1b42 AA060000 		.4byte	.LASF189
 6997 1b46 01       		.byte	0x1
 6998 1b47 6905     		.2byte	0x569
 6999 1b49 FA030000 		.4byte	0x3fa
 7000 1b4d 03       		.uleb128 0x3
 7001 1b4e 91       		.byte	0x91
 7002 1b4f A07E     		.sleb128 -224
 7003 1b51 25       		.uleb128 0x25
 7004 1b52 2E000000 		.4byte	.LBB4
 7005 1b56 8E000000 		.4byte	.LBE4-.LBB4
 7006 1b5a 171C0000 		.4byte	0x1c17
 7007 1b5e 11       		.uleb128 0x11
 7008 1b5f 32070000 		.4byte	.LASF190
 7009 1b63 01       		.byte	0x1
 7010 1b64 7A05     		.2byte	0x57a
 7011 1b66 E4000000 		.4byte	0xe4
 7012 1b6a 3D190000 		.4byte	.LLST116
 7013 1b6e 16       		.uleb128 0x16
 7014 1b6f E3020000 		.4byte	.LASF191
 7015 1b73 01       		.byte	0x1
 7016 1b74 8705     		.2byte	0x587
ARM GAS  C:\Users\adria\AppData\Local\Temp\ccOKprka.s 			page 160


 7017 1b76 E4000000 		.4byte	0xe4
 7018 1b7a 03       		.uleb128 0x3
 7019 1b7b 91       		.byte	0x91
 7020 1b7c 9E7E     		.sleb128 -226
 7021 1b7e 1F       		.uleb128 0x1f
 7022 1b7f 6900     		.ascii	"i\000"
 7023 1b81 01       		.byte	0x1
 7024 1b82 8A05     		.2byte	0x58a
 7025 1b84 CE000000 		.4byte	0xce
 7026 1b88 52190000 		.4byte	.LLST117
 7027 1b8c 1A       		.uleb128 0x1a
 7028 1b8d 60000000 		.4byte	.LVL406
 7029 1b91 181A0000 		.4byte	0x1a18
 7030 1b95 A81B0000 		.4byte	0x1ba8
 7031 1b99 1B       		.uleb128 0x1b
 7032 1b9a 01       		.uleb128 0x1
 7033 1b9b 50       		.byte	0x50
 7034 1b9c 03       		.uleb128 0x3
 7035 1b9d 91       		.byte	0x91
 7036 1b9e 9E7E     		.sleb128 -226
 7037 1ba0 1B       		.uleb128 0x1b
 7038 1ba1 01       		.uleb128 0x1
 7039 1ba2 51       		.byte	0x51
 7040 1ba3 03       		.uleb128 0x3
 7041 1ba4 91       		.byte	0x91
 7042 1ba5 A07E     		.sleb128 -224
 7043 1ba7 00       		.byte	0
 7044 1ba8 1A       		.uleb128 0x1a
 7045 1ba9 82000000 		.4byte	.LVL408
 7046 1bad A0160000 		.4byte	0x16a0
 7047 1bb1 C31B0000 		.4byte	0x1bc3
 7048 1bb5 1B       		.uleb128 0x1b
 7049 1bb6 01       		.uleb128 0x1
 7050 1bb7 50       		.byte	0x50
 7051 1bb8 02       		.uleb128 0x2
 7052 1bb9 08       		.byte	0x8
 7053 1bba CF       		.byte	0xcf
 7054 1bbb 1B       		.uleb128 0x1b
 7055 1bbc 01       		.uleb128 0x1
 7056 1bbd 51       		.byte	0x51
 7057 1bbe 03       		.uleb128 0x3
 7058 1bbf 91       		.byte	0x91
 7059 1bc0 A07E     		.sleb128 -224
 7060 1bc2 00       		.byte	0
 7061 1bc3 1A       		.uleb128 0x1a
 7062 1bc4 8C000000 		.4byte	.LVL410
 7063 1bc8 A9150000 		.4byte	0x15a9
 7064 1bcc D81B0000 		.4byte	0x1bd8
 7065 1bd0 1B       		.uleb128 0x1b
 7066 1bd1 01       		.uleb128 0x1
 7067 1bd2 50       		.byte	0x50
 7068 1bd3 03       		.uleb128 0x3
 7069 1bd4 91       		.byte	0x91
 7070 1bd5 A07E     		.sleb128 -224
 7071 1bd7 00       		.byte	0
 7072 1bd8 1A       		.uleb128 0x1a
 7073 1bd9 A4000000 		.4byte	.LVL412
ARM GAS  C:\Users\adria\AppData\Local\Temp\ccOKprka.s 			page 161


 7074 1bdd 821A0000 		.4byte	0x1a82
 7075 1be1 001C0000 		.4byte	0x1c00
 7076 1be5 1B       		.uleb128 0x1b
 7077 1be6 01       		.uleb128 0x1
 7078 1be7 50       		.byte	0x50
 7079 1be8 0F       		.uleb128 0xf
 7080 1be9 74       		.byte	0x74
 7081 1bea 00       		.sleb128 0
 7082 1beb 32       		.byte	0x32
 7083 1bec 24       		.byte	0x24
 7084 1bed 74       		.byte	0x74
 7085 1bee 00       		.sleb128 0
 7086 1bef 22       		.byte	0x22
 7087 1bf0 32       		.byte	0x32
 7088 1bf1 24       		.byte	0x24
 7089 1bf2 91       		.byte	0x91
 7090 1bf3 00       		.sleb128 0
 7091 1bf4 22       		.byte	0x22
 7092 1bf5 08       		.byte	0x8
 7093 1bf6 88       		.byte	0x88
 7094 1bf7 1C       		.byte	0x1c
 7095 1bf8 1B       		.uleb128 0x1b
 7096 1bf9 01       		.uleb128 0x1
 7097 1bfa 51       		.byte	0x51
 7098 1bfb 03       		.uleb128 0x3
 7099 1bfc 91       		.byte	0x91
 7100 1bfd A07E     		.sleb128 -224
 7101 1bff 00       		.byte	0
 7102 1c00 21       		.uleb128 0x21
 7103 1c01 BA000000 		.4byte	.LVL416
 7104 1c05 270A0000 		.4byte	0xa27
 7105 1c09 1B       		.uleb128 0x1b
 7106 1c0a 01       		.uleb128 0x1
 7107 1c0b 50       		.byte	0x50
 7108 1c0c 03       		.uleb128 0x3
 7109 1c0d 91       		.byte	0x91
 7110 1c0e F87E     		.sleb128 -136
 7111 1c10 1B       		.uleb128 0x1b
 7112 1c11 01       		.uleb128 0x1
 7113 1c12 51       		.byte	0x51
 7114 1c13 01       		.uleb128 0x1
 7115 1c14 36       		.byte	0x36
 7116 1c15 00       		.byte	0
 7117 1c16 00       		.byte	0
 7118 1c17 21       		.uleb128 0x21
 7119 1c18 28000000 		.4byte	.LVL403
 7120 1c1c 51140000 		.4byte	0x1451
 7121 1c20 1B       		.uleb128 0x1b
 7122 1c21 01       		.uleb128 0x1
 7123 1c22 50       		.byte	0x50
 7124 1c23 03       		.uleb128 0x3
 7125 1c24 91       		.byte	0x91
 7126 1c25 A07E     		.sleb128 -224
 7127 1c27 00       		.byte	0
 7128 1c28 00       		.byte	0
 7129 1c29 17       		.uleb128 0x17
 7130 1c2a 93010000 		.4byte	0x193
ARM GAS  C:\Users\adria\AppData\Local\Temp\ccOKprka.s 			page 162


 7131 1c2e 391C0000 		.4byte	0x1c39
 7132 1c32 18       		.uleb128 0x18
 7133 1c33 EB040000 		.4byte	0x4eb
 7134 1c37 05       		.byte	0x5
 7135 1c38 00       		.byte	0
 7136 1c39 26       		.uleb128 0x26
 7137 1c3a B9070000 		.4byte	.LASF192
 7138 1c3e 01       		.byte	0x1
 7139 1c3f 1E06     		.2byte	0x61e
 7140 1c41 C3000000 		.4byte	0xc3
 7141 1c45 00000000 		.4byte	.LFB93
 7142 1c49 2C000000 		.4byte	.LFE93-.LFB93
 7143 1c4d 01       		.uleb128 0x1
 7144 1c4e 9C       		.byte	0x9c
 7145 1c4f 851C0000 		.4byte	0x1c85
 7146 1c53 15       		.uleb128 0x15
 7147 1c54 64657600 		.ascii	"dev\000"
 7148 1c58 01       		.byte	0x1
 7149 1c59 1E06     		.2byte	0x61e
 7150 1c5b 67050000 		.4byte	0x567
 7151 1c5f 7C190000 		.4byte	.LLST118
 7152 1c63 11       		.uleb128 0x11
 7153 1c64 2D070000 		.4byte	.LASF129
 7154 1c68 01       		.byte	0x1
 7155 1c69 2A06     		.2byte	0x62a
 7156 1c6b C3000000 		.4byte	0xc3
 7157 1c6f 9D190000 		.4byte	.LLST119
 7158 1c73 21       		.uleb128 0x21
 7159 1c74 1E000000 		.4byte	.LVL420
 7160 1c78 51140000 		.4byte	0x1451
 7161 1c7c 1B       		.uleb128 0x1b
 7162 1c7d 01       		.uleb128 0x1
 7163 1c7e 50       		.byte	0x50
 7164 1c7f 03       		.uleb128 0x3
 7165 1c80 F3       		.byte	0xf3
 7166 1c81 01       		.uleb128 0x1
 7167 1c82 50       		.byte	0x50
 7168 1c83 00       		.byte	0
 7169 1c84 00       		.byte	0
 7170 1c85 26       		.uleb128 0x26
 7171 1c86 9C000000 		.4byte	.LASF193
 7172 1c8a 01       		.byte	0x1
 7173 1c8b 3006     		.2byte	0x630
 7174 1c8d C3000000 		.4byte	0xc3
 7175 1c91 00000000 		.4byte	.LFB94
 7176 1c95 42000000 		.4byte	.LFE94-.LFB94
 7177 1c99 01       		.uleb128 0x1
 7178 1c9a 9C       		.byte	0x9c
 7179 1c9b F71C0000 		.4byte	0x1cf7
 7180 1c9f 15       		.uleb128 0x15
 7181 1ca0 64657600 		.ascii	"dev\000"
 7182 1ca4 01       		.byte	0x1
 7183 1ca5 3006     		.2byte	0x630
 7184 1ca7 67050000 		.4byte	0x567
 7185 1cab BC190000 		.4byte	.LLST120
 7186 1caf 2C       		.uleb128 0x2c
 7187 1cb0 28010000 		.4byte	.LASF194
ARM GAS  C:\Users\adria\AppData\Local\Temp\ccOKprka.s 			page 163


 7188 1cb4 01       		.byte	0x1
 7189 1cb5 3206     		.2byte	0x632
 7190 1cb7 CE000000 		.4byte	0xce
 7191 1cbb 5F       		.sleb128 -33
 7192 1cbc 11       		.uleb128 0x11
 7193 1cbd 2D070000 		.4byte	.LASF129
 7194 1cc1 01       		.byte	0x1
 7195 1cc2 4806     		.2byte	0x648
 7196 1cc4 C3000000 		.4byte	0xc3
 7197 1cc8 E5190000 		.4byte	.LLST121
 7198 1ccc 1A       		.uleb128 0x1a
 7199 1ccd 3A000000 		.4byte	.LVL424
 7200 1cd1 A0160000 		.4byte	0x16a0
 7201 1cd5 E61C0000 		.4byte	0x1ce6
 7202 1cd9 1B       		.uleb128 0x1b
 7203 1cda 01       		.uleb128 0x1
 7204 1cdb 50       		.byte	0x50
 7205 1cdc 02       		.uleb128 0x2
 7206 1cdd 08       		.byte	0x8
 7207 1cde DF       		.byte	0xdf
 7208 1cdf 1B       		.uleb128 0x1b
 7209 1ce0 01       		.uleb128 0x1
 7210 1ce1 51       		.byte	0x51
 7211 1ce2 02       		.uleb128 0x2
 7212 1ce3 74       		.byte	0x74
 7213 1ce4 00       		.sleb128 0
 7214 1ce5 00       		.byte	0
 7215 1ce6 21       		.uleb128 0x21
 7216 1ce7 40000000 		.4byte	.LVL425
 7217 1ceb A9150000 		.4byte	0x15a9
 7218 1cef 1B       		.uleb128 0x1b
 7219 1cf0 01       		.uleb128 0x1
 7220 1cf1 50       		.byte	0x50
 7221 1cf2 02       		.uleb128 0x2
 7222 1cf3 74       		.byte	0x74
 7223 1cf4 00       		.sleb128 0
 7224 1cf5 00       		.byte	0
 7225 1cf6 00       		.byte	0
 7226 1cf7 26       		.uleb128 0x26
 7227 1cf8 13000000 		.4byte	.LASF195
 7228 1cfc 01       		.byte	0x1
 7229 1cfd 5306     		.2byte	0x653
 7230 1cff CB040000 		.4byte	0x4cb
 7231 1d03 00000000 		.4byte	.LFB95
 7232 1d07 40000000 		.4byte	.LFE95-.LFB95
 7233 1d0b 01       		.uleb128 0x1
 7234 1d0c 9C       		.byte	0x9c
 7235 1d0d 991D0000 		.4byte	0x1d99
 7236 1d11 15       		.uleb128 0x15
 7237 1d12 64657600 		.ascii	"dev\000"
 7238 1d16 01       		.byte	0x1
 7239 1d17 5306     		.2byte	0x653
 7240 1d19 67050000 		.4byte	0x567
 7241 1d1d 041A0000 		.4byte	.LLST122
 7242 1d21 16       		.uleb128 0x16
 7243 1d22 D8080000 		.4byte	.LASF196
 7244 1d26 01       		.byte	0x1
ARM GAS  C:\Users\adria\AppData\Local\Temp\ccOKprka.s 			page 164


 7245 1d27 5506     		.2byte	0x655
 7246 1d29 E4000000 		.4byte	0xe4
 7247 1d2d 02       		.uleb128 0x2
 7248 1d2e 91       		.byte	0x91
 7249 1d2f 6E       		.sleb128 -18
 7250 1d30 12       		.uleb128 0x12
 7251 1d31 2D070000 		.4byte	.LASF129
 7252 1d35 01       		.byte	0x1
 7253 1d36 5606     		.2byte	0x656
 7254 1d38 CE000000 		.4byte	0xce
 7255 1d3c 16       		.uleb128 0x16
 7256 1d3d B9040000 		.4byte	.LASF135
 7257 1d41 01       		.byte	0x1
 7258 1d42 5A06     		.2byte	0x65a
 7259 1d44 CB040000 		.4byte	0x4cb
 7260 1d48 02       		.uleb128 0x2
 7261 1d49 91       		.byte	0x91
 7262 1d4a 58       		.sleb128 -40
 7263 1d4b 1A       		.uleb128 0x1a
 7264 1d4c 10000000 		.4byte	.LVL428
 7265 1d50 181A0000 		.4byte	0x1a18
 7266 1d54 651D0000 		.4byte	0x1d65
 7267 1d58 1B       		.uleb128 0x1b
 7268 1d59 01       		.uleb128 0x1
 7269 1d5a 50       		.byte	0x50
 7270 1d5b 02       		.uleb128 0x2
 7271 1d5c 91       		.byte	0x91
 7272 1d5d 6E       		.sleb128 -18
 7273 1d5e 1B       		.uleb128 0x1b
 7274 1d5f 01       		.uleb128 0x1
 7275 1d60 51       		.byte	0x51
 7276 1d61 02       		.uleb128 0x2
 7277 1d62 74       		.byte	0x74
 7278 1d63 00       		.sleb128 0
 7279 1d64 00       		.byte	0
 7280 1d65 28       		.uleb128 0x28
 7281 1d66 18000000 		.4byte	.LVL429
 7282 1d6a A40A0000 		.4byte	0xaa4
 7283 1d6e 1A       		.uleb128 0x1a
 7284 1d6f 20000000 		.4byte	.LVL430
 7285 1d73 821A0000 		.4byte	0x1a82
 7286 1d77 881D0000 		.4byte	0x1d88
 7287 1d7b 1B       		.uleb128 0x1b
 7288 1d7c 01       		.uleb128 0x1
 7289 1d7d 50       		.byte	0x50
 7290 1d7e 02       		.uleb128 0x2
 7291 1d7f 7D       		.byte	0x7d
 7292 1d80 00       		.sleb128 0
 7293 1d81 1B       		.uleb128 0x1b
 7294 1d82 01       		.uleb128 0x1
 7295 1d83 51       		.byte	0x51
 7296 1d84 02       		.uleb128 0x2
 7297 1d85 74       		.byte	0x74
 7298 1d86 00       		.sleb128 0
 7299 1d87 00       		.byte	0
 7300 1d88 21       		.uleb128 0x21
 7301 1d89 2E000000 		.4byte	.LVL431
ARM GAS  C:\Users\adria\AppData\Local\Temp\ccOKprka.s 			page 165


 7302 1d8d A9150000 		.4byte	0x15a9
 7303 1d91 1B       		.uleb128 0x1b
 7304 1d92 01       		.uleb128 0x1
 7305 1d93 50       		.byte	0x50
 7306 1d94 02       		.uleb128 0x2
 7307 1d95 74       		.byte	0x74
 7308 1d96 00       		.sleb128 0
 7309 1d97 00       		.byte	0
 7310 1d98 00       		.byte	0
 7311 1d99 26       		.uleb128 0x26
 7312 1d9a D6020000 		.4byte	.LASF197
 7313 1d9e 01       		.byte	0x1
 7314 1d9f 6806     		.2byte	0x668
 7315 1da1 C3000000 		.4byte	0xc3
 7316 1da5 00000000 		.4byte	.LFB96
 7317 1da9 10000000 		.4byte	.LFE96-.LFB96
 7318 1dad 01       		.uleb128 0x1
 7319 1dae 9C       		.byte	0x9c
 7320 1daf F61D0000 		.4byte	0x1df6
 7321 1db3 15       		.uleb128 0x15
 7322 1db4 64657600 		.ascii	"dev\000"
 7323 1db8 01       		.byte	0x1
 7324 1db9 6806     		.2byte	0x668
 7325 1dbb 67050000 		.4byte	0x567
 7326 1dbf 301A0000 		.4byte	.LLST123
 7327 1dc3 16       		.uleb128 0x16
 7328 1dc4 2D070000 		.4byte	.LASF129
 7329 1dc8 01       		.byte	0x1
 7330 1dc9 6A06     		.2byte	0x66a
 7331 1dcb C3000000 		.4byte	0xc3
 7332 1dcf 01       		.uleb128 0x1
 7333 1dd0 50       		.byte	0x50
 7334 1dd1 1A       		.uleb128 0x1a
 7335 1dd2 08000000 		.4byte	.LVL434
 7336 1dd6 391C0000 		.4byte	0x1c39
 7337 1dda E51D0000 		.4byte	0x1de5
 7338 1dde 1B       		.uleb128 0x1b
 7339 1ddf 01       		.uleb128 0x1
 7340 1de0 50       		.byte	0x50
 7341 1de1 02       		.uleb128 0x2
 7342 1de2 74       		.byte	0x74
 7343 1de3 00       		.sleb128 0
 7344 1de4 00       		.byte	0
 7345 1de5 21       		.uleb128 0x21
 7346 1de6 0E000000 		.4byte	.LVL435
 7347 1dea 851C0000 		.4byte	0x1c85
 7348 1dee 1B       		.uleb128 0x1b
 7349 1def 01       		.uleb128 0x1
 7350 1df0 50       		.byte	0x50
 7351 1df1 02       		.uleb128 0x2
 7352 1df2 74       		.byte	0x74
 7353 1df3 00       		.sleb128 0
 7354 1df4 00       		.byte	0
 7355 1df5 00       		.byte	0
 7356 1df6 2D       		.uleb128 0x2d
 7357 1df7 D6070000 		.4byte	.LASF198
 7358 1dfb 05       		.byte	0x5
ARM GAS  C:\Users\adria\AppData\Local\Temp\ccOKprka.s 			page 166


 7359 1dfc 3B       		.byte	0x3b
 7360 1dfd FA030000 		.4byte	0x3fa
 7361 1e01 05       		.uleb128 0x5
 7362 1e02 03       		.byte	0x3
 7363 1e03 00000000 		.4byte	sensor_bme680
 7364 1e07 2E       		.uleb128 0x2e
 7365 1e08 23000000 		.4byte	.LASF199
 7366 1e0c 06       		.byte	0x6
 7367 1e0d 1207     		.2byte	0x712
 7368 1e0f 131E0000 		.4byte	0x1e13
 7369 1e13 2F       		.uleb128 0x2f
 7370 1e14 EF000000 		.4byte	0xef
 7371 1e18 30       		.uleb128 0x30
 7372 1e19 B1040000 		.4byte	.LASF200
 7373 1e1d B1040000 		.4byte	.LASF200
 7374 1e21 07       		.byte	0x7
 7375 1e22 76       		.byte	0x76
 7376 1e23 31       		.uleb128 0x31
 7377 1e24 FC070000 		.4byte	.LASF142
 7378 1e28 FC070000 		.4byte	.LASF142
 7379 1e2c 01       		.byte	0x1
 7380 1e2d ED05     		.2byte	0x5ed
 7381 1e2f 31       		.uleb128 0x31
 7382 1e30 BA000000 		.4byte	.LASF143
 7383 1e34 BA000000 		.4byte	.LASF143
 7384 1e38 01       		.byte	0x1
 7385 1e39 EE05     		.2byte	0x5ee
 7386 1e3b 31       		.uleb128 0x31
 7387 1e3c 27050000 		.4byte	.LASF144
 7388 1e40 27050000 		.4byte	.LASF144
 7389 1e44 01       		.byte	0x1
 7390 1e45 F605     		.2byte	0x5f6
 7391 1e47 31       		.uleb128 0x31
 7392 1e48 6E080000 		.4byte	.LASF147
 7393 1e4c 6E080000 		.4byte	.LASF147
 7394 1e50 01       		.byte	0x1
 7395 1e51 F105     		.2byte	0x5f1
 7396 1e53 31       		.uleb128 0x31
 7397 1e54 86010000 		.4byte	.LASF146
 7398 1e58 86010000 		.4byte	.LASF146
 7399 1e5c 01       		.byte	0x1
 7400 1e5d EF05     		.2byte	0x5ef
 7401 1e5f 32       		.uleb128 0x32
 7402 1e60 21010000 		.4byte	.LASF206
 7403 1e64 21010000 		.4byte	.LASF206
 7404 1e68 00       		.byte	0
 7405              		.section	.debug_abbrev,"",%progbits
 7406              	.Ldebug_abbrev0:
 7407 0000 01       		.uleb128 0x1
 7408 0001 11       		.uleb128 0x11
 7409 0002 01       		.byte	0x1
 7410 0003 25       		.uleb128 0x25
 7411 0004 0E       		.uleb128 0xe
 7412 0005 13       		.uleb128 0x13
 7413 0006 0B       		.uleb128 0xb
 7414 0007 03       		.uleb128 0x3
 7415 0008 0E       		.uleb128 0xe
ARM GAS  C:\Users\adria\AppData\Local\Temp\ccOKprka.s 			page 167


 7416 0009 1B       		.uleb128 0x1b
 7417 000a 0E       		.uleb128 0xe
 7418 000b 55       		.uleb128 0x55
 7419 000c 17       		.uleb128 0x17
 7420 000d 11       		.uleb128 0x11
 7421 000e 01       		.uleb128 0x1
 7422 000f 10       		.uleb128 0x10
 7423 0010 17       		.uleb128 0x17
 7424 0011 00       		.byte	0
 7425 0012 00       		.byte	0
 7426 0013 02       		.uleb128 0x2
 7427 0014 24       		.uleb128 0x24
 7428 0015 00       		.byte	0
 7429 0016 0B       		.uleb128 0xb
 7430 0017 0B       		.uleb128 0xb
 7431 0018 3E       		.uleb128 0x3e
 7432 0019 0B       		.uleb128 0xb
 7433 001a 03       		.uleb128 0x3
 7434 001b 0E       		.uleb128 0xe
 7435 001c 00       		.byte	0
 7436 001d 00       		.byte	0
 7437 001e 03       		.uleb128 0x3
 7438 001f 24       		.uleb128 0x24
 7439 0020 00       		.byte	0
 7440 0021 0B       		.uleb128 0xb
 7441 0022 0B       		.uleb128 0xb
 7442 0023 3E       		.uleb128 0x3e
 7443 0024 0B       		.uleb128 0xb
 7444 0025 03       		.uleb128 0x3
 7445 0026 08       		.uleb128 0x8
 7446 0027 00       		.byte	0
 7447 0028 00       		.byte	0
 7448 0029 04       		.uleb128 0x4
 7449 002a 16       		.uleb128 0x16
 7450 002b 00       		.byte	0
 7451 002c 03       		.uleb128 0x3
 7452 002d 0E       		.uleb128 0xe
 7453 002e 3A       		.uleb128 0x3a
 7454 002f 0B       		.uleb128 0xb
 7455 0030 3B       		.uleb128 0x3b
 7456 0031 0B       		.uleb128 0xb
 7457 0032 49       		.uleb128 0x49
 7458 0033 13       		.uleb128 0x13
 7459 0034 00       		.byte	0
 7460 0035 00       		.byte	0
 7461 0036 05       		.uleb128 0x5
 7462 0037 16       		.uleb128 0x16
 7463 0038 00       		.byte	0
 7464 0039 03       		.uleb128 0x3
 7465 003a 0E       		.uleb128 0xe
 7466 003b 3A       		.uleb128 0x3a
 7467 003c 0B       		.uleb128 0xb
 7468 003d 3B       		.uleb128 0x3b
 7469 003e 05       		.uleb128 0x5
 7470 003f 49       		.uleb128 0x49
 7471 0040 13       		.uleb128 0x13
 7472 0041 00       		.byte	0
ARM GAS  C:\Users\adria\AppData\Local\Temp\ccOKprka.s 			page 168


 7473 0042 00       		.byte	0
 7474 0043 06       		.uleb128 0x6
 7475 0044 0F       		.uleb128 0xf
 7476 0045 00       		.byte	0
 7477 0046 0B       		.uleb128 0xb
 7478 0047 0B       		.uleb128 0xb
 7479 0048 49       		.uleb128 0x49
 7480 0049 13       		.uleb128 0x13
 7481 004a 00       		.byte	0
 7482 004b 00       		.byte	0
 7483 004c 07       		.uleb128 0x7
 7484 004d 15       		.uleb128 0x15
 7485 004e 01       		.byte	0x1
 7486 004f 27       		.uleb128 0x27
 7487 0050 19       		.uleb128 0x19
 7488 0051 49       		.uleb128 0x49
 7489 0052 13       		.uleb128 0x13
 7490 0053 01       		.uleb128 0x1
 7491 0054 13       		.uleb128 0x13
 7492 0055 00       		.byte	0
 7493 0056 00       		.byte	0
 7494 0057 08       		.uleb128 0x8
 7495 0058 05       		.uleb128 0x5
 7496 0059 00       		.byte	0
 7497 005a 49       		.uleb128 0x49
 7498 005b 13       		.uleb128 0x13
 7499 005c 00       		.byte	0
 7500 005d 00       		.byte	0
 7501 005e 09       		.uleb128 0x9
 7502 005f 15       		.uleb128 0x15
 7503 0060 01       		.byte	0x1
 7504 0061 27       		.uleb128 0x27
 7505 0062 19       		.uleb128 0x19
 7506 0063 01       		.uleb128 0x1
 7507 0064 13       		.uleb128 0x13
 7508 0065 00       		.byte	0
 7509 0066 00       		.byte	0
 7510 0067 0A       		.uleb128 0xa
 7511 0068 04       		.uleb128 0x4
 7512 0069 01       		.byte	0x1
 7513 006a 03       		.uleb128 0x3
 7514 006b 0E       		.uleb128 0xe
 7515 006c 0B       		.uleb128 0xb
 7516 006d 0B       		.uleb128 0xb
 7517 006e 49       		.uleb128 0x49
 7518 006f 13       		.uleb128 0x13
 7519 0070 3A       		.uleb128 0x3a
 7520 0071 0B       		.uleb128 0xb
 7521 0072 3B       		.uleb128 0x3b
 7522 0073 05       		.uleb128 0x5
 7523 0074 01       		.uleb128 0x1
 7524 0075 13       		.uleb128 0x13
 7525 0076 00       		.byte	0
 7526 0077 00       		.byte	0
 7527 0078 0B       		.uleb128 0xb
 7528 0079 28       		.uleb128 0x28
 7529 007a 00       		.byte	0
ARM GAS  C:\Users\adria\AppData\Local\Temp\ccOKprka.s 			page 169


 7530 007b 03       		.uleb128 0x3
 7531 007c 0E       		.uleb128 0xe
 7532 007d 1C       		.uleb128 0x1c
 7533 007e 0B       		.uleb128 0xb
 7534 007f 00       		.byte	0
 7535 0080 00       		.byte	0
 7536 0081 0C       		.uleb128 0xc
 7537 0082 13       		.uleb128 0x13
 7538 0083 01       		.byte	0x1
 7539 0084 03       		.uleb128 0x3
 7540 0085 0E       		.uleb128 0xe
 7541 0086 0B       		.uleb128 0xb
 7542 0087 0B       		.uleb128 0xb
 7543 0088 3A       		.uleb128 0x3a
 7544 0089 0B       		.uleb128 0xb
 7545 008a 3B       		.uleb128 0x3b
 7546 008b 05       		.uleb128 0x5
 7547 008c 01       		.uleb128 0x1
 7548 008d 13       		.uleb128 0x13
 7549 008e 00       		.byte	0
 7550 008f 00       		.byte	0
 7551 0090 0D       		.uleb128 0xd
 7552 0091 0D       		.uleb128 0xd
 7553 0092 00       		.byte	0
 7554 0093 03       		.uleb128 0x3
 7555 0094 0E       		.uleb128 0xe
 7556 0095 3A       		.uleb128 0x3a
 7557 0096 0B       		.uleb128 0xb
 7558 0097 3B       		.uleb128 0x3b
 7559 0098 05       		.uleb128 0x5
 7560 0099 49       		.uleb128 0x49
 7561 009a 13       		.uleb128 0x13
 7562 009b 38       		.uleb128 0x38
 7563 009c 0B       		.uleb128 0xb
 7564 009d 00       		.byte	0
 7565 009e 00       		.byte	0
 7566 009f 0E       		.uleb128 0xe
 7567 00a0 2E       		.uleb128 0x2e
 7568 00a1 01       		.byte	0x1
 7569 00a2 03       		.uleb128 0x3
 7570 00a3 0E       		.uleb128 0xe
 7571 00a4 3A       		.uleb128 0x3a
 7572 00a5 0B       		.uleb128 0xb
 7573 00a6 3B       		.uleb128 0x3b
 7574 00a7 05       		.uleb128 0x5
 7575 00a8 27       		.uleb128 0x27
 7576 00a9 19       		.uleb128 0x19
 7577 00aa 49       		.uleb128 0x49
 7578 00ab 13       		.uleb128 0x13
 7579 00ac 11       		.uleb128 0x11
 7580 00ad 01       		.uleb128 0x1
 7581 00ae 12       		.uleb128 0x12
 7582 00af 06       		.uleb128 0x6
 7583 00b0 40       		.uleb128 0x40
 7584 00b1 18       		.uleb128 0x18
 7585 00b2 9742     		.uleb128 0x2117
 7586 00b4 19       		.uleb128 0x19
ARM GAS  C:\Users\adria\AppData\Local\Temp\ccOKprka.s 			page 170


 7587 00b5 01       		.uleb128 0x1
 7588 00b6 13       		.uleb128 0x13
 7589 00b7 00       		.byte	0
 7590 00b8 00       		.byte	0
 7591 00b9 0F       		.uleb128 0xf
 7592 00ba 05       		.uleb128 0x5
 7593 00bb 00       		.byte	0
 7594 00bc 03       		.uleb128 0x3
 7595 00bd 0E       		.uleb128 0xe
 7596 00be 3A       		.uleb128 0x3a
 7597 00bf 0B       		.uleb128 0xb
 7598 00c0 3B       		.uleb128 0x3b
 7599 00c1 05       		.uleb128 0x5
 7600 00c2 49       		.uleb128 0x49
 7601 00c3 13       		.uleb128 0x13
 7602 00c4 02       		.uleb128 0x2
 7603 00c5 17       		.uleb128 0x17
 7604 00c6 00       		.byte	0
 7605 00c7 00       		.byte	0
 7606 00c8 10       		.uleb128 0x10
 7607 00c9 05       		.uleb128 0x5
 7608 00ca 00       		.byte	0
 7609 00cb 03       		.uleb128 0x3
 7610 00cc 08       		.uleb128 0x8
 7611 00cd 3A       		.uleb128 0x3a
 7612 00ce 0B       		.uleb128 0xb
 7613 00cf 3B       		.uleb128 0x3b
 7614 00d0 05       		.uleb128 0x5
 7615 00d1 49       		.uleb128 0x49
 7616 00d2 13       		.uleb128 0x13
 7617 00d3 02       		.uleb128 0x2
 7618 00d4 18       		.uleb128 0x18
 7619 00d5 00       		.byte	0
 7620 00d6 00       		.byte	0
 7621 00d7 11       		.uleb128 0x11
 7622 00d8 34       		.uleb128 0x34
 7623 00d9 00       		.byte	0
 7624 00da 03       		.uleb128 0x3
 7625 00db 0E       		.uleb128 0xe
 7626 00dc 3A       		.uleb128 0x3a
 7627 00dd 0B       		.uleb128 0xb
 7628 00de 3B       		.uleb128 0x3b
 7629 00df 05       		.uleb128 0x5
 7630 00e0 49       		.uleb128 0x49
 7631 00e1 13       		.uleb128 0x13
 7632 00e2 02       		.uleb128 0x2
 7633 00e3 17       		.uleb128 0x17
 7634 00e4 00       		.byte	0
 7635 00e5 00       		.byte	0
 7636 00e6 12       		.uleb128 0x12
 7637 00e7 34       		.uleb128 0x34
 7638 00e8 00       		.byte	0
 7639 00e9 03       		.uleb128 0x3
 7640 00ea 0E       		.uleb128 0xe
 7641 00eb 3A       		.uleb128 0x3a
 7642 00ec 0B       		.uleb128 0xb
 7643 00ed 3B       		.uleb128 0x3b
ARM GAS  C:\Users\adria\AppData\Local\Temp\ccOKprka.s 			page 171


 7644 00ee 05       		.uleb128 0x5
 7645 00ef 49       		.uleb128 0x49
 7646 00f0 13       		.uleb128 0x13
 7647 00f1 00       		.byte	0
 7648 00f2 00       		.byte	0
 7649 00f3 13       		.uleb128 0x13
 7650 00f4 26       		.uleb128 0x26
 7651 00f5 00       		.byte	0
 7652 00f6 49       		.uleb128 0x49
 7653 00f7 13       		.uleb128 0x13
 7654 00f8 00       		.byte	0
 7655 00f9 00       		.byte	0
 7656 00fa 14       		.uleb128 0x14
 7657 00fb 2E       		.uleb128 0x2e
 7658 00fc 01       		.byte	0x1
 7659 00fd 03       		.uleb128 0x3
 7660 00fe 0E       		.uleb128 0xe
 7661 00ff 3A       		.uleb128 0x3a
 7662 0100 0B       		.uleb128 0xb
 7663 0101 3B       		.uleb128 0x3b
 7664 0102 05       		.uleb128 0x5
 7665 0103 27       		.uleb128 0x27
 7666 0104 19       		.uleb128 0x19
 7667 0105 49       		.uleb128 0x49
 7668 0106 13       		.uleb128 0x13
 7669 0107 11       		.uleb128 0x11
 7670 0108 01       		.uleb128 0x1
 7671 0109 12       		.uleb128 0x12
 7672 010a 06       		.uleb128 0x6
 7673 010b 40       		.uleb128 0x40
 7674 010c 18       		.uleb128 0x18
 7675 010d 9642     		.uleb128 0x2116
 7676 010f 19       		.uleb128 0x19
 7677 0110 01       		.uleb128 0x1
 7678 0111 13       		.uleb128 0x13
 7679 0112 00       		.byte	0
 7680 0113 00       		.byte	0
 7681 0114 15       		.uleb128 0x15
 7682 0115 05       		.uleb128 0x5
 7683 0116 00       		.byte	0
 7684 0117 03       		.uleb128 0x3
 7685 0118 08       		.uleb128 0x8
 7686 0119 3A       		.uleb128 0x3a
 7687 011a 0B       		.uleb128 0xb
 7688 011b 3B       		.uleb128 0x3b
 7689 011c 05       		.uleb128 0x5
 7690 011d 49       		.uleb128 0x49
 7691 011e 13       		.uleb128 0x13
 7692 011f 02       		.uleb128 0x2
 7693 0120 17       		.uleb128 0x17
 7694 0121 00       		.byte	0
 7695 0122 00       		.byte	0
 7696 0123 16       		.uleb128 0x16
 7697 0124 34       		.uleb128 0x34
 7698 0125 00       		.byte	0
 7699 0126 03       		.uleb128 0x3
 7700 0127 0E       		.uleb128 0xe
ARM GAS  C:\Users\adria\AppData\Local\Temp\ccOKprka.s 			page 172


 7701 0128 3A       		.uleb128 0x3a
 7702 0129 0B       		.uleb128 0xb
 7703 012a 3B       		.uleb128 0x3b
 7704 012b 05       		.uleb128 0x5
 7705 012c 49       		.uleb128 0x49
 7706 012d 13       		.uleb128 0x13
 7707 012e 02       		.uleb128 0x2
 7708 012f 18       		.uleb128 0x18
 7709 0130 00       		.byte	0
 7710 0131 00       		.byte	0
 7711 0132 17       		.uleb128 0x17
 7712 0133 01       		.uleb128 0x1
 7713 0134 01       		.byte	0x1
 7714 0135 49       		.uleb128 0x49
 7715 0136 13       		.uleb128 0x13
 7716 0137 01       		.uleb128 0x1
 7717 0138 13       		.uleb128 0x13
 7718 0139 00       		.byte	0
 7719 013a 00       		.byte	0
 7720 013b 18       		.uleb128 0x18
 7721 013c 21       		.uleb128 0x21
 7722 013d 00       		.byte	0
 7723 013e 49       		.uleb128 0x49
 7724 013f 13       		.uleb128 0x13
 7725 0140 2F       		.uleb128 0x2f
 7726 0141 0B       		.uleb128 0xb
 7727 0142 00       		.byte	0
 7728 0143 00       		.byte	0
 7729 0144 19       		.uleb128 0x19
 7730 0145 34       		.uleb128 0x34
 7731 0146 00       		.byte	0
 7732 0147 03       		.uleb128 0x3
 7733 0148 08       		.uleb128 0x8
 7734 0149 3A       		.uleb128 0x3a
 7735 014a 0B       		.uleb128 0xb
 7736 014b 3B       		.uleb128 0x3b
 7737 014c 05       		.uleb128 0x5
 7738 014d 49       		.uleb128 0x49
 7739 014e 13       		.uleb128 0x13
 7740 014f 02       		.uleb128 0x2
 7741 0150 18       		.uleb128 0x18
 7742 0151 00       		.byte	0
 7743 0152 00       		.byte	0
 7744 0153 1A       		.uleb128 0x1a
 7745 0154 898201   		.uleb128 0x4109
 7746 0157 01       		.byte	0x1
 7747 0158 11       		.uleb128 0x11
 7748 0159 01       		.uleb128 0x1
 7749 015a 31       		.uleb128 0x31
 7750 015b 13       		.uleb128 0x13
 7751 015c 01       		.uleb128 0x1
 7752 015d 13       		.uleb128 0x13
 7753 015e 00       		.byte	0
 7754 015f 00       		.byte	0
 7755 0160 1B       		.uleb128 0x1b
 7756 0161 8A8201   		.uleb128 0x410a
 7757 0164 00       		.byte	0
ARM GAS  C:\Users\adria\AppData\Local\Temp\ccOKprka.s 			page 173


 7758 0165 02       		.uleb128 0x2
 7759 0166 18       		.uleb128 0x18
 7760 0167 9142     		.uleb128 0x2111
 7761 0169 18       		.uleb128 0x18
 7762 016a 00       		.byte	0
 7763 016b 00       		.byte	0
 7764 016c 1C       		.uleb128 0x1c
 7765 016d 898201   		.uleb128 0x4109
 7766 0170 01       		.byte	0x1
 7767 0171 11       		.uleb128 0x11
 7768 0172 01       		.uleb128 0x1
 7769 0173 9342     		.uleb128 0x2113
 7770 0175 18       		.uleb128 0x18
 7771 0176 01       		.uleb128 0x1
 7772 0177 13       		.uleb128 0x13
 7773 0178 00       		.byte	0
 7774 0179 00       		.byte	0
 7775 017a 1D       		.uleb128 0x1d
 7776 017b 898201   		.uleb128 0x4109
 7777 017e 01       		.byte	0x1
 7778 017f 11       		.uleb128 0x11
 7779 0180 01       		.uleb128 0x1
 7780 0181 9342     		.uleb128 0x2113
 7781 0183 18       		.uleb128 0x18
 7782 0184 00       		.byte	0
 7783 0185 00       		.byte	0
 7784 0186 1E       		.uleb128 0x1e
 7785 0187 05       		.uleb128 0x5
 7786 0188 00       		.byte	0
 7787 0189 03       		.uleb128 0x3
 7788 018a 0E       		.uleb128 0xe
 7789 018b 3A       		.uleb128 0x3a
 7790 018c 0B       		.uleb128 0xb
 7791 018d 3B       		.uleb128 0x3b
 7792 018e 05       		.uleb128 0x5
 7793 018f 49       		.uleb128 0x49
 7794 0190 13       		.uleb128 0x13
 7795 0191 02       		.uleb128 0x2
 7796 0192 18       		.uleb128 0x18
 7797 0193 00       		.byte	0
 7798 0194 00       		.byte	0
 7799 0195 1F       		.uleb128 0x1f
 7800 0196 34       		.uleb128 0x34
 7801 0197 00       		.byte	0
 7802 0198 03       		.uleb128 0x3
 7803 0199 08       		.uleb128 0x8
 7804 019a 3A       		.uleb128 0x3a
 7805 019b 0B       		.uleb128 0xb
 7806 019c 3B       		.uleb128 0x3b
 7807 019d 05       		.uleb128 0x5
 7808 019e 49       		.uleb128 0x49
 7809 019f 13       		.uleb128 0x13
 7810 01a0 02       		.uleb128 0x2
 7811 01a1 17       		.uleb128 0x17
 7812 01a2 00       		.byte	0
 7813 01a3 00       		.byte	0
 7814 01a4 20       		.uleb128 0x20
ARM GAS  C:\Users\adria\AppData\Local\Temp\ccOKprka.s 			page 174


 7815 01a5 2E       		.uleb128 0x2e
 7816 01a6 01       		.byte	0x1
 7817 01a7 03       		.uleb128 0x3
 7818 01a8 0E       		.uleb128 0xe
 7819 01a9 3A       		.uleb128 0x3a
 7820 01aa 0B       		.uleb128 0xb
 7821 01ab 3B       		.uleb128 0x3b
 7822 01ac 05       		.uleb128 0x5
 7823 01ad 27       		.uleb128 0x27
 7824 01ae 19       		.uleb128 0x19
 7825 01af 11       		.uleb128 0x11
 7826 01b0 01       		.uleb128 0x1
 7827 01b1 12       		.uleb128 0x12
 7828 01b2 06       		.uleb128 0x6
 7829 01b3 40       		.uleb128 0x40
 7830 01b4 18       		.uleb128 0x18
 7831 01b5 9742     		.uleb128 0x2117
 7832 01b7 19       		.uleb128 0x19
 7833 01b8 01       		.uleb128 0x1
 7834 01b9 13       		.uleb128 0x13
 7835 01ba 00       		.byte	0
 7836 01bb 00       		.byte	0
 7837 01bc 21       		.uleb128 0x21
 7838 01bd 898201   		.uleb128 0x4109
 7839 01c0 01       		.byte	0x1
 7840 01c1 11       		.uleb128 0x11
 7841 01c2 01       		.uleb128 0x1
 7842 01c3 31       		.uleb128 0x31
 7843 01c4 13       		.uleb128 0x13
 7844 01c5 00       		.byte	0
 7845 01c6 00       		.byte	0
 7846 01c7 22       		.uleb128 0x22
 7847 01c8 34       		.uleb128 0x34
 7848 01c9 00       		.byte	0
 7849 01ca 03       		.uleb128 0x3
 7850 01cb 0E       		.uleb128 0xe
 7851 01cc 3A       		.uleb128 0x3a
 7852 01cd 0B       		.uleb128 0xb
 7853 01ce 3B       		.uleb128 0x3b
 7854 01cf 05       		.uleb128 0x5
 7855 01d0 49       		.uleb128 0x49
 7856 01d1 13       		.uleb128 0x13
 7857 01d2 1C       		.uleb128 0x1c
 7858 01d3 0B       		.uleb128 0xb
 7859 01d4 00       		.byte	0
 7860 01d5 00       		.byte	0
 7861 01d6 23       		.uleb128 0x23
 7862 01d7 2E       		.uleb128 0x2e
 7863 01d8 01       		.byte	0x1
 7864 01d9 3F       		.uleb128 0x3f
 7865 01da 19       		.uleb128 0x19
 7866 01db 03       		.uleb128 0x3
 7867 01dc 0E       		.uleb128 0xe
 7868 01dd 3A       		.uleb128 0x3a
 7869 01de 0B       		.uleb128 0xb
 7870 01df 3B       		.uleb128 0x3b
 7871 01e0 05       		.uleb128 0x5
ARM GAS  C:\Users\adria\AppData\Local\Temp\ccOKprka.s 			page 175


 7872 01e1 49       		.uleb128 0x49
 7873 01e2 13       		.uleb128 0x13
 7874 01e3 3C       		.uleb128 0x3c
 7875 01e4 19       		.uleb128 0x19
 7876 01e5 01       		.uleb128 0x1
 7877 01e6 13       		.uleb128 0x13
 7878 01e7 00       		.byte	0
 7879 01e8 00       		.byte	0
 7880 01e9 24       		.uleb128 0x24
 7881 01ea 18       		.uleb128 0x18
 7882 01eb 00       		.byte	0
 7883 01ec 00       		.byte	0
 7884 01ed 00       		.byte	0
 7885 01ee 25       		.uleb128 0x25
 7886 01ef 0B       		.uleb128 0xb
 7887 01f0 01       		.byte	0x1
 7888 01f1 11       		.uleb128 0x11
 7889 01f2 01       		.uleb128 0x1
 7890 01f3 12       		.uleb128 0x12
 7891 01f4 06       		.uleb128 0x6
 7892 01f5 01       		.uleb128 0x1
 7893 01f6 13       		.uleb128 0x13
 7894 01f7 00       		.byte	0
 7895 01f8 00       		.byte	0
 7896 01f9 26       		.uleb128 0x26
 7897 01fa 2E       		.uleb128 0x2e
 7898 01fb 01       		.byte	0x1
 7899 01fc 3F       		.uleb128 0x3f
 7900 01fd 19       		.uleb128 0x19
 7901 01fe 03       		.uleb128 0x3
 7902 01ff 0E       		.uleb128 0xe
 7903 0200 3A       		.uleb128 0x3a
 7904 0201 0B       		.uleb128 0xb
 7905 0202 3B       		.uleb128 0x3b
 7906 0203 05       		.uleb128 0x5
 7907 0204 27       		.uleb128 0x27
 7908 0205 19       		.uleb128 0x19
 7909 0206 49       		.uleb128 0x49
 7910 0207 13       		.uleb128 0x13
 7911 0208 11       		.uleb128 0x11
 7912 0209 01       		.uleb128 0x1
 7913 020a 12       		.uleb128 0x12
 7914 020b 06       		.uleb128 0x6
 7915 020c 40       		.uleb128 0x40
 7916 020d 18       		.uleb128 0x18
 7917 020e 9742     		.uleb128 0x2117
 7918 0210 19       		.uleb128 0x19
 7919 0211 01       		.uleb128 0x1
 7920 0212 13       		.uleb128 0x13
 7921 0213 00       		.byte	0
 7922 0214 00       		.byte	0
 7923 0215 27       		.uleb128 0x27
 7924 0216 898201   		.uleb128 0x4109
 7925 0219 01       		.byte	0x1
 7926 021a 11       		.uleb128 0x11
 7927 021b 01       		.uleb128 0x1
 7928 021c 00       		.byte	0
ARM GAS  C:\Users\adria\AppData\Local\Temp\ccOKprka.s 			page 176


 7929 021d 00       		.byte	0
 7930 021e 28       		.uleb128 0x28
 7931 021f 898201   		.uleb128 0x4109
 7932 0222 00       		.byte	0
 7933 0223 11       		.uleb128 0x11
 7934 0224 01       		.uleb128 0x1
 7935 0225 31       		.uleb128 0x31
 7936 0226 13       		.uleb128 0x13
 7937 0227 00       		.byte	0
 7938 0228 00       		.byte	0
 7939 0229 29       		.uleb128 0x29
 7940 022a 898201   		.uleb128 0x4109
 7941 022d 01       		.byte	0x1
 7942 022e 11       		.uleb128 0x11
 7943 022f 01       		.uleb128 0x1
 7944 0230 01       		.uleb128 0x1
 7945 0231 13       		.uleb128 0x13
 7946 0232 00       		.byte	0
 7947 0233 00       		.byte	0
 7948 0234 2A       		.uleb128 0x2a
 7949 0235 2E       		.uleb128 0x2e
 7950 0236 01       		.byte	0x1
 7951 0237 3F       		.uleb128 0x3f
 7952 0238 19       		.uleb128 0x19
 7953 0239 03       		.uleb128 0x3
 7954 023a 0E       		.uleb128 0xe
 7955 023b 3A       		.uleb128 0x3a
 7956 023c 0B       		.uleb128 0xb
 7957 023d 3B       		.uleb128 0x3b
 7958 023e 05       		.uleb128 0x5
 7959 023f 27       		.uleb128 0x27
 7960 0240 19       		.uleb128 0x19
 7961 0241 11       		.uleb128 0x11
 7962 0242 01       		.uleb128 0x1
 7963 0243 12       		.uleb128 0x12
 7964 0244 06       		.uleb128 0x6
 7965 0245 40       		.uleb128 0x40
 7966 0246 18       		.uleb128 0x18
 7967 0247 9742     		.uleb128 0x2117
 7968 0249 19       		.uleb128 0x19
 7969 024a 01       		.uleb128 0x1
 7970 024b 13       		.uleb128 0x13
 7971 024c 00       		.byte	0
 7972 024d 00       		.byte	0
 7973 024e 2B       		.uleb128 0x2b
 7974 024f 2E       		.uleb128 0x2e
 7975 0250 01       		.byte	0x1
 7976 0251 3F       		.uleb128 0x3f
 7977 0252 19       		.uleb128 0x19
 7978 0253 03       		.uleb128 0x3
 7979 0254 0E       		.uleb128 0xe
 7980 0255 3A       		.uleb128 0x3a
 7981 0256 0B       		.uleb128 0xb
 7982 0257 3B       		.uleb128 0x3b
 7983 0258 05       		.uleb128 0x5
 7984 0259 27       		.uleb128 0x27
 7985 025a 19       		.uleb128 0x19
ARM GAS  C:\Users\adria\AppData\Local\Temp\ccOKprka.s 			page 177


 7986 025b 49       		.uleb128 0x49
 7987 025c 13       		.uleb128 0x13
 7988 025d 11       		.uleb128 0x11
 7989 025e 01       		.uleb128 0x1
 7990 025f 12       		.uleb128 0x12
 7991 0260 06       		.uleb128 0x6
 7992 0261 40       		.uleb128 0x40
 7993 0262 18       		.uleb128 0x18
 7994 0263 9642     		.uleb128 0x2116
 7995 0265 19       		.uleb128 0x19
 7996 0266 01       		.uleb128 0x1
 7997 0267 13       		.uleb128 0x13
 7998 0268 00       		.byte	0
 7999 0269 00       		.byte	0
 8000 026a 2C       		.uleb128 0x2c
 8001 026b 34       		.uleb128 0x34
 8002 026c 00       		.byte	0
 8003 026d 03       		.uleb128 0x3
 8004 026e 0E       		.uleb128 0xe
 8005 026f 3A       		.uleb128 0x3a
 8006 0270 0B       		.uleb128 0xb
 8007 0271 3B       		.uleb128 0x3b
 8008 0272 05       		.uleb128 0x5
 8009 0273 49       		.uleb128 0x49
 8010 0274 13       		.uleb128 0x13
 8011 0275 1C       		.uleb128 0x1c
 8012 0276 0D       		.uleb128 0xd
 8013 0277 00       		.byte	0
 8014 0278 00       		.byte	0
 8015 0279 2D       		.uleb128 0x2d
 8016 027a 34       		.uleb128 0x34
 8017 027b 00       		.byte	0
 8018 027c 03       		.uleb128 0x3
 8019 027d 0E       		.uleb128 0xe
 8020 027e 3A       		.uleb128 0x3a
 8021 027f 0B       		.uleb128 0xb
 8022 0280 3B       		.uleb128 0x3b
 8023 0281 0B       		.uleb128 0xb
 8024 0282 49       		.uleb128 0x49
 8025 0283 13       		.uleb128 0x13
 8026 0284 3F       		.uleb128 0x3f
 8027 0285 19       		.uleb128 0x19
 8028 0286 02       		.uleb128 0x2
 8029 0287 18       		.uleb128 0x18
 8030 0288 00       		.byte	0
 8031 0289 00       		.byte	0
 8032 028a 2E       		.uleb128 0x2e
 8033 028b 34       		.uleb128 0x34
 8034 028c 00       		.byte	0
 8035 028d 03       		.uleb128 0x3
 8036 028e 0E       		.uleb128 0xe
 8037 028f 3A       		.uleb128 0x3a
 8038 0290 0B       		.uleb128 0xb
 8039 0291 3B       		.uleb128 0x3b
 8040 0292 05       		.uleb128 0x5
 8041 0293 49       		.uleb128 0x49
 8042 0294 13       		.uleb128 0x13
ARM GAS  C:\Users\adria\AppData\Local\Temp\ccOKprka.s 			page 178


 8043 0295 3F       		.uleb128 0x3f
 8044 0296 19       		.uleb128 0x19
 8045 0297 3C       		.uleb128 0x3c
 8046 0298 19       		.uleb128 0x19
 8047 0299 00       		.byte	0
 8048 029a 00       		.byte	0
 8049 029b 2F       		.uleb128 0x2f
 8050 029c 35       		.uleb128 0x35
 8051 029d 00       		.byte	0
 8052 029e 49       		.uleb128 0x49
 8053 029f 13       		.uleb128 0x13
 8054 02a0 00       		.byte	0
 8055 02a1 00       		.byte	0
 8056 02a2 30       		.uleb128 0x30
 8057 02a3 2E       		.uleb128 0x2e
 8058 02a4 00       		.byte	0
 8059 02a5 3F       		.uleb128 0x3f
 8060 02a6 19       		.uleb128 0x19
 8061 02a7 3C       		.uleb128 0x3c
 8062 02a8 19       		.uleb128 0x19
 8063 02a9 6E       		.uleb128 0x6e
 8064 02aa 0E       		.uleb128 0xe
 8065 02ab 03       		.uleb128 0x3
 8066 02ac 0E       		.uleb128 0xe
 8067 02ad 3A       		.uleb128 0x3a
 8068 02ae 0B       		.uleb128 0xb
 8069 02af 3B       		.uleb128 0x3b
 8070 02b0 0B       		.uleb128 0xb
 8071 02b1 00       		.byte	0
 8072 02b2 00       		.byte	0
 8073 02b3 31       		.uleb128 0x31
 8074 02b4 2E       		.uleb128 0x2e
 8075 02b5 00       		.byte	0
 8076 02b6 3F       		.uleb128 0x3f
 8077 02b7 19       		.uleb128 0x19
 8078 02b8 3C       		.uleb128 0x3c
 8079 02b9 19       		.uleb128 0x19
 8080 02ba 6E       		.uleb128 0x6e
 8081 02bb 0E       		.uleb128 0xe
 8082 02bc 03       		.uleb128 0x3
 8083 02bd 0E       		.uleb128 0xe
 8084 02be 3A       		.uleb128 0x3a
 8085 02bf 0B       		.uleb128 0xb
 8086 02c0 3B       		.uleb128 0x3b
 8087 02c1 05       		.uleb128 0x5
 8088 02c2 00       		.byte	0
 8089 02c3 00       		.byte	0
 8090 02c4 32       		.uleb128 0x32
 8091 02c5 2E       		.uleb128 0x2e
 8092 02c6 00       		.byte	0
 8093 02c7 3F       		.uleb128 0x3f
 8094 02c8 19       		.uleb128 0x19
 8095 02c9 3C       		.uleb128 0x3c
 8096 02ca 19       		.uleb128 0x19
 8097 02cb 6E       		.uleb128 0x6e
 8098 02cc 0E       		.uleb128 0xe
 8099 02cd 03       		.uleb128 0x3
ARM GAS  C:\Users\adria\AppData\Local\Temp\ccOKprka.s 			page 179


 8100 02ce 0E       		.uleb128 0xe
 8101 02cf 00       		.byte	0
 8102 02d0 00       		.byte	0
 8103 02d1 00       		.byte	0
 8104              		.section	.debug_loc,"",%progbits
 8105              	.Ldebug_loc0:
 8106              	.LLST0:
 8107 0000 00000000 		.4byte	.LVL0
 8108 0004 0A000000 		.4byte	.LVL1
 8109 0008 0100     		.2byte	0x1
 8110 000a 50       		.byte	0x50
 8111 000b 0A000000 		.4byte	.LVL1
 8112 000f 70000000 		.4byte	.LFE77
 8113 0013 0400     		.2byte	0x4
 8114 0015 F3       		.byte	0xf3
 8115 0016 01       		.uleb128 0x1
 8116 0017 50       		.byte	0x50
 8117 0018 9F       		.byte	0x9f
 8118 0019 00000000 		.4byte	0
 8119 001d 00000000 		.4byte	0
 8120              	.LLST1:
 8121 0021 0E000000 		.4byte	.LVL2
 8122 0025 2E000000 		.4byte	.LVL4
 8123 0029 0600     		.2byte	0x6
 8124 002b 52       		.byte	0x52
 8125 002c 93       		.byte	0x93
 8126 002d 04       		.uleb128 0x4
 8127 002e 53       		.byte	0x53
 8128 002f 93       		.byte	0x93
 8129 0030 04       		.uleb128 0x4
 8130 0031 00000000 		.4byte	0
 8131 0035 00000000 		.4byte	0
 8132              	.LLST2:
 8133 0039 42000000 		.4byte	.LVL6
 8134 003d 4E000000 		.4byte	.LVL7
 8135 0041 0600     		.2byte	0x6
 8136 0043 54       		.byte	0x54
 8137 0044 93       		.byte	0x93
 8138 0045 04       		.uleb128 0x4
 8139 0046 52       		.byte	0x52
 8140 0047 93       		.byte	0x93
 8141 0048 04       		.uleb128 0x4
 8142 0049 00000000 		.4byte	0
 8143 004d 00000000 		.4byte	0
 8144              	.LLST3:
 8145 0051 68000000 		.4byte	.LVL10
 8146 0055 6C000000 		.4byte	.LVL11
 8147 0059 0900     		.2byte	0x9
 8148 005b 70       		.byte	0x70
 8149 005c 00       		.sleb128 0
 8150 005d 09       		.byte	0x9
 8151 005e EC       		.byte	0xec
 8152 005f 24       		.byte	0x24
 8153 0060 09       		.byte	0x9
 8154 0061 F4       		.byte	0xf4
 8155 0062 26       		.byte	0x26
 8156 0063 9F       		.byte	0x9f
ARM GAS  C:\Users\adria\AppData\Local\Temp\ccOKprka.s 			page 180


 8157 0064 6C000000 		.4byte	.LVL11
 8158 0068 70000000 		.4byte	.LFE77
 8159 006c 0F00     		.2byte	0xf
 8160 006e 71       		.byte	0x71
 8161 006f 30       		.sleb128 48
 8162 0070 06       		.byte	0x6
 8163 0071 35       		.byte	0x35
 8164 0072 1E       		.byte	0x1e
 8165 0073 23       		.byte	0x23
 8166 0074 8001     		.uleb128 0x80
 8167 0076 09       		.byte	0x9
 8168 0077 EC       		.byte	0xec
 8169 0078 24       		.byte	0x24
 8170 0079 09       		.byte	0x9
 8171 007a F4       		.byte	0xf4
 8172 007b 26       		.byte	0x26
 8173 007c 9F       		.byte	0x9f
 8174 007d 00000000 		.4byte	0
 8175 0081 00000000 		.4byte	0
 8176              	.LLST4:
 8177 0085 00000000 		.4byte	.LVL13
 8178 0089 5E000000 		.4byte	.LVL24
 8179 008d 0100     		.2byte	0x1
 8180 008f 50       		.byte	0x50
 8181 0090 5E000000 		.4byte	.LVL24
 8182 0094 C4000000 		.4byte	.LFE78
 8183 0098 0400     		.2byte	0x4
 8184 009a F3       		.byte	0xf3
 8185 009b 01       		.uleb128 0x1
 8186 009c 50       		.byte	0x50
 8187 009d 9F       		.byte	0x9f
 8188 009e 00000000 		.4byte	0
 8189 00a2 00000000 		.4byte	0
 8190              	.LLST5:
 8191 00a6 0A000000 		.4byte	.LVL14
 8192 00aa 46000000 		.4byte	.LVL18
 8193 00ae 0100     		.2byte	0x1
 8194 00b0 54       		.byte	0x54
 8195 00b1 46000000 		.4byte	.LVL18
 8196 00b5 4C000000 		.4byte	.LVL19
 8197 00b9 0A00     		.2byte	0xa
 8198 00bb 71       		.byte	0x71
 8199 00bc 30       		.sleb128 48
 8200 00bd 06       		.byte	0x6
 8201 00be 31       		.byte	0x31
 8202 00bf 26       		.byte	0x26
 8203 00c0 0A       		.byte	0xa
 8204 00c1 00FA     		.2byte	0xfa00
 8205 00c3 1C       		.byte	0x1c
 8206 00c4 9F       		.byte	0x9f
 8207 00c5 4C000000 		.4byte	.LVL19
 8208 00c9 52000000 		.4byte	.LVL21
 8209 00cd 0100     		.2byte	0x1
 8210 00cf 52       		.byte	0x52
 8211 00d0 52000000 		.4byte	.LVL21
 8212 00d4 58000000 		.4byte	.LVL22
 8213 00d8 0500     		.2byte	0x5
ARM GAS  C:\Users\adria\AppData\Local\Temp\ccOKprka.s 			page 181


 8214 00da 72       		.byte	0x72
 8215 00db 80807E   		.sleb128 -32768
 8216 00de 9F       		.byte	0x9f
 8217 00df 58000000 		.4byte	.LVL22
 8218 00e3 5A000000 		.4byte	.LVL23
 8219 00e7 3800     		.2byte	0x38
 8220 00e9 71       		.byte	0x71
 8221 00ea 20       		.sleb128 32
 8222 00eb 94       		.byte	0x94
 8223 00ec 01       		.byte	0x1
 8224 00ed 48       		.byte	0x48
 8225 00ee 24       		.byte	0x24
 8226 00ef 48       		.byte	0x48
 8227 00f0 26       		.byte	0x26
 8228 00f1 35       		.byte	0x35
 8229 00f2 24       		.byte	0x24
 8230 00f3 71       		.byte	0x71
 8231 00f4 30       		.sleb128 48
 8232 00f5 06       		.byte	0x6
 8233 00f6 31       		.byte	0x31
 8234 00f7 26       		.byte	0x26
 8235 00f8 0A       		.byte	0xa
 8236 00f9 00FA     		.2byte	0xfa00
 8237 00fb 1C       		.byte	0x1c
 8238 00fc 32       		.byte	0x32
 8239 00fd 26       		.byte	0x26
 8240 00fe 71       		.byte	0x71
 8241 00ff 30       		.sleb128 48
 8242 0100 06       		.byte	0x6
 8243 0101 31       		.byte	0x31
 8244 0102 26       		.byte	0x26
 8245 0103 0A       		.byte	0xa
 8246 0104 00FA     		.2byte	0xfa00
 8247 0106 1C       		.byte	0x1c
 8248 0107 32       		.byte	0x32
 8249 0108 26       		.byte	0x26
 8250 0109 1E       		.byte	0x1e
 8251 010a 3D       		.byte	0x3d
 8252 010b 26       		.byte	0x26
 8253 010c 1E       		.byte	0x1e
 8254 010d 33       		.byte	0x33
 8255 010e 26       		.byte	0x26
 8256 010f 71       		.byte	0x71
 8257 0110 30       		.sleb128 48
 8258 0111 06       		.byte	0x6
 8259 0112 31       		.byte	0x31
 8260 0113 26       		.byte	0x26
 8261 0114 0A       		.byte	0xa
 8262 0115 00FA     		.2byte	0xfa00
 8263 0117 1C       		.byte	0x1c
 8264 0118 75       		.byte	0x75
 8265 0119 00       		.sleb128 0
 8266 011a 1E       		.byte	0x1e
 8267 011b 31       		.byte	0x31
 8268 011c 26       		.byte	0x26
 8269 011d 22       		.byte	0x22
 8270 011e 42       		.byte	0x42
ARM GAS  C:\Users\adria\AppData\Local\Temp\ccOKprka.s 			page 182


 8271 011f 26       		.byte	0x26
 8272 0120 9F       		.byte	0x9f
 8273 0121 5A000000 		.4byte	.LVL23
 8274 0125 82000000 		.4byte	.LVL31
 8275 0129 0100     		.2byte	0x1
 8276 012b 52       		.byte	0x52
 8277 012c 82000000 		.4byte	.LVL31
 8278 0130 8E000000 		.4byte	.LVL32
 8279 0134 4700     		.2byte	0x47
 8280 0136 71       		.byte	0x71
 8281 0137 20       		.sleb128 32
 8282 0138 94       		.byte	0x94
 8283 0139 01       		.byte	0x1
 8284 013a 48       		.byte	0x48
 8285 013b 24       		.byte	0x24
 8286 013c 48       		.byte	0x48
 8287 013d 26       		.byte	0x26
 8288 013e 35       		.byte	0x35
 8289 013f 24       		.byte	0x24
 8290 0140 71       		.byte	0x71
 8291 0141 30       		.sleb128 48
 8292 0142 06       		.byte	0x6
 8293 0143 31       		.byte	0x31
 8294 0144 26       		.byte	0x26
 8295 0145 0A       		.byte	0xa
 8296 0146 00FA     		.2byte	0xfa00
 8297 0148 1C       		.byte	0x1c
 8298 0149 32       		.byte	0x32
 8299 014a 26       		.byte	0x26
 8300 014b 71       		.byte	0x71
 8301 014c 30       		.sleb128 48
 8302 014d 06       		.byte	0x6
 8303 014e 31       		.byte	0x31
 8304 014f 26       		.byte	0x26
 8305 0150 0A       		.byte	0xa
 8306 0151 00FA     		.2byte	0xfa00
 8307 0153 1C       		.byte	0x1c
 8308 0154 32       		.byte	0x32
 8309 0155 26       		.byte	0x26
 8310 0156 1E       		.byte	0x1e
 8311 0157 3D       		.byte	0x3d
 8312 0158 26       		.byte	0x26
 8313 0159 1E       		.byte	0x1e
 8314 015a 33       		.byte	0x33
 8315 015b 26       		.byte	0x26
 8316 015c 71       		.byte	0x71
 8317 015d 30       		.sleb128 48
 8318 015e 06       		.byte	0x6
 8319 015f 31       		.byte	0x31
 8320 0160 26       		.byte	0x26
 8321 0161 0A       		.byte	0xa
 8322 0162 00FA     		.2byte	0xfa00
 8323 0164 1C       		.byte	0x1c
 8324 0165 75       		.byte	0x75
 8325 0166 00       		.sleb128 0
 8326 0167 1E       		.byte	0x1e
 8327 0168 31       		.byte	0x31
ARM GAS  C:\Users\adria\AppData\Local\Temp\ccOKprka.s 			page 183


 8328 0169 26       		.byte	0x26
 8329 016a 22       		.byte	0x22
 8330 016b 42       		.byte	0x42
 8331 016c 26       		.byte	0x26
 8332 016d 23       		.byte	0x23
 8333 016e 808002   		.uleb128 0x8000
 8334 0171 71       		.byte	0x71
 8335 0172 1C       		.sleb128 28
 8336 0173 94       		.byte	0x94
 8337 0174 02       		.byte	0x2
 8338 0175 0A       		.byte	0xa
 8339 0176 FFFF     		.2byte	0xffff
 8340 0178 1A       		.byte	0x1a
 8341 0179 1E       		.byte	0x1e
 8342 017a 3F       		.byte	0x3f
 8343 017b 26       		.byte	0x26
 8344 017c 9F       		.byte	0x9f
 8345 017d 8E000000 		.4byte	.LVL32
 8346 0181 C2000000 		.4byte	.LVL39
 8347 0185 0500     		.2byte	0x5
 8348 0187 75       		.byte	0x75
 8349 0188 00       		.sleb128 0
 8350 0189 3C       		.byte	0x3c
 8351 018a 26       		.byte	0x26
 8352 018b 9F       		.byte	0x9f
 8353 018c C2000000 		.4byte	.LVL39
 8354 0190 C4000000 		.4byte	.LFE78
 8355 0194 1700     		.2byte	0x17
 8356 0196 73       		.byte	0x73
 8357 0197 00       		.sleb128 0
 8358 0198 33       		.byte	0x33
 8359 0199 26       		.byte	0x26
 8360 019a 73       		.byte	0x73
 8361 019b 00       		.sleb128 0
 8362 019c 33       		.byte	0x33
 8363 019d 26       		.byte	0x26
 8364 019e 1E       		.byte	0x1e
 8365 019f 3D       		.byte	0x3d
 8366 01a0 26       		.byte	0x26
 8367 01a1 71       		.byte	0x71
 8368 01a2 2A       		.sleb128 42
 8369 01a3 94       		.byte	0x94
 8370 01a4 02       		.byte	0x2
 8371 01a5 40       		.byte	0x40
 8372 01a6 24       		.byte	0x24
 8373 01a7 40       		.byte	0x40
 8374 01a8 26       		.byte	0x26
 8375 01a9 1E       		.byte	0x1e
 8376 01aa 3C       		.byte	0x3c
 8377 01ab 26       		.byte	0x26
 8378 01ac 9F       		.byte	0x9f
 8379 01ad 00000000 		.4byte	0
 8380 01b1 00000000 		.4byte	0
 8381              	.LLST6:
 8382 01b5 1A000000 		.4byte	.LVL15
 8383 01b9 28000000 		.4byte	.LVL16
 8384 01bd 0500     		.2byte	0x5
ARM GAS  C:\Users\adria\AppData\Local\Temp\ccOKprka.s 			page 184


 8385 01bf 72       		.byte	0x72
 8386 01c0 00       		.sleb128 0
 8387 01c1 32       		.byte	0x32
 8388 01c2 26       		.byte	0x26
 8389 01c3 9F       		.byte	0x9f
 8390 01c4 28000000 		.4byte	.LVL16
 8391 01c8 62000000 		.4byte	.LVL25
 8392 01cc 0100     		.2byte	0x1
 8393 01ce 53       		.byte	0x53
 8394 01cf 62000000 		.4byte	.LVL25
 8395 01d3 9A000000 		.4byte	.LVL33
 8396 01d7 4700     		.2byte	0x47
 8397 01d9 71       		.byte	0x71
 8398 01da 30       		.sleb128 48
 8399 01db 06       		.byte	0x6
 8400 01dc 31       		.byte	0x31
 8401 01dd 26       		.byte	0x26
 8402 01de 0A       		.byte	0xa
 8403 01df 00FA     		.2byte	0xfa00
 8404 01e1 1C       		.byte	0x1c
 8405 01e2 32       		.byte	0x32
 8406 01e3 26       		.byte	0x26
 8407 01e4 71       		.byte	0x71
 8408 01e5 30       		.sleb128 48
 8409 01e6 06       		.byte	0x6
 8410 01e7 31       		.byte	0x31
 8411 01e8 26       		.byte	0x26
 8412 01e9 0A       		.byte	0xa
 8413 01ea 00FA     		.2byte	0xfa00
 8414 01ec 1C       		.byte	0x1c
 8415 01ed 32       		.byte	0x32
 8416 01ee 26       		.byte	0x26
 8417 01ef 1E       		.byte	0x1e
 8418 01f0 3B       		.byte	0x3b
 8419 01f1 26       		.byte	0x26
 8420 01f2 71       		.byte	0x71
 8421 01f3 26       		.sleb128 38
 8422 01f4 94       		.byte	0x94
 8423 01f5 01       		.byte	0x1
 8424 01f6 48       		.byte	0x48
 8425 01f7 24       		.byte	0x24
 8426 01f8 48       		.byte	0x48
 8427 01f9 26       		.byte	0x26
 8428 01fa 1E       		.byte	0x1e
 8429 01fb 32       		.byte	0x32
 8430 01fc 26       		.byte	0x26
 8431 01fd 71       		.byte	0x71
 8432 01fe 30       		.sleb128 48
 8433 01ff 06       		.byte	0x6
 8434 0200 31       		.byte	0x31
 8435 0201 26       		.byte	0x26
 8436 0202 0A       		.byte	0xa
 8437 0203 00FA     		.2byte	0xfa00
 8438 0205 1C       		.byte	0x1c
 8439 0206 71       		.byte	0x71
 8440 0207 24       		.sleb128 36
 8441 0208 94       		.byte	0x94
ARM GAS  C:\Users\adria\AppData\Local\Temp\ccOKprka.s 			page 185


 8442 0209 02       		.byte	0x2
 8443 020a 40       		.byte	0x40
 8444 020b 24       		.byte	0x24
 8445 020c 40       		.byte	0x40
 8446 020d 26       		.byte	0x26
 8447 020e 1E       		.byte	0x1e
 8448 020f 31       		.byte	0x31
 8449 0210 24       		.byte	0x24
 8450 0211 22       		.byte	0x22
 8451 0212 32       		.byte	0x32
 8452 0213 26       		.byte	0x26
 8453 0214 71       		.byte	0x71
 8454 0215 22       		.sleb128 34
 8455 0216 94       		.byte	0x94
 8456 0217 02       		.byte	0x2
 8457 0218 40       		.byte	0x40
 8458 0219 24       		.byte	0x24
 8459 021a 40       		.byte	0x40
 8460 021b 26       		.byte	0x26
 8461 021c 40       		.byte	0x40
 8462 021d 24       		.byte	0x24
 8463 021e 22       		.byte	0x22
 8464 021f 9F       		.byte	0x9f
 8465 0220 9A000000 		.4byte	.LVL33
 8466 0224 B0000000 		.4byte	.LVL35
 8467 0228 0100     		.2byte	0x1
 8468 022a 52       		.byte	0x52
 8469 022b B0000000 		.4byte	.LVL35
 8470 022f C4000000 		.4byte	.LFE78
 8471 0233 1000     		.2byte	0x10
 8472 0235 73       		.byte	0x73
 8473 0236 00       		.sleb128 0
 8474 0237 32       		.byte	0x32
 8475 0238 26       		.byte	0x26
 8476 0239 71       		.byte	0x71
 8477 023a 28       		.sleb128 40
 8478 023b 94       		.byte	0x94
 8479 023c 02       		.byte	0x2
 8480 023d 40       		.byte	0x40
 8481 023e 24       		.byte	0x24
 8482 023f 40       		.byte	0x40
 8483 0240 26       		.byte	0x26
 8484 0241 1E       		.byte	0x1e
 8485 0242 3D       		.byte	0x3d
 8486 0243 26       		.byte	0x26
 8487 0244 9F       		.byte	0x9f
 8488 0245 00000000 		.4byte	0
 8489 0249 00000000 		.4byte	0
 8490              	.LLST7:
 8491 024d AC000000 		.4byte	.LVL34
 8492 0251 B4000000 		.4byte	.LVL36
 8493 0255 0500     		.2byte	0x5
 8494 0257 70       		.byte	0x70
 8495 0258 00       		.sleb128 0
 8496 0259 41       		.byte	0x41
 8497 025a 26       		.byte	0x26
 8498 025b 9F       		.byte	0x9f
ARM GAS  C:\Users\adria\AppData\Local\Temp\ccOKprka.s 			page 186


 8499 025c B4000000 		.4byte	.LVL36
 8500 0260 C2000000 		.4byte	.LVL39
 8501 0264 1400     		.2byte	0x14
 8502 0266 73       		.byte	0x73
 8503 0267 00       		.sleb128 0
 8504 0268 38       		.byte	0x38
 8505 0269 26       		.byte	0x26
 8506 026a 73       		.byte	0x73
 8507 026b 00       		.sleb128 0
 8508 026c 38       		.byte	0x38
 8509 026d 26       		.byte	0x26
 8510 026e 1E       		.byte	0x1e
 8511 026f 73       		.byte	0x73
 8512 0270 00       		.sleb128 0
 8513 0271 38       		.byte	0x38
 8514 0272 26       		.byte	0x26
 8515 0273 1E       		.byte	0x1e
 8516 0274 74       		.byte	0x74
 8517 0275 00       		.sleb128 0
 8518 0276 1E       		.byte	0x1e
 8519 0277 41       		.byte	0x41
 8520 0278 26       		.byte	0x26
 8521 0279 9F       		.byte	0x9f
 8522 027a C2000000 		.4byte	.LVL39
 8523 027e C4000000 		.4byte	.LFE78
 8524 0282 1900     		.2byte	0x19
 8525 0284 73       		.byte	0x73
 8526 0285 00       		.sleb128 0
 8527 0286 38       		.byte	0x38
 8528 0287 26       		.byte	0x26
 8529 0288 73       		.byte	0x73
 8530 0289 00       		.sleb128 0
 8531 028a 38       		.byte	0x38
 8532 028b 26       		.byte	0x26
 8533 028c 1E       		.byte	0x1e
 8534 028d 73       		.byte	0x73
 8535 028e 00       		.sleb128 0
 8536 028f 38       		.byte	0x38
 8537 0290 26       		.byte	0x26
 8538 0291 1E       		.byte	0x1e
 8539 0292 71       		.byte	0x71
 8540 0293 2C       		.sleb128 44
 8541 0294 94       		.byte	0x94
 8542 0295 01       		.byte	0x1
 8543 0296 08       		.byte	0x8
 8544 0297 FF       		.byte	0xff
 8545 0298 1A       		.byte	0x1a
 8546 0299 1E       		.byte	0x1e
 8547 029a 41       		.byte	0x41
 8548 029b 26       		.byte	0x26
 8549 029c 9F       		.byte	0x9f
 8550 029d 00000000 		.4byte	0
 8551 02a1 00000000 		.4byte	0
 8552              	.LLST8:
 8553 02a5 5E000000 		.4byte	.LVL24
 8554 02a9 76000000 		.4byte	.LVL27
 8555 02ad 0100     		.2byte	0x1
ARM GAS  C:\Users\adria\AppData\Local\Temp\ccOKprka.s 			page 187


 8556 02af 50       		.byte	0x50
 8557 02b0 76000000 		.4byte	.LVL27
 8558 02b4 78000000 		.4byte	.LVL28
 8559 02b8 0100     		.2byte	0x1
 8560 02ba 53       		.byte	0x53
 8561 02bb 78000000 		.4byte	.LVL28
 8562 02bf 7A000000 		.4byte	.LVL29
 8563 02c3 0100     		.2byte	0x1
 8564 02c5 50       		.byte	0x50
 8565 02c6 7A000000 		.4byte	.LVL29
 8566 02ca 7E000000 		.4byte	.LVL30
 8567 02ce 0600     		.2byte	0x6
 8568 02d0 74       		.byte	0x74
 8569 02d1 00       		.sleb128 0
 8570 02d2 73       		.byte	0x73
 8571 02d3 00       		.sleb128 0
 8572 02d4 1E       		.byte	0x1e
 8573 02d5 9F       		.byte	0x9f
 8574 02d6 7E000000 		.4byte	.LVL30
 8575 02da BC000000 		.4byte	.LVL37
 8576 02de 0100     		.2byte	0x1
 8577 02e0 53       		.byte	0x53
 8578 02e1 BC000000 		.4byte	.LVL37
 8579 02e5 C0000000 		.4byte	.LVL38
 8580 02e9 0800     		.2byte	0x8
 8581 02eb 70       		.byte	0x70
 8582 02ec 00       		.sleb128 0
 8583 02ed 34       		.byte	0x34
 8584 02ee 26       		.byte	0x26
 8585 02ef 73       		.byte	0x73
 8586 02f0 00       		.sleb128 0
 8587 02f1 22       		.byte	0x22
 8588 02f2 9F       		.byte	0x9f
 8589 02f3 C0000000 		.4byte	.LVL38
 8590 02f7 C4000000 		.4byte	.LFE78
 8591 02fb 0100     		.2byte	0x1
 8592 02fd 50       		.byte	0x50
 8593 02fe 00000000 		.4byte	0
 8594 0302 00000000 		.4byte	0
 8595              	.LLST9:
 8596 0306 00000000 		.4byte	.LVL40
 8597 030a 12000000 		.4byte	.LVL42
 8598 030e 0100     		.2byte	0x1
 8599 0310 50       		.byte	0x50
 8600 0311 12000000 		.4byte	.LVL42
 8601 0315 C4000000 		.4byte	.LFE79
 8602 0319 0400     		.2byte	0x4
 8603 031b F3       		.byte	0xf3
 8604 031c 01       		.uleb128 0x1
 8605 031d 50       		.byte	0x50
 8606 031e 9F       		.byte	0x9f
 8607 031f 00000000 		.4byte	0
 8608 0323 00000000 		.4byte	0
 8609              	.LLST10:
 8610 0327 2A000000 		.4byte	.LVL43
 8611 032b 70000000 		.4byte	.LVL45
 8612 032f 0100     		.2byte	0x1
ARM GAS  C:\Users\adria\AppData\Local\Temp\ccOKprka.s 			page 188


 8613 0331 50       		.byte	0x50
 8614 0332 00000000 		.4byte	0
 8615 0336 00000000 		.4byte	0
 8616              	.LLST11:
 8617 033a 6C000000 		.4byte	.LVL44
 8618 033e 76000000 		.4byte	.LVL47
 8619 0342 0100     		.2byte	0x1
 8620 0344 53       		.byte	0x53
 8621 0345 76000000 		.4byte	.LVL47
 8622 0349 7A000000 		.4byte	.LVL48
 8623 034d 4400     		.2byte	0x44
 8624 034f 7E       		.byte	0x7e
 8625 0350 00       		.sleb128 0
 8626 0351 35       		.byte	0x35
 8627 0352 26       		.byte	0x26
 8628 0353 71       		.byte	0x71
 8629 0354 0E       		.sleb128 14
 8630 0355 94       		.byte	0x94
 8631 0356 01       		.byte	0x1
 8632 0357 48       		.byte	0x48
 8633 0358 24       		.byte	0x24
 8634 0359 48       		.byte	0x48
 8635 035a 26       		.byte	0x26
 8636 035b 74       		.byte	0x74
 8637 035c 00       		.sleb128 0
 8638 035d 1E       		.byte	0x1e
 8639 035e F7       		.byte	0xf7
 8640 035f 33       		.uleb128 0x33
 8641 0360 F7       		.byte	0xf7
 8642 0361 25       		.uleb128 0x25
 8643 0362 75       		.byte	0x75
 8644 0363 00       		.sleb128 0
 8645 0364 F7       		.byte	0xf7
 8646 0365 33       		.uleb128 0x33
 8647 0366 F7       		.byte	0xf7
 8648 0367 25       		.uleb128 0x25
 8649 0368 1E       		.byte	0x1e
 8650 0369 08       		.byte	0x8
 8651 036a 20       		.byte	0x20
 8652 036b F7       		.byte	0xf7
 8653 036c 25       		.uleb128 0x25
 8654 036d 25       		.byte	0x25
 8655 036e F7       		.byte	0xf7
 8656 036f 2C       		.uleb128 0x2c
 8657 0370 35       		.byte	0x35
 8658 0371 26       		.byte	0x26
 8659 0372 71       		.byte	0x71
 8660 0373 0E       		.sleb128 14
 8661 0374 94       		.byte	0x94
 8662 0375 01       		.byte	0x1
 8663 0376 48       		.byte	0x48
 8664 0377 24       		.byte	0x24
 8665 0378 48       		.byte	0x48
 8666 0379 26       		.byte	0x26
 8667 037a 74       		.byte	0x74
 8668 037b 00       		.sleb128 0
 8669 037c 1E       		.byte	0x1e
ARM GAS  C:\Users\adria\AppData\Local\Temp\ccOKprka.s 			page 189


 8670 037d 4F       		.byte	0x4f
 8671 037e 26       		.byte	0x26
 8672 037f 1C       		.byte	0x1c
 8673 0380 74       		.byte	0x74
 8674 0381 00       		.sleb128 0
 8675 0382 1E       		.byte	0x1e
 8676 0383 4F       		.byte	0x4f
 8677 0384 26       		.byte	0x26
 8678 0385 1C       		.byte	0x1c
 8679 0386 77       		.byte	0x77
 8680 0387 00       		.sleb128 0
 8681 0388 22       		.byte	0x22
 8682 0389 23       		.byte	0x23
 8683 038a 808001   		.uleb128 0x4000
 8684 038d 76       		.byte	0x76
 8685 038e 00       		.sleb128 0
 8686 038f 1E       		.byte	0x1e
 8687 0390 3A       		.byte	0x3a
 8688 0391 26       		.byte	0x26
 8689 0392 9F       		.byte	0x9f
 8690 0393 7A000000 		.4byte	.LVL48
 8691 0397 7E000000 		.4byte	.LVL49
 8692 039b 5C00     		.2byte	0x5c
 8693 039d 7E       		.byte	0x7e
 8694 039e 00       		.sleb128 0
 8695 039f 35       		.byte	0x35
 8696 03a0 26       		.byte	0x26
 8697 03a1 71       		.byte	0x71
 8698 03a2 30       		.sleb128 48
 8699 03a3 06       		.byte	0x6
 8700 03a4 35       		.byte	0x35
 8701 03a5 1E       		.byte	0x1e
 8702 03a6 23       		.byte	0x23
 8703 03a7 8001     		.uleb128 0x80
 8704 03a9 38       		.byte	0x38
 8705 03aa 26       		.byte	0x26
 8706 03ab F7       		.byte	0xf7
 8707 03ac 33       		.uleb128 0x33
 8708 03ad F7       		.byte	0xf7
 8709 03ae 25       		.uleb128 0x25
 8710 03af 71       		.byte	0x71
 8711 03b0 0E       		.sleb128 14
 8712 03b1 94       		.byte	0x94
 8713 03b2 01       		.byte	0x1
 8714 03b3 F7       		.byte	0xf7
 8715 03b4 3A       		.uleb128 0x3a
 8716 03b5 F7       		.byte	0xf7
 8717 03b6 25       		.uleb128 0x25
 8718 03b7 1E       		.byte	0x1e
 8719 03b8 75       		.byte	0x75
 8720 03b9 00       		.sleb128 0
 8721 03ba F7       		.byte	0xf7
 8722 03bb 33       		.uleb128 0x33
 8723 03bc F7       		.byte	0xf7
 8724 03bd 25       		.uleb128 0x25
 8725 03be 1E       		.byte	0x1e
 8726 03bf 08       		.byte	0x8
ARM GAS  C:\Users\adria\AppData\Local\Temp\ccOKprka.s 			page 190


 8727 03c0 20       		.byte	0x20
 8728 03c1 F7       		.byte	0xf7
 8729 03c2 25       		.uleb128 0x25
 8730 03c3 25       		.byte	0x25
 8731 03c4 F7       		.byte	0xf7
 8732 03c5 2C       		.uleb128 0x2c
 8733 03c6 35       		.byte	0x35
 8734 03c7 26       		.byte	0x26
 8735 03c8 71       		.byte	0x71
 8736 03c9 30       		.sleb128 48
 8737 03ca 06       		.byte	0x6
 8738 03cb 35       		.byte	0x35
 8739 03cc 1E       		.byte	0x1e
 8740 03cd 23       		.byte	0x23
 8741 03ce 8001     		.uleb128 0x80
 8742 03d0 38       		.byte	0x38
 8743 03d1 26       		.byte	0x26
 8744 03d2 71       		.byte	0x71
 8745 03d3 0E       		.sleb128 14
 8746 03d4 94       		.byte	0x94
 8747 03d5 01       		.byte	0x1
 8748 03d6 48       		.byte	0x48
 8749 03d7 24       		.byte	0x24
 8750 03d8 48       		.byte	0x48
 8751 03d9 26       		.byte	0x26
 8752 03da 1E       		.byte	0x1e
 8753 03db 4F       		.byte	0x4f
 8754 03dc 26       		.byte	0x26
 8755 03dd 1C       		.byte	0x1c
 8756 03de 71       		.byte	0x71
 8757 03df 30       		.sleb128 48
 8758 03e0 06       		.byte	0x6
 8759 03e1 35       		.byte	0x35
 8760 03e2 1E       		.byte	0x1e
 8761 03e3 23       		.byte	0x23
 8762 03e4 8001     		.uleb128 0x80
 8763 03e6 38       		.byte	0x38
 8764 03e7 26       		.byte	0x26
 8765 03e8 1E       		.byte	0x1e
 8766 03e9 4F       		.byte	0x4f
 8767 03ea 26       		.byte	0x26
 8768 03eb 1C       		.byte	0x1c
 8769 03ec 77       		.byte	0x77
 8770 03ed 00       		.sleb128 0
 8771 03ee 22       		.byte	0x22
 8772 03ef 23       		.byte	0x23
 8773 03f0 808001   		.uleb128 0x4000
 8774 03f3 76       		.byte	0x76
 8775 03f4 00       		.sleb128 0
 8776 03f5 1E       		.byte	0x1e
 8777 03f6 3A       		.byte	0x3a
 8778 03f7 26       		.byte	0x26
 8779 03f8 9F       		.byte	0x9f
 8780 03f9 7E000000 		.4byte	.LVL49
 8781 03fd BA000000 		.4byte	.LVL60
 8782 0401 5D00     		.2byte	0x5d
 8783 0403 7E       		.byte	0x7e
ARM GAS  C:\Users\adria\AppData\Local\Temp\ccOKprka.s 			page 191


 8784 0404 00       		.sleb128 0
 8785 0405 35       		.byte	0x35
 8786 0406 26       		.byte	0x26
 8787 0407 71       		.byte	0x71
 8788 0408 30       		.sleb128 48
 8789 0409 06       		.byte	0x6
 8790 040a 35       		.byte	0x35
 8791 040b 1E       		.byte	0x1e
 8792 040c 23       		.byte	0x23
 8793 040d 8001     		.uleb128 0x80
 8794 040f 38       		.byte	0x38
 8795 0410 26       		.byte	0x26
 8796 0411 F7       		.byte	0xf7
 8797 0412 33       		.uleb128 0x33
 8798 0413 F7       		.byte	0xf7
 8799 0414 25       		.uleb128 0x25
 8800 0415 71       		.byte	0x71
 8801 0416 0E       		.sleb128 14
 8802 0417 94       		.byte	0x94
 8803 0418 01       		.byte	0x1
 8804 0419 F7       		.byte	0xf7
 8805 041a 3A       		.uleb128 0x3a
 8806 041b F7       		.byte	0xf7
 8807 041c 25       		.uleb128 0x25
 8808 041d 1E       		.byte	0x1e
 8809 041e 0C       		.byte	0xc
 8810 041f 1F85EB51 		.4byte	0x51eb851f
 8811 0423 F7       		.byte	0xf7
 8812 0424 25       		.uleb128 0x25
 8813 0425 1E       		.byte	0x1e
 8814 0426 08       		.byte	0x8
 8815 0427 20       		.byte	0x20
 8816 0428 F7       		.byte	0xf7
 8817 0429 25       		.uleb128 0x25
 8818 042a 25       		.byte	0x25
 8819 042b F7       		.byte	0xf7
 8820 042c 2C       		.uleb128 0x2c
 8821 042d 35       		.byte	0x35
 8822 042e 26       		.byte	0x26
 8823 042f 71       		.byte	0x71
 8824 0430 30       		.sleb128 48
 8825 0431 06       		.byte	0x6
 8826 0432 35       		.byte	0x35
 8827 0433 1E       		.byte	0x1e
 8828 0434 23       		.byte	0x23
 8829 0435 8001     		.uleb128 0x80
 8830 0437 38       		.byte	0x38
 8831 0438 26       		.byte	0x26
 8832 0439 71       		.byte	0x71
 8833 043a 0E       		.sleb128 14
 8834 043b 94       		.byte	0x94
 8835 043c 01       		.byte	0x1
 8836 043d 48       		.byte	0x48
 8837 043e 24       		.byte	0x24
 8838 043f 48       		.byte	0x48
 8839 0440 26       		.byte	0x26
 8840 0441 1E       		.byte	0x1e
ARM GAS  C:\Users\adria\AppData\Local\Temp\ccOKprka.s 			page 192


 8841 0442 4F       		.byte	0x4f
 8842 0443 26       		.byte	0x26
 8843 0444 1C       		.byte	0x1c
 8844 0445 71       		.byte	0x71
 8845 0446 30       		.sleb128 48
 8846 0447 06       		.byte	0x6
 8847 0448 35       		.byte	0x35
 8848 0449 1E       		.byte	0x1e
 8849 044a 23       		.byte	0x23
 8850 044b 8001     		.uleb128 0x80
 8851 044d 38       		.byte	0x38
 8852 044e 26       		.byte	0x26
 8853 044f 1E       		.byte	0x1e
 8854 0450 4F       		.byte	0x4f
 8855 0451 26       		.byte	0x26
 8856 0452 1C       		.byte	0x1c
 8857 0453 77       		.byte	0x77
 8858 0454 00       		.sleb128 0
 8859 0455 22       		.byte	0x22
 8860 0456 23       		.byte	0x23
 8861 0457 808001   		.uleb128 0x4000
 8862 045a 76       		.byte	0x76
 8863 045b 00       		.sleb128 0
 8864 045c 1E       		.byte	0x1e
 8865 045d 3A       		.byte	0x3a
 8866 045e 26       		.byte	0x26
 8867 045f 9F       		.byte	0x9f
 8868 0460 BA000000 		.4byte	.LVL60
 8869 0464 C4000000 		.4byte	.LFE79
 8870 0468 9F00     		.2byte	0x9f
 8871 046a 71       		.byte	0x71
 8872 046b 30       		.sleb128 48
 8873 046c 06       		.byte	0x6
 8874 046d 35       		.byte	0x35
 8875 046e 1E       		.byte	0x1e
 8876 046f 23       		.byte	0x23
 8877 0470 8001     		.uleb128 0x80
 8878 0472 38       		.byte	0x38
 8879 0473 26       		.byte	0x26
 8880 0474 F7       		.byte	0xf7
 8881 0475 33       		.uleb128 0x33
 8882 0476 F7       		.byte	0xf7
 8883 0477 25       		.uleb128 0x25
 8884 0478 71       		.byte	0x71
 8885 0479 0D       		.sleb128 13
 8886 047a 94       		.byte	0x94
 8887 047b 01       		.byte	0x1
 8888 047c F7       		.byte	0xf7
 8889 047d 3A       		.uleb128 0x3a
 8890 047e F7       		.byte	0xf7
 8891 047f 25       		.uleb128 0x25
 8892 0480 1E       		.byte	0x1e
 8893 0481 0C       		.byte	0xc
 8894 0482 1F85EB51 		.4byte	0x51eb851f
 8895 0486 F7       		.byte	0xf7
 8896 0487 25       		.uleb128 0x25
 8897 0488 1E       		.byte	0x1e
ARM GAS  C:\Users\adria\AppData\Local\Temp\ccOKprka.s 			page 193


 8898 0489 08       		.byte	0x8
 8899 048a 20       		.byte	0x20
 8900 048b F7       		.byte	0xf7
 8901 048c 25       		.uleb128 0x25
 8902 048d 25       		.byte	0x25
 8903 048e F7       		.byte	0xf7
 8904 048f 2C       		.uleb128 0x2c
 8905 0490 35       		.byte	0x35
 8906 0491 26       		.byte	0x26
 8907 0492 71       		.byte	0x71
 8908 0493 30       		.sleb128 48
 8909 0494 06       		.byte	0x6
 8910 0495 35       		.byte	0x35
 8911 0496 1E       		.byte	0x1e
 8912 0497 23       		.byte	0x23
 8913 0498 8001     		.uleb128 0x80
 8914 049a 38       		.byte	0x38
 8915 049b 26       		.byte	0x26
 8916 049c F7       		.byte	0xf7
 8917 049d 33       		.uleb128 0x33
 8918 049e F7       		.byte	0xf7
 8919 049f 25       		.uleb128 0x25
 8920 04a0 71       		.byte	0x71
 8921 04a1 0E       		.sleb128 14
 8922 04a2 94       		.byte	0x94
 8923 04a3 01       		.byte	0x1
 8924 04a4 F7       		.byte	0xf7
 8925 04a5 3A       		.uleb128 0x3a
 8926 04a6 F7       		.byte	0xf7
 8927 04a7 25       		.uleb128 0x25
 8928 04a8 1E       		.byte	0x1e
 8929 04a9 0C       		.byte	0xc
 8930 04aa 1F85EB51 		.4byte	0x51eb851f
 8931 04ae F7       		.byte	0xf7
 8932 04af 25       		.uleb128 0x25
 8933 04b0 1E       		.byte	0x1e
 8934 04b1 08       		.byte	0x8
 8935 04b2 20       		.byte	0x20
 8936 04b3 F7       		.byte	0xf7
 8937 04b4 25       		.uleb128 0x25
 8938 04b5 25       		.byte	0x25
 8939 04b6 F7       		.byte	0xf7
 8940 04b7 2C       		.uleb128 0x2c
 8941 04b8 35       		.byte	0x35
 8942 04b9 26       		.byte	0x26
 8943 04ba 71       		.byte	0x71
 8944 04bb 30       		.sleb128 48
 8945 04bc 06       		.byte	0x6
 8946 04bd 35       		.byte	0x35
 8947 04be 1E       		.byte	0x1e
 8948 04bf 23       		.byte	0x23
 8949 04c0 8001     		.uleb128 0x80
 8950 04c2 38       		.byte	0x38
 8951 04c3 26       		.byte	0x26
 8952 04c4 71       		.byte	0x71
 8953 04c5 0E       		.sleb128 14
 8954 04c6 94       		.byte	0x94
ARM GAS  C:\Users\adria\AppData\Local\Temp\ccOKprka.s 			page 194


 8955 04c7 01       		.byte	0x1
 8956 04c8 48       		.byte	0x48
 8957 04c9 24       		.byte	0x24
 8958 04ca 48       		.byte	0x48
 8959 04cb 26       		.byte	0x26
 8960 04cc 1E       		.byte	0x1e
 8961 04cd 4F       		.byte	0x4f
 8962 04ce 26       		.byte	0x26
 8963 04cf 1C       		.byte	0x1c
 8964 04d0 71       		.byte	0x71
 8965 04d1 30       		.sleb128 48
 8966 04d2 06       		.byte	0x6
 8967 04d3 35       		.byte	0x35
 8968 04d4 1E       		.byte	0x1e
 8969 04d5 23       		.byte	0x23
 8970 04d6 8001     		.uleb128 0x80
 8971 04d8 38       		.byte	0x38
 8972 04d9 26       		.byte	0x26
 8973 04da 1E       		.byte	0x1e
 8974 04db 4F       		.byte	0x4f
 8975 04dc 26       		.byte	0x26
 8976 04dd 1C       		.byte	0x1c
 8977 04de 71       		.byte	0x71
 8978 04df 30       		.sleb128 48
 8979 04e0 06       		.byte	0x6
 8980 04e1 35       		.byte	0x35
 8981 04e2 1E       		.byte	0x1e
 8982 04e3 23       		.byte	0x23
 8983 04e4 8001     		.uleb128 0x80
 8984 04e6 38       		.byte	0x38
 8985 04e7 26       		.byte	0x26
 8986 04e8 71       		.byte	0x71
 8987 04e9 0D       		.sleb128 13
 8988 04ea 94       		.byte	0x94
 8989 04eb 01       		.byte	0x1
 8990 04ec 48       		.byte	0x48
 8991 04ed 24       		.byte	0x24
 8992 04ee 48       		.byte	0x48
 8993 04ef 26       		.byte	0x26
 8994 04f0 1E       		.byte	0x1e
 8995 04f1 4F       		.byte	0x4f
 8996 04f2 26       		.byte	0x26
 8997 04f3 1C       		.byte	0x1c
 8998 04f4 7E       		.byte	0x7e
 8999 04f5 00       		.sleb128 0
 9000 04f6 35       		.byte	0x35
 9001 04f7 26       		.byte	0x26
 9002 04f8 22       		.byte	0x22
 9003 04f9 23       		.byte	0x23
 9004 04fa 808001   		.uleb128 0x4000
 9005 04fd 71       		.byte	0x71
 9006 04fe 0A       		.sleb128 10
 9007 04ff 94       		.byte	0x94
 9008 0500 02       		.byte	0x2
 9009 0501 0A       		.byte	0xa
 9010 0502 FFFF     		.2byte	0xffff
 9011 0504 1A       		.byte	0x1a
ARM GAS  C:\Users\adria\AppData\Local\Temp\ccOKprka.s 			page 195


 9012 0505 1E       		.byte	0x1e
 9013 0506 3A       		.byte	0x3a
 9014 0507 26       		.byte	0x26
 9015 0508 9F       		.byte	0x9f
 9016 0509 00000000 		.4byte	0
 9017 050d 00000000 		.4byte	0
 9018              	.LLST12:
 9019 0511 70000000 		.4byte	.LVL45
 9020 0515 9A000000 		.4byte	.LVL53
 9021 0519 0100     		.2byte	0x1
 9022 051b 50       		.byte	0x50
 9023 051c 00000000 		.4byte	0
 9024 0520 00000000 		.4byte	0
 9025              	.LLST13:
 9026 0524 72000000 		.4byte	.LVL46
 9027 0528 8A000000 		.4byte	.LVL50
 9028 052c 0500     		.2byte	0x5
 9029 052e 72       		.byte	0x72
 9030 052f 00       		.sleb128 0
 9031 0530 37       		.byte	0x37
 9032 0531 24       		.byte	0x24
 9033 0532 9F       		.byte	0x9f
 9034 0533 8A000000 		.4byte	.LVL50
 9035 0537 96000000 		.4byte	.LVL52
 9036 053b 0100     		.2byte	0x1
 9037 053d 54       		.byte	0x54
 9038 053e 96000000 		.4byte	.LVL52
 9039 0542 A0000000 		.4byte	.LVL54
 9040 0546 2200     		.2byte	0x22
 9041 0548 72       		.byte	0x72
 9042 0549 00       		.sleb128 0
 9043 054a 37       		.byte	0x37
 9044 054b 24       		.byte	0x24
 9045 054c 75       		.byte	0x75
 9046 054d 00       		.sleb128 0
 9047 054e 35       		.byte	0x35
 9048 054f 26       		.byte	0x26
 9049 0550 71       		.byte	0x71
 9050 0551 30       		.sleb128 48
 9051 0552 06       		.byte	0x6
 9052 0553 35       		.byte	0x35
 9053 0554 1E       		.byte	0x1e
 9054 0555 23       		.byte	0x23
 9055 0556 8001     		.uleb128 0x80
 9056 0558 38       		.byte	0x38
 9057 0559 26       		.byte	0x26
 9058 055a 71       		.byte	0x71
 9059 055b 10       		.sleb128 16
 9060 055c 94       		.byte	0x94
 9061 055d 01       		.byte	0x1
 9062 055e 48       		.byte	0x48
 9063 055f 24       		.byte	0x24
 9064 0560 48       		.byte	0x48
 9065 0561 26       		.byte	0x26
 9066 0562 1E       		.byte	0x1e
 9067 0563 4F       		.byte	0x4f
 9068 0564 26       		.byte	0x26
ARM GAS  C:\Users\adria\AppData\Local\Temp\ccOKprka.s 			page 196


 9069 0565 1C       		.byte	0x1c
 9070 0566 22       		.byte	0x22
 9071 0567 34       		.byte	0x34
 9072 0568 26       		.byte	0x26
 9073 0569 9F       		.byte	0x9f
 9074 056a A0000000 		.4byte	.LVL54
 9075 056e BA000000 		.4byte	.LVL60
 9076 0572 2700     		.2byte	0x27
 9077 0574 71       		.byte	0x71
 9078 0575 0F       		.sleb128 15
 9079 0576 94       		.byte	0x94
 9080 0577 01       		.byte	0x1
 9081 0578 08       		.byte	0x8
 9082 0579 FF       		.byte	0xff
 9083 057a 1A       		.byte	0x1a
 9084 057b 37       		.byte	0x37
 9085 057c 24       		.byte	0x24
 9086 057d 75       		.byte	0x75
 9087 057e 00       		.sleb128 0
 9088 057f 35       		.byte	0x35
 9089 0580 26       		.byte	0x26
 9090 0581 71       		.byte	0x71
 9091 0582 30       		.sleb128 48
 9092 0583 06       		.byte	0x6
 9093 0584 35       		.byte	0x35
 9094 0585 1E       		.byte	0x1e
 9095 0586 23       		.byte	0x23
 9096 0587 8001     		.uleb128 0x80
 9097 0589 38       		.byte	0x38
 9098 058a 26       		.byte	0x26
 9099 058b 71       		.byte	0x71
 9100 058c 10       		.sleb128 16
 9101 058d 94       		.byte	0x94
 9102 058e 01       		.byte	0x1
 9103 058f 48       		.byte	0x48
 9104 0590 24       		.byte	0x24
 9105 0591 48       		.byte	0x48
 9106 0592 26       		.byte	0x26
 9107 0593 1E       		.byte	0x1e
 9108 0594 4F       		.byte	0x4f
 9109 0595 26       		.byte	0x26
 9110 0596 1C       		.byte	0x1c
 9111 0597 22       		.byte	0x22
 9112 0598 34       		.byte	0x34
 9113 0599 26       		.byte	0x26
 9114 059a 9F       		.byte	0x9f
 9115 059b BA000000 		.4byte	.LVL60
 9116 059f C4000000 		.4byte	.LFE79
 9117 05a3 4B00     		.2byte	0x4b
 9118 05a5 71       		.byte	0x71
 9119 05a6 0F       		.sleb128 15
 9120 05a7 94       		.byte	0x94
 9121 05a8 01       		.byte	0x1
 9122 05a9 08       		.byte	0x8
 9123 05aa FF       		.byte	0xff
 9124 05ab 1A       		.byte	0x1a
 9125 05ac 37       		.byte	0x37
ARM GAS  C:\Users\adria\AppData\Local\Temp\ccOKprka.s 			page 197


 9126 05ad 24       		.byte	0x24
 9127 05ae 71       		.byte	0x71
 9128 05af 30       		.sleb128 48
 9129 05b0 06       		.byte	0x6
 9130 05b1 35       		.byte	0x35
 9131 05b2 1E       		.byte	0x1e
 9132 05b3 23       		.byte	0x23
 9133 05b4 8001     		.uleb128 0x80
 9134 05b6 38       		.byte	0x38
 9135 05b7 26       		.byte	0x26
 9136 05b8 F7       		.byte	0xf7
 9137 05b9 33       		.uleb128 0x33
 9138 05ba F7       		.byte	0xf7
 9139 05bb 25       		.uleb128 0x25
 9140 05bc 71       		.byte	0x71
 9141 05bd 10       		.sleb128 16
 9142 05be 94       		.byte	0x94
 9143 05bf 01       		.byte	0x1
 9144 05c0 F7       		.byte	0xf7
 9145 05c1 3A       		.uleb128 0x3a
 9146 05c2 F7       		.byte	0xf7
 9147 05c3 25       		.uleb128 0x25
 9148 05c4 1E       		.byte	0x1e
 9149 05c5 0C       		.byte	0xc
 9150 05c6 1F85EB51 		.4byte	0x51eb851f
 9151 05ca F7       		.byte	0xf7
 9152 05cb 25       		.uleb128 0x25
 9153 05cc 1E       		.byte	0x1e
 9154 05cd 08       		.byte	0x8
 9155 05ce 20       		.byte	0x20
 9156 05cf F7       		.byte	0xf7
 9157 05d0 25       		.uleb128 0x25
 9158 05d1 25       		.byte	0x25
 9159 05d2 F7       		.byte	0xf7
 9160 05d3 2C       		.uleb128 0x2c
 9161 05d4 35       		.byte	0x35
 9162 05d5 26       		.byte	0x26
 9163 05d6 71       		.byte	0x71
 9164 05d7 30       		.sleb128 48
 9165 05d8 06       		.byte	0x6
 9166 05d9 35       		.byte	0x35
 9167 05da 1E       		.byte	0x1e
 9168 05db 23       		.byte	0x23
 9169 05dc 8001     		.uleb128 0x80
 9170 05de 38       		.byte	0x38
 9171 05df 26       		.byte	0x26
 9172 05e0 71       		.byte	0x71
 9173 05e1 10       		.sleb128 16
 9174 05e2 94       		.byte	0x94
 9175 05e3 01       		.byte	0x1
 9176 05e4 48       		.byte	0x48
 9177 05e5 24       		.byte	0x24
 9178 05e6 48       		.byte	0x48
 9179 05e7 26       		.byte	0x26
 9180 05e8 1E       		.byte	0x1e
 9181 05e9 4F       		.byte	0x4f
 9182 05ea 26       		.byte	0x26
ARM GAS  C:\Users\adria\AppData\Local\Temp\ccOKprka.s 			page 198


 9183 05eb 1C       		.byte	0x1c
 9184 05ec 22       		.byte	0x22
 9185 05ed 34       		.byte	0x34
 9186 05ee 26       		.byte	0x26
 9187 05ef 9F       		.byte	0x9f
 9188 05f0 00000000 		.4byte	0
 9189 05f4 00000000 		.4byte	0
 9190              	.LLST14:
 9191 05f8 92000000 		.4byte	.LVL51
 9192 05fc A8000000 		.4byte	.LVL56
 9193 0600 0100     		.2byte	0x1
 9194 0602 53       		.byte	0x53
 9195 0603 00000000 		.4byte	0
 9196 0607 00000000 		.4byte	0
 9197              	.LLST15:
 9198 060b 96000000 		.4byte	.LVL52
 9199 060f BA000000 		.4byte	.LVL60
 9200 0613 0500     		.2byte	0x5
 9201 0615 74       		.byte	0x74
 9202 0616 00       		.sleb128 0
 9203 0617 31       		.byte	0x31
 9204 0618 26       		.byte	0x26
 9205 0619 9F       		.byte	0x9f
 9206 061a 00000000 		.4byte	0
 9207 061e 00000000 		.4byte	0
 9208              	.LLST16:
 9209 0622 0C000000 		.4byte	.LVL41
 9210 0626 7A000000 		.4byte	.LVL48
 9211 062a 0100     		.2byte	0x1
 9212 062c 54       		.byte	0x54
 9213 062d 7A000000 		.4byte	.LVL48
 9214 0631 C4000000 		.4byte	.LFE79
 9215 0635 0B00     		.2byte	0xb
 9216 0637 71       		.byte	0x71
 9217 0638 30       		.sleb128 48
 9218 0639 06       		.byte	0x6
 9219 063a 35       		.byte	0x35
 9220 063b 1E       		.byte	0x1e
 9221 063c 23       		.byte	0x23
 9222 063d 8001     		.uleb128 0x80
 9223 063f 38       		.byte	0x38
 9224 0640 26       		.byte	0x26
 9225 0641 9F       		.byte	0x9f
 9226 0642 00000000 		.4byte	0
 9227 0646 00000000 		.4byte	0
 9228              	.LLST17:
 9229 064a A6000000 		.4byte	.LVL55
 9230 064e B4000000 		.4byte	.LVL57
 9231 0652 0100     		.2byte	0x1
 9232 0654 50       		.byte	0x50
 9233 0655 B6000000 		.4byte	.LVL58
 9234 0659 C4000000 		.4byte	.LFE79
 9235 065d 0100     		.2byte	0x1
 9236 065f 50       		.byte	0x50
 9237 0660 00000000 		.4byte	0
 9238 0664 00000000 		.4byte	0
 9239              	.LLST18:
ARM GAS  C:\Users\adria\AppData\Local\Temp\ccOKprka.s 			page 199


 9240 0668 00000000 		.4byte	.LVL61
 9241 066c 12000000 		.4byte	.LVL62
 9242 0670 0100     		.2byte	0x1
 9243 0672 50       		.byte	0x50
 9244 0673 12000000 		.4byte	.LVL62
 9245 0677 AC000000 		.4byte	.LFE80
 9246 067b 0400     		.2byte	0x4
 9247 067d F3       		.byte	0xf3
 9248 067e 01       		.uleb128 0x1
 9249 067f 50       		.byte	0x50
 9250 0680 9F       		.byte	0x9f
 9251 0681 00000000 		.4byte	0
 9252 0685 00000000 		.4byte	0
 9253              	.LLST19:
 9254 0689 00000000 		.4byte	.LVL61
 9255 068d 12000000 		.4byte	.LVL62
 9256 0691 0100     		.2byte	0x1
 9257 0693 51       		.byte	0x51
 9258 0694 12000000 		.4byte	.LVL62
 9259 0698 AC000000 		.4byte	.LFE80
 9260 069c 0400     		.2byte	0x4
 9261 069e F3       		.byte	0xf3
 9262 069f 01       		.uleb128 0x1
 9263 06a0 51       		.byte	0x51
 9264 06a1 9F       		.byte	0x9f
 9265 06a2 00000000 		.4byte	0
 9266 06a6 00000000 		.4byte	0
 9267              	.LLST20:
 9268 06aa 00000000 		.4byte	.LVL61
 9269 06ae 12000000 		.4byte	.LVL62
 9270 06b2 0100     		.2byte	0x1
 9271 06b4 52       		.byte	0x52
 9272 06b5 12000000 		.4byte	.LVL62
 9273 06b9 A3000000 		.4byte	.LVL68-1
 9274 06bd 0100     		.2byte	0x1
 9275 06bf 5C       		.byte	0x5c
 9276 06c0 A3000000 		.4byte	.LVL68-1
 9277 06c4 AC000000 		.4byte	.LFE80
 9278 06c8 0400     		.2byte	0x4
 9279 06ca F3       		.byte	0xf3
 9280 06cb 01       		.uleb128 0x1
 9281 06cc 52       		.byte	0x52
 9282 06cd 9F       		.byte	0x9f
 9283 06ce 00000000 		.4byte	0
 9284 06d2 00000000 		.4byte	0
 9285              	.LLST21:
 9286 06d6 72000000 		.4byte	.LVL63
 9287 06da 90000000 		.4byte	.LVL65
 9288 06de 0600     		.2byte	0x6
 9289 06e0 50       		.byte	0x50
 9290 06e1 93       		.byte	0x93
 9291 06e2 04       		.uleb128 0x4
 9292 06e3 51       		.byte	0x51
 9293 06e4 93       		.byte	0x93
 9294 06e5 04       		.uleb128 0x4
 9295 06e6 00000000 		.4byte	0
 9296 06ea 00000000 		.4byte	0
ARM GAS  C:\Users\adria\AppData\Local\Temp\ccOKprka.s 			page 200


 9297              	.LLST22:
 9298 06ee 82000000 		.4byte	.LVL64
 9299 06f2 A3000000 		.4byte	.LVL68-1
 9300 06f6 0600     		.2byte	0x6
 9301 06f8 52       		.byte	0x52
 9302 06f9 93       		.byte	0x93
 9303 06fa 04       		.uleb128 0x4
 9304 06fb 53       		.byte	0x53
 9305 06fc 93       		.byte	0x93
 9306 06fd 04       		.uleb128 0x4
 9307 06fe 00000000 		.4byte	0
 9308 0702 00000000 		.4byte	0
 9309              	.LLST23:
 9310 0706 96000000 		.4byte	.LVL66
 9311 070a 9E000000 		.4byte	.LVL67
 9312 070e 0600     		.2byte	0x6
 9313 0710 50       		.byte	0x50
 9314 0711 93       		.byte	0x93
 9315 0712 04       		.uleb128 0x4
 9316 0713 51       		.byte	0x51
 9317 0714 93       		.byte	0x93
 9318 0715 04       		.uleb128 0x4
 9319 0716 00000000 		.4byte	0
 9320 071a 00000000 		.4byte	0
 9321              	.LLST24:
 9322 071e 00000000 		.4byte	.LVL69
 9323 0722 0C000000 		.4byte	.LVL70
 9324 0726 0100     		.2byte	0x1
 9325 0728 50       		.byte	0x50
 9326 0729 0C000000 		.4byte	.LVL70
 9327 072d 90000000 		.4byte	.LVL79
 9328 0731 0100     		.2byte	0x1
 9329 0733 50       		.byte	0x50
 9330 0734 00000000 		.4byte	0
 9331 0738 00000000 		.4byte	0
 9332              	.LLST25:
 9333 073c 00000000 		.4byte	.LVL69
 9334 0740 7C000000 		.4byte	.LVL76
 9335 0744 0100     		.2byte	0x1
 9336 0746 51       		.byte	0x51
 9337 0747 7C000000 		.4byte	.LVL76
 9338 074b B0000000 		.4byte	.LFE81
 9339 074f 0400     		.2byte	0x4
 9340 0751 F3       		.byte	0xf3
 9341 0752 01       		.uleb128 0x1
 9342 0753 51       		.byte	0x51
 9343 0754 9F       		.byte	0x9f
 9344 0755 00000000 		.4byte	0
 9345 0759 00000000 		.4byte	0
 9346              	.LLST26:
 9347 075d 24000000 		.4byte	.LVL71
 9348 0761 A2000000 		.4byte	.LVL83
 9349 0765 0500     		.2byte	0x5
 9350 0767 77       		.byte	0x77
 9351 0768 00       		.sleb128 0
 9352 0769 38       		.byte	0x38
 9353 076a 24       		.byte	0x24
ARM GAS  C:\Users\adria\AppData\Local\Temp\ccOKprka.s 			page 201


 9354 076b 9F       		.byte	0x9f
 9355 076c A2000000 		.4byte	.LVL83
 9356 0770 B0000000 		.4byte	.LFE81
 9357 0774 4500     		.2byte	0x45
 9358 0776 F3       		.byte	0xf3
 9359 0777 01       		.uleb128 0x1
 9360 0778 51       		.byte	0x51
 9361 0779 23       		.byte	0x23
 9362 077a 04       		.uleb128 0x4
 9363 077b 94       		.byte	0x94
 9364 077c 01       		.byte	0x1
 9365 077d F7       		.byte	0xf7
 9366 077e 3A       		.uleb128 0x3a
 9367 077f F7       		.byte	0xf7
 9368 0780 25       		.uleb128 0x25
 9369 0781 F3       		.byte	0xf3
 9370 0782 01       		.uleb128 0x1
 9371 0783 51       		.byte	0x51
 9372 0784 23       		.byte	0x23
 9373 0785 14       		.uleb128 0x14
 9374 0786 94       		.byte	0x94
 9375 0787 01       		.byte	0x1
 9376 0788 F7       		.byte	0xf7
 9377 0789 3A       		.uleb128 0x3a
 9378 078a F7       		.byte	0xf7
 9379 078b 25       		.uleb128 0x25
 9380 078c 1E       		.byte	0x1e
 9381 078d 0C       		.byte	0xc
 9382 078e D34D6210 		.4byte	0x10624dd3
 9383 0792 F7       		.byte	0xf7
 9384 0793 25       		.uleb128 0x25
 9385 0794 1E       		.byte	0x1e
 9386 0795 08       		.byte	0x8
 9387 0796 20       		.byte	0x20
 9388 0797 F7       		.byte	0xf7
 9389 0798 25       		.uleb128 0x25
 9390 0799 25       		.byte	0x25
 9391 079a F7       		.byte	0xf7
 9392 079b 2C       		.uleb128 0x2c
 9393 079c 36       		.byte	0x36
 9394 079d 26       		.byte	0x26
 9395 079e F3       		.byte	0xf3
 9396 079f 01       		.uleb128 0x1
 9397 07a0 51       		.byte	0x51
 9398 07a1 23       		.byte	0x23
 9399 07a2 04       		.uleb128 0x4
 9400 07a3 94       		.byte	0x94
 9401 07a4 01       		.byte	0x1
 9402 07a5 48       		.byte	0x48
 9403 07a6 24       		.byte	0x24
 9404 07a7 48       		.byte	0x48
 9405 07a8 26       		.byte	0x26
 9406 07a9 F3       		.byte	0xf3
 9407 07aa 01       		.uleb128 0x1
 9408 07ab 51       		.byte	0x51
 9409 07ac 23       		.byte	0x23
 9410 07ad 14       		.uleb128 0x14
ARM GAS  C:\Users\adria\AppData\Local\Temp\ccOKprka.s 			page 202


 9411 07ae 94       		.byte	0x94
 9412 07af 01       		.byte	0x1
 9413 07b0 48       		.byte	0x48
 9414 07b1 24       		.byte	0x24
 9415 07b2 48       		.byte	0x48
 9416 07b3 26       		.byte	0x26
 9417 07b4 1E       		.byte	0x1e
 9418 07b5 4F       		.byte	0x4f
 9419 07b6 26       		.byte	0x26
 9420 07b7 1C       		.byte	0x1c
 9421 07b8 38       		.byte	0x38
 9422 07b9 24       		.byte	0x24
 9423 07ba 9F       		.byte	0x9f
 9424 07bb 00000000 		.4byte	0
 9425 07bf 00000000 		.4byte	0
 9426              	.LLST27:
 9427 07c3 60000000 		.4byte	.LVL72
 9428 07c7 64000000 		.4byte	.LVL73
 9429 07cb 0100     		.2byte	0x1
 9430 07cd 52       		.byte	0x52
 9431 07ce 64000000 		.4byte	.LVL73
 9432 07d2 A2000000 		.4byte	.LVL83
 9433 07d6 0600     		.2byte	0x6
 9434 07d8 75       		.byte	0x75
 9435 07d9 00       		.sleb128 0
 9436 07da 7E       		.byte	0x7e
 9437 07db 00       		.sleb128 0
 9438 07dc 1E       		.byte	0x1e
 9439 07dd 9F       		.byte	0x9f
 9440 07de 00000000 		.4byte	0
 9441 07e2 00000000 		.4byte	0
 9442              	.LLST28:
 9443 07e6 6A000000 		.4byte	.LVL74
 9444 07ea A2000000 		.4byte	.LVL83
 9445 07ee 0100     		.2byte	0x1
 9446 07f0 54       		.byte	0x54
 9447 07f1 00000000 		.4byte	0
 9448 07f5 00000000 		.4byte	0
 9449              	.LLST29:
 9450 07f9 74000000 		.4byte	.LVL75
 9451 07fd 98000000 		.4byte	.LVL80
 9452 0801 0100     		.2byte	0x1
 9453 0803 52       		.byte	0x52
 9454 0804 98000000 		.4byte	.LVL80
 9455 0808 A2000000 		.4byte	.LVL83
 9456 080c 1000     		.2byte	0x10
 9457 080e 74       		.byte	0x74
 9458 080f 00       		.sleb128 0
 9459 0810 F3       		.byte	0xf3
 9460 0811 01       		.uleb128 0x1
 9461 0812 51       		.byte	0x51
 9462 0813 23       		.byte	0x23
 9463 0814 34       		.uleb128 0x34
 9464 0815 94       		.byte	0x94
 9465 0816 01       		.byte	0x1
 9466 0817 08       		.byte	0x8
 9467 0818 FF       		.byte	0xff
ARM GAS  C:\Users\adria\AppData\Local\Temp\ccOKprka.s 			page 203


 9468 0819 1A       		.byte	0x1a
 9469 081a 23       		.byte	0x23
 9470 081b 04       		.uleb128 0x4
 9471 081c 1B       		.byte	0x1b
 9472 081d 9F       		.byte	0x9f
 9473 081e 00000000 		.4byte	0
 9474 0822 00000000 		.4byte	0
 9475              	.LLST30:
 9476 0826 84000000 		.4byte	.LVL77
 9477 082a 88000000 		.4byte	.LVL78
 9478 082e 0100     		.2byte	0x1
 9479 0830 53       		.byte	0x53
 9480 0831 88000000 		.4byte	.LVL78
 9481 0835 B0000000 		.4byte	.LFE81
 9482 0839 1500     		.2byte	0x15
 9483 083b 71       		.byte	0x71
 9484 083c 00       		.sleb128 0
 9485 083d 31       		.byte	0x31
 9486 083e 24       		.byte	0x24
 9487 083f F3       		.byte	0xf3
 9488 0840 01       		.uleb128 0x1
 9489 0841 51       		.byte	0x51
 9490 0842 23       		.byte	0x23
 9491 0843 35       		.uleb128 0x35
 9492 0844 94       		.byte	0x94
 9493 0845 01       		.byte	0x1
 9494 0846 48       		.byte	0x48
 9495 0847 24       		.byte	0x24
 9496 0848 48       		.byte	0x48
 9497 0849 26       		.byte	0x26
 9498 084a 22       		.byte	0x22
 9499 084b 23       		.byte	0x23
 9500 084c 808004   		.uleb128 0x10000
 9501 084f 9F       		.byte	0x9f
 9502 0850 00000000 		.4byte	0
 9503 0854 00000000 		.4byte	0
 9504              	.LLST31:
 9505 0858 90000000 		.4byte	.LVL79
 9506 085c 98000000 		.4byte	.LVL80
 9507 0860 0100     		.2byte	0x1
 9508 0862 50       		.byte	0x50
 9509 0863 98000000 		.4byte	.LVL80
 9510 0867 9A000000 		.4byte	.LVL81
 9511 086b 0300     		.2byte	0x3
 9512 086d 73       		.byte	0x73
 9513 086e 4E       		.sleb128 -50
 9514 086f 9F       		.byte	0x9f
 9515 0870 9A000000 		.4byte	.LVL81
 9516 0874 A2000000 		.4byte	.LVL83
 9517 0878 2C00     		.2byte	0x2c
 9518 087a 74       		.byte	0x74
 9519 087b 00       		.sleb128 0
 9520 087c F3       		.byte	0xf3
 9521 087d 01       		.uleb128 0x1
 9522 087e 51       		.byte	0x51
 9523 087f 23       		.byte	0x23
 9524 0880 34       		.uleb128 0x34
ARM GAS  C:\Users\adria\AppData\Local\Temp\ccOKprka.s 			page 204


 9525 0881 94       		.byte	0x94
 9526 0882 01       		.byte	0x1
 9527 0883 08       		.byte	0x8
 9528 0884 FF       		.byte	0xff
 9529 0885 1A       		.byte	0x1a
 9530 0886 23       		.byte	0x23
 9531 0887 04       		.uleb128 0x4
 9532 0888 1B       		.byte	0x1b
 9533 0889 71       		.byte	0x71
 9534 088a 00       		.sleb128 0
 9535 088b 31       		.byte	0x31
 9536 088c 24       		.byte	0x24
 9537 088d F3       		.byte	0xf3
 9538 088e 01       		.uleb128 0x1
 9539 088f 51       		.byte	0x51
 9540 0890 23       		.byte	0x23
 9541 0891 35       		.uleb128 0x35
 9542 0892 94       		.byte	0x94
 9543 0893 01       		.byte	0x1
 9544 0894 48       		.byte	0x48
 9545 0895 24       		.byte	0x24
 9546 0896 48       		.byte	0x48
 9547 0897 26       		.byte	0x26
 9548 0898 22       		.byte	0x22
 9549 0899 23       		.byte	0x23
 9550 089a 808004   		.uleb128 0x10000
 9551 089d 1B       		.byte	0x1b
 9552 089e 08       		.byte	0x8
 9553 089f FA       		.byte	0xfa
 9554 08a0 1C       		.byte	0x1c
 9555 08a1 41       		.byte	0x41
 9556 08a2 1E       		.byte	0x1e
 9557 08a3 31       		.byte	0x31
 9558 08a4 24       		.byte	0x24
 9559 08a5 9F       		.byte	0x9f
 9560 08a6 00000000 		.4byte	0
 9561 08aa 00000000 		.4byte	0
 9562              	.LLST32:
 9563 08ae 00000000 		.4byte	.LVL84
 9564 08b2 0C000000 		.4byte	.LVL86
 9565 08b6 0100     		.2byte	0x1
 9566 08b8 50       		.byte	0x50
 9567 08b9 0C000000 		.4byte	.LVL86
 9568 08bd 16000000 		.4byte	.LVL89
 9569 08c1 0100     		.2byte	0x1
 9570 08c3 50       		.byte	0x50
 9571 08c4 20000000 		.4byte	.LVL92
 9572 08c8 22000000 		.4byte	.LVL93
 9573 08cc 0100     		.2byte	0x1
 9574 08ce 50       		.byte	0x50
 9575 08cf 22000000 		.4byte	.LVL93
 9576 08d3 24000000 		.4byte	.LFE82
 9577 08d7 0400     		.2byte	0x4
 9578 08d9 F3       		.byte	0xf3
 9579 08da 01       		.uleb128 0x1
 9580 08db 50       		.byte	0x50
 9581 08dc 9F       		.byte	0x9f
ARM GAS  C:\Users\adria\AppData\Local\Temp\ccOKprka.s 			page 205


 9582 08dd 00000000 		.4byte	0
 9583 08e1 00000000 		.4byte	0
 9584              	.LLST33:
 9585 08e5 00000000 		.4byte	.LVL84
 9586 08e9 0A000000 		.4byte	.LVL85
 9587 08ed 0200     		.2byte	0x2
 9588 08ef 30       		.byte	0x30
 9589 08f0 9F       		.byte	0x9f
 9590 08f1 0A000000 		.4byte	.LVL85
 9591 08f5 0E000000 		.4byte	.LVL87
 9592 08f9 0100     		.2byte	0x1
 9593 08fb 53       		.byte	0x53
 9594 08fc 10000000 		.4byte	.LVL88
 9595 0900 18000000 		.4byte	.LVL90
 9596 0904 0100     		.2byte	0x1
 9597 0906 53       		.byte	0x53
 9598 0907 20000000 		.4byte	.LVL92
 9599 090b 24000000 		.4byte	.LFE82
 9600 090f 0200     		.2byte	0x2
 9601 0911 30       		.byte	0x30
 9602 0912 9F       		.byte	0x9f
 9603 0913 00000000 		.4byte	0
 9604 0917 00000000 		.4byte	0
 9605              	.LLST34:
 9606 091b 1E000000 		.4byte	.LVL91
 9607 091f 20000000 		.4byte	.LVL92
 9608 0923 0100     		.2byte	0x1
 9609 0925 50       		.byte	0x50
 9610 0926 22000000 		.4byte	.LVL93
 9611 092a 24000000 		.4byte	.LFE82
 9612 092e 0100     		.2byte	0x1
 9613 0930 50       		.byte	0x50
 9614 0931 00000000 		.4byte	0
 9615 0935 00000000 		.4byte	0
 9616              	.LLST35:
 9617 0939 00000000 		.4byte	.LVL94
 9618 093d 08000000 		.4byte	.LVL95
 9619 0941 0100     		.2byte	0x1
 9620 0943 50       		.byte	0x50
 9621 0944 08000000 		.4byte	.LVL95
 9622 0948 32000000 		.4byte	.LVL100
 9623 094c 0100     		.2byte	0x1
 9624 094e 54       		.byte	0x54
 9625 094f 32000000 		.4byte	.LVL100
 9626 0953 36000000 		.4byte	.LVL101
 9627 0957 0100     		.2byte	0x1
 9628 0959 50       		.byte	0x50
 9629 095a 36000000 		.4byte	.LVL101
 9630 095e 38000000 		.4byte	.LVL102
 9631 0962 0400     		.2byte	0x4
 9632 0964 F3       		.byte	0xf3
 9633 0965 01       		.uleb128 0x1
 9634 0966 50       		.byte	0x50
 9635 0967 9F       		.byte	0x9f
 9636 0968 38000000 		.4byte	.LVL102
 9637 096c 3C000000 		.4byte	.LVL104
 9638 0970 0100     		.2byte	0x1
ARM GAS  C:\Users\adria\AppData\Local\Temp\ccOKprka.s 			page 206


 9639 0972 54       		.byte	0x54
 9640 0973 3C000000 		.4byte	.LVL104
 9641 0977 3E000000 		.4byte	.LFE86
 9642 097b 0400     		.2byte	0x4
 9643 097d F3       		.byte	0xf3
 9644 097e 01       		.uleb128 0x1
 9645 097f 50       		.byte	0x50
 9646 0980 9F       		.byte	0x9f
 9647 0981 00000000 		.4byte	0
 9648 0985 00000000 		.4byte	0
 9649              	.LLST36:
 9650 0989 00000000 		.4byte	.LVL94
 9651 098d 12000000 		.4byte	.LVL96
 9652 0991 0100     		.2byte	0x1
 9653 0993 51       		.byte	0x51
 9654 0994 12000000 		.4byte	.LVL96
 9655 0998 1A000000 		.4byte	.LVL97
 9656 099c 0200     		.2byte	0x2
 9657 099e 74       		.byte	0x74
 9658 099f 00       		.sleb128 0
 9659 09a0 1A000000 		.4byte	.LVL97
 9660 09a4 32000000 		.4byte	.LVL100
 9661 09a8 0400     		.2byte	0x4
 9662 09aa F3       		.byte	0xf3
 9663 09ab 01       		.uleb128 0x1
 9664 09ac 51       		.byte	0x51
 9665 09ad 9F       		.byte	0x9f
 9666 09ae 32000000 		.4byte	.LVL100
 9667 09b2 38000000 		.4byte	.LVL102
 9668 09b6 0100     		.2byte	0x1
 9669 09b8 51       		.byte	0x51
 9670 09b9 38000000 		.4byte	.LVL102
 9671 09bd 3E000000 		.4byte	.LFE86
 9672 09c1 0400     		.2byte	0x4
 9673 09c3 F3       		.byte	0xf3
 9674 09c4 01       		.uleb128 0x1
 9675 09c5 51       		.byte	0x51
 9676 09c6 9F       		.byte	0x9f
 9677 09c7 00000000 		.4byte	0
 9678 09cb 00000000 		.4byte	0
 9679              	.LLST37:
 9680 09cf 00000000 		.4byte	.LVL94
 9681 09d3 26000000 		.4byte	.LVL98
 9682 09d7 0100     		.2byte	0x1
 9683 09d9 52       		.byte	0x52
 9684 09da 26000000 		.4byte	.LVL98
 9685 09de 2E000000 		.4byte	.LVL99
 9686 09e2 0200     		.2byte	0x2
 9687 09e4 74       		.byte	0x74
 9688 09e5 00       		.sleb128 0
 9689 09e6 2E000000 		.4byte	.LVL99
 9690 09ea 32000000 		.4byte	.LVL100
 9691 09ee 0400     		.2byte	0x4
 9692 09f0 F3       		.byte	0xf3
 9693 09f1 01       		.uleb128 0x1
 9694 09f2 52       		.byte	0x52
 9695 09f3 9F       		.byte	0x9f
ARM GAS  C:\Users\adria\AppData\Local\Temp\ccOKprka.s 			page 207


 9696 09f4 32000000 		.4byte	.LVL100
 9697 09f8 3A000000 		.4byte	.LVL103
 9698 09fc 0100     		.2byte	0x1
 9699 09fe 52       		.byte	0x52
 9700 09ff 3A000000 		.4byte	.LVL103
 9701 0a03 3E000000 		.4byte	.LFE86
 9702 0a07 0400     		.2byte	0x4
 9703 0a09 F3       		.byte	0xf3
 9704 0a0a 01       		.uleb128 0x1
 9705 0a0b 52       		.byte	0x52
 9706 0a0c 9F       		.byte	0x9f
 9707 0a0d 00000000 		.4byte	0
 9708 0a11 00000000 		.4byte	0
 9709              	.LLST38:
 9710 0a15 00000000 		.4byte	.LVL94
 9711 0a19 36000000 		.4byte	.LVL101
 9712 0a1d 0200     		.2byte	0x2
 9713 0a1f 30       		.byte	0x30
 9714 0a20 9F       		.byte	0x9f
 9715 0a21 36000000 		.4byte	.LVL101
 9716 0a25 38000000 		.4byte	.LVL102
 9717 0a29 0100     		.2byte	0x1
 9718 0a2b 50       		.byte	0x50
 9719 0a2c 38000000 		.4byte	.LVL102
 9720 0a30 3A000000 		.4byte	.LVL103
 9721 0a34 0200     		.2byte	0x2
 9722 0a36 30       		.byte	0x30
 9723 0a37 9F       		.byte	0x9f
 9724 0a38 3A000000 		.4byte	.LVL103
 9725 0a3c 3E000000 		.4byte	.LFE86
 9726 0a40 0100     		.2byte	0x1
 9727 0a42 50       		.byte	0x50
 9728 0a43 00000000 		.4byte	0
 9729 0a47 00000000 		.4byte	0
 9730              	.LLST39:
 9731 0a4b 00000000 		.4byte	.LVL105
 9732 0a4f 12000000 		.4byte	.LVL106
 9733 0a53 0100     		.2byte	0x1
 9734 0a55 50       		.byte	0x50
 9735 0a56 12000000 		.4byte	.LVL106
 9736 0a5a 14000000 		.4byte	.LVL107
 9737 0a5e 0400     		.2byte	0x4
 9738 0a60 F3       		.byte	0xf3
 9739 0a61 01       		.uleb128 0x1
 9740 0a62 50       		.byte	0x50
 9741 0a63 9F       		.byte	0x9f
 9742 0a64 14000000 		.4byte	.LVL107
 9743 0a68 18000000 		.4byte	.LVL108
 9744 0a6c 0100     		.2byte	0x1
 9745 0a6e 50       		.byte	0x50
 9746 0a6f 18000000 		.4byte	.LVL108
 9747 0a73 1A000000 		.4byte	.LVL109
 9748 0a77 0400     		.2byte	0x4
 9749 0a79 F3       		.byte	0xf3
 9750 0a7a 01       		.uleb128 0x1
 9751 0a7b 50       		.byte	0x50
 9752 0a7c 9F       		.byte	0x9f
ARM GAS  C:\Users\adria\AppData\Local\Temp\ccOKprka.s 			page 208


 9753 0a7d 1A000000 		.4byte	.LVL109
 9754 0a81 1E000000 		.4byte	.LVL110
 9755 0a85 0100     		.2byte	0x1
 9756 0a87 50       		.byte	0x50
 9757 0a88 1E000000 		.4byte	.LVL110
 9758 0a8c 20000000 		.4byte	.LVL111
 9759 0a90 0400     		.2byte	0x4
 9760 0a92 F3       		.byte	0xf3
 9761 0a93 01       		.uleb128 0x1
 9762 0a94 50       		.byte	0x50
 9763 0a95 9F       		.byte	0x9f
 9764 0a96 20000000 		.4byte	.LVL111
 9765 0a9a 24000000 		.4byte	.LVL112
 9766 0a9e 0100     		.2byte	0x1
 9767 0aa0 50       		.byte	0x50
 9768 0aa1 24000000 		.4byte	.LVL112
 9769 0aa5 26000000 		.4byte	.LVL113
 9770 0aa9 0400     		.2byte	0x4
 9771 0aab F3       		.byte	0xf3
 9772 0aac 01       		.uleb128 0x1
 9773 0aad 50       		.byte	0x50
 9774 0aae 9F       		.byte	0x9f
 9775 0aaf 26000000 		.4byte	.LVL113
 9776 0ab3 28000000 		.4byte	.LVL114
 9777 0ab7 0100     		.2byte	0x1
 9778 0ab9 50       		.byte	0x50
 9779 0aba 28000000 		.4byte	.LVL114
 9780 0abe 2A000000 		.4byte	.LFE87
 9781 0ac2 0400     		.2byte	0x4
 9782 0ac4 F3       		.byte	0xf3
 9783 0ac5 01       		.uleb128 0x1
 9784 0ac6 50       		.byte	0x50
 9785 0ac7 9F       		.byte	0x9f
 9786 0ac8 00000000 		.4byte	0
 9787 0acc 00000000 		.4byte	0
 9788              	.LLST40:
 9789 0ad0 00000000 		.4byte	.LVL115
 9790 0ad4 0A000000 		.4byte	.LVL116
 9791 0ad8 0100     		.2byte	0x1
 9792 0ada 50       		.byte	0x50
 9793 0adb 0A000000 		.4byte	.LVL116
 9794 0adf 70000000 		.4byte	.LFE84
 9795 0ae3 0400     		.2byte	0x4
 9796 0ae5 F3       		.byte	0xf3
 9797 0ae6 01       		.uleb128 0x1
 9798 0ae7 50       		.byte	0x50
 9799 0ae8 9F       		.byte	0x9f
 9800 0ae9 00000000 		.4byte	0
 9801 0aed 00000000 		.4byte	0
 9802              	.LLST41:
 9803 0af1 00000000 		.4byte	.LVL115
 9804 0af5 0D000000 		.4byte	.LVL117-1
 9805 0af9 0100     		.2byte	0x1
 9806 0afb 51       		.byte	0x51
 9807 0afc 0D000000 		.4byte	.LVL117-1
 9808 0b00 70000000 		.4byte	.LFE84
 9809 0b04 0100     		.2byte	0x1
ARM GAS  C:\Users\adria\AppData\Local\Temp\ccOKprka.s 			page 209


 9810 0b06 54       		.byte	0x54
 9811 0b07 00000000 		.4byte	0
 9812 0b0b 00000000 		.4byte	0
 9813              	.LLST42:
 9814 0b0f 0E000000 		.4byte	.LVL117
 9815 0b13 32000000 		.4byte	.LVL120
 9816 0b17 0100     		.2byte	0x1
 9817 0b19 50       		.byte	0x50
 9818 0b1a 3E000000 		.4byte	.LVL122
 9819 0b1e 70000000 		.4byte	.LFE84
 9820 0b22 0100     		.2byte	0x1
 9821 0b24 55       		.byte	0x55
 9822 0b25 00000000 		.4byte	0
 9823 0b29 00000000 		.4byte	0
 9824              	.LLST43:
 9825 0b2d 1E000000 		.4byte	.LVL118
 9826 0b31 2A000000 		.4byte	.LVL119
 9827 0b35 0100     		.2byte	0x1
 9828 0b37 53       		.byte	0x53
 9829 0b38 2A000000 		.4byte	.LVL119
 9830 0b3c 33000000 		.4byte	.LVL121-1
 9831 0b40 0200     		.2byte	0x2
 9832 0b42 74       		.byte	0x74
 9833 0b43 03       		.sleb128 3
 9834 0b44 00000000 		.4byte	0
 9835 0b48 00000000 		.4byte	0
 9836              	.LLST44:
 9837 0b4c 00000000 		.4byte	.LVL125
 9838 0b50 09000000 		.4byte	.LVL126-1
 9839 0b54 0100     		.2byte	0x1
 9840 0b56 50       		.byte	0x50
 9841 0b57 09000000 		.4byte	.LVL126-1
 9842 0b5b 38000000 		.4byte	.LFE85
 9843 0b5f 0100     		.2byte	0x1
 9844 0b61 54       		.byte	0x54
 9845 0b62 00000000 		.4byte	0
 9846 0b66 00000000 		.4byte	0
 9847              	.LLST45:
 9848 0b6a 0A000000 		.4byte	.LVL126
 9849 0b6e 1A000000 		.4byte	.LVL127
 9850 0b72 0100     		.2byte	0x1
 9851 0b74 50       		.byte	0x50
 9852 0b75 32000000 		.4byte	.LVL129
 9853 0b79 38000000 		.4byte	.LFE85
 9854 0b7d 0100     		.2byte	0x1
 9855 0b7f 55       		.byte	0x55
 9856 0b80 00000000 		.4byte	0
 9857 0b84 00000000 		.4byte	0
 9858              	.LLST46:
 9859 0b88 00000000 		.4byte	.LVL130
 9860 0b8c 80000000 		.4byte	.LVL149
 9861 0b90 0100     		.2byte	0x1
 9862 0b92 50       		.byte	0x50
 9863 0b93 80000000 		.4byte	.LVL149
 9864 0b97 82000000 		.4byte	.LVL150
 9865 0b9b 0400     		.2byte	0x4
 9866 0b9d F3       		.byte	0xf3
ARM GAS  C:\Users\adria\AppData\Local\Temp\ccOKprka.s 			page 210


 9867 0b9e 01       		.uleb128 0x1
 9868 0b9f 50       		.byte	0x50
 9869 0ba0 9F       		.byte	0x9f
 9870 0ba1 82000000 		.4byte	.LVL150
 9871 0ba5 84000000 		.4byte	.LVL151
 9872 0ba9 0100     		.2byte	0x1
 9873 0bab 50       		.byte	0x50
 9874 0bac 84000000 		.4byte	.LVL151
 9875 0bb0 88000000 		.4byte	.LFE89
 9876 0bb4 0400     		.2byte	0x4
 9877 0bb6 F3       		.byte	0xf3
 9878 0bb7 01       		.uleb128 0x1
 9879 0bb8 50       		.byte	0x50
 9880 0bb9 9F       		.byte	0x9f
 9881 0bba 00000000 		.4byte	0
 9882 0bbe 00000000 		.4byte	0
 9883              	.LLST47:
 9884 0bc2 02000000 		.4byte	.LVL131
 9885 0bc6 84000000 		.4byte	.LVL151
 9886 0bca 0200     		.2byte	0x2
 9887 0bcc 30       		.byte	0x30
 9888 0bcd 9F       		.byte	0x9f
 9889 0bce 84000000 		.4byte	.LVL151
 9890 0bd2 88000000 		.4byte	.LFE89
 9891 0bd6 0100     		.2byte	0x1
 9892 0bd8 50       		.byte	0x50
 9893 0bd9 00000000 		.4byte	0
 9894 0bdd 00000000 		.4byte	0
 9895              	.LLST48:
 9896 0be1 02000000 		.4byte	.LVL131
 9897 0be5 12000000 		.4byte	.LVL132
 9898 0be9 0200     		.2byte	0x2
 9899 0beb 30       		.byte	0x30
 9900 0bec 9F       		.byte	0x9f
 9901 0bed 12000000 		.4byte	.LVL132
 9902 0bf1 26000000 		.4byte	.LVL133
 9903 0bf5 0100     		.2byte	0x1
 9904 0bf7 55       		.byte	0x55
 9905 0bf8 28000000 		.4byte	.LVL134
 9906 0bfc 3A000000 		.4byte	.LVL135
 9907 0c00 0100     		.2byte	0x1
 9908 0c02 55       		.byte	0x55
 9909 0c03 3C000000 		.4byte	.LVL136
 9910 0c07 50000000 		.4byte	.LVL138
 9911 0c0b 0100     		.2byte	0x1
 9912 0c0d 55       		.byte	0x55
 9913 0c0e 52000000 		.4byte	.LVL139
 9914 0c12 7A000000 		.4byte	.LVL147
 9915 0c16 0100     		.2byte	0x1
 9916 0c18 55       		.byte	0x55
 9917 0c19 7C000000 		.4byte	.LVL148
 9918 0c1d 86000000 		.4byte	.LVL152
 9919 0c21 0100     		.2byte	0x1
 9920 0c23 55       		.byte	0x55
 9921 0c24 00000000 		.4byte	0
 9922 0c28 00000000 		.4byte	0
 9923              	.LLST49:
ARM GAS  C:\Users\adria\AppData\Local\Temp\ccOKprka.s 			page 211


 9924 0c2c 40000000 		.4byte	.LVL137
 9925 0c30 54000000 		.4byte	.LVL140
 9926 0c34 0100     		.2byte	0x1
 9927 0c36 53       		.byte	0x53
 9928 0c37 56000000 		.4byte	.LVL141
 9929 0c3b 62000000 		.4byte	.LVL142
 9930 0c3f 0100     		.2byte	0x1
 9931 0c41 53       		.byte	0x53
 9932 0c42 6E000000 		.4byte	.LVL144
 9933 0c46 70000000 		.4byte	.LVL145
 9934 0c4a 0100     		.2byte	0x1
 9935 0c4c 53       		.byte	0x53
 9936 0c4d 00000000 		.4byte	0
 9937 0c51 00000000 		.4byte	0
 9938              	.LLST50:
 9939 0c55 02000000 		.4byte	.LVL131
 9940 0c59 6C000000 		.4byte	.LVL143
 9941 0c5d 0200     		.2byte	0x2
 9942 0c5f 30       		.byte	0x30
 9943 0c60 9F       		.byte	0x9f
 9944 0c61 6C000000 		.4byte	.LVL143
 9945 0c65 6E000000 		.4byte	.LVL144
 9946 0c69 0100     		.2byte	0x1
 9947 0c6b 53       		.byte	0x53
 9948 0c6c 6E000000 		.4byte	.LVL144
 9949 0c70 70000000 		.4byte	.LVL145
 9950 0c74 0200     		.2byte	0x2
 9951 0c76 30       		.byte	0x30
 9952 0c77 9F       		.byte	0x9f
 9953 0c78 70000000 		.4byte	.LVL145
 9954 0c7c 74000000 		.4byte	.LVL146
 9955 0c80 0100     		.2byte	0x1
 9956 0c82 53       		.byte	0x53
 9957 0c83 00000000 		.4byte	0
 9958 0c87 00000000 		.4byte	0
 9959              	.LLST51:
 9960 0c8b 00000000 		.4byte	.LVL153
 9961 0c8f 05000000 		.4byte	.LVL154-1
 9962 0c93 0100     		.2byte	0x1
 9963 0c95 50       		.byte	0x50
 9964 0c96 05000000 		.4byte	.LVL154-1
 9965 0c9a 08000000 		.4byte	.LFE90
 9966 0c9e 0400     		.2byte	0x4
 9967 0ca0 F3       		.byte	0xf3
 9968 0ca1 01       		.uleb128 0x1
 9969 0ca2 50       		.byte	0x50
 9970 0ca3 9F       		.byte	0x9f
 9971 0ca4 00000000 		.4byte	0
 9972 0ca8 00000000 		.4byte	0
 9973              	.LLST52:
 9974 0cac 00000000 		.4byte	.LVL155
 9975 0cb0 0F000000 		.4byte	.LVL159-1
 9976 0cb4 0100     		.2byte	0x1
 9977 0cb6 50       		.byte	0x50
 9978 0cb7 0F000000 		.4byte	.LVL159-1
 9979 0cbb 38000000 		.4byte	.LFE92
 9980 0cbf 0400     		.2byte	0x4
ARM GAS  C:\Users\adria\AppData\Local\Temp\ccOKprka.s 			page 212


 9981 0cc1 F3       		.byte	0xf3
 9982 0cc2 01       		.uleb128 0x1
 9983 0cc3 50       		.byte	0x50
 9984 0cc4 9F       		.byte	0x9f
 9985 0cc5 00000000 		.4byte	0
 9986 0cc9 00000000 		.4byte	0
 9987              	.LLST53:
 9988 0ccd 00000000 		.4byte	.LVL155
 9989 0cd1 0C000000 		.4byte	.LVL158
 9990 0cd5 0100     		.2byte	0x1
 9991 0cd7 51       		.byte	0x51
 9992 0cd8 0C000000 		.4byte	.LVL158
 9993 0cdc 38000000 		.4byte	.LFE92
 9994 0ce0 0400     		.2byte	0x4
 9995 0ce2 F3       		.byte	0xf3
 9996 0ce3 01       		.uleb128 0x1
 9997 0ce4 51       		.byte	0x51
 9998 0ce5 9F       		.byte	0x9f
 9999 0ce6 00000000 		.4byte	0
 10000 0cea 00000000 		.4byte	0
 10001              	.LLST54:
 10002 0cee 00000000 		.4byte	.LVL155
 10003 0cf2 0A000000 		.4byte	.LVL157
 10004 0cf6 0100     		.2byte	0x1
 10005 0cf8 52       		.byte	0x52
 10006 0cf9 0A000000 		.4byte	.LVL157
 10007 0cfd 22000000 		.4byte	.LVL162
 10008 0d01 0100     		.2byte	0x1
 10009 0d03 55       		.byte	0x55
 10010 0d04 22000000 		.4byte	.LVL162
 10011 0d08 2A000000 		.4byte	.LVL165
 10012 0d0c 0300     		.2byte	0x3
 10013 0d0e 75       		.byte	0x75
 10014 0d0f 7F       		.sleb128 -1
 10015 0d10 9F       		.byte	0x9f
 10016 0d11 2A000000 		.4byte	.LVL165
 10017 0d15 38000000 		.4byte	.LFE92
 10018 0d19 0100     		.2byte	0x1
 10019 0d1b 55       		.byte	0x55
 10020 0d1c 00000000 		.4byte	0
 10021 0d20 00000000 		.4byte	0
 10022              	.LLST55:
 10023 0d24 00000000 		.4byte	.LVL155
 10024 0d28 0F000000 		.4byte	.LVL159-1
 10025 0d2c 0100     		.2byte	0x1
 10026 0d2e 53       		.byte	0x53
 10027 0d2f 0F000000 		.4byte	.LVL159-1
 10028 0d33 38000000 		.4byte	.LFE92
 10029 0d37 0400     		.2byte	0x4
 10030 0d39 F3       		.byte	0xf3
 10031 0d3a 01       		.uleb128 0x1
 10032 0d3b 53       		.byte	0x53
 10033 0d3c 9F       		.byte	0x9f
 10034 0d3d 00000000 		.4byte	0
 10035 0d41 00000000 		.4byte	0
 10036              	.LLST56:
 10037 0d45 08000000 		.4byte	.LVL156
ARM GAS  C:\Users\adria\AppData\Local\Temp\ccOKprka.s 			page 213


 10038 0d49 1C000000 		.4byte	.LVL161
 10039 0d4d 0200     		.2byte	0x2
 10040 0d4f 30       		.byte	0x30
 10041 0d50 9F       		.byte	0x9f
 10042 0d51 1C000000 		.4byte	.LVL161
 10043 0d55 28000000 		.4byte	.LVL164
 10044 0d59 0100     		.2byte	0x1
 10045 0d5b 54       		.byte	0x54
 10046 0d5c 2A000000 		.4byte	.LVL165
 10047 0d60 38000000 		.4byte	.LFE92
 10048 0d64 0100     		.2byte	0x1
 10049 0d66 54       		.byte	0x54
 10050 0d67 00000000 		.4byte	0
 10051 0d6b 00000000 		.4byte	0
 10052              	.LLST57:
 10053 0d6f 00000000 		.4byte	.LVL167
 10054 0d73 11000000 		.4byte	.LVL171-1
 10055 0d77 0100     		.2byte	0x1
 10056 0d79 50       		.byte	0x50
 10057 0d7a 11000000 		.4byte	.LVL171-1
 10058 0d7e 52000000 		.4byte	.LFE91
 10059 0d82 0400     		.2byte	0x4
 10060 0d84 F3       		.byte	0xf3
 10061 0d85 01       		.uleb128 0x1
 10062 0d86 50       		.byte	0x50
 10063 0d87 9F       		.byte	0x9f
 10064 0d88 00000000 		.4byte	0
 10065 0d8c 00000000 		.4byte	0
 10066              	.LLST58:
 10067 0d90 00000000 		.4byte	.LVL167
 10068 0d94 0E000000 		.4byte	.LVL170
 10069 0d98 0100     		.2byte	0x1
 10070 0d9a 51       		.byte	0x51
 10071 0d9b 0E000000 		.4byte	.LVL170
 10072 0d9f 52000000 		.4byte	.LFE91
 10073 0da3 0400     		.2byte	0x4
 10074 0da5 F3       		.byte	0xf3
 10075 0da6 01       		.uleb128 0x1
 10076 0da7 51       		.byte	0x51
 10077 0da8 9F       		.byte	0x9f
 10078 0da9 00000000 		.4byte	0
 10079 0dad 00000000 		.4byte	0
 10080              	.LLST59:
 10081 0db1 00000000 		.4byte	.LVL167
 10082 0db5 0C000000 		.4byte	.LVL169
 10083 0db9 0100     		.2byte	0x1
 10084 0dbb 52       		.byte	0x52
 10085 0dbc 0C000000 		.4byte	.LVL169
 10086 0dc0 52000000 		.4byte	.LFE91
 10087 0dc4 0100     		.2byte	0x1
 10088 0dc6 55       		.byte	0x55
 10089 0dc7 00000000 		.4byte	0
 10090 0dcb 00000000 		.4byte	0
 10091              	.LLST60:
 10092 0dcf 00000000 		.4byte	.LVL167
 10093 0dd3 11000000 		.4byte	.LVL171-1
 10094 0dd7 0100     		.2byte	0x1
ARM GAS  C:\Users\adria\AppData\Local\Temp\ccOKprka.s 			page 214


 10095 0dd9 53       		.byte	0x53
 10096 0dda 11000000 		.4byte	.LVL171-1
 10097 0dde 52000000 		.4byte	.LFE91
 10098 0de2 0400     		.2byte	0x4
 10099 0de4 F3       		.byte	0xf3
 10100 0de5 01       		.uleb128 0x1
 10101 0de6 53       		.byte	0x53
 10102 0de7 9F       		.byte	0x9f
 10103 0de8 00000000 		.4byte	0
 10104 0dec 00000000 		.4byte	0
 10105              	.LLST61:
 10106 0df0 0A000000 		.4byte	.LVL168
 10107 0df4 12000000 		.4byte	.LVL171
 10108 0df8 0200     		.2byte	0x2
 10109 0dfa 30       		.byte	0x30
 10110 0dfb 9F       		.byte	0x9f
 10111 0dfc 4E000000 		.4byte	.LVL180
 10112 0e00 52000000 		.4byte	.LFE91
 10113 0e04 0100     		.2byte	0x1
 10114 0e06 50       		.byte	0x50
 10115 0e07 00000000 		.4byte	0
 10116 0e0b 00000000 		.4byte	0
 10117              	.LLST62:
 10118 0e0f 0A000000 		.4byte	.LVL168
 10119 0e13 28000000 		.4byte	.LVL174
 10120 0e17 0200     		.2byte	0x2
 10121 0e19 30       		.byte	0x30
 10122 0e1a 9F       		.byte	0x9f
 10123 0e1b 28000000 		.4byte	.LVL174
 10124 0e1f 34000000 		.4byte	.LVL176
 10125 0e23 0100     		.2byte	0x1
 10126 0e25 54       		.byte	0x54
 10127 0e26 36000000 		.4byte	.LVL177
 10128 0e2a 52000000 		.4byte	.LFE91
 10129 0e2e 0100     		.2byte	0x1
 10130 0e30 54       		.byte	0x54
 10131 0e31 00000000 		.4byte	0
 10132 0e35 00000000 		.4byte	0
 10133              	.LLST63:
 10134 0e39 00000000 		.4byte	.LVL181
 10135 0e3d 0E000000 		.4byte	.LVL182
 10136 0e41 0100     		.2byte	0x1
 10137 0e43 50       		.byte	0x50
 10138 0e44 0E000000 		.4byte	.LVL182
 10139 0e48 2A000000 		.4byte	.LVL186
 10140 0e4c 0400     		.2byte	0x4
 10141 0e4e F3       		.byte	0xf3
 10142 0e4f 01       		.uleb128 0x1
 10143 0e50 50       		.byte	0x50
 10144 0e51 9F       		.byte	0x9f
 10145 0e52 2A000000 		.4byte	.LVL186
 10146 0e56 40000000 		.4byte	.LVL188
 10147 0e5a 0100     		.2byte	0x1
 10148 0e5c 56       		.byte	0x56
 10149 0e5d 00000000 		.4byte	0
 10150 0e61 00000000 		.4byte	0
 10151              	.LLST64:
ARM GAS  C:\Users\adria\AppData\Local\Temp\ccOKprka.s 			page 215


 10152 0e65 00000000 		.4byte	.LVL181
 10153 0e69 11000000 		.4byte	.LVL183-1
 10154 0e6d 0100     		.2byte	0x1
 10155 0e6f 51       		.byte	0x51
 10156 0e70 11000000 		.4byte	.LVL183-1
 10157 0e74 46000000 		.4byte	.LFE64
 10158 0e78 0100     		.2byte	0x1
 10159 0e7a 58       		.byte	0x58
 10160 0e7b 00000000 		.4byte	0
 10161 0e7f 00000000 		.4byte	0
 10162              	.LLST65:
 10163 0e83 00000000 		.4byte	.LVL181
 10164 0e87 11000000 		.4byte	.LVL183-1
 10165 0e8b 0100     		.2byte	0x1
 10166 0e8d 52       		.byte	0x52
 10167 0e8e 11000000 		.4byte	.LVL183-1
 10168 0e92 46000000 		.4byte	.LFE64
 10169 0e96 0400     		.2byte	0x4
 10170 0e98 F3       		.byte	0xf3
 10171 0e99 01       		.uleb128 0x1
 10172 0e9a 52       		.byte	0x52
 10173 0e9b 9F       		.byte	0x9f
 10174 0e9c 00000000 		.4byte	0
 10175 0ea0 00000000 		.4byte	0
 10176              	.LLST66:
 10177 0ea4 00000000 		.4byte	.LVL181
 10178 0ea8 11000000 		.4byte	.LVL183-1
 10179 0eac 0100     		.2byte	0x1
 10180 0eae 53       		.byte	0x53
 10181 0eaf 11000000 		.4byte	.LVL183-1
 10182 0eb3 46000000 		.4byte	.LFE64
 10183 0eb7 0100     		.2byte	0x1
 10184 0eb9 54       		.byte	0x54
 10185 0eba 00000000 		.4byte	0
 10186 0ebe 00000000 		.4byte	0
 10187              	.LLST67:
 10188 0ec2 12000000 		.4byte	.LVL183
 10189 0ec6 1E000000 		.4byte	.LVL184
 10190 0eca 0100     		.2byte	0x1
 10191 0ecc 50       		.byte	0x50
 10192 0ecd 22000000 		.4byte	.LVL185
 10193 0ed1 2A000000 		.4byte	.LVL186
 10194 0ed5 0100     		.2byte	0x1
 10195 0ed7 50       		.byte	0x50
 10196 0ed8 2A000000 		.4byte	.LVL186
 10197 0edc 46000000 		.4byte	.LFE64
 10198 0ee0 0100     		.2byte	0x1
 10199 0ee2 55       		.byte	0x55
 10200 0ee3 00000000 		.4byte	0
 10201 0ee7 00000000 		.4byte	0
 10202              	.LLST68:
 10203 0eeb 00000000 		.4byte	.LVL189
 10204 0eef 0C000000 		.4byte	.LVL190
 10205 0ef3 0100     		.2byte	0x1
 10206 0ef5 50       		.byte	0x50
 10207 0ef6 0C000000 		.4byte	.LVL190
 10208 0efa 8A010000 		.4byte	.LFE74
ARM GAS  C:\Users\adria\AppData\Local\Temp\ccOKprka.s 			page 216


 10209 0efe 0100     		.2byte	0x1
 10210 0f00 54       		.byte	0x54
 10211 0f01 00000000 		.4byte	0
 10212 0f05 00000000 		.4byte	0
 10213              	.LLST69:
 10214 0f09 1C000000 		.4byte	.LVL192
 10215 0f0d 2C000000 		.4byte	.LVL193
 10216 0f11 0100     		.2byte	0x1
 10217 0f13 50       		.byte	0x50
 10218 0f14 30000000 		.4byte	.LVL194
 10219 0f18 3E000000 		.4byte	.LVL195
 10220 0f1c 0100     		.2byte	0x1
 10221 0f1e 50       		.byte	0x50
 10222 0f1f 44000000 		.4byte	.LVL197
 10223 0f23 34010000 		.4byte	.LVL198
 10224 0f27 0100     		.2byte	0x1
 10225 0f29 53       		.byte	0x53
 10226 0f2a 40010000 		.4byte	.LVL199
 10227 0f2e 5D010000 		.4byte	.LVL200-1
 10228 0f32 0100     		.2byte	0x1
 10229 0f34 50       		.byte	0x50
 10230 0f35 5E010000 		.4byte	.LVL200
 10231 0f39 74010000 		.4byte	.LVL201
 10232 0f3d 0100     		.2byte	0x1
 10233 0f3f 50       		.byte	0x50
 10234 0f40 7A010000 		.4byte	.LVL203
 10235 0f44 8A010000 		.4byte	.LFE74
 10236 0f48 0100     		.2byte	0x1
 10237 0f4a 53       		.byte	0x53
 10238 0f4b 00000000 		.4byte	0
 10239 0f4f 00000000 		.4byte	0
 10240              	.LLST70:
 10241 0f53 00000000 		.4byte	.LVL205
 10242 0f57 0F000000 		.4byte	.LVL207-1
 10243 0f5b 0100     		.2byte	0x1
 10244 0f5d 50       		.byte	0x50
 10245 0f5e 0F000000 		.4byte	.LVL207-1
 10246 0f62 5C000000 		.4byte	.LFE76
 10247 0f66 0100     		.2byte	0x1
 10248 0f68 54       		.byte	0x54
 10249 0f69 00000000 		.4byte	0
 10250 0f6d 00000000 		.4byte	0
 10251              	.LLST71:
 10252 0f71 10000000 		.4byte	.LVL207
 10253 0f75 1C000000 		.4byte	.LVL208
 10254 0f79 0100     		.2byte	0x1
 10255 0f7b 50       		.byte	0x50
 10256 0f7c 22000000 		.4byte	.LVL210
 10257 0f80 26000000 		.4byte	.LVL211
 10258 0f84 0100     		.2byte	0x1
 10259 0f86 53       		.byte	0x53
 10260 0f87 32000000 		.4byte	.LVL212
 10261 0f8b 46000000 		.4byte	.LVL213
 10262 0f8f 0100     		.2byte	0x1
 10263 0f91 50       		.byte	0x50
 10264 0f92 4A000000 		.4byte	.LVL214
 10265 0f96 56000000 		.4byte	.LVL215
ARM GAS  C:\Users\adria\AppData\Local\Temp\ccOKprka.s 			page 217


 10266 0f9a 0100     		.2byte	0x1
 10267 0f9c 50       		.byte	0x50
 10268 0f9d 56000000 		.4byte	.LVL215
 10269 0fa1 5C000000 		.4byte	.LFE76
 10270 0fa5 0100     		.2byte	0x1
 10271 0fa7 53       		.byte	0x53
 10272 0fa8 00000000 		.4byte	0
 10273 0fac 00000000 		.4byte	0
 10274              	.LLST72:
 10275 0fb0 00000000 		.4byte	.LVL216
 10276 0fb4 18000000 		.4byte	.LVL218
 10277 0fb8 0100     		.2byte	0x1
 10278 0fba 50       		.byte	0x50
 10279 0fbb 18000000 		.4byte	.LVL218
 10280 0fbf EC000000 		.4byte	.LFE83
 10281 0fc3 0100     		.2byte	0x1
 10282 0fc5 57       		.byte	0x57
 10283 0fc6 00000000 		.4byte	0
 10284 0fca 00000000 		.4byte	0
 10285              	.LLST73:
 10286 0fce 00000000 		.4byte	.LVL216
 10287 0fd2 1B000000 		.4byte	.LVL219-1
 10288 0fd6 0100     		.2byte	0x1
 10289 0fd8 51       		.byte	0x51
 10290 0fd9 1B000000 		.4byte	.LVL219-1
 10291 0fdd EC000000 		.4byte	.LFE83
 10292 0fe1 0100     		.2byte	0x1
 10293 0fe3 5A       		.byte	0x5a
 10294 0fe4 00000000 		.4byte	0
 10295 0fe8 00000000 		.4byte	0
 10296              	.LLST74:
 10297 0fec 90000000 		.4byte	.LVL228
 10298 0ff0 D8000000 		.4byte	.LVL235
 10299 0ff4 0100     		.2byte	0x1
 10300 0ff6 5B       		.byte	0x5b
 10301 0ff7 00000000 		.4byte	0
 10302 0ffb 00000000 		.4byte	0
 10303              	.LLST75:
 10304 0fff 72000000 		.4byte	.LVL225
 10305 1003 AB000000 		.4byte	.LVL229-1
 10306 1007 0100     		.2byte	0x1
 10307 1009 50       		.byte	0x50
 10308 100a D0000000 		.4byte	.LVL233
 10309 100e D6000000 		.4byte	.LVL234
 10310 1012 0100     		.2byte	0x1
 10311 1014 50       		.byte	0x50
 10312 1015 00000000 		.4byte	0
 10313 1019 00000000 		.4byte	0
 10314              	.LLST76:
 10315 101d 5C000000 		.4byte	.LVL224
 10316 1021 D8000000 		.4byte	.LVL235
 10317 1025 0100     		.2byte	0x1
 10318 1027 55       		.byte	0x55
 10319 1028 00000000 		.4byte	0
 10320 102c 00000000 		.4byte	0
 10321              	.LLST77:
 10322 1030 7E000000 		.4byte	.LVL226
ARM GAS  C:\Users\adria\AppData\Local\Temp\ccOKprka.s 			page 218


 10323 1034 D8000000 		.4byte	.LVL235
 10324 1038 0100     		.2byte	0x1
 10325 103a 59       		.byte	0x59
 10326 103b 00000000 		.4byte	0
 10327 103f 00000000 		.4byte	0
 10328              	.LLST78:
 10329 1043 8C000000 		.4byte	.LVL227
 10330 1047 D8000000 		.4byte	.LVL235
 10331 104b 0100     		.2byte	0x1
 10332 104d 58       		.byte	0x58
 10333 104e 00000000 		.4byte	0
 10334 1052 00000000 		.4byte	0
 10335              	.LLST79:
 10336 1056 16000000 		.4byte	.LVL217
 10337 105a 20000000 		.4byte	.LVL221
 10338 105e 0200     		.2byte	0x2
 10339 1060 3A       		.byte	0x3a
 10340 1061 9F       		.byte	0x9f
 10341 1062 20000000 		.4byte	.LVL221
 10342 1066 DA000000 		.4byte	.LVL236
 10343 106a 0100     		.2byte	0x1
 10344 106c 54       		.byte	0x54
 10345 106d DA000000 		.4byte	.LVL236
 10346 1071 E0000000 		.4byte	.LVL237
 10347 1075 0100     		.2byte	0x1
 10348 1077 53       		.byte	0x53
 10349 1078 E0000000 		.4byte	.LVL237
 10350 107c EC000000 		.4byte	.LFE83
 10351 1080 0100     		.2byte	0x1
 10352 1082 54       		.byte	0x54
 10353 1083 00000000 		.4byte	0
 10354 1087 00000000 		.4byte	0
 10355              	.LLST80:
 10356 108b 00000000 		.4byte	.LVL239
 10357 108f 14000000 		.4byte	.LVL242
 10358 1093 0100     		.2byte	0x1
 10359 1095 50       		.byte	0x50
 10360 1096 14000000 		.4byte	.LVL242
 10361 109a A8000000 		.4byte	.LFE65
 10362 109e 0100     		.2byte	0x1
 10363 10a0 56       		.byte	0x56
 10364 10a1 00000000 		.4byte	0
 10365 10a5 00000000 		.4byte	0
 10366              	.LLST81:
 10367 10a9 00000000 		.4byte	.LVL239
 10368 10ad 12000000 		.4byte	.LVL241
 10369 10b1 0100     		.2byte	0x1
 10370 10b3 51       		.byte	0x51
 10371 10b4 12000000 		.4byte	.LVL241
 10372 10b8 A8000000 		.4byte	.LFE65
 10373 10bc 0100     		.2byte	0x1
 10374 10be 58       		.byte	0x58
 10375 10bf 00000000 		.4byte	0
 10376 10c3 00000000 		.4byte	0
 10377              	.LLST82:
 10378 10c7 00000000 		.4byte	.LVL239
 10379 10cb 10000000 		.4byte	.LVL240
ARM GAS  C:\Users\adria\AppData\Local\Temp\ccOKprka.s 			page 219


 10380 10cf 0100     		.2byte	0x1
 10381 10d1 52       		.byte	0x52
 10382 10d2 10000000 		.4byte	.LVL240
 10383 10d6 A8000000 		.4byte	.LFE65
 10384 10da 0400     		.2byte	0x4
 10385 10dc F3       		.byte	0xf3
 10386 10dd 01       		.uleb128 0x1
 10387 10de 52       		.byte	0x52
 10388 10df 9F       		.byte	0x9f
 10389 10e0 00000000 		.4byte	0
 10390 10e4 00000000 		.4byte	0
 10391              	.LLST83:
 10392 10e8 00000000 		.4byte	.LVL239
 10393 10ec 17000000 		.4byte	.LVL243-1
 10394 10f0 0100     		.2byte	0x1
 10395 10f2 53       		.byte	0x53
 10396 10f3 17000000 		.4byte	.LVL243-1
 10397 10f7 A8000000 		.4byte	.LFE65
 10398 10fb 0100     		.2byte	0x1
 10399 10fd 55       		.byte	0x55
 10400 10fe 00000000 		.4byte	0
 10401 1102 00000000 		.4byte	0
 10402              	.LLST84:
 10403 1106 1E000000 		.4byte	.LVL244
 10404 110a 32000000 		.4byte	.LVL245
 10405 110e 0100     		.2byte	0x1
 10406 1110 50       		.byte	0x50
 10407 1111 32000000 		.4byte	.LVL245
 10408 1115 74000000 		.4byte	.LVL250
 10409 1119 0100     		.2byte	0x1
 10410 111b 59       		.byte	0x59
 10411 111c 74000000 		.4byte	.LVL250
 10412 1120 76000000 		.4byte	.LVL251
 10413 1124 0100     		.2byte	0x1
 10414 1126 50       		.byte	0x50
 10415 1127 76000000 		.4byte	.LVL251
 10416 112b A8000000 		.4byte	.LFE65
 10417 112f 0100     		.2byte	0x1
 10418 1131 59       		.byte	0x59
 10419 1132 00000000 		.4byte	0
 10420 1136 00000000 		.4byte	0
 10421              	.LLST85:
 10422 113a 32000000 		.4byte	.LVL245
 10423 113e 70000000 		.4byte	.LVL248
 10424 1142 0100     		.2byte	0x1
 10425 1144 54       		.byte	0x54
 10426 1145 72000000 		.4byte	.LVL249
 10427 1149 74000000 		.4byte	.LVL250
 10428 114d 0100     		.2byte	0x1
 10429 114f 54       		.byte	0x54
 10430 1150 76000000 		.4byte	.LVL251
 10431 1154 84000000 		.4byte	.LVL252
 10432 1158 0100     		.2byte	0x1
 10433 115a 54       		.byte	0x54
 10434 115b 00000000 		.4byte	0
 10435 115f 00000000 		.4byte	0
 10436              	.LLST86:
ARM GAS  C:\Users\adria\AppData\Local\Temp\ccOKprka.s 			page 220


 10437 1163 00000000 		.4byte	.LVL255
 10438 1167 09000000 		.4byte	.LVL256-1
 10439 116b 0100     		.2byte	0x1
 10440 116d 50       		.byte	0x50
 10441 116e 09000000 		.4byte	.LVL256-1
 10442 1172 66000000 		.4byte	.LFE75
 10443 1176 0100     		.2byte	0x1
 10444 1178 55       		.byte	0x55
 10445 1179 00000000 		.4byte	0
 10446 117d 00000000 		.4byte	0
 10447              	.LLST87:
 10448 1181 0A000000 		.4byte	.LVL256
 10449 1185 2C000000 		.4byte	.LVL257
 10450 1189 0100     		.2byte	0x1
 10451 118b 50       		.byte	0x50
 10452 118c 4E000000 		.4byte	.LVL260
 10453 1190 50000000 		.4byte	.LVL261
 10454 1194 0100     		.2byte	0x1
 10455 1196 50       		.byte	0x50
 10456 1197 50000000 		.4byte	.LVL261
 10457 119b 66000000 		.4byte	.LFE75
 10458 119f 0100     		.2byte	0x1
 10459 11a1 54       		.byte	0x54
 10460 11a2 00000000 		.4byte	0
 10461 11a6 00000000 		.4byte	0
 10462              	.LLST88:
 10463 11aa 00000000 		.4byte	.LVL264
 10464 11ae 15000000 		.4byte	.LVL265-1
 10465 11b2 0100     		.2byte	0x1
 10466 11b4 50       		.byte	0x50
 10467 11b5 15000000 		.4byte	.LVL265-1
 10468 11b9 54000000 		.4byte	.LFE66
 10469 11bd 0100     		.2byte	0x1
 10470 11bf 55       		.byte	0x55
 10471 11c0 00000000 		.4byte	0
 10472 11c4 00000000 		.4byte	0
 10473              	.LLST89:
 10474 11c8 16000000 		.4byte	.LVL265
 10475 11cc 20000000 		.4byte	.LVL266
 10476 11d0 0100     		.2byte	0x1
 10477 11d2 50       		.byte	0x50
 10478 11d3 26000000 		.4byte	.LVL268
 10479 11d7 54000000 		.4byte	.LFE66
 10480 11db 0100     		.2byte	0x1
 10481 11dd 54       		.byte	0x54
 10482 11de 00000000 		.4byte	0
 10483 11e2 00000000 		.4byte	0
 10484              	.LLST90:
 10485 11e6 00000000 		.4byte	.LVL274
 10486 11ea 07000000 		.4byte	.LVL275-1
 10487 11ee 0100     		.2byte	0x1
 10488 11f0 50       		.byte	0x50
 10489 11f1 07000000 		.4byte	.LVL275-1
 10490 11f5 3E000000 		.4byte	.LFE63
 10491 11f9 0100     		.2byte	0x1
 10492 11fb 54       		.byte	0x54
 10493 11fc 00000000 		.4byte	0
ARM GAS  C:\Users\adria\AppData\Local\Temp\ccOKprka.s 			page 221


 10494 1200 00000000 		.4byte	0
 10495              	.LLST91:
 10496 1204 08000000 		.4byte	.LVL275
 10497 1208 0E000000 		.4byte	.LVL276
 10498 120c 0100     		.2byte	0x1
 10499 120e 50       		.byte	0x50
 10500 120f 12000000 		.4byte	.LVL277
 10501 1213 1E000000 		.4byte	.LVL278
 10502 1217 0100     		.2byte	0x1
 10503 1219 50       		.byte	0x50
 10504 121a 22000000 		.4byte	.LVL279
 10505 121e 2E000000 		.4byte	.LVL280
 10506 1222 0100     		.2byte	0x1
 10507 1224 50       		.byte	0x50
 10508 1225 34000000 		.4byte	.LVL282
 10509 1229 36000000 		.4byte	.LVL283
 10510 122d 0100     		.2byte	0x1
 10511 122f 53       		.byte	0x53
 10512 1230 36000000 		.4byte	.LVL283
 10513 1234 3A000000 		.4byte	.LVL284
 10514 1238 0100     		.2byte	0x1
 10515 123a 50       		.byte	0x50
 10516 123b 3A000000 		.4byte	.LVL284
 10517 123f 3E000000 		.4byte	.LFE63
 10518 1243 0100     		.2byte	0x1
 10519 1245 53       		.byte	0x53
 10520 1246 00000000 		.4byte	0
 10521 124a 00000000 		.4byte	0
 10522              	.LLST92:
 10523 124e 00000000 		.4byte	.LVL285
 10524 1252 12000000 		.4byte	.LVL287
 10525 1256 0100     		.2byte	0x1
 10526 1258 50       		.byte	0x50
 10527 1259 12000000 		.4byte	.LVL287
 10528 125d B6000000 		.4byte	.LFE68
 10529 1261 0400     		.2byte	0x4
 10530 1263 F3       		.byte	0xf3
 10531 1264 01       		.uleb128 0x1
 10532 1265 50       		.byte	0x50
 10533 1266 9F       		.byte	0x9f
 10534 1267 00000000 		.4byte	0
 10535 126b 00000000 		.4byte	0
 10536              	.LLST93:
 10537 126f 00000000 		.4byte	.LVL285
 10538 1273 15000000 		.4byte	.LVL288-1
 10539 1277 0100     		.2byte	0x1
 10540 1279 51       		.byte	0x51
 10541 127a 15000000 		.4byte	.LVL288-1
 10542 127e B6000000 		.4byte	.LFE68
 10543 1282 0100     		.2byte	0x1
 10544 1284 54       		.byte	0x54
 10545 1285 00000000 		.4byte	0
 10546 1289 00000000 		.4byte	0
 10547              	.LLST94:
 10548 128d 16000000 		.4byte	.LVL288
 10549 1291 22000000 		.4byte	.LVL289
 10550 1295 0100     		.2byte	0x1
ARM GAS  C:\Users\adria\AppData\Local\Temp\ccOKprka.s 			page 222


 10551 1297 50       		.byte	0x50
 10552 1298 26000000 		.4byte	.LVL290
 10553 129c 36000000 		.4byte	.LVL291
 10554 12a0 0100     		.2byte	0x1
 10555 12a2 50       		.byte	0x50
 10556 12a3 3C000000 		.4byte	.LVL293
 10557 12a7 AC000000 		.4byte	.LVL294
 10558 12ab 0100     		.2byte	0x1
 10559 12ad 52       		.byte	0x52
 10560 12ae AC000000 		.4byte	.LVL294
 10561 12b2 B0000000 		.4byte	.LVL295
 10562 12b6 0100     		.2byte	0x1
 10563 12b8 50       		.byte	0x50
 10564 12b9 B0000000 		.4byte	.LVL295
 10565 12bd B6000000 		.4byte	.LFE68
 10566 12c1 0100     		.2byte	0x1
 10567 12c3 52       		.byte	0x52
 10568 12c4 00000000 		.4byte	0
 10569 12c8 00000000 		.4byte	0
 10570              	.LLST95:
 10571 12cc 00000000 		.4byte	.LVL296
 10572 12d0 0F000000 		.4byte	.LVL298-1
 10573 12d4 0100     		.2byte	0x1
 10574 12d6 50       		.byte	0x50
 10575 12d7 0F000000 		.4byte	.LVL298-1
 10576 12db 86000000 		.4byte	.LFE69
 10577 12df 0100     		.2byte	0x1
 10578 12e1 55       		.byte	0x55
 10579 12e2 00000000 		.4byte	0
 10580 12e6 00000000 		.4byte	0
 10581              	.LLST96:
 10582 12ea 10000000 		.4byte	.LVL298
 10583 12ee 16000000 		.4byte	.LVL299
 10584 12f2 0100     		.2byte	0x1
 10585 12f4 50       		.byte	0x50
 10586 12f5 24000000 		.4byte	.LVL300
 10587 12f9 44000000 		.4byte	.LVL304
 10588 12fd 0100     		.2byte	0x1
 10589 12ff 50       		.byte	0x50
 10590 1300 4A000000 		.4byte	.LVL306
 10591 1304 86000000 		.4byte	.LFE69
 10592 1308 0100     		.2byte	0x1
 10593 130a 56       		.byte	0x56
 10594 130b 00000000 		.4byte	0
 10595 130f 00000000 		.4byte	0
 10596              	.LLST97:
 10597 1313 06000000 		.4byte	.LVL297
 10598 1317 16000000 		.4byte	.LVL299
 10599 131b 0200     		.2byte	0x2
 10600 131d 30       		.byte	0x30
 10601 131e 9F       		.byte	0x9f
 10602 131f 16000000 		.4byte	.LVL299
 10603 1323 2C000000 		.4byte	.LVL301
 10604 1327 0100     		.2byte	0x1
 10605 1329 54       		.byte	0x54
 10606 132a 2C000000 		.4byte	.LVL301
 10607 132e 36000000 		.4byte	.LVL302
ARM GAS  C:\Users\adria\AppData\Local\Temp\ccOKprka.s 			page 223


 10608 1332 0500     		.2byte	0x5
 10609 1334 73       		.byte	0x73
 10610 1335 00       		.sleb128 0
 10611 1336 33       		.byte	0x33
 10612 1337 1A       		.byte	0x1a
 10613 1338 9F       		.byte	0x9f
 10614 1339 36000000 		.4byte	.LVL302
 10615 133d 3C000000 		.4byte	.LVL303
 10616 1341 0700     		.2byte	0x7
 10617 1343 91       		.byte	0x91
 10618 1344 6F       		.sleb128 -17
 10619 1345 94       		.byte	0x94
 10620 1346 01       		.byte	0x1
 10621 1347 33       		.byte	0x33
 10622 1348 1A       		.byte	0x1a
 10623 1349 9F       		.byte	0x9f
 10624 134a 50000000 		.4byte	.LVL307
 10625 134e 80000000 		.4byte	.LVL309
 10626 1352 0100     		.2byte	0x1
 10627 1354 54       		.byte	0x54
 10628 1355 00000000 		.4byte	0
 10629 1359 00000000 		.4byte	0
 10630              	.LLST98:
 10631 135d 00000000 		.4byte	.LVL310
 10632 1361 20000000 		.4byte	.LVL313
 10633 1365 0100     		.2byte	0x1
 10634 1367 50       		.byte	0x50
 10635 1368 20000000 		.4byte	.LVL313
 10636 136c 68020000 		.4byte	.LFE67
 10637 1370 0400     		.2byte	0x4
 10638 1372 F3       		.byte	0xf3
 10639 1373 01       		.uleb128 0x1
 10640 1374 50       		.byte	0x50
 10641 1375 9F       		.byte	0x9f
 10642 1376 00000000 		.4byte	0
 10643 137a 00000000 		.4byte	0
 10644              	.LLST99:
 10645 137e 00000000 		.4byte	.LVL310
 10646 1382 23000000 		.4byte	.LVL314-1
 10647 1386 0100     		.2byte	0x1
 10648 1388 51       		.byte	0x51
 10649 1389 23000000 		.4byte	.LVL314-1
 10650 138d 68020000 		.4byte	.LFE67
 10651 1391 0100     		.2byte	0x1
 10652 1393 54       		.byte	0x54
 10653 1394 00000000 		.4byte	0
 10654 1398 00000000 		.4byte	0
 10655              	.LLST100:
 10656 139c 24000000 		.4byte	.LVL314
 10657 13a0 36000000 		.4byte	.LVL315
 10658 13a4 0100     		.2byte	0x1
 10659 13a6 50       		.byte	0x50
 10660 13a7 3C000000 		.4byte	.LVL317
 10661 13ab 49000000 		.4byte	.LVL318-1
 10662 13af 0100     		.2byte	0x1
 10663 13b1 53       		.byte	0x53
 10664 13b2 4C000000 		.4byte	.LVL319
ARM GAS  C:\Users\adria\AppData\Local\Temp\ccOKprka.s 			page 224


 10665 13b6 56000000 		.4byte	.LVL320
 10666 13ba 0100     		.2byte	0x1
 10667 13bc 53       		.byte	0x53
 10668 13bd 62000000 		.4byte	.LVL321
 10669 13c1 70000000 		.4byte	.LVL322
 10670 13c5 0100     		.2byte	0x1
 10671 13c7 50       		.byte	0x50
 10672 13c8 76000000 		.4byte	.LVL324
 10673 13cc AE000000 		.4byte	.LVL328
 10674 13d0 0100     		.2byte	0x1
 10675 13d2 53       		.byte	0x53
 10676 13d3 BA000000 		.4byte	.LVL329
 10677 13d7 C8000000 		.4byte	.LVL330
 10678 13db 0100     		.2byte	0x1
 10679 13dd 50       		.byte	0x50
 10680 13de CE000000 		.4byte	.LVL332
 10681 13e2 FE000000 		.4byte	.LVL335
 10682 13e6 0100     		.2byte	0x1
 10683 13e8 53       		.byte	0x53
 10684 13e9 0A010000 		.4byte	.LVL336
 10685 13ed 18010000 		.4byte	.LVL337
 10686 13f1 0100     		.2byte	0x1
 10687 13f3 50       		.byte	0x50
 10688 13f4 1E010000 		.4byte	.LVL339
 10689 13f8 78010000 		.4byte	.LVL342
 10690 13fc 0100     		.2byte	0x1
 10691 13fe 53       		.byte	0x53
 10692 13ff 84010000 		.4byte	.LVL343
 10693 1403 92010000 		.4byte	.LVL344
 10694 1407 0100     		.2byte	0x1
 10695 1409 50       		.byte	0x50
 10696 140a 98010000 		.4byte	.LVL346
 10697 140e C8010000 		.4byte	.LVL349
 10698 1412 0100     		.2byte	0x1
 10699 1414 53       		.byte	0x53
 10700 1415 D4010000 		.4byte	.LVL350
 10701 1419 E2010000 		.4byte	.LVL351
 10702 141d 0100     		.2byte	0x1
 10703 141f 50       		.byte	0x50
 10704 1420 E8010000 		.4byte	.LVL353
 10705 1424 EC010000 		.4byte	.LVL354
 10706 1428 0100     		.2byte	0x1
 10707 142a 53       		.byte	0x53
 10708 142b FA010000 		.4byte	.LVL356
 10709 142f 52020000 		.4byte	.LVL359
 10710 1433 0100     		.2byte	0x1
 10711 1435 53       		.byte	0x53
 10712 1436 5E020000 		.4byte	.LVL361
 10713 143a 68020000 		.4byte	.LFE67
 10714 143e 0100     		.2byte	0x1
 10715 1440 53       		.byte	0x53
 10716 1441 00000000 		.4byte	0
 10717 1445 00000000 		.4byte	0
 10718              	.LLST101:
 10719 1449 62000000 		.4byte	.LVL321
 10720 144d A2000000 		.4byte	.LVL326
 10721 1451 0300     		.2byte	0x3
ARM GAS  C:\Users\adria\AppData\Local\Temp\ccOKprka.s 			page 225


 10722 1453 08       		.byte	0x8
 10723 1454 75       		.byte	0x75
 10724 1455 9F       		.byte	0x9f
 10725 1456 BA000000 		.4byte	.LVL329
 10726 145a F6000000 		.4byte	.LVL334
 10727 145e 0300     		.2byte	0x3
 10728 1460 08       		.byte	0x8
 10729 1461 70       		.byte	0x70
 10730 1462 9F       		.byte	0x9f
 10731 1463 0A010000 		.4byte	.LVL336
 10732 1467 6E010000 		.4byte	.LVL341
 10733 146b 0300     		.2byte	0x3
 10734 146d 08       		.byte	0x8
 10735 146e 74       		.byte	0x74
 10736 146f 9F       		.byte	0x9f
 10737 1470 84010000 		.4byte	.LVL343
 10738 1474 C0010000 		.4byte	.LVL348
 10739 1478 0300     		.2byte	0x3
 10740 147a 08       		.byte	0x8
 10741 147b 72       		.byte	0x72
 10742 147c 9F       		.byte	0x9f
 10743 147d E8010000 		.4byte	.LVL353
 10744 1481 4E020000 		.4byte	.LVL358
 10745 1485 0300     		.2byte	0x3
 10746 1487 08       		.byte	0x8
 10747 1488 71       		.byte	0x71
 10748 1489 9F       		.byte	0x9f
 10749 148a 00000000 		.4byte	0
 10750 148e 00000000 		.4byte	0
 10751              	.LLST102:
 10752 1492 0E000000 		.4byte	.LVL311
 10753 1496 9E000000 		.4byte	.LVL325
 10754 149a 0200     		.2byte	0x2
 10755 149c 30       		.byte	0x30
 10756 149d 9F       		.byte	0x9f
 10757 149e 9E000000 		.4byte	.LVL325
 10758 14a2 A2000000 		.4byte	.LVL326
 10759 14a6 0200     		.2byte	0x2
 10760 14a8 31       		.byte	0x31
 10761 14a9 9F       		.byte	0x9f
 10762 14aa A2000000 		.4byte	.LVL326
 10763 14ae A4000000 		.4byte	.LVL327
 10764 14b2 0200     		.2byte	0x2
 10765 14b4 30       		.byte	0x30
 10766 14b5 9F       		.byte	0x9f
 10767 14b6 A4000000 		.4byte	.LVL327
 10768 14ba F4000000 		.4byte	.LVL333
 10769 14be 0100     		.2byte	0x1
 10770 14c0 56       		.byte	0x56
 10771 14c1 F6000000 		.4byte	.LVL334
 10772 14c5 6C010000 		.4byte	.LVL340
 10773 14c9 0100     		.2byte	0x1
 10774 14cb 56       		.byte	0x56
 10775 14cc 6E010000 		.4byte	.LVL341
 10776 14d0 BE010000 		.4byte	.LVL347
 10777 14d4 0100     		.2byte	0x1
 10778 14d6 56       		.byte	0x56
ARM GAS  C:\Users\adria\AppData\Local\Temp\ccOKprka.s 			page 226


 10779 14d7 C0010000 		.4byte	.LVL348
 10780 14db 4C020000 		.4byte	.LVL357
 10781 14df 0100     		.2byte	0x1
 10782 14e1 56       		.byte	0x56
 10783 14e2 4E020000 		.4byte	.LVL358
 10784 14e6 62020000 		.4byte	.LVL362
 10785 14ea 0100     		.2byte	0x1
 10786 14ec 56       		.byte	0x56
 10787 14ed 00000000 		.4byte	0
 10788 14f1 00000000 		.4byte	0
 10789              	.LLST103:
 10790 14f5 00000000 		.4byte	.LVL363
 10791 14f9 09000000 		.4byte	.LVL364-1
 10792 14fd 0100     		.2byte	0x1
 10793 14ff 50       		.byte	0x50
 10794 1500 09000000 		.4byte	.LVL364-1
 10795 1504 30000000 		.4byte	.LFE70
 10796 1508 0100     		.2byte	0x1
 10797 150a 54       		.byte	0x54
 10798 150b 00000000 		.4byte	0
 10799 150f 00000000 		.4byte	0
 10800              	.LLST104:
 10801 1513 0A000000 		.4byte	.LVL364
 10802 1517 18000000 		.4byte	.LVL365
 10803 151b 0100     		.2byte	0x1
 10804 151d 50       		.byte	0x50
 10805 151e 1E000000 		.4byte	.LVL367
 10806 1522 30000000 		.4byte	.LFE70
 10807 1526 0100     		.2byte	0x1
 10808 1528 53       		.byte	0x53
 10809 1529 00000000 		.4byte	0
 10810 152d 00000000 		.4byte	0
 10811              	.LLST105:
 10812 1531 00000000 		.4byte	.LVL369
 10813 1535 0C000000 		.4byte	.LVL370
 10814 1539 0100     		.2byte	0x1
 10815 153b 50       		.byte	0x50
 10816 153c 0C000000 		.4byte	.LVL370
 10817 1540 64000000 		.4byte	.LFE71
 10818 1544 0400     		.2byte	0x4
 10819 1546 F3       		.byte	0xf3
 10820 1547 01       		.uleb128 0x1
 10821 1548 50       		.byte	0x50
 10822 1549 9F       		.byte	0x9f
 10823 154a 00000000 		.4byte	0
 10824 154e 00000000 		.4byte	0
 10825              	.LLST106:
 10826 1552 3A000000 		.4byte	.LVL373
 10827 1556 46000000 		.4byte	.LVL374
 10828 155a 0A00     		.2byte	0xa
 10829 155c 73       		.byte	0x73
 10830 155d 00       		.sleb128 0
 10831 155e 0A       		.byte	0xa
 10832 155f AB07     		.2byte	0x7ab
 10833 1561 1E       		.byte	0x1e
 10834 1562 23       		.byte	0x23
 10835 1563 C521     		.uleb128 0x10c5
ARM GAS  C:\Users\adria\AppData\Local\Temp\ccOKprka.s 			page 227


 10836 1565 9F       		.byte	0x9f
 10837 1566 46000000 		.4byte	.LVL374
 10838 156a 4C000000 		.4byte	.LVL376
 10839 156e 0100     		.2byte	0x1
 10840 1570 50       		.byte	0x50
 10841 1571 4C000000 		.4byte	.LVL376
 10842 1575 4E000000 		.4byte	.LVL377
 10843 1579 3C00     		.2byte	0x3c
 10844 157b 71       		.byte	0x71
 10845 157c 39       		.sleb128 57
 10846 157d 94       		.byte	0x94
 10847 157e 01       		.byte	0x1
 10848 157f 08       		.byte	0x8
 10849 1580 FF       		.byte	0xff
 10850 1581 1A       		.byte	0x1a
 10851 1582 91       		.byte	0x91
 10852 1583 00       		.sleb128 0
 10853 1584 22       		.byte	0x22
 10854 1585 40       		.byte	0x40
 10855 1586 1C       		.byte	0x1c
 10856 1587 94       		.byte	0x94
 10857 1588 01       		.byte	0x1
 10858 1589 08       		.byte	0x8
 10859 158a FF       		.byte	0xff
 10860 158b 1A       		.byte	0x1a
 10861 158c 71       		.byte	0x71
 10862 158d 38       		.sleb128 56
 10863 158e 94       		.byte	0x94
 10864 158f 01       		.byte	0x1
 10865 1590 08       		.byte	0x8
 10866 1591 FF       		.byte	0xff
 10867 1592 1A       		.byte	0x1a
 10868 1593 91       		.byte	0x91
 10869 1594 00       		.sleb128 0
 10870 1595 22       		.byte	0x22
 10871 1596 40       		.byte	0x40
 10872 1597 1C       		.byte	0x1c
 10873 1598 94       		.byte	0x94
 10874 1599 01       		.byte	0x1
 10875 159a 08       		.byte	0x8
 10876 159b FF       		.byte	0xff
 10877 159c 1A       		.byte	0x1a
 10878 159d 22       		.byte	0x22
 10879 159e 71       		.byte	0x71
 10880 159f 3A       		.sleb128 58
 10881 15a0 94       		.byte	0x94
 10882 15a1 01       		.byte	0x1
 10883 15a2 08       		.byte	0x8
 10884 15a3 FF       		.byte	0xff
 10885 15a4 1A       		.byte	0x1a
 10886 15a5 91       		.byte	0x91
 10887 15a6 00       		.sleb128 0
 10888 15a7 22       		.byte	0x22
 10889 15a8 40       		.byte	0x40
 10890 15a9 1C       		.byte	0x1c
 10891 15aa 94       		.byte	0x94
 10892 15ab 01       		.byte	0x1
ARM GAS  C:\Users\adria\AppData\Local\Temp\ccOKprka.s 			page 228


 10893 15ac 08       		.byte	0x8
 10894 15ad FF       		.byte	0xff
 10895 15ae 1A       		.byte	0x1a
 10896 15af 22       		.byte	0x22
 10897 15b0 74       		.byte	0x74
 10898 15b1 00       		.sleb128 0
 10899 15b2 1E       		.byte	0x1e
 10900 15b3 23       		.byte	0x23
 10901 15b4 B925     		.uleb128 0x12b9
 10902 15b6 9F       		.byte	0x9f
 10903 15b7 4E000000 		.4byte	.LVL377
 10904 15bb 52000000 		.4byte	.LVL379
 10905 15bf 0100     		.2byte	0x1
 10906 15c1 50       		.byte	0x50
 10907 15c2 52000000 		.4byte	.LVL379
 10908 15c6 5A000000 		.4byte	.LVL380
 10909 15ca 5300     		.2byte	0x53
 10910 15cc 71       		.byte	0x71
 10911 15cd 39       		.sleb128 57
 10912 15ce 94       		.byte	0x94
 10913 15cf 01       		.byte	0x1
 10914 15d0 08       		.byte	0x8
 10915 15d1 FF       		.byte	0xff
 10916 15d2 1A       		.byte	0x1a
 10917 15d3 91       		.byte	0x91
 10918 15d4 00       		.sleb128 0
 10919 15d5 22       		.byte	0x22
 10920 15d6 40       		.byte	0x40
 10921 15d7 1C       		.byte	0x1c
 10922 15d8 94       		.byte	0x94
 10923 15d9 01       		.byte	0x1
 10924 15da 08       		.byte	0x8
 10925 15db FF       		.byte	0xff
 10926 15dc 1A       		.byte	0x1a
 10927 15dd 71       		.byte	0x71
 10928 15de 38       		.sleb128 56
 10929 15df 94       		.byte	0x94
 10930 15e0 01       		.byte	0x1
 10931 15e1 08       		.byte	0x8
 10932 15e2 FF       		.byte	0xff
 10933 15e3 1A       		.byte	0x1a
 10934 15e4 91       		.byte	0x91
 10935 15e5 00       		.sleb128 0
 10936 15e6 22       		.byte	0x22
 10937 15e7 40       		.byte	0x40
 10938 15e8 1C       		.byte	0x1c
 10939 15e9 94       		.byte	0x94
 10940 15ea 01       		.byte	0x1
 10941 15eb 08       		.byte	0x8
 10942 15ec FF       		.byte	0xff
 10943 15ed 1A       		.byte	0x1a
 10944 15ee 22       		.byte	0x22
 10945 15ef 71       		.byte	0x71
 10946 15f0 3A       		.sleb128 58
 10947 15f1 94       		.byte	0x94
 10948 15f2 01       		.byte	0x1
 10949 15f3 08       		.byte	0x8
ARM GAS  C:\Users\adria\AppData\Local\Temp\ccOKprka.s 			page 229


 10950 15f4 FF       		.byte	0xff
 10951 15f5 1A       		.byte	0x1a
 10952 15f6 91       		.byte	0x91
 10953 15f7 00       		.sleb128 0
 10954 15f8 22       		.byte	0x22
 10955 15f9 40       		.byte	0x40
 10956 15fa 1C       		.byte	0x1c
 10957 15fb 94       		.byte	0x94
 10958 15fc 01       		.byte	0x1
 10959 15fd 08       		.byte	0x8
 10960 15fe FF       		.byte	0xff
 10961 15ff 1A       		.byte	0x1a
 10962 1600 22       		.byte	0x22
 10963 1601 74       		.byte	0x74
 10964 1602 00       		.sleb128 0
 10965 1603 1E       		.byte	0x1e
 10966 1604 23       		.byte	0x23
 10967 1605 B925     		.uleb128 0x12b9
 10968 1607 F7       		.byte	0xf7
 10969 1608 2C       		.uleb128 0x2c
 10970 1609 F7       		.byte	0xf7
 10971 160a 25       		.uleb128 0x25
 10972 160b 0C       		.byte	0xc
 10973 160c D34D6210 		.4byte	0x10624dd3
 10974 1610 F7       		.byte	0xf7
 10975 1611 25       		.uleb128 0x25
 10976 1612 1E       		.byte	0x1e
 10977 1613 08       		.byte	0x8
 10978 1614 20       		.byte	0x20
 10979 1615 F7       		.byte	0xf7
 10980 1616 25       		.uleb128 0x25
 10981 1617 25       		.byte	0x25
 10982 1618 F7       		.byte	0xf7
 10983 1619 2C       		.uleb128 0x2c
 10984 161a 36       		.byte	0x36
 10985 161b 25       		.byte	0x25
 10986 161c 23       		.byte	0x23
 10987 161d 01       		.uleb128 0x1
 10988 161e 9F       		.byte	0x9f
 10989 161f 5A000000 		.4byte	.LVL380
 10990 1623 64000000 		.4byte	.LFE71
 10991 1627 5400     		.2byte	0x54
 10992 1629 71       		.byte	0x71
 10993 162a 39       		.sleb128 57
 10994 162b 94       		.byte	0x94
 10995 162c 01       		.byte	0x1
 10996 162d 08       		.byte	0x8
 10997 162e FF       		.byte	0xff
 10998 162f 1A       		.byte	0x1a
 10999 1630 7D       		.byte	0x7d
 11000 1631 00       		.sleb128 0
 11001 1632 22       		.byte	0x22
 11002 1633 40       		.byte	0x40
 11003 1634 1C       		.byte	0x1c
 11004 1635 94       		.byte	0x94
 11005 1636 01       		.byte	0x1
 11006 1637 08       		.byte	0x8
ARM GAS  C:\Users\adria\AppData\Local\Temp\ccOKprka.s 			page 230


 11007 1638 FF       		.byte	0xff
 11008 1639 1A       		.byte	0x1a
 11009 163a 71       		.byte	0x71
 11010 163b 38       		.sleb128 56
 11011 163c 94       		.byte	0x94
 11012 163d 01       		.byte	0x1
 11013 163e 08       		.byte	0x8
 11014 163f FF       		.byte	0xff
 11015 1640 1A       		.byte	0x1a
 11016 1641 7D       		.byte	0x7d
 11017 1642 00       		.sleb128 0
 11018 1643 22       		.byte	0x22
 11019 1644 40       		.byte	0x40
 11020 1645 1C       		.byte	0x1c
 11021 1646 94       		.byte	0x94
 11022 1647 01       		.byte	0x1
 11023 1648 08       		.byte	0x8
 11024 1649 FF       		.byte	0xff
 11025 164a 1A       		.byte	0x1a
 11026 164b 22       		.byte	0x22
 11027 164c 71       		.byte	0x71
 11028 164d 3A       		.sleb128 58
 11029 164e 94       		.byte	0x94
 11030 164f 01       		.byte	0x1
 11031 1650 08       		.byte	0x8
 11032 1651 FF       		.byte	0xff
 11033 1652 1A       		.byte	0x1a
 11034 1653 7D       		.byte	0x7d
 11035 1654 00       		.sleb128 0
 11036 1655 22       		.byte	0x22
 11037 1656 40       		.byte	0x40
 11038 1657 1C       		.byte	0x1c
 11039 1658 94       		.byte	0x94
 11040 1659 01       		.byte	0x1
 11041 165a 08       		.byte	0x8
 11042 165b FF       		.byte	0xff
 11043 165c 1A       		.byte	0x1a
 11044 165d 22       		.byte	0x22
 11045 165e 0A       		.byte	0xa
 11046 165f AB07     		.2byte	0x7ab
 11047 1661 1E       		.byte	0x1e
 11048 1662 23       		.byte	0x23
 11049 1663 B925     		.uleb128 0x12b9
 11050 1665 F7       		.byte	0xf7
 11051 1666 2C       		.uleb128 0x2c
 11052 1667 F7       		.byte	0xf7
 11053 1668 25       		.uleb128 0x25
 11054 1669 0C       		.byte	0xc
 11055 166a D34D6210 		.4byte	0x10624dd3
 11056 166e F7       		.byte	0xf7
 11057 166f 25       		.uleb128 0x25
 11058 1670 1E       		.byte	0x1e
 11059 1671 08       		.byte	0x8
 11060 1672 20       		.byte	0x20
 11061 1673 F7       		.byte	0xf7
 11062 1674 25       		.uleb128 0x25
 11063 1675 25       		.byte	0x25
ARM GAS  C:\Users\adria\AppData\Local\Temp\ccOKprka.s 			page 231


 11064 1676 F7       		.byte	0xf7
 11065 1677 2C       		.uleb128 0x2c
 11066 1678 36       		.byte	0x36
 11067 1679 25       		.byte	0x25
 11068 167a 23       		.byte	0x23
 11069 167b 01       		.uleb128 0x1
 11070 167c 9F       		.byte	0x9f
 11071 167d 00000000 		.4byte	0
 11072 1681 00000000 		.4byte	0
 11073              	.LLST107:
 11074 1685 20000000 		.4byte	.LVL371
 11075 1689 48000000 		.4byte	.LVL375
 11076 168d 0100     		.2byte	0x1
 11077 168f 53       		.byte	0x53
 11078 1690 48000000 		.4byte	.LVL375
 11079 1694 5A000000 		.4byte	.LVL380
 11080 1698 3600     		.2byte	0x36
 11081 169a 71       		.byte	0x71
 11082 169b 39       		.sleb128 57
 11083 169c 94       		.byte	0x94
 11084 169d 01       		.byte	0x1
 11085 169e 08       		.byte	0x8
 11086 169f FF       		.byte	0xff
 11087 16a0 1A       		.byte	0x1a
 11088 16a1 91       		.byte	0x91
 11089 16a2 00       		.sleb128 0
 11090 16a3 22       		.byte	0x22
 11091 16a4 40       		.byte	0x40
 11092 16a5 1C       		.byte	0x1c
 11093 16a6 94       		.byte	0x94
 11094 16a7 01       		.byte	0x1
 11095 16a8 08       		.byte	0x8
 11096 16a9 FF       		.byte	0xff
 11097 16aa 1A       		.byte	0x1a
 11098 16ab 71       		.byte	0x71
 11099 16ac 38       		.sleb128 56
 11100 16ad 94       		.byte	0x94
 11101 16ae 01       		.byte	0x1
 11102 16af 08       		.byte	0x8
 11103 16b0 FF       		.byte	0xff
 11104 16b1 1A       		.byte	0x1a
 11105 16b2 91       		.byte	0x91
 11106 16b3 00       		.sleb128 0
 11107 16b4 22       		.byte	0x22
 11108 16b5 40       		.byte	0x40
 11109 16b6 1C       		.byte	0x1c
 11110 16b7 94       		.byte	0x94
 11111 16b8 01       		.byte	0x1
 11112 16b9 08       		.byte	0x8
 11113 16ba FF       		.byte	0xff
 11114 16bb 1A       		.byte	0x1a
 11115 16bc 22       		.byte	0x22
 11116 16bd 71       		.byte	0x71
 11117 16be 3A       		.sleb128 58
 11118 16bf 94       		.byte	0x94
 11119 16c0 01       		.byte	0x1
 11120 16c1 08       		.byte	0x8
ARM GAS  C:\Users\adria\AppData\Local\Temp\ccOKprka.s 			page 232


 11121 16c2 FF       		.byte	0xff
 11122 16c3 1A       		.byte	0x1a
 11123 16c4 91       		.byte	0x91
 11124 16c5 00       		.sleb128 0
 11125 16c6 22       		.byte	0x22
 11126 16c7 40       		.byte	0x40
 11127 16c8 1C       		.byte	0x1c
 11128 16c9 94       		.byte	0x94
 11129 16ca 01       		.byte	0x1
 11130 16cb 08       		.byte	0x8
 11131 16cc FF       		.byte	0xff
 11132 16cd 1A       		.byte	0x1a
 11133 16ce 22       		.byte	0x22
 11134 16cf 9F       		.byte	0x9f
 11135 16d0 5A000000 		.4byte	.LVL380
 11136 16d4 64000000 		.4byte	.LFE71
 11137 16d8 3600     		.2byte	0x36
 11138 16da 71       		.byte	0x71
 11139 16db 39       		.sleb128 57
 11140 16dc 94       		.byte	0x94
 11141 16dd 01       		.byte	0x1
 11142 16de 08       		.byte	0x8
 11143 16df FF       		.byte	0xff
 11144 16e0 1A       		.byte	0x1a
 11145 16e1 7D       		.byte	0x7d
 11146 16e2 00       		.sleb128 0
 11147 16e3 22       		.byte	0x22
 11148 16e4 40       		.byte	0x40
 11149 16e5 1C       		.byte	0x1c
 11150 16e6 94       		.byte	0x94
 11151 16e7 01       		.byte	0x1
 11152 16e8 08       		.byte	0x8
 11153 16e9 FF       		.byte	0xff
 11154 16ea 1A       		.byte	0x1a
 11155 16eb 71       		.byte	0x71
 11156 16ec 38       		.sleb128 56
 11157 16ed 94       		.byte	0x94
 11158 16ee 01       		.byte	0x1
 11159 16ef 08       		.byte	0x8
 11160 16f0 FF       		.byte	0xff
 11161 16f1 1A       		.byte	0x1a
 11162 16f2 7D       		.byte	0x7d
 11163 16f3 00       		.sleb128 0
 11164 16f4 22       		.byte	0x22
 11165 16f5 40       		.byte	0x40
 11166 16f6 1C       		.byte	0x1c
 11167 16f7 94       		.byte	0x94
 11168 16f8 01       		.byte	0x1
 11169 16f9 08       		.byte	0x8
 11170 16fa FF       		.byte	0xff
 11171 16fb 1A       		.byte	0x1a
 11172 16fc 22       		.byte	0x22
 11173 16fd 71       		.byte	0x71
 11174 16fe 3A       		.sleb128 58
 11175 16ff 94       		.byte	0x94
 11176 1700 01       		.byte	0x1
 11177 1701 08       		.byte	0x8
ARM GAS  C:\Users\adria\AppData\Local\Temp\ccOKprka.s 			page 233


 11178 1702 FF       		.byte	0xff
 11179 1703 1A       		.byte	0x1a
 11180 1704 7D       		.byte	0x7d
 11181 1705 00       		.sleb128 0
 11182 1706 22       		.byte	0x22
 11183 1707 40       		.byte	0x40
 11184 1708 1C       		.byte	0x1c
 11185 1709 94       		.byte	0x94
 11186 170a 01       		.byte	0x1
 11187 170b 08       		.byte	0x8
 11188 170c FF       		.byte	0xff
 11189 170d 1A       		.byte	0x1a
 11190 170e 22       		.byte	0x22
 11191 170f 9F       		.byte	0x9f
 11192 1710 00000000 		.4byte	0
 11193 1714 00000000 		.4byte	0
 11194              	.LLST108:
 11195 1718 00000000 		.4byte	.LVL381
 11196 171c 0C000000 		.4byte	.LVL382
 11197 1720 0100     		.2byte	0x1
 11198 1722 50       		.byte	0x50
 11199 1723 0C000000 		.4byte	.LVL382
 11200 1727 66000000 		.4byte	.LVL393
 11201 172b 0100     		.2byte	0x1
 11202 172d 54       		.byte	0x54
 11203 172e 66000000 		.4byte	.LVL393
 11204 1732 70000000 		.4byte	.LFE72
 11205 1736 0400     		.2byte	0x4
 11206 1738 F3       		.byte	0xf3
 11207 1739 01       		.uleb128 0x1
 11208 173a 50       		.byte	0x50
 11209 173b 9F       		.byte	0x9f
 11210 173c 00000000 		.4byte	0
 11211 1740 00000000 		.4byte	0
 11212              	.LLST109:
 11213 1744 3A000000 		.4byte	.LVL385
 11214 1748 46000000 		.4byte	.LVL386
 11215 174c 0A00     		.2byte	0xa
 11216 174e 72       		.byte	0x72
 11217 174f 00       		.sleb128 0
 11218 1750 0A       		.byte	0xa
 11219 1751 AB07     		.2byte	0x7ab
 11220 1753 1E       		.byte	0x1e
 11221 1754 23       		.byte	0x23
 11222 1755 C521     		.uleb128 0x10c5
 11223 1757 9F       		.byte	0x9f
 11224 1758 46000000 		.4byte	.LVL386
 11225 175c 4C000000 		.4byte	.LVL388
 11226 1760 0100     		.2byte	0x1
 11227 1762 53       		.byte	0x53
 11228 1763 4C000000 		.4byte	.LVL388
 11229 1767 4E000000 		.4byte	.LVL389
 11230 176b 3C00     		.2byte	0x3c
 11231 176d 71       		.byte	0x71
 11232 176e 39       		.sleb128 57
 11233 176f 94       		.byte	0x94
 11234 1770 01       		.byte	0x1
ARM GAS  C:\Users\adria\AppData\Local\Temp\ccOKprka.s 			page 234


 11235 1771 08       		.byte	0x8
 11236 1772 FF       		.byte	0xff
 11237 1773 1A       		.byte	0x1a
 11238 1774 91       		.byte	0x91
 11239 1775 00       		.sleb128 0
 11240 1776 22       		.byte	0x22
 11241 1777 40       		.byte	0x40
 11242 1778 1C       		.byte	0x1c
 11243 1779 94       		.byte	0x94
 11244 177a 01       		.byte	0x1
 11245 177b 08       		.byte	0x8
 11246 177c FF       		.byte	0xff
 11247 177d 1A       		.byte	0x1a
 11248 177e 71       		.byte	0x71
 11249 177f 38       		.sleb128 56
 11250 1780 94       		.byte	0x94
 11251 1781 01       		.byte	0x1
 11252 1782 08       		.byte	0x8
 11253 1783 FF       		.byte	0xff
 11254 1784 1A       		.byte	0x1a
 11255 1785 91       		.byte	0x91
 11256 1786 00       		.sleb128 0
 11257 1787 22       		.byte	0x22
 11258 1788 40       		.byte	0x40
 11259 1789 1C       		.byte	0x1c
 11260 178a 94       		.byte	0x94
 11261 178b 01       		.byte	0x1
 11262 178c 08       		.byte	0x8
 11263 178d FF       		.byte	0xff
 11264 178e 1A       		.byte	0x1a
 11265 178f 22       		.byte	0x22
 11266 1790 71       		.byte	0x71
 11267 1791 3A       		.sleb128 58
 11268 1792 94       		.byte	0x94
 11269 1793 01       		.byte	0x1
 11270 1794 08       		.byte	0x8
 11271 1795 FF       		.byte	0xff
 11272 1796 1A       		.byte	0x1a
 11273 1797 91       		.byte	0x91
 11274 1798 00       		.sleb128 0
 11275 1799 22       		.byte	0x22
 11276 179a 40       		.byte	0x40
 11277 179b 1C       		.byte	0x1c
 11278 179c 94       		.byte	0x94
 11279 179d 01       		.byte	0x1
 11280 179e 08       		.byte	0x8
 11281 179f FF       		.byte	0xff
 11282 17a0 1A       		.byte	0x1a
 11283 17a1 22       		.byte	0x22
 11284 17a2 70       		.byte	0x70
 11285 17a3 00       		.sleb128 0
 11286 17a4 1E       		.byte	0x1e
 11287 17a5 23       		.byte	0x23
 11288 17a6 B925     		.uleb128 0x12b9
 11289 17a8 9F       		.byte	0x9f
 11290 17a9 4E000000 		.4byte	.LVL389
 11291 17ad 52000000 		.4byte	.LVL391
ARM GAS  C:\Users\adria\AppData\Local\Temp\ccOKprka.s 			page 235


 11292 17b1 0100     		.2byte	0x1
 11293 17b3 53       		.byte	0x53
 11294 17b4 52000000 		.4byte	.LVL391
 11295 17b8 54000000 		.4byte	.LVL392
 11296 17bc 5300     		.2byte	0x53
 11297 17be 71       		.byte	0x71
 11298 17bf 39       		.sleb128 57
 11299 17c0 94       		.byte	0x94
 11300 17c1 01       		.byte	0x1
 11301 17c2 08       		.byte	0x8
 11302 17c3 FF       		.byte	0xff
 11303 17c4 1A       		.byte	0x1a
 11304 17c5 91       		.byte	0x91
 11305 17c6 00       		.sleb128 0
 11306 17c7 22       		.byte	0x22
 11307 17c8 40       		.byte	0x40
 11308 17c9 1C       		.byte	0x1c
 11309 17ca 94       		.byte	0x94
 11310 17cb 01       		.byte	0x1
 11311 17cc 08       		.byte	0x8
 11312 17cd FF       		.byte	0xff
 11313 17ce 1A       		.byte	0x1a
 11314 17cf 71       		.byte	0x71
 11315 17d0 38       		.sleb128 56
 11316 17d1 94       		.byte	0x94
 11317 17d2 01       		.byte	0x1
 11318 17d3 08       		.byte	0x8
 11319 17d4 FF       		.byte	0xff
 11320 17d5 1A       		.byte	0x1a
 11321 17d6 91       		.byte	0x91
 11322 17d7 00       		.sleb128 0
 11323 17d8 22       		.byte	0x22
 11324 17d9 40       		.byte	0x40
 11325 17da 1C       		.byte	0x1c
 11326 17db 94       		.byte	0x94
 11327 17dc 01       		.byte	0x1
 11328 17dd 08       		.byte	0x8
 11329 17de FF       		.byte	0xff
 11330 17df 1A       		.byte	0x1a
 11331 17e0 22       		.byte	0x22
 11332 17e1 71       		.byte	0x71
 11333 17e2 3A       		.sleb128 58
 11334 17e3 94       		.byte	0x94
 11335 17e4 01       		.byte	0x1
 11336 17e5 08       		.byte	0x8
 11337 17e6 FF       		.byte	0xff
 11338 17e7 1A       		.byte	0x1a
 11339 17e8 91       		.byte	0x91
 11340 17e9 00       		.sleb128 0
 11341 17ea 22       		.byte	0x22
 11342 17eb 40       		.byte	0x40
 11343 17ec 1C       		.byte	0x1c
 11344 17ed 94       		.byte	0x94
 11345 17ee 01       		.byte	0x1
 11346 17ef 08       		.byte	0x8
 11347 17f0 FF       		.byte	0xff
 11348 17f1 1A       		.byte	0x1a
ARM GAS  C:\Users\adria\AppData\Local\Temp\ccOKprka.s 			page 236


 11349 17f2 22       		.byte	0x22
 11350 17f3 70       		.byte	0x70
 11351 17f4 00       		.sleb128 0
 11352 17f5 1E       		.byte	0x1e
 11353 17f6 23       		.byte	0x23
 11354 17f7 B925     		.uleb128 0x12b9
 11355 17f9 F7       		.byte	0xf7
 11356 17fa 2C       		.uleb128 0x2c
 11357 17fb F7       		.byte	0xf7
 11358 17fc 25       		.uleb128 0x25
 11359 17fd 0C       		.byte	0xc
 11360 17fe D34D6210 		.4byte	0x10624dd3
 11361 1802 F7       		.byte	0xf7
 11362 1803 25       		.uleb128 0x25
 11363 1804 1E       		.byte	0x1e
 11364 1805 08       		.byte	0x8
 11365 1806 20       		.byte	0x20
 11366 1807 F7       		.byte	0xf7
 11367 1808 25       		.uleb128 0x25
 11368 1809 25       		.byte	0x25
 11369 180a F7       		.byte	0xf7
 11370 180b 2C       		.uleb128 0x2c
 11371 180c 36       		.byte	0x36
 11372 180d 25       		.byte	0x25
 11373 180e 23       		.byte	0x23
 11374 180f 01       		.uleb128 0x1
 11375 1810 9F       		.byte	0x9f
 11376 1811 00000000 		.4byte	0
 11377 1815 00000000 		.4byte	0
 11378              	.LLST110:
 11379 1819 20000000 		.4byte	.LVL383
 11380 181d 3A000000 		.4byte	.LVL385
 11381 1821 0100     		.2byte	0x1
 11382 1823 53       		.byte	0x53
 11383 1824 3A000000 		.4byte	.LVL385
 11384 1828 48000000 		.4byte	.LVL387
 11385 182c 0100     		.2byte	0x1
 11386 182e 52       		.byte	0x52
 11387 182f 48000000 		.4byte	.LVL387
 11388 1833 54000000 		.4byte	.LVL392
 11389 1837 3600     		.2byte	0x36
 11390 1839 71       		.byte	0x71
 11391 183a 39       		.sleb128 57
 11392 183b 94       		.byte	0x94
 11393 183c 01       		.byte	0x1
 11394 183d 08       		.byte	0x8
 11395 183e FF       		.byte	0xff
 11396 183f 1A       		.byte	0x1a
 11397 1840 91       		.byte	0x91
 11398 1841 00       		.sleb128 0
 11399 1842 22       		.byte	0x22
 11400 1843 40       		.byte	0x40
 11401 1844 1C       		.byte	0x1c
 11402 1845 94       		.byte	0x94
 11403 1846 01       		.byte	0x1
 11404 1847 08       		.byte	0x8
 11405 1848 FF       		.byte	0xff
ARM GAS  C:\Users\adria\AppData\Local\Temp\ccOKprka.s 			page 237


 11406 1849 1A       		.byte	0x1a
 11407 184a 71       		.byte	0x71
 11408 184b 38       		.sleb128 56
 11409 184c 94       		.byte	0x94
 11410 184d 01       		.byte	0x1
 11411 184e 08       		.byte	0x8
 11412 184f FF       		.byte	0xff
 11413 1850 1A       		.byte	0x1a
 11414 1851 91       		.byte	0x91
 11415 1852 00       		.sleb128 0
 11416 1853 22       		.byte	0x22
 11417 1854 40       		.byte	0x40
 11418 1855 1C       		.byte	0x1c
 11419 1856 94       		.byte	0x94
 11420 1857 01       		.byte	0x1
 11421 1858 08       		.byte	0x8
 11422 1859 FF       		.byte	0xff
 11423 185a 1A       		.byte	0x1a
 11424 185b 22       		.byte	0x22
 11425 185c 71       		.byte	0x71
 11426 185d 3A       		.sleb128 58
 11427 185e 94       		.byte	0x94
 11428 185f 01       		.byte	0x1
 11429 1860 08       		.byte	0x8
 11430 1861 FF       		.byte	0xff
 11431 1862 1A       		.byte	0x1a
 11432 1863 91       		.byte	0x91
 11433 1864 00       		.sleb128 0
 11434 1865 22       		.byte	0x22
 11435 1866 40       		.byte	0x40
 11436 1867 1C       		.byte	0x1c
 11437 1868 94       		.byte	0x94
 11438 1869 01       		.byte	0x1
 11439 186a 08       		.byte	0x8
 11440 186b FF       		.byte	0xff
 11441 186c 1A       		.byte	0x1a
 11442 186d 22       		.byte	0x22
 11443 186e 9F       		.byte	0x9f
 11444 186f 00000000 		.4byte	0
 11445 1873 00000000 		.4byte	0
 11446              	.LLST111:
 11447 1877 00000000 		.4byte	.LVL394
 11448 187b 08000000 		.4byte	.LVL395
 11449 187f 0100     		.2byte	0x1
 11450 1881 50       		.byte	0x50
 11451 1882 08000000 		.4byte	.LVL395
 11452 1886 36000000 		.4byte	.LFE73
 11453 188a 0100     		.2byte	0x1
 11454 188c 55       		.byte	0x55
 11455 188d 00000000 		.4byte	0
 11456 1891 00000000 		.4byte	0
 11457              	.LLST112:
 11458 1895 00000000 		.4byte	.LVL394
 11459 1899 0B000000 		.4byte	.LVL396-1
 11460 189d 0100     		.2byte	0x1
 11461 189f 51       		.byte	0x51
 11462 18a0 0B000000 		.4byte	.LVL396-1
ARM GAS  C:\Users\adria\AppData\Local\Temp\ccOKprka.s 			page 238


 11463 18a4 36000000 		.4byte	.LFE73
 11464 18a8 0100     		.2byte	0x1
 11465 18aa 54       		.byte	0x54
 11466 18ab 00000000 		.4byte	0
 11467 18af 00000000 		.4byte	0
 11468              	.LLST113:
 11469 18b3 0C000000 		.4byte	.LVL396
 11470 18b7 14000000 		.4byte	.LVL397
 11471 18bb 0100     		.2byte	0x1
 11472 18bd 50       		.byte	0x50
 11473 18be 18000000 		.4byte	.LVL398
 11474 18c2 32000000 		.4byte	.LVL399
 11475 18c6 0100     		.2byte	0x1
 11476 18c8 50       		.byte	0x50
 11477 18c9 32000000 		.4byte	.LVL399
 11478 18cd 36000000 		.4byte	.LFE73
 11479 18d1 0100     		.2byte	0x1
 11480 18d3 53       		.byte	0x53
 11481 18d4 00000000 		.4byte	0
 11482 18d8 00000000 		.4byte	0
 11483              	.LLST114:
 11484 18dc 00000000 		.4byte	.LVL400
 11485 18e0 24000000 		.4byte	.LVL402
 11486 18e4 0100     		.2byte	0x1
 11487 18e6 50       		.byte	0x50
 11488 18e7 24000000 		.4byte	.LVL402
 11489 18eb C2000000 		.4byte	.LFE88
 11490 18ef 0400     		.2byte	0x4
 11491 18f1 F3       		.byte	0xf3
 11492 18f2 01       		.uleb128 0x1
 11493 18f3 50       		.byte	0x50
 11494 18f4 9F       		.byte	0x9f
 11495 18f5 00000000 		.4byte	0
 11496 18f9 00000000 		.4byte	0
 11497              	.LLST115:
 11498 18fd 04000000 		.4byte	.LVL401
 11499 1901 28000000 		.4byte	.LVL403
 11500 1905 0200     		.2byte	0x2
 11501 1907 30       		.byte	0x30
 11502 1908 9F       		.byte	0x9f
 11503 1909 28000000 		.4byte	.LVL403
 11504 190d 5C000000 		.4byte	.LVL405
 11505 1911 0100     		.2byte	0x1
 11506 1913 50       		.byte	0x50
 11507 1914 62000000 		.4byte	.LVL407
 11508 1918 82000000 		.4byte	.LVL408
 11509 191c 0100     		.2byte	0x1
 11510 191e 55       		.byte	0x55
 11511 191f 82000000 		.4byte	.LVL408
 11512 1923 88000000 		.4byte	.LVL409
 11513 1927 0100     		.2byte	0x1
 11514 1929 50       		.byte	0x50
 11515 192a A6000000 		.4byte	.LVL413
 11516 192e C2000000 		.4byte	.LFE88
 11517 1932 0100     		.2byte	0x1
 11518 1934 55       		.byte	0x55
 11519 1935 00000000 		.4byte	0
ARM GAS  C:\Users\adria\AppData\Local\Temp\ccOKprka.s 			page 239


 11520 1939 00000000 		.4byte	0
 11521              	.LLST116:
 11522 193d 50000000 		.4byte	.LVL404
 11523 1941 BC000000 		.4byte	.LVL417
 11524 1945 0300     		.2byte	0x3
 11525 1947 08       		.byte	0x8
 11526 1948 CF       		.byte	0xcf
 11527 1949 9F       		.byte	0x9f
 11528 194a 00000000 		.4byte	0
 11529 194e 00000000 		.4byte	0
 11530              	.LLST117:
 11531 1952 60000000 		.4byte	.LVL406
 11532 1956 62000000 		.4byte	.LVL407
 11533 195a 0200     		.2byte	0x2
 11534 195c 30       		.byte	0x30
 11535 195d 9F       		.byte	0x9f
 11536 195e 62000000 		.4byte	.LVL407
 11537 1962 A8000000 		.4byte	.LVL414
 11538 1966 0100     		.2byte	0x1
 11539 1968 54       		.byte	0x54
 11540 1969 AA000000 		.4byte	.LVL415
 11541 196d BC000000 		.4byte	.LVL417
 11542 1971 0100     		.2byte	0x1
 11543 1973 54       		.byte	0x54
 11544 1974 00000000 		.4byte	0
 11545 1978 00000000 		.4byte	0
 11546              	.LLST118:
 11547 197c 00000000 		.4byte	.LVL418
 11548 1980 1D000000 		.4byte	.LVL420-1
 11549 1984 0100     		.2byte	0x1
 11550 1986 50       		.byte	0x50
 11551 1987 1D000000 		.4byte	.LVL420-1
 11552 198b 2C000000 		.4byte	.LFE93
 11553 198f 0400     		.2byte	0x4
 11554 1991 F3       		.byte	0xf3
 11555 1992 01       		.uleb128 0x1
 11556 1993 50       		.byte	0x50
 11557 1994 9F       		.byte	0x9f
 11558 1995 00000000 		.4byte	0
 11559 1999 00000000 		.4byte	0
 11560              	.LLST119:
 11561 199d 1A000000 		.4byte	.LVL419
 11562 19a1 1E000000 		.4byte	.LVL420
 11563 19a5 0200     		.2byte	0x2
 11564 19a7 30       		.byte	0x30
 11565 19a8 9F       		.byte	0x9f
 11566 19a9 1E000000 		.4byte	.LVL420
 11567 19ad 2C000000 		.4byte	.LFE93
 11568 19b1 0100     		.2byte	0x1
 11569 19b3 50       		.byte	0x50
 11570 19b4 00000000 		.4byte	0
 11571 19b8 00000000 		.4byte	0
 11572              	.LLST120:
 11573 19bc 00000000 		.4byte	.LVL421
 11574 19c0 36000000 		.4byte	.LVL423
 11575 19c4 0100     		.2byte	0x1
 11576 19c6 50       		.byte	0x50
ARM GAS  C:\Users\adria\AppData\Local\Temp\ccOKprka.s 			page 240


 11577 19c7 36000000 		.4byte	.LVL423
 11578 19cb 39000000 		.4byte	.LVL424-1
 11579 19cf 0100     		.2byte	0x1
 11580 19d1 51       		.byte	0x51
 11581 19d2 39000000 		.4byte	.LVL424-1
 11582 19d6 42000000 		.4byte	.LFE94
 11583 19da 0100     		.2byte	0x1
 11584 19dc 54       		.byte	0x54
 11585 19dd 00000000 		.4byte	0
 11586 19e1 00000000 		.4byte	0
 11587              	.LLST121:
 11588 19e5 32000000 		.4byte	.LVL422
 11589 19e9 3A000000 		.4byte	.LVL424
 11590 19ed 0200     		.2byte	0x2
 11591 19ef 30       		.byte	0x30
 11592 19f0 9F       		.byte	0x9f
 11593 19f1 40000000 		.4byte	.LVL425
 11594 19f5 42000000 		.4byte	.LFE94
 11595 19f9 0100     		.2byte	0x1
 11596 19fb 50       		.byte	0x50
 11597 19fc 00000000 		.4byte	0
 11598 1a00 00000000 		.4byte	0
 11599              	.LLST122:
 11600 1a04 00000000 		.4byte	.LVL426
 11601 1a08 0F000000 		.4byte	.LVL428-1
 11602 1a0c 0100     		.2byte	0x1
 11603 1a0e 51       		.byte	0x51
 11604 1a0f 0F000000 		.4byte	.LVL428-1
 11605 1a13 30000000 		.4byte	.LVL432
 11606 1a17 0100     		.2byte	0x1
 11607 1a19 54       		.byte	0x54
 11608 1a1a 30000000 		.4byte	.LVL432
 11609 1a1e 40000000 		.4byte	.LFE95
 11610 1a22 0400     		.2byte	0x4
 11611 1a24 F3       		.byte	0xf3
 11612 1a25 01       		.uleb128 0x1
 11613 1a26 51       		.byte	0x51
 11614 1a27 9F       		.byte	0x9f
 11615 1a28 00000000 		.4byte	0
 11616 1a2c 00000000 		.4byte	0
 11617              	.LLST123:
 11618 1a30 00000000 		.4byte	.LVL433
 11619 1a34 07000000 		.4byte	.LVL434-1
 11620 1a38 0100     		.2byte	0x1
 11621 1a3a 50       		.byte	0x50
 11622 1a3b 07000000 		.4byte	.LVL434-1
 11623 1a3f 10000000 		.4byte	.LFE96
 11624 1a43 0100     		.2byte	0x1
 11625 1a45 54       		.byte	0x54
 11626 1a46 00000000 		.4byte	0
 11627 1a4a 00000000 		.4byte	0
 11628              		.section	.debug_aranges,"",%progbits
 11629 0000 24010000 		.4byte	0x124
 11630 0004 0200     		.2byte	0x2
 11631 0006 00000000 		.4byte	.Ldebug_info0
 11632 000a 04       		.byte	0x4
 11633 000b 00       		.byte	0
ARM GAS  C:\Users\adria\AppData\Local\Temp\ccOKprka.s 			page 241


 11634 000c 0000     		.2byte	0
 11635 000e 0000     		.2byte	0
 11636 0010 00000000 		.4byte	.LFB77
 11637 0014 70000000 		.4byte	.LFE77-.LFB77
 11638 0018 00000000 		.4byte	.LFB78
 11639 001c C4000000 		.4byte	.LFE78-.LFB78
 11640 0020 00000000 		.4byte	.LFB79
 11641 0024 C4000000 		.4byte	.LFE79-.LFB79
 11642 0028 00000000 		.4byte	.LFB80
 11643 002c AC000000 		.4byte	.LFE80-.LFB80
 11644 0030 00000000 		.4byte	.LFB81
 11645 0034 B0000000 		.4byte	.LFE81-.LFB81
 11646 0038 00000000 		.4byte	.LFB82
 11647 003c 24000000 		.4byte	.LFE82-.LFB82
 11648 0040 00000000 		.4byte	.LFB86
 11649 0044 3E000000 		.4byte	.LFE86-.LFB86
 11650 0048 00000000 		.4byte	.LFB87
 11651 004c 2A000000 		.4byte	.LFE87-.LFB87
 11652 0050 00000000 		.4byte	.LFB84
 11653 0054 70000000 		.4byte	.LFE84-.LFB84
 11654 0058 00000000 		.4byte	.LFB85
 11655 005c 38000000 		.4byte	.LFE85-.LFB85
 11656 0060 00000000 		.4byte	.LFB89
 11657 0064 88000000 		.4byte	.LFE89-.LFB89
 11658 0068 00000000 		.4byte	.LFB90
 11659 006c 08000000 		.4byte	.LFE90-.LFB90
 11660 0070 00000000 		.4byte	.LFB92
 11661 0074 38000000 		.4byte	.LFE92-.LFB92
 11662 0078 00000000 		.4byte	.LFB91
 11663 007c 52000000 		.4byte	.LFE91-.LFB91
 11664 0080 00000000 		.4byte	.LFB64
 11665 0084 46000000 		.4byte	.LFE64-.LFB64
 11666 0088 00000000 		.4byte	.LFB74
 11667 008c 8A010000 		.4byte	.LFE74-.LFB74
 11668 0090 00000000 		.4byte	.LFB76
 11669 0094 5C000000 		.4byte	.LFE76-.LFB76
 11670 0098 00000000 		.4byte	.LFB83
 11671 009c EC000000 		.4byte	.LFE83-.LFB83
 11672 00a0 00000000 		.4byte	.LFB65
 11673 00a4 A8000000 		.4byte	.LFE65-.LFB65
 11674 00a8 00000000 		.4byte	.LFB75
 11675 00ac 66000000 		.4byte	.LFE75-.LFB75
 11676 00b0 00000000 		.4byte	.LFB66
 11677 00b4 54000000 		.4byte	.LFE66-.LFB66
 11678 00b8 00000000 		.4byte	.LFB63
 11679 00bc 3E000000 		.4byte	.LFE63-.LFB63
 11680 00c0 00000000 		.4byte	.LFB68
 11681 00c4 B6000000 		.4byte	.LFE68-.LFB68
 11682 00c8 00000000 		.4byte	.LFB69
 11683 00cc 86000000 		.4byte	.LFE69-.LFB69
 11684 00d0 00000000 		.4byte	.LFB67
 11685 00d4 68020000 		.4byte	.LFE67-.LFB67
 11686 00d8 00000000 		.4byte	.LFB70
 11687 00dc 30000000 		.4byte	.LFE70-.LFB70
 11688 00e0 00000000 		.4byte	.LFB71
 11689 00e4 64000000 		.4byte	.LFE71-.LFB71
 11690 00e8 00000000 		.4byte	.LFB72
ARM GAS  C:\Users\adria\AppData\Local\Temp\ccOKprka.s 			page 242


 11691 00ec 70000000 		.4byte	.LFE72-.LFB72
 11692 00f0 00000000 		.4byte	.LFB73
 11693 00f4 36000000 		.4byte	.LFE73-.LFB73
 11694 00f8 00000000 		.4byte	.LFB88
 11695 00fc C2000000 		.4byte	.LFE88-.LFB88
 11696 0100 00000000 		.4byte	.LFB93
 11697 0104 2C000000 		.4byte	.LFE93-.LFB93
 11698 0108 00000000 		.4byte	.LFB94
 11699 010c 42000000 		.4byte	.LFE94-.LFB94
 11700 0110 00000000 		.4byte	.LFB95
 11701 0114 40000000 		.4byte	.LFE95-.LFB95
 11702 0118 00000000 		.4byte	.LFB96
 11703 011c 10000000 		.4byte	.LFE96-.LFB96
 11704 0120 00000000 		.4byte	0
 11705 0124 00000000 		.4byte	0
 11706              		.section	.debug_ranges,"",%progbits
 11707              	.Ldebug_ranges0:
 11708 0000 00000000 		.4byte	.LFB77
 11709 0004 70000000 		.4byte	.LFE77
 11710 0008 00000000 		.4byte	.LFB78
 11711 000c C4000000 		.4byte	.LFE78
 11712 0010 00000000 		.4byte	.LFB79
 11713 0014 C4000000 		.4byte	.LFE79
 11714 0018 00000000 		.4byte	.LFB80
 11715 001c AC000000 		.4byte	.LFE80
 11716 0020 00000000 		.4byte	.LFB81
 11717 0024 B0000000 		.4byte	.LFE81
 11718 0028 00000000 		.4byte	.LFB82
 11719 002c 24000000 		.4byte	.LFE82
 11720 0030 00000000 		.4byte	.LFB86
 11721 0034 3E000000 		.4byte	.LFE86
 11722 0038 00000000 		.4byte	.LFB87
 11723 003c 2A000000 		.4byte	.LFE87
 11724 0040 00000000 		.4byte	.LFB84
 11725 0044 70000000 		.4byte	.LFE84
 11726 0048 00000000 		.4byte	.LFB85
 11727 004c 38000000 		.4byte	.LFE85
 11728 0050 00000000 		.4byte	.LFB89
 11729 0054 88000000 		.4byte	.LFE89
 11730 0058 00000000 		.4byte	.LFB90
 11731 005c 08000000 		.4byte	.LFE90
 11732 0060 00000000 		.4byte	.LFB92
 11733 0064 38000000 		.4byte	.LFE92
 11734 0068 00000000 		.4byte	.LFB91
 11735 006c 52000000 		.4byte	.LFE91
 11736 0070 00000000 		.4byte	.LFB64
 11737 0074 46000000 		.4byte	.LFE64
 11738 0078 00000000 		.4byte	.LFB74
 11739 007c 8A010000 		.4byte	.LFE74
 11740 0080 00000000 		.4byte	.LFB76
 11741 0084 5C000000 		.4byte	.LFE76
 11742 0088 00000000 		.4byte	.LFB83
 11743 008c EC000000 		.4byte	.LFE83
 11744 0090 00000000 		.4byte	.LFB65
 11745 0094 A8000000 		.4byte	.LFE65
 11746 0098 00000000 		.4byte	.LFB75
 11747 009c 66000000 		.4byte	.LFE75
ARM GAS  C:\Users\adria\AppData\Local\Temp\ccOKprka.s 			page 243


 11748 00a0 00000000 		.4byte	.LFB66
 11749 00a4 54000000 		.4byte	.LFE66
 11750 00a8 00000000 		.4byte	.LFB63
 11751 00ac 3E000000 		.4byte	.LFE63
 11752 00b0 00000000 		.4byte	.LFB68
 11753 00b4 B6000000 		.4byte	.LFE68
 11754 00b8 00000000 		.4byte	.LFB69
 11755 00bc 86000000 		.4byte	.LFE69
 11756 00c0 00000000 		.4byte	.LFB67
 11757 00c4 68020000 		.4byte	.LFE67
 11758 00c8 00000000 		.4byte	.LFB70
 11759 00cc 30000000 		.4byte	.LFE70
 11760 00d0 00000000 		.4byte	.LFB71
 11761 00d4 64000000 		.4byte	.LFE71
 11762 00d8 00000000 		.4byte	.LFB72
 11763 00dc 70000000 		.4byte	.LFE72
 11764 00e0 00000000 		.4byte	.LFB73
 11765 00e4 36000000 		.4byte	.LFE73
 11766 00e8 00000000 		.4byte	.LFB88
 11767 00ec C2000000 		.4byte	.LFE88
 11768 00f0 00000000 		.4byte	.LFB93
 11769 00f4 2C000000 		.4byte	.LFE93
 11770 00f8 00000000 		.4byte	.LFB94
 11771 00fc 42000000 		.4byte	.LFE94
 11772 0100 00000000 		.4byte	.LFB95
 11773 0104 40000000 		.4byte	.LFE95
 11774 0108 00000000 		.4byte	.LFB96
 11775 010c 10000000 		.4byte	.LFE96
 11776 0110 00000000 		.4byte	0
 11777 0114 00000000 		.4byte	0
 11778              		.section	.debug_line,"",%progbits
 11779              	.Ldebug_line0:
 11780 0000 2B060000 		.section	.debug_str,"MS",%progbits,1
 11780      02008E01 
 11780      00000201 
 11780      FB0E0D00 
 11780      01010101 
 11781              	.LASF84:
 11782 0000 7470685F 		.ascii	"tph_sett\000"
 11782      73657474 
 11782      00
 11783              	.LASF177:
 11784 0009 7265675F 		.ascii	"reg_array\000"
 11784      61727261 
 11784      7900
 11785              	.LASF195:
 11786 0013 626D6536 		.ascii	"bme680_readData\000"
 11786      38305F72 
 11786      65616444 
 11786      61746100 
 11787              	.LASF199:
 11788 0023 49544D5F 		.ascii	"ITM_RxBuffer\000"
 11788      52784275 
 11788      66666572 
 11788      00
 11789              	.LASF182:
 11790 0030 7470685F 		.ascii	"tph_dur\000"
ARM GAS  C:\Users\adria\AppData\Local\Temp\ccOKprka.s 			page 244


 11790      64757200 
 11791              	.LASF139:
 11792 0038 70657269 		.ascii	"period\000"
 11792      6F6400
 11793              	.LASF149:
 11794 003f 636F6566 		.ascii	"coeff_array\000"
 11794      665F6172 
 11794      72617900 
 11795              	.LASF188:
 11796 004b 626D6536 		.ascii	"bme680_self_test\000"
 11796      38305F73 
 11796      656C665F 
 11796      74657374 
 11796      00
 11797              	.LASF77:
 11798 005c 626D6536 		.ascii	"bme680_dev\000"
 11798      38305F64 
 11798      657600
 11799              	.LASF33:
 11800 0067 74656D70 		.ascii	"temperature\000"
 11800      65726174 
 11800      75726500 
 11801              	.LASF121:
 11802 0073 74656D70 		.ascii	"temp\000"
 11802      00
 11803              	.LASF34:
 11804 0078 70726573 		.ascii	"pressure\000"
 11804      73757265 
 11804      00
 11805              	.LASF115:
 11806 0081 6761735F 		.ascii	"gas_res_adc\000"
 11806      7265735F 
 11806      61646300 
 11807              	.LASF36:
 11808 008d 6761735F 		.ascii	"gas_resistance\000"
 11808      72657369 
 11808      7374616E 
 11808      636500
 11809              	.LASF193:
 11810 009c 626D6536 		.ascii	"bme680_config\000"
 11810      38305F63 
 11810      6F6E6669 
 11810      6700
 11811              	.LASF162:
 11812 00aa 626D6536 		.ascii	"bme680_set_regs\000"
 11812      38305F73 
 11812      65745F72 
 11812      65677300 
 11813              	.LASF143:
 11814 00ba 4932435F 		.ascii	"I2C_I2CMasterWriteByte\000"
 11814      4932434D 
 11814      61737465 
 11814      72577269 
 11814      74654279 
 11815              	.LASF186:
 11816 00d1 626D6536 		.ascii	"bme680_get_profile_dur\000"
 11816      38305F67 
ARM GAS  C:\Users\adria\AppData\Local\Temp\ccOKprka.s 			page 245


 11816      65745F70 
 11816      726F6669 
 11816      6C655F64 
 11817              	.LASF1:
 11818 00e8 756E7369 		.ascii	"unsigned int\000"
 11818      676E6564 
 11818      20696E74 
 11818      00
 11819              	.LASF114:
 11820 00f5 63616C63 		.ascii	"calc_gas_resistance\000"
 11820      5F676173 
 11820      5F726573 
 11820      69737461 
 11820      6E636500 
 11821              	.LASF10:
 11822 0109 5F5F696E 		.ascii	"__int32_t\000"
 11822      7433325F 
 11822      7400
 11823              	.LASF205:
 11824 0113 75736572 		.ascii	"user_delay_ms\000"
 11824      5F64656C 
 11824      61795F6D 
 11824      7300
 11825              	.LASF206:
 11826 0121 6D656D73 		.ascii	"memset\000"
 11826      657400
 11827              	.LASF194:
 11828 0128 7365745F 		.ascii	"set_required_settings\000"
 11828      72657175 
 11828      69726564 
 11828      5F736574 
 11828      74696E67 
 11829              	.LASF68:
 11830 013e 6F735F74 		.ascii	"os_temp\000"
 11830      656D7000 
 11831              	.LASF28:
 11832 0146 424D4536 		.ascii	"BME680_SPI_INTF\000"
 11832      38305F53 
 11832      50495F49 
 11832      4E544600 
 11833              	.LASF180:
 11834 0156 6D6F6465 		.ascii	"mode\000"
 11834      00
 11835              	.LASF170:
 11836 015b 64657369 		.ascii	"desired_settings\000"
 11836      7265645F 
 11836      73657474 
 11836      696E6773 
 11836      00
 11837              	.LASF29:
 11838 016c 424D4536 		.ascii	"BME680_I2C_INTF\000"
 11838      38305F49 
 11838      32435F49 
 11838      4E544600 
 11839              	.LASF116:
 11840 017c 6761735F 		.ascii	"gas_range\000"
 11840      72616E67 
ARM GAS  C:\Users\adria\AppData\Local\Temp\ccOKprka.s 			page 246


 11840      6500
 11841              	.LASF146:
 11842 0186 4932435F 		.ascii	"I2C_I2CMasterSendRestart\000"
 11842      4932434D 
 11842      61737465 
 11842      7253656E 
 11842      64526573 
 11843              	.LASF81:
 11844 019f 6D656D5F 		.ascii	"mem_page\000"
 11844      70616765 
 11844      00
 11845              	.LASF169:
 11846 01a8 626D6536 		.ascii	"bme680_get_sensor_settings\000"
 11846      38305F67 
 11846      65745F73 
 11846      656E736F 
 11846      725F7365 
 11847              	.LASF22:
 11848 01c3 75696E74 		.ascii	"uint32_t\000"
 11848      33325F74 
 11848      00
 11849              	.LASF17:
 11850 01cc 696E7438 		.ascii	"int8_t\000"
 11850      5F7400
 11851              	.LASF171:
 11852 01d3 64617461 		.ascii	"data_array\000"
 11852      5F617272 
 11852      617900
 11853              	.LASF112:
 11854 01de 74656D70 		.ascii	"temp_scaled\000"
 11854      5F736361 
 11854      6C656400 
 11855              	.LASF94:
 11856 01ea 666C6F61 		.ascii	"float\000"
 11856      7400
 11857              	.LASF65:
 11858 01f0 72616E67 		.ascii	"range_sw_err\000"
 11858      655F7377 
 11858      5F657272 
 11858      00
 11859              	.LASF164:
 11860 01fd 696E6465 		.ascii	"index\000"
 11860      7800
 11861              	.LASF181:
 11862 0203 64757261 		.ascii	"duration\000"
 11862      74696F6E 
 11862      00
 11863              	.LASF19:
 11864 020c 696E7431 		.ascii	"int16_t\000"
 11864      365F7400 
 11865              	.LASF203:
 11866 0214 433A5C55 		.ascii	"C:\\Users\\adria\\OneDrive\\Documents\\PSoC Creator"
 11866      73657273 
 11866      5C616472 
 11866      69615C4F 
 11866      6E654472 
 11867 0242 5C50524F 		.ascii	"\\PROYECTO_IOT\\BME680.cydsn\000"
ARM GAS  C:\Users\adria\AppData\Local\Temp\ccOKprka.s 			page 247


 11867      59454354 
 11867      4F5F494F 
 11867      545C424D 
 11867      45363830 
 11868              	.LASF83:
 11869 025d 63616C69 		.ascii	"calib\000"
 11869      6200
 11870              	.LASF124:
 11871 0263 63616C63 		.ascii	"calc_heater_dur\000"
 11871      5F686561 
 11871      7465725F 
 11871      64757200 
 11872              	.LASF0:
 11873 0273 6C6F6E67 		.ascii	"long long unsigned int\000"
 11873      206C6F6E 
 11873      6720756E 
 11873      7369676E 
 11873      65642069 
 11874              	.LASF32:
 11875 028a 6D656173 		.ascii	"meas_index\000"
 11875      5F696E64 
 11875      657800
 11876              	.LASF141:
 11877 0295 7265675F 		.ascii	"reg_data\000"
 11877      64617461 
 11877      00
 11878              	.LASF8:
 11879 029e 5F5F7569 		.ascii	"__uint16_t\000"
 11879      6E743136 
 11879      5F7400
 11880              	.LASF179:
 11881 02a9 626D6536 		.ascii	"bme680_get_sensor_mode\000"
 11881      38305F67 
 11881      65745F73 
 11881      656E736F 
 11881      725F6D6F 
 11882              	.LASF40:
 11883 02c0 7061725F 		.ascii	"par_h2\000"
 11883      683200
 11884              	.LASF108:
 11885 02c7 68756D5F 		.ascii	"hum_adc\000"
 11885      61646300 
 11886              	.LASF44:
 11887 02cf 7061725F 		.ascii	"par_h6\000"
 11887      683600
 11888              	.LASF197:
 11889 02d6 626D6536 		.ascii	"bme680_Start\000"
 11889      38305F53 
 11889      74617274 
 11889      00
 11890              	.LASF191:
 11891 02e3 70726F66 		.ascii	"profile_dur\000"
 11891      696C655F 
 11891      64757200 
 11892              	.LASF128:
 11893 02ef 76616C75 		.ascii	"value\000"
 11893      6500
ARM GAS  C:\Users\adria\AppData\Local\Temp\ccOKprka.s 			page 248


 11894              	.LASF201:
 11895 02f5 474E5520 		.ascii	"GNU C11 5.4.1 20160609 (release) [ARM/embedded-5-br"
 11895      43313120 
 11895      352E342E 
 11895      31203230 
 11895      31363036 
 11896 0328 616E6368 		.ascii	"anch revision 237715] -mcpu=cortex-m3 -mthumb -g -O"
 11896      20726576 
 11896      6973696F 
 11896      6E203233 
 11896      37373135 
 11897 035b 67202D66 		.ascii	"g -ffunction-sections -ffat-lto-objects\000"
 11897      66756E63 
 11897      74696F6E 
 11897      2D736563 
 11897      74696F6E 
 11898              	.LASF133:
 11899 0383 6765745F 		.ascii	"get_mem_page\000"
 11899      6D656D5F 
 11899      70616765 
 11899      00
 11900              	.LASF71:
 11901 0390 626D6536 		.ascii	"bme680_gas_sett\000"
 11901      38305F67 
 11901      61735F73 
 11901      65747400 
 11902              	.LASF78:
 11903 03a0 63686970 		.ascii	"chip_id\000"
 11903      5F696400 
 11904              	.LASF23:
 11905 03a8 696E7436 		.ascii	"int64_t\000"
 11905      345F7400 
 11906              	.LASF56:
 11907 03b0 7061725F 		.ascii	"par_p5\000"
 11907      703500
 11908              	.LASF126:
 11909 03b7 64757276 		.ascii	"durval\000"
 11909      616C00
 11910              	.LASF167:
 11911 03be 736F6674 		.ascii	"soft_rst_cmd\000"
 11911      5F727374 
 11911      5F636D64 
 11911      00
 11912              	.LASF137:
 11913 03cb 73656C66 		.ascii	"self_test_failed\000"
 11913      5F746573 
 11913      745F6661 
 11913      696C6564 
 11913      00
 11914              	.LASF52:
 11915 03dc 7061725F 		.ascii	"par_p1\000"
 11915      703100
 11916              	.LASF53:
 11917 03e3 7061725F 		.ascii	"par_p2\000"
 11917      703200
 11918              	.LASF54:
 11919 03ea 7061725F 		.ascii	"par_p3\000"
ARM GAS  C:\Users\adria\AppData\Local\Temp\ccOKprka.s 			page 249


 11919      703300
 11920              	.LASF55:
 11921 03f1 7061725F 		.ascii	"par_p4\000"
 11921      703400
 11922              	.LASF16:
 11923 03f8 5F5F7569 		.ascii	"__uint64_t\000"
 11923      6E743634 
 11923      5F7400
 11924              	.LASF57:
 11925 0403 7061725F 		.ascii	"par_p6\000"
 11925      703600
 11926              	.LASF58:
 11927 040a 7061725F 		.ascii	"par_p7\000"
 11927      703700
 11928              	.LASF59:
 11929 0411 7061725F 		.ascii	"par_p8\000"
 11929      703800
 11930              	.LASF60:
 11931 0418 7061725F 		.ascii	"par_p9\000"
 11931      703900
 11932              	.LASF91:
 11933 041f 64656C61 		.ascii	"delay_ms\000"
 11933      795F6D73 
 11933      00
 11934              	.LASF107:
 11935 0428 63616C63 		.ascii	"calc_humidity\000"
 11935      5F68756D 
 11935      69646974 
 11935      7900
 11936              	.LASF76:
 11937 0436 68656174 		.ascii	"heatr_dur\000"
 11937      725F6475 
 11937      7200
 11938              	.LASF185:
 11939 0440 626D6536 		.ascii	"bme680_set_profile_dur\000"
 11939      38305F73 
 11939      65745F70 
 11939      726F6669 
 11939      6C655F64 
 11940              	.LASF176:
 11941 0457 636F756E 		.ascii	"count\000"
 11941      7400
 11942              	.LASF73:
 11943 045d 68656174 		.ascii	"heatr_ctrl\000"
 11943      725F6374 
 11943      726C00
 11944              	.LASF87:
 11945 0468 6E65775F 		.ascii	"new_fields\000"
 11945      6669656C 
 11945      647300
 11946              	.LASF93:
 11947 0473 73646174 		.ascii	"sdata_bme680\000"
 11947      615F626D 
 11947      65363830 
 11947      00
 11948              	.LASF96:
 11949 0480 63686172 		.ascii	"char\000"
ARM GAS  C:\Users\adria\AppData\Local\Temp\ccOKprka.s 			page 250


 11949      00
 11950              	.LASF155:
 11951 0485 62756666 		.ascii	"buff\000"
 11951      00
 11952              	.LASF152:
 11953 048a 7265675F 		.ascii	"reg_addr1\000"
 11953      61646472 
 11953      3100
 11954              	.LASF153:
 11955 0494 7265675F 		.ascii	"reg_addr2\000"
 11955      61646472 
 11955      3200
 11956              	.LASF204:
 11957 049e 626D6536 		.ascii	"bme680_intf\000"
 11957      38305F69 
 11957      6E746600 
 11958              	.LASF67:
 11959 04aa 6F735F68 		.ascii	"os_hum\000"
 11959      756D00
 11960              	.LASF200:
 11961 04b1 43794465 		.ascii	"CyDelay\000"
 11961      6C617900 
 11962              	.LASF135:
 11963 04b9 64617461 		.ascii	"data\000"
 11963      00
 11964              	.LASF18:
 11965 04be 75696E74 		.ascii	"uint8_t\000"
 11965      385F7400 
 11966              	.LASF145:
 11967 04c6 75736572 		.ascii	"user_i2c_read\000"
 11967      5F693263 
 11967      5F726561 
 11967      6400
 11968              	.LASF30:
 11969 04d4 73746174 		.ascii	"status\000"
 11969      757300
 11970              	.LASF136:
 11971 04db 6E5F6D65 		.ascii	"n_meas\000"
 11971      617300
 11972              	.LASF130:
 11973 04e2 6E756C6C 		.ascii	"null_ptr_check\000"
 11973      5F707472 
 11973      5F636865 
 11973      636B00
 11974              	.LASF69:
 11975 04f1 6F735F70 		.ascii	"os_pres\000"
 11975      72657300 
 11976              	.LASF61:
 11977 04f9 7061725F 		.ascii	"par_p10\000"
 11977      70313000 
 11978              	.LASF62:
 11979 0501 745F6669 		.ascii	"t_fine\000"
 11979      6E6500
 11980              	.LASF131:
 11981 0508 7365745F 		.ascii	"set_mem_page\000"
 11981      6D656D5F 
 11981      70616765 
ARM GAS  C:\Users\adria\AppData\Local\Temp\ccOKprka.s 			page 251


 11981      00
 11982              	.LASF26:
 11983 0515 626D6536 		.ascii	"bme680_com_fptr_t\000"
 11983      38305F63 
 11983      6F6D5F66 
 11983      7074725F 
 11983      7400
 11984              	.LASF144:
 11985 0527 4932435F 		.ascii	"I2C_I2CMasterSendStop\000"
 11985      4932434D 
 11985      61737465 
 11985      7253656E 
 11985      6453746F 
 11986              	.LASF72:
 11987 053d 6E625F63 		.ascii	"nb_conv\000"
 11987      6F6E7600 
 11988              	.LASF159:
 11989 0545 6164635F 		.ascii	"adc_gas_res\000"
 11989      6761735F 
 11989      72657300 
 11990              	.LASF80:
 11991 0551 696E7466 		.ascii	"intf\000"
 11991      00
 11992              	.LASF158:
 11993 0556 6164635F 		.ascii	"adc_hum\000"
 11993      68756D00 
 11994              	.LASF15:
 11995 055e 6C6F6E67 		.ascii	"long long int\000"
 11995      206C6F6E 
 11995      6720696E 
 11995      7400
 11996              	.LASF90:
 11997 056c 77726974 		.ascii	"write\000"
 11997      6500
 11998              	.LASF46:
 11999 0572 7061725F 		.ascii	"par_gh1\000"
 11999      67683100 
 12000              	.LASF47:
 12001 057a 7061725F 		.ascii	"par_gh2\000"
 12001      67683200 
 12002              	.LASF48:
 12003 0582 7061725F 		.ascii	"par_gh3\000"
 12003      67683300 
 12004              	.LASF202:
 12005 058a 443A5C64 		.ascii	"D:\\design-mpu\\source\\ejemplos\\BME680\\bme680.c\000"
 12005      65736967 
 12005      6E2D6D70 
 12005      755C736F 
 12005      75726365 
 12006              	.LASF184:
 12007 05b8 6F735F74 		.ascii	"os_to_meas_cycles\000"
 12007      6F5F6D65 
 12007      61735F63 
 12007      79636C65 
 12007      7300
 12008              	.LASF127:
 12009 05ca 626F756E 		.ascii	"boundary_check\000"
ARM GAS  C:\Users\adria\AppData\Local\Temp\ccOKprka.s 			page 252


 12009      64617279 
 12009      5F636865 
 12009      636B00
 12010              	.LASF6:
 12011 05d9 5F5F696E 		.ascii	"__int16_t\000"
 12011      7431365F 
 12011      7400
 12012              	.LASF174:
 12013 05e3 706F775F 		.ascii	"pow_mode\000"
 12013      6D6F6465 
 12013      00
 12014              	.LASF99:
 12015 05ec 76617231 		.ascii	"var1\000"
 12015      00
 12016              	.LASF105:
 12017 05f1 76617232 		.ascii	"var2\000"
 12017      00
 12018              	.LASF100:
 12019 05f6 76617233 		.ascii	"var3\000"
 12019      00
 12020              	.LASF109:
 12021 05fb 76617234 		.ascii	"var4\000"
 12021      00
 12022              	.LASF110:
 12023 0600 76617235 		.ascii	"var5\000"
 12023      00
 12024              	.LASF111:
 12025 0605 76617236 		.ascii	"var6\000"
 12025      00
 12026              	.LASF156:
 12027 060a 6164635F 		.ascii	"adc_temp\000"
 12027      74656D70 
 12027      00
 12028              	.LASF154:
 12029 0613 72656164 		.ascii	"read_field_data\000"
 12029      5F666965 
 12029      6C645F64 
 12029      61746100 
 12030              	.LASF85:
 12031 0623 6761735F 		.ascii	"gas_sett\000"
 12031      73657474 
 12031      00
 12032              	.LASF38:
 12033 062c 626D6536 		.ascii	"bme680_calib_data\000"
 12033      38305F63 
 12033      616C6962 
 12033      5F646174 
 12033      6100
 12034              	.LASF172:
 12035 063e 626D6536 		.ascii	"bme680_set_sensor_mode\000"
 12035      38305F73 
 12035      65745F73 
 12035      656E736F 
 12035      725F6D6F 
 12036              	.LASF3:
 12037 0655 5F5F696E 		.ascii	"__int8_t\000"
 12037      74385F74 
ARM GAS  C:\Users\adria\AppData\Local\Temp\ccOKprka.s 			page 253


 12037      00
 12038              	.LASF64:
 12039 065e 7265735F 		.ascii	"res_heat_val\000"
 12039      68656174 
 12039      5F76616C 
 12039      00
 12040              	.LASF166:
 12041 066b 626D6536 		.ascii	"bme680_soft_reset\000"
 12041      38305F73 
 12041      6F66745F 
 12041      72657365 
 12041      7400
 12042              	.LASF49:
 12043 067d 7061725F 		.ascii	"par_t1\000"
 12043      743100
 12044              	.LASF50:
 12045 0684 7061725F 		.ascii	"par_t2\000"
 12045      743200
 12046              	.LASF14:
 12047 068b 5F5F696E 		.ascii	"__int64_t\000"
 12047      7436345F 
 12047      7400
 12048              	.LASF25:
 12049 0695 6C6F6E67 		.ascii	"long double\000"
 12049      20646F75 
 12049      626C6500 
 12050              	.LASF20:
 12051 06a1 75696E74 		.ascii	"uint16_t\000"
 12051      31365F74 
 12051      00
 12052              	.LASF189:
 12053 06aa 745F6465 		.ascii	"t_dev\000"
 12053      7600
 12054              	.LASF86:
 12055 06b0 706F7765 		.ascii	"power_mode\000"
 12055      725F6D6F 
 12055      646500
 12056              	.LASF165:
 12057 06bb 7365745F 		.ascii	"set_gas_config\000"
 12057      6761735F 
 12057      636F6E66 
 12057      696700
 12058              	.LASF104:
 12059 06ca 70726573 		.ascii	"pres_adc\000"
 12059      5F616463 
 12059      00
 12060              	.LASF88:
 12061 06d3 696E666F 		.ascii	"info_msg\000"
 12061      5F6D7367 
 12061      00
 12062              	.LASF74:
 12063 06dc 72756E5F 		.ascii	"run_gas\000"
 12063      67617300 
 12064              	.LASF161:
 12065 06e4 626D6536 		.ascii	"bme680_get_regs\000"
 12065      38305F67 
 12065      65745F72 
ARM GAS  C:\Users\adria\AppData\Local\Temp\ccOKprka.s 			page 254


 12065      65677300 
 12066              	.LASF138:
 12067 06f4 63656E74 		.ascii	"cent_res\000"
 12067      5F726573 
 12067      00
 12068              	.LASF7:
 12069 06fd 73686F72 		.ascii	"short int\000"
 12069      7420696E 
 12069      7400
 12070              	.LASF134:
 12071 0707 616E616C 		.ascii	"analyze_sensor_data\000"
 12071      797A655F 
 12071      73656E73 
 12071      6F725F64 
 12071      61746100 
 12072              	.LASF132:
 12073 071b 7265675F 		.ascii	"reg_addr\000"
 12073      61646472 
 12073      00
 12074              	.LASF11:
 12075 0724 6C6F6E67 		.ascii	"long int\000"
 12075      20696E74 
 12075      00
 12076              	.LASF129:
 12077 072d 72736C74 		.ascii	"rslt\000"
 12077      00
 12078              	.LASF190:
 12079 0732 73657474 		.ascii	"settings_sel\000"
 12079      696E6773 
 12079      5F73656C 
 12079      00
 12080              	.LASF178:
 12081 073f 696E7465 		.ascii	"intended_power_mode\000"
 12081      6E646564 
 12081      5F706F77 
 12081      65725F6D 
 12081      6F646500 
 12082              	.LASF117:
 12083 0753 63616C63 		.ascii	"calc_gas_res\000"
 12083      5F676173 
 12083      5F726573 
 12083      00
 12084              	.LASF70:
 12085 0760 66696C74 		.ascii	"filter\000"
 12085      657200
 12086              	.LASF24:
 12087 0767 75696E74 		.ascii	"uint64_t\000"
 12087      36345F74 
 12087      00
 12088              	.LASF168:
 12089 0770 626D6536 		.ascii	"bme680_init\000"
 12089      38305F69 
 12089      6E697400 
 12090              	.LASF123:
 12091 077c 68656174 		.ascii	"heatr_res_x100\000"
 12091      725F7265 
 12091      735F7831 
ARM GAS  C:\Users\adria\AppData\Local\Temp\ccOKprka.s 			page 255


 12091      303000
 12092              	.LASF66:
 12093 078b 626D6536 		.ascii	"bme680_tph_sett\000"
 12093      38305F74 
 12093      70685F73 
 12093      65747400 
 12094              	.LASF31:
 12095 079b 6761735F 		.ascii	"gas_index\000"
 12095      696E6465 
 12095      7800
 12096              	.LASF27:
 12097 07a5 626D6536 		.ascii	"bme680_delay_fptr_t\000"
 12097      38305F64 
 12097      656C6179 
 12097      5F667074 
 12097      725F7400 
 12098              	.LASF192:
 12099 07b9 626D6536 		.ascii	"bme680_setup\000"
 12099      38305F73 
 12099      65747570 
 12099      00
 12100              	.LASF120:
 12101 07c6 63616C63 		.ascii	"calc_heater_res\000"
 12101      5F686561 
 12101      7465725F 
 12101      72657300 
 12102              	.LASF198:
 12103 07d6 73656E73 		.ascii	"sensor_bme680\000"
 12103      6F725F62 
 12103      6D653638 
 12103      3000
 12104              	.LASF4:
 12105 07e4 5F5F7569 		.ascii	"__uint8_t\000"
 12105      6E74385F 
 12105      7400
 12106              	.LASF89:
 12107 07ee 72656164 		.ascii	"read\000"
 12107      00
 12108              	.LASF98:
 12109 07f3 74656D70 		.ascii	"temp_adc\000"
 12109      5F616463 
 12109      00
 12110              	.LASF142:
 12111 07fc 4932435F 		.ascii	"I2C_I2CMasterSendStart\000"
 12111      4932434D 
 12111      61737465 
 12111      7253656E 
 12111      64537461 
 12112              	.LASF151:
 12113 0813 6765745F 		.ascii	"get_gas_config\000"
 12113      6761735F 
 12113      636F6E66 
 12113      696700
 12114              	.LASF97:
 12115 0822 73697A65 		.ascii	"sizetype\000"
 12115      74797065 
 12115      00
ARM GAS  C:\Users\adria\AppData\Local\Temp\ccOKprka.s 			page 256


 12116              	.LASF13:
 12117 082b 6C6F6E67 		.ascii	"long unsigned int\000"
 12117      20756E73 
 12117      69676E65 
 12117      6420696E 
 12117      7400
 12118              	.LASF21:
 12119 083d 696E7433 		.ascii	"int32_t\000"
 12119      325F7400 
 12120              	.LASF187:
 12121 0845 626D6536 		.ascii	"bme680_get_sensor_data\000"
 12121      38305F67 
 12121      65745F73 
 12121      656E736F 
 12121      725F6461 
 12122              	.LASF92:
 12123 085c 636F6D5F 		.ascii	"com_rslt\000"
 12123      72736C74 
 12123      00
 12124              	.LASF163:
 12125 0865 746D705F 		.ascii	"tmp_buff\000"
 12125      62756666 
 12125      00
 12126              	.LASF147:
 12127 086e 4932435F 		.ascii	"I2C_I2CMasterReadByte\000"
 12127      4932434D 
 12127      61737465 
 12127      72526561 
 12127      64427974 
 12128              	.LASF39:
 12129 0884 7061725F 		.ascii	"par_h1\000"
 12129      683100
 12130              	.LASF5:
 12131 088b 756E7369 		.ascii	"unsigned char\000"
 12131      676E6564 
 12131      20636861 
 12131      7200
 12132              	.LASF41:
 12133 0899 7061725F 		.ascii	"par_h3\000"
 12133      683300
 12134              	.LASF42:
 12135 08a0 7061725F 		.ascii	"par_h4\000"
 12135      683400
 12136              	.LASF43:
 12137 08a7 7061725F 		.ascii	"par_h5\000"
 12137      683500
 12138              	.LASF12:
 12139 08ae 5F5F7569 		.ascii	"__uint32_t\000"
 12139      6E743332 
 12139      5F7400
 12140              	.LASF45:
 12141 08b9 7061725F 		.ascii	"par_h7\000"
 12141      683700
 12142              	.LASF102:
 12143 08c0 63616C63 		.ascii	"calc_temperature\000"
 12143      5F74656D 
 12143      70657261 
ARM GAS  C:\Users\adria\AppData\Local\Temp\ccOKprka.s 			page 257


 12143      74757265 
 12143      00
 12144              	.LASF51:
 12145 08d1 7061725F 		.ascii	"par_t3\000"
 12145      743300
 12146              	.LASF196:
 12147 08d8 6D656173 		.ascii	"meas_period\000"
 12147      5F706572 
 12147      696F6400 
 12148              	.LASF160:
 12149 08e4 74726965 		.ascii	"tries\000"
 12149      7300
 12150              	.LASF79:
 12151 08ea 6465765F 		.ascii	"dev_id\000"
 12151      696400
 12152              	.LASF157:
 12153 08f1 6164635F 		.ascii	"adc_pres\000"
 12153      70726573 
 12153      00
 12154              	.LASF82:
 12155 08fa 616D625F 		.ascii	"amb_temp\000"
 12155      74656D70 
 12155      00
 12156              	.LASF148:
 12157 0903 6765745F 		.ascii	"get_calib_data\000"
 12157      63616C69 
 12157      625F6461 
 12157      746100
 12158              	.LASF122:
 12159 0912 68656174 		.ascii	"heatr_res\000"
 12159      725F7265 
 12159      7300
 12160              	.LASF183:
 12161 091c 6D656173 		.ascii	"meas_cycles\000"
 12161      5F637963 
 12161      6C657300 
 12162              	.LASF173:
 12163 0928 746D705F 		.ascii	"tmp_pow_mode\000"
 12163      706F775F 
 12163      6D6F6465 
 12163      00
 12164              	.LASF37:
 12165 0935 626D6536 		.ascii	"bme680_field_data\000"
 12165      38305F66 
 12165      69656C64 
 12165      5F646174 
 12165      6100
 12166              	.LASF2:
 12167 0947 7369676E 		.ascii	"signed char\000"
 12167      65642063 
 12167      68617200 
 12168              	.LASF106:
 12169 0953 70726573 		.ascii	"pressure_comp\000"
 12169      73757265 
 12169      5F636F6D 
 12169      7000
 12170              	.LASF150:
ARM GAS  C:\Users\adria\AppData\Local\Temp\ccOKprka.s 			page 258


 12171 0961 74656D70 		.ascii	"temp_var\000"
 12171      5F766172 
 12171      00
 12172              	.LASF175:
 12173 096a 626D6536 		.ascii	"bme680_set_sensor_settings\000"
 12173      38305F73 
 12173      65745F73 
 12173      656E736F 
 12173      725F7365 
 12174              	.LASF9:
 12175 0985 73686F72 		.ascii	"short unsigned int\000"
 12175      7420756E 
 12175      7369676E 
 12175      65642069 
 12175      6E7400
 12176              	.LASF118:
 12177 0998 6C6F6F6B 		.ascii	"lookupTable1\000"
 12177      75705461 
 12177      626C6531 
 12177      00
 12178              	.LASF119:
 12179 09a5 6C6F6F6B 		.ascii	"lookupTable2\000"
 12179      75705461 
 12179      626C6532 
 12179      00
 12180              	.LASF75:
 12181 09b2 68656174 		.ascii	"heatr_temp\000"
 12181      725F7465 
 12181      6D7000
 12182              	.LASF103:
 12183 09bd 63616C63 		.ascii	"calc_pressure\000"
 12183      5F707265 
 12183      73737572 
 12183      6500
 12184              	.LASF95:
 12185 09cb 646F7562 		.ascii	"double\000"
 12185      6C6500
 12186              	.LASF101:
 12187 09d2 63616C63 		.ascii	"calc_temp\000"
 12187      5F74656D 
 12187      7000
 12188              	.LASF125:
 12189 09dc 66616374 		.ascii	"factor\000"
 12189      6F7200
 12190              	.LASF140:
 12191 09e3 75736572 		.ascii	"user_i2c_write\000"
 12191      5F693263 
 12191      5F777269 
 12191      746500
 12192              	.LASF35:
 12193 09f2 68756D69 		.ascii	"humidity\000"
 12193      64697479 
 12193      00
 12194              	.LASF63:
 12195 09fb 7265735F 		.ascii	"res_heat_range\000"
 12195      68656174 
 12195      5F72616E 
ARM GAS  C:\Users\adria\AppData\Local\Temp\ccOKprka.s 			page 259


 12195      676500
 12196              	.LASF113:
 12197 0a0a 63616C63 		.ascii	"calc_hum\000"
 12197      5F68756D 
 12197      00
 12198              		.ident	"GCC: (GNU Tools for ARM Embedded Processors) 5.4.1 20160609 (release) [ARM/embedded-5-bran
