ARM GAS  C:\Users\adria\AppData\Local\Temp\ccWc3R4a.s 			page 1


   1              		.syntax unified
   2              		.cpu cortex-m3
   3              		.fpu softvfp
   4              		.eabi_attribute 20, 1
   5              		.eabi_attribute 21, 1
   6              		.eabi_attribute 23, 3
   7              		.eabi_attribute 24, 1
   8              		.eabi_attribute 25, 1
   9              		.eabi_attribute 26, 1
  10              		.eabi_attribute 30, 1
  11              		.eabi_attribute 34, 1
  12              		.eabi_attribute 18, 4
  13              		.thumb
  14              		.syntax unified
  15              		.file	"main.c"
  16              		.text
  17              	.Ltext0:
  18              		.cfi_sections	.debug_frame
  19              		.section	.text.sense,"ax",%progbits
  20              		.align	2
  21              		.global	sense
  22              		.thumb
  23              		.thumb_func
  24              		.type	sense, %function
  25              	sense:
  26              	.LFB64:
  27              		.file 1 "main.c"
   1:main.c        **** /* ========================================
   2:main.c        **** Del sensor BME680, adquirir los valores de humedad, presión atmosférica, 
   3:main.c        **** calidad del aire y temperatura ambiental e imprimirlos en el display LCD 16x2 
   4:main.c        **** (polling de 1 segundo).
   5:main.c        ****  * ========================================
   6:main.c        **** */
   7:main.c        **** //Librerias
   8:main.c        **** #include <stdio.h>
   9:main.c        **** #include "project.h"
  10:main.c        **** #include "..\..\..\psoc\lcd_7seg\Workspace01\LCD.cydsn\PSOC_LCD.h"//LCD
  11:main.c        **** #include "bme680.h"
  12:main.c        **** 
  13:main.c        **** /* Variables        --------------------------------*/
  14:main.c        **** int8_t error = 0;
  15:main.c        **** sdata_bme680 datos_bme680;
  16:main.c        **** 
  17:main.c        **** uint32_t lecturas[4] = {0,0,0,0};
  18:main.c        **** void sense(void){
  28              		.loc 1 18 0
  29              		.cfi_startproc
  30              		@ args = 0, pretend = 0, frame = 24
  31              		@ frame_needed = 0, uses_anonymous_args = 0
  32 0000 70B5     		push	{r4, r5, r6, lr}
  33              		.cfi_def_cfa_offset 16
  34              		.cfi_offset 4, -16
  35              		.cfi_offset 5, -12
  36              		.cfi_offset 6, -8
  37              		.cfi_offset 14, -4
  38 0002 86B0     		sub	sp, sp, #24
  39              		.cfi_def_cfa_offset 40
ARM GAS  C:\Users\adria\AppData\Local\Temp\ccWc3R4a.s 			page 2


  19:main.c        ****     datos_bme680 = bme680_readData(&sensor_bme680);
  40              		.loc 1 19 0
  41 0004 0A4E     		ldr	r6, .L3
  42 0006 0B49     		ldr	r1, .L3+4
  43 0008 6846     		mov	r0, sp
  44 000a FFF7FEFF 		bl	bme680_readData
  45              	.LVL0:
  46 000e 3546     		mov	r5, r6
  47 0010 6C46     		mov	r4, sp
  48 0012 0FCC     		ldmia	r4!, {r0, r1, r2, r3}
  49 0014 0FC5     		stmia	r5!, {r0, r1, r2, r3}
  50 0016 2268     		ldr	r2, [r4]
  51 0018 2A60     		str	r2, [r5]
  20:main.c        ****     
  21:main.c        ****     //Vaciamos
  22:main.c        ****     lecturas[0] = datos_bme680.gas_resistance;
  52              		.loc 1 22 0
  53 001a 074B     		ldr	r3, .L3+8
  54 001c 1A60     		str	r2, [r3]
  23:main.c        ****     lecturas[1] = datos_bme680.humidity;
  55              		.loc 1 23 0
  56 001e F268     		ldr	r2, [r6, #12]
  57 0020 5A60     		str	r2, [r3, #4]
  24:main.c        ****     lecturas[2] = datos_bme680.pressure;
  58              		.loc 1 24 0
  59 0022 B268     		ldr	r2, [r6, #8]
  60 0024 9A60     		str	r2, [r3, #8]
  25:main.c        ****     lecturas[3] = datos_bme680.temperature;
  61              		.loc 1 25 0
  62 0026 B6F90420 		ldrsh	r2, [r6, #4]
  63 002a DA60     		str	r2, [r3, #12]
  26:main.c        **** }
  64              		.loc 1 26 0
  65 002c 06B0     		add	sp, sp, #24
  66              		.cfi_def_cfa_offset 16
  67              		@ sp needed
  68 002e 70BD     		pop	{r4, r5, r6, pc}
  69              	.L4:
  70              		.align	2
  71              	.L3:
  72 0030 00000000 		.word	datos_bme680
  73 0034 00000000 		.word	sensor_bme680
  74 0038 00000000 		.word	.LANCHOR0
  75              		.cfi_endproc
  76              	.LFE64:
  77              		.size	sense, .-sense
  78              		.section	.text.show,"ax",%progbits
  79              		.align	2
  80              		.global	show
  81              		.thumb
  82              		.thumb_func
  83              		.type	show, %function
  84              	show:
  85              	.LFB65:
  27:main.c        **** 
  28:main.c        **** char *etiquetas[4] = {"Calidad de aire","Humedad","Presion","Temperatura"};
  29:main.c        **** void show(void){
ARM GAS  C:\Users\adria\AppData\Local\Temp\ccWc3R4a.s 			page 3


  86              		.loc 1 29 0
  87              		.cfi_startproc
  88              		@ args = 0, pretend = 0, frame = 0
  89              		@ frame_needed = 0, uses_anonymous_args = 0
  90 0000 10B5     		push	{r4, lr}
  91              		.cfi_def_cfa_offset 8
  92              		.cfi_offset 4, -8
  93              		.cfi_offset 14, -4
  94              	.LVL1:
  95              	.LBB2:
  30:main.c        ****     
  31:main.c        ****     for(int i=0;i<4;i++){
  96              		.loc 1 31 0
  97 0002 0024     		movs	r4, #0
  98 0004 18E0     		b	.L6
  99              	.LVL2:
 100              	.L7:
  32:main.c        ****         LCD_ClearDisplay();
 101              		.loc 1 32 0 discriminator 3
 102 0006 FFF7FEFF 		bl	LCD_ClearDisplay
 103              	.LVL3:
  33:main.c        ****         LCD_Position(0,0);
 104              		.loc 1 33 0 discriminator 3
 105 000a 0021     		movs	r1, #0
 106 000c 0846     		mov	r0, r1
 107 000e FFF7FEFF 		bl	LCD_Position
 108              	.LVL4:
  34:main.c        ****         LCD_PrintString(etiquetas[i]);
 109              		.loc 1 34 0 discriminator 3
 110 0012 0B4B     		ldr	r3, .L9
 111 0014 53F82400 		ldr	r0, [r3, r4, lsl #2]
 112 0018 FFF7FEFF 		bl	LCD_PrintString
 113              	.LVL5:
  35:main.c        ****         LCD_Position(1,0);
 114              		.loc 1 35 0 discriminator 3
 115 001c 0021     		movs	r1, #0
 116 001e 0120     		movs	r0, #1
 117 0020 FFF7FEFF 		bl	LCD_Position
 118              	.LVL6:
  36:main.c        ****         LCD_PrintNumber(lecturas[i]);
 119              		.loc 1 36 0 discriminator 3
 120 0024 074B     		ldr	r3, .L9+4
 121 0026 53F82400 		ldr	r0, [r3, r4, lsl #2]
 122 002a FFF7FEFF 		bl	LCD_PrintNumber
 123              	.LVL7:
  37:main.c        ****         CyDelay(1000);
 124              		.loc 1 37 0 discriminator 3
 125 002e 4FF47A70 		mov	r0, #1000
 126 0032 FFF7FEFF 		bl	CyDelay
 127              	.LVL8:
  31:main.c        ****         LCD_ClearDisplay();
 128              		.loc 1 31 0 discriminator 3
 129 0036 0134     		adds	r4, r4, #1
 130              	.LVL9:
 131              	.L6:
  31:main.c        ****         LCD_ClearDisplay();
 132              		.loc 1 31 0 is_stmt 0 discriminator 1
ARM GAS  C:\Users\adria\AppData\Local\Temp\ccWc3R4a.s 			page 4


 133 0038 032C     		cmp	r4, #3
 134 003a E4DD     		ble	.L7
 135              	.LBE2:
  38:main.c        ****     }
  39:main.c        **** 
  40:main.c        **** }
 136              		.loc 1 40 0 is_stmt 1
 137 003c 10BD     		pop	{r4, pc}
 138              	.LVL10:
 139              	.L10:
 140 003e 00BF     		.align	2
 141              	.L9:
 142 0040 00000000 		.word	.LANCHOR1
 143 0044 00000000 		.word	.LANCHOR0
 144              		.cfi_endproc
 145              	.LFE65:
 146              		.size	show, .-show
 147              		.section	.text.TEST,"ax",%progbits
 148              		.align	2
 149              		.global	TEST
 150              		.thumb
 151              		.thumb_func
 152              		.type	TEST, %function
 153              	TEST:
 154              	.LFB66:
  41:main.c        **** 
  42:main.c        **** void TEST(void){
 155              		.loc 1 42 0
 156              		.cfi_startproc
 157              		@ args = 0, pretend = 0, frame = 8
 158              		@ frame_needed = 0, uses_anonymous_args = 0
 159 0000 10B5     		push	{r4, lr}
 160              		.cfi_def_cfa_offset 8
 161              		.cfi_offset 4, -8
 162              		.cfi_offset 14, -4
 163 0002 82B0     		sub	sp, sp, #8
 164              		.cfi_def_cfa_offset 16
 165              	.LVL11:
  43:main.c        ****     //Testeo de Periferico con interfaz de I2C
  44:main.c        ****     uint8_t ERR=0,data[2];//vALOR DIFERENTE A 0 ES UN ERROR
  45:main.c        ****     
  46:main.c        ****     uint8_t REG = 0xD0;//REGISTRO A LEER
  47:main.c        ****     
  48:main.c        ****     //Mandamos address en WR=0
  49:main.c        ****     ERR = I2C_MasterSendStart(0x76,0);//adress
 166              		.loc 1 49 0
 167 0004 0021     		movs	r1, #0
 168 0006 7620     		movs	r0, #118
 169 0008 FFF7FEFF 		bl	I2C_MasterSendStart
 170              	.LVL12:
  50:main.c        ****     ERR = I2C_MasterWriteByte(REG);//CHIP ID
 171              		.loc 1 50 0
 172 000c D020     		movs	r0, #208
 173 000e FFF7FEFF 		bl	I2C_MasterWriteByte
 174              	.LVL13:
  51:main.c        ****     //Mandamos address en WR=1
  52:main.c        ****     ERR = I2C_MasterSendRestart(0x76,1);//adress
ARM GAS  C:\Users\adria\AppData\Local\Temp\ccWc3R4a.s 			page 5


 175              		.loc 1 52 0
 176 0012 0121     		movs	r1, #1
 177 0014 7620     		movs	r0, #118
 178 0016 FFF7FEFF 		bl	I2C_MasterSendRestart
 179              	.LVL14:
  53:main.c        ****     
  54:main.c        ****     //Leemos los registros
  55:main.c        ****     char i = 0;
 180              		.loc 1 55 0
 181 001a 0024     		movs	r4, #0
  56:main.c        ****     while(i < (3 - 1)) {
 182              		.loc 1 56 0
 183 001c 08E0     		b	.L12
 184              	.LVL15:
 185              	.L13:
  57:main.c        ****         data[i] = I2C_MasterReadByte(I2C_ACK_DATA);//ACK para continuar con el siguiente registro
 186              		.loc 1 57 0
 187 001e 0120     		movs	r0, #1
 188 0020 FFF7FEFF 		bl	I2C_MasterReadByte
 189              	.LVL16:
 190 0024 02AB     		add	r3, sp, #8
 191 0026 2344     		add	r3, r3, r4
 192 0028 03F8040C 		strb	r0, [r3, #-4]
  58:main.c        ****         i++;
 193              		.loc 1 58 0
 194 002c 0134     		adds	r4, r4, #1
 195              	.LVL17:
 196 002e E4B2     		uxtb	r4, r4
 197              	.LVL18:
 198              	.L12:
  56:main.c        ****     while(i < (3 - 1)) {
 199              		.loc 1 56 0
 200 0030 012C     		cmp	r4, #1
 201 0032 F4D9     		bls	.L13
  59:main.c        ****     }
  60:main.c        ****     //Siempre el ultimo registro a leer manda un NAK
  61:main.c        ****     data[i] = I2C_MasterReadByte(I2C_NAK_DATA);
 202              		.loc 1 61 0
 203 0034 0020     		movs	r0, #0
 204 0036 FFF7FEFF 		bl	I2C_MasterReadByte
 205              	.LVL19:
 206 003a 02AB     		add	r3, sp, #8
 207 003c 1C44     		add	r4, r4, r3
 208              	.LVL20:
 209 003e 04F8040C 		strb	r0, [r4, #-4]
  62:main.c        ****     
  63:main.c        ****     ERR = I2C_MasterSendStop();//Paramos la actividad e lectura de registros
 210              		.loc 1 63 0
 211 0042 FFF7FEFF 		bl	I2C_MasterSendStop
 212              	.LVL21:
 213 0046 0446     		mov	r4, r0
 214              	.LVL22:
  64:main.c        ****    
  65:main.c        ****     LCD_Position(0,0);
 215              		.loc 1 65 0
 216 0048 0021     		movs	r1, #0
 217 004a 0846     		mov	r0, r1
ARM GAS  C:\Users\adria\AppData\Local\Temp\ccWc3R4a.s 			page 6


 218 004c FFF7FEFF 		bl	LCD_Position
 219              	.LVL23:
  66:main.c        ****     LCD_PrintNumber(ERR);//Estaus si hay errores en la comunicacion
 220              		.loc 1 66 0
 221 0050 2046     		mov	r0, r4
 222 0052 FFF7FEFF 		bl	LCD_PrintNumber
 223              	.LVL24:
  67:main.c        ****     LCD_Position(1,0);
 224              		.loc 1 67 0
 225 0056 0021     		movs	r1, #0
 226 0058 0120     		movs	r0, #1
 227 005a FFF7FEFF 		bl	LCD_Position
 228              	.LVL25:
  68:main.c        ****     LCD_PrintHex16(data[0]);//INfo capturada
 229              		.loc 1 68 0
 230 005e 9DF80400 		ldrb	r0, [sp, #4]	@ zero_extendqisi2
 231 0062 FFF7FEFF 		bl	LCD_PrintHex16
 232              	.LVL26:
  69:main.c        ****     LCD_Position(1,5);
 233              		.loc 1 69 0
 234 0066 0521     		movs	r1, #5
 235 0068 0120     		movs	r0, #1
 236 006a FFF7FEFF 		bl	LCD_Position
 237              	.LVL27:
  70:main.c        ****     LCD_PrintHex16(data[1]);//INfo capturada
 238              		.loc 1 70 0
 239 006e 9DF80500 		ldrb	r0, [sp, #5]	@ zero_extendqisi2
 240 0072 FFF7FEFF 		bl	LCD_PrintHex16
 241              	.LVL28:
  71:main.c        **** }
 242              		.loc 1 71 0
 243 0076 02B0     		add	sp, sp, #8
 244              		.cfi_def_cfa_offset 8
 245              		@ sp needed
 246 0078 10BD     		pop	{r4, pc}
 247              		.cfi_endproc
 248              	.LFE66:
 249              		.size	TEST, .-TEST
 250 007a 00BF     		.section	.text.main,"ax",%progbits
 251              		.align	2
 252              		.global	main
 253              		.thumb
 254              		.thumb_func
 255              		.type	main, %function
 256              	main:
 257              	.LFB67:
  72:main.c        **** 
  73:main.c        **** int main(void)
  74:main.c        **** {
 258              		.loc 1 74 0
 259              		.cfi_startproc
 260              		@ Volatile: function does not return.
 261              		@ args = 0, pretend = 0, frame = 0
 262              		@ frame_needed = 0, uses_anonymous_args = 0
 263 0000 08B5     		push	{r3, lr}
 264              		.cfi_def_cfa_offset 8
 265              		.cfi_offset 3, -8
ARM GAS  C:\Users\adria\AppData\Local\Temp\ccWc3R4a.s 			page 7


 266              		.cfi_offset 14, -4
  75:main.c        ****     CyGlobalIntEnable;
 267              		.loc 1 75 0
 268              		.syntax unified
 269              	@ 75 "main.c" 1
 270 0002 62B6     		CPSIE   i
 271              	@ 0 "" 2
  76:main.c        ****     
  77:main.c        ****     //Inicializamos perifericos
  78:main.c        ****     LCD_Start();
 272              		.loc 1 78 0
 273              		.thumb
 274              		.syntax unified
 275 0004 FFF7FEFF 		bl	LCD_Start
 276              	.LVL29:
  79:main.c        ****     I2C_Start();
 277              		.loc 1 79 0
 278 0008 FFF7FEFF 		bl	I2C_Start
 279              	.LVL30:
  80:main.c        ****     
  81:main.c        ****     //FUNCION DE TESTE
  82:main.c        ****     //TEST();
  83:main.c        ****     
  84:main.c        ****     //Inicializamos el BME con su configuraciones
  85:main.c        ****     error = bme680_Start(&sensor_bme680);
 280              		.loc 1 85 0
 281 000c 0448     		ldr	r0, .L18
 282 000e FFF7FEFF 		bl	bme680_Start
 283              	.LVL31:
 284 0012 044B     		ldr	r3, .L18+4
 285 0014 1874     		strb	r0, [r3, #16]
 286              	.L16:
  86:main.c        ****     
  87:main.c        ****     for(;;)
  88:main.c        ****     {
  89:main.c        ****         //SENSAMOS
  90:main.c        ****         sense();
 287              		.loc 1 90 0 discriminator 1
 288 0016 FFF7FEFF 		bl	sense
 289              	.LVL32:
  91:main.c        ****         
  92:main.c        ****         //MOSTRAMOS DATOS SENSADOS
  93:main.c        ****         show();
 290              		.loc 1 93 0 discriminator 1
 291 001a FFF7FEFF 		bl	show
 292              	.LVL33:
 293 001e FAE7     		b	.L16
 294              	.L19:
 295              		.align	2
 296              	.L18:
 297 0020 00000000 		.word	sensor_bme680
 298 0024 00000000 		.word	.LANCHOR0
 299              		.cfi_endproc
 300              	.LFE67:
 301              		.size	main, .-main
 302              		.global	etiquetas
 303              		.global	lecturas
ARM GAS  C:\Users\adria\AppData\Local\Temp\ccWc3R4a.s 			page 8


 304              		.comm	datos_bme680,20,4
 305              		.global	error
 306              		.comm	sensor_bme680,88,4
 307              		.data
 308              		.align	2
 309              		.set	.LANCHOR1,. + 0
 310              		.type	etiquetas, %object
 311              		.size	etiquetas, 16
 312              	etiquetas:
 313 0000 00000000 		.word	.LC0
 314 0004 10000000 		.word	.LC1
 315 0008 18000000 		.word	.LC2
 316 000c 20000000 		.word	.LC3
 317              		.section	.rodata.str1.4,"aMS",%progbits,1
 318              		.align	2
 319              	.LC0:
 320 0000 43616C69 		.ascii	"Calidad de aire\000"
 320      64616420 
 320      64652061 
 320      69726500 
 321              	.LC1:
 322 0010 48756D65 		.ascii	"Humedad\000"
 322      64616400 
 323              	.LC2:
 324 0018 50726573 		.ascii	"Presion\000"
 324      696F6E00 
 325              	.LC3:
 326 0020 54656D70 		.ascii	"Temperatura\000"
 326      65726174 
 326      75726100 
 327              		.bss
 328              		.align	2
 329              		.set	.LANCHOR0,. + 0
 330              		.type	lecturas, %object
 331              		.size	lecturas, 16
 332              	lecturas:
 333 0000 00000000 		.space	16
 333      00000000 
 333      00000000 
 333      00000000 
 334              		.type	error, %object
 335              		.size	error, 1
 336              	error:
 337 0010 00       		.space	1
 338              		.text
 339              	.Letext0:
 340              		.file 2 "c:\\program files (x86)\\cypress\\psoc creator\\4.4\\psoc creator\\import\\gnu\\arm\\5.4.
 341              		.file 3 "c:\\program files (x86)\\cypress\\psoc creator\\4.4\\psoc creator\\import\\gnu\\arm\\5.4.
 342              		.file 4 "bme680_defs.h"
 343              		.file 5 "bme680.h"
 344              		.file 6 "Generated_Source\\PSoC5/core_cm3.h"
 345              		.file 7 "..\\..\\..\\psoc\\lcd_7seg\\Workspace01\\LCD.cydsn\\PSOC_LCD.h"
 346              		.file 8 "Generated_Source\\PSoC5/CyLib.h"
 347              		.file 9 "Generated_Source\\PSoC5/I2C.h"